Certificate:
    Data:
        Version: 3 (0x2)
        Serial Number: 3 (0x3)
        Signature Algorithm: ecdsa-with-SHA256
        Issuer: CN=Regione Sardegna, C=IT, ST=Italia, O=E-Voting system, OU=E-Voting system authority/emailAddress=Sardegna@evoting.it
        Validity
            Not Before: Aug  3 13:26:02 2022 GMT
            Not After : Aug  3 13:26:02 2023 GMT
        Subject: CN=Reynaldo, C=IT, ST=Italia, O=Regione Sardegna
        Subject Public Key Info:
            Public Key Algorithm: id-ecPublicKey
                Public-Key: (256 bit)
                pub:
                    04:5c:03:3c:9b:d0:37:52:e0:f8:9c:6d:9d:a3:db:
                    e1:7d:d1:d1:7a:30:57:be:0f:6b:9c:c3:c9:1c:b2:
                    1c:93:d5:7c:13:49:83:ff:e5:77:fd:43:6a:e8:1f:
                    81:c3:1b:d8:21:18:38:e0:9b:80:56:0e:8e:7c:33:
                    56:40:ce:2d:cc
                ASN1 OID: prime256v1
                NIST CURVE: P-256
        X509v3 extensions:
            X509v3 Key Usage: critical
                Digital Signature, Key Encipherment
            X509v3 Basic Constraints: critical
                CA:FALSE, pathlen:3
    Signature Algorithm: ecdsa-with-SHA256
         30:46:02:21:00:ca:c5:a5:2e:4a:de:fd:4a:be:5c:32:98:91:
         be:11:e6:25:71:14:d4:f5:b6:7c:15:db:44:9c:ed:a4:36:03:
         d2:02:21:00:d1:22:9f:9e:d4:d0:27:8f:b6:eb:d7:30:a6:15:
         2c:1a:bd:d1:aa:81:3a:79:14:65:ea:d0:8f:3a:f2:0c:e6:f2
-----BEGIN CERTIFICATE-----
MIIB+zCCAaCgAwIBAgIBAzAKBggqhkjOPQQDAjCBmzEZMBcGA1UEAwwQUmVnaW9u
ZSBTYXJkZWduYTELMAkGA1UEBhMCSVQxDzANBgNVBAgMBkl0YWxpYTEYMBYGA1UE
CgwPRS1Wb3Rpbmcgc3lzdGVtMSIwIAYDVQQLDBlFLVZvdGluZyBzeXN0ZW0gYXV0
aG9yaXR5MSIwIAYJKoZIhvcNAQkBFhNTYXJkZWduYUBldm90aW5nLml0MB4XDTIy
MDgwMzEzMjYwMloXDTIzMDgwMzEzMjYwMlowTDERMA8GA1UEAwwIUmV5bmFsZG8x
CzAJBgNVBAYTAklUMQ8wDQYDVQQIDAZJdGFsaWExGTAXBgNVBAoMEFJlZ2lvbmUg
U2FyZGVnbmEwWTATBgcqhkjOPQIBBggqhkjOPQMBBwNCAARcAzyb0DdS4PicbZ2j
2+F90dF6MFe+D2ucw8kcshyT1XwTSYP/5Xf9Q2roH4HDG9ghGDjgm4BWDo58M1ZA
zi3MoyMwITAOBgNVHQ8BAf8EBAMCBaAwDwYDVR0TAQH/BAUwAwIBAzAKBggqhkjO
PQQDAgNJADBGAiEAysWlLkre/Uq+XDKYkb4R5iVxFNT1tnwV20Sc7aQ2A9ICIQDR
Ip+e1NAnj7br1zCmFSwavdGqgTp5FGXq0I868gzm8g==
-----END CERTIFICATE-----
