Certificate:
    Data:
        Version: 3 (0x2)
        Serial Number: 6 (0x6)
        Signature Algorithm: ecdsa-with-SHA256
        Issuer: CN=Regione Sardegna, C=IT, ST=Italia, O=E-Voting system, OU=E-Voting system authority/emailAddress=Sardegna@evoting.it
        Validity
            Not Before: Aug  3 13:26:19 2022 GMT
            Not After : Aug  3 13:26:19 2023 GMT
        Subject: CN=Nelson, C=IT, ST=Italia, O=Regione Sardegna
        Subject Public Key Info:
            Public Key Algorithm: id-ecPublicKey
                Public-Key: (256 bit)
                pub:
                    04:f1:de:ee:2c:cb:27:cb:75:12:5c:d1:a4:55:0e:
                    9d:bb:6b:7e:10:44:a2:b9:81:1b:6c:6b:97:61:94:
                    68:c9:12:ec:d3:7e:e3:b5:26:cf:ec:6a:1c:f4:29:
                    ec:bd:4e:b1:e0:00:bf:75:4c:e4:c9:5b:59:a0:f3:
                    cc:db:d6:1a:a7
                ASN1 OID: prime256v1
                NIST CURVE: P-256
        X509v3 extensions:
            X509v3 Key Usage: critical
                Digital Signature, Key Encipherment
            X509v3 Basic Constraints: critical
                CA:FALSE, pathlen:3
    Signature Algorithm: ecdsa-with-SHA256
         30:45:02:21:00:9e:0c:88:d0:ae:f0:1b:05:02:69:11:40:0e:
         43:dd:1e:8c:5b:b3:5c:ad:ad:01:b1:b6:12:cf:2c:97:95:61:
         86:02:20:5b:19:1d:fb:39:10:f1:6d:b7:77:c1:2f:fd:84:93:
         3b:09:4a:6a:76:e2:92:80:ee:a5:8c:e3:25:cd:0e:bd:79
-----BEGIN CERTIFICATE-----
MIIB+DCCAZ6gAwIBAgIBBjAKBggqhkjOPQQDAjCBmzEZMBcGA1UEAwwQUmVnaW9u
ZSBTYXJkZWduYTELMAkGA1UEBhMCSVQxDzANBgNVBAgMBkl0YWxpYTEYMBYGA1UE
CgwPRS1Wb3Rpbmcgc3lzdGVtMSIwIAYDVQQLDBlFLVZvdGluZyBzeXN0ZW0gYXV0
aG9yaXR5MSIwIAYJKoZIhvcNAQkBFhNTYXJkZWduYUBldm90aW5nLml0MB4XDTIy
MDgwMzEzMjYxOVoXDTIzMDgwMzEzMjYxOVowSjEPMA0GA1UEAwwGTmVsc29uMQsw
CQYDVQQGEwJJVDEPMA0GA1UECAwGSXRhbGlhMRkwFwYDVQQKDBBSZWdpb25lIFNh
cmRlZ25hMFkwEwYHKoZIzj0CAQYIKoZIzj0DAQcDQgAE8d7uLMsny3USXNGkVQ6d
u2t+EESiuYEbbGuXYZRoyRLs037jtSbP7Goc9CnsvU6x4AC/dUzkyVtZoPPM29Ya
p6MjMCEwDgYDVR0PAQH/BAQDAgWgMA8GA1UdEwEB/wQFMAMCAQMwCgYIKoZIzj0E
AwIDSAAwRQIhAJ4MiNCu8BsFAmkRQA5D3R6MW7Ncra0BsbYSzyyXlWGGAiBbGR37
ORDxbbd3wS/9hJM7CUpqduKSgO6ljOMlzQ69eQ==
-----END CERTIFICATE-----
