Certificate:
    Data:
        Version: 3 (0x2)
        Serial Number: 8 (0x8)
        Signature Algorithm: ecdsa-with-SHA256
        Issuer: CN=Regione Sardegna, C=IT, ST=Italia, O=E-Voting system, OU=E-Voting system authority/emailAddress=Sardegna@evoting.it
        Validity
            Not Before: Aug  3 13:26:30 2022 GMT
            Not After : Aug  3 13:26:30 2023 GMT
        Subject: CN=Dominick, C=IT, ST=Italia, O=Regione Sardegna
        Subject Public Key Info:
            Public Key Algorithm: id-ecPublicKey
                Public-Key: (256 bit)
                pub:
                    04:ec:a7:8e:c7:31:f2:43:73:90:30:43:7c:3a:db:
                    ef:2f:09:45:5f:70:e2:61:fd:fd:1a:4a:13:19:dd:
                    01:35:f0:d3:21:87:4b:61:a6:cd:2c:86:42:93:f8:
                    62:ed:a0:7a:f0:ab:de:d0:23:3c:b9:99:57:44:91:
                    0a:1a:40:f4:14
                ASN1 OID: prime256v1
                NIST CURVE: P-256
        X509v3 extensions:
            X509v3 Key Usage: critical
                Digital Signature, Key Encipherment
            X509v3 Basic Constraints: critical
                CA:FALSE, pathlen:3
    Signature Algorithm: ecdsa-with-SHA256
         30:46:02:21:00:b3:59:85:0d:d3:03:9e:d3:2c:14:78:4f:56:
         9b:8e:71:27:83:47:82:80:69:9c:dd:4d:34:50:1f:2d:ab:96:
         91:02:21:00:ab:1c:59:f6:0c:40:df:6f:aa:d2:25:19:17:de:
         e8:87:ad:32:9f:fe:f9:33:98:d2:4e:1f:7f:46:ff:c3:c7:03
-----BEGIN CERTIFICATE-----
MIIB+zCCAaCgAwIBAgIBCDAKBggqhkjOPQQDAjCBmzEZMBcGA1UEAwwQUmVnaW9u
ZSBTYXJkZWduYTELMAkGA1UEBhMCSVQxDzANBgNVBAgMBkl0YWxpYTEYMBYGA1UE
CgwPRS1Wb3Rpbmcgc3lzdGVtMSIwIAYDVQQLDBlFLVZvdGluZyBzeXN0ZW0gYXV0
aG9yaXR5MSIwIAYJKoZIhvcNAQkBFhNTYXJkZWduYUBldm90aW5nLml0MB4XDTIy
MDgwMzEzMjYzMFoXDTIzMDgwMzEzMjYzMFowTDERMA8GA1UEAwwIRG9taW5pY2sx
CzAJBgNVBAYTAklUMQ8wDQYDVQQIDAZJdGFsaWExGTAXBgNVBAoMEFJlZ2lvbmUg
U2FyZGVnbmEwWTATBgcqhkjOPQIBBggqhkjOPQMBBwNCAATsp47HMfJDc5AwQ3w6
2+8vCUVfcOJh/f0aShMZ3QE18NMhh0thps0shkKT+GLtoHrwq97QIzy5mVdEkQoa
QPQUoyMwITAOBgNVHQ8BAf8EBAMCBaAwDwYDVR0TAQH/BAUwAwIBAzAKBggqhkjO
PQQDAgNJADBGAiEAs1mFDdMDntMsFHhPVpuOcSeDR4KAaZzdTTRQHy2rlpECIQCr
HFn2DEDfb6rSJRkX3uiHrTKf/vkzmNJOH39G/8PHAw==
-----END CERTIFICATE-----
