Certificate:
    Data:
        Version: 3 (0x2)
        Serial Number: 8 (0x8)
        Signature Algorithm: ecdsa-with-SHA256
        Issuer: CN=Regione Lombardia, C=IT, ST=Italia, O=E-Voting system, OU=E-Voting system authority/emailAddress=Lombardia@evoting.it
        Validity
            Not Before: Aug 26 15:19:20 2022 GMT
            Not After : Aug 26 15:19:20 2023 GMT
        Subject: CN=Latoya, C=IT, ST=Italia, O=Regione Lombardia
        Subject Public Key Info:
            Public Key Algorithm: id-ecPublicKey
                Public-Key: (256 bit)
                pub:
                    04:d4:11:51:c4:d9:ba:ee:6d:7c:a5:8c:eb:e7:00:
                    2b:0a:8d:25:eb:d0:e2:63:c0:2f:e5:50:e9:ae:b5:
                    1e:c5:54:12:37:f8:57:c0:4f:51:a4:08:51:5b:33:
                    9c:03:a1:5e:af:6d:57:42:73:1a:1e:06:d1:3e:56:
                    de:6e:40:9d:d3
                ASN1 OID: secp256k1
        X509v3 extensions:
            X509v3 Key Usage: critical
                Digital Signature, Key Encipherment
            X509v3 Basic Constraints: critical
                CA:FALSE, pathlen:3
    Signature Algorithm: ecdsa-with-SHA256
         30:46:02:21:00:b5:b9:8a:50:89:83:bc:be:92:e7:fe:06:74:
         c5:64:9e:d5:0d:87:ca:b3:40:de:44:48:87:66:5c:5f:1e:c0:
         97:02:21:00:e1:85:2f:63:d4:bb:c9:ed:88:42:71:39:40:07:
         4d:bc:fc:51:0c:6a:6b:d6:63:ef:75:1b:0e:2f:b4:64:4f:36
-----BEGIN CERTIFICATE-----
MIIB+TCCAZ6gAwIBAgIBCDAKBggqhkjOPQQDAjCBnTEaMBgGA1UEAwwRUmVnaW9u
ZSBMb21iYXJkaWExCzAJBgNVBAYTAklUMQ8wDQYDVQQIDAZJdGFsaWExGDAWBgNV
BAoMD0UtVm90aW5nIHN5c3RlbTEiMCAGA1UECwwZRS1Wb3Rpbmcgc3lzdGVtIGF1
dGhvcml0eTEjMCEGCSqGSIb3DQEJARYUTG9tYmFyZGlhQGV2b3RpbmcuaXQwHhcN
MjIwODI2MTUxOTIwWhcNMjMwODI2MTUxOTIwWjBLMQ8wDQYDVQQDDAZMYXRveWEx
CzAJBgNVBAYTAklUMQ8wDQYDVQQIDAZJdGFsaWExGjAYBgNVBAoMEVJlZ2lvbmUg
TG9tYmFyZGlhMFYwEAYHKoZIzj0CAQYFK4EEAAoDQgAE1BFRxNm67m18pYzr5wAr
Co0l69DiY8Av5VDprrUexVQSN/hXwE9RpAhRWzOcA6Fer21XQnMaHgbRPlbebkCd
06MjMCEwDgYDVR0PAQH/BAQDAgWgMA8GA1UdEwEB/wQFMAMCAQMwCgYIKoZIzj0E
AwIDSQAwRgIhALW5ilCJg7y+kuf+BnTFZJ7VDYfKs0DeREiHZlxfHsCXAiEA4YUv
Y9S7ye2IQnE5QAdNvPxRDGpr1mPvdRsOL7RkTzY=
-----END CERTIFICATE-----
