Certificate:
    Data:
        Version: 3 (0x2)
        Serial Number: 10 (0xa)
        Signature Algorithm: ecdsa-with-SHA256
        Issuer: CN=Regione Veneto, C=IT, ST=Italia, O=E-Voting system, OU=E-Voting system authority/emailAddress=Veneto@evoting.it
        Validity
            Not Before: Aug 26 15:19:26 2022 GMT
            Not After : Aug 26 15:19:26 2023 GMT
        Subject: CN=Fred, C=IT, ST=Italia, O=Regione Veneto
        Subject Public Key Info:
            Public Key Algorithm: id-ecPublicKey
                Public-Key: (256 bit)
                pub:
                    04:c4:47:d6:25:f5:f1:cd:e3:5b:cc:24:84:c2:c9:
                    b5:ea:ba:a3:84:a5:d3:63:22:56:78:2c:98:79:c6:
                    47:e4:86:49:64:59:9a:e3:a7:ae:7c:4b:41:90:6e:
                    f0:5c:87:cd:7d:8f:9e:7d:7c:e0:de:9a:d5:ff:3e:
                    19:78:3d:1d:89
                ASN1 OID: secp256k1
        X509v3 extensions:
            X509v3 Key Usage: critical
                Digital Signature, Key Encipherment
            X509v3 Basic Constraints: critical
                CA:FALSE, pathlen:3
    Signature Algorithm: ecdsa-with-SHA256
         30:45:02:20:4b:b0:f8:0c:8e:fa:ee:ef:43:4f:78:4d:56:82:
         9c:5d:30:70:e9:9c:c6:5f:b9:83:72:c0:52:62:e3:b8:2a:64:
         02:21:00:cc:83:39:85:b6:b1:53:4f:95:94:ac:1c:45:52:41:
         ef:49:48:81:7d:e7:a6:30:45:4e:1b:a4:2c:20:c0:ed:54
-----BEGIN CERTIFICATE-----
MIIB7TCCAZOgAwIBAgIBCjAKBggqhkjOPQQDAjCBlzEXMBUGA1UEAwwOUmVnaW9u
ZSBWZW5ldG8xCzAJBgNVBAYTAklUMQ8wDQYDVQQIDAZJdGFsaWExGDAWBgNVBAoM
D0UtVm90aW5nIHN5c3RlbTEiMCAGA1UECwwZRS1Wb3Rpbmcgc3lzdGVtIGF1dGhv
cml0eTEgMB4GCSqGSIb3DQEJARYRVmVuZXRvQGV2b3RpbmcuaXQwHhcNMjIwODI2
MTUxOTI2WhcNMjMwODI2MTUxOTI2WjBGMQ0wCwYDVQQDDARGcmVkMQswCQYDVQQG
EwJJVDEPMA0GA1UECAwGSXRhbGlhMRcwFQYDVQQKDA5SZWdpb25lIFZlbmV0bzBW
MBAGByqGSM49AgEGBSuBBAAKA0IABMRH1iX18c3jW8wkhMLJteq6o4Sl02MiVngs
mHnGR+SGSWRZmuOnrnxLQZBu8FyHzX2Pnn184N6a1f8+GXg9HYmjIzAhMA4GA1Ud
DwEB/wQEAwIFoDAPBgNVHRMBAf8EBTADAgEDMAoGCCqGSM49BAMCA0gAMEUCIEuw
+AyO+u7vQ094TVaCnF0wcOmcxl+5g3LAUmLjuCpkAiEAzIM5hbaxU0+VlKwcRVJB
70lIgX3npjBFThukLCDA7VQ=
-----END CERTIFICATE-----
