Certificate:
    Data:
        Version: 3 (0x2)
        Serial Number: 12 (0xc)
        Signature Algorithm: ecdsa-with-SHA256
        Issuer: CN=Regione Veneto, C=IT, ST=Italia, O=E-Voting system, OU=E-Voting system authority/emailAddress=Veneto@evoting.it
        Validity
            Not Before: Aug 26 15:19:52 2022 GMT
            Not After : Aug 26 15:19:52 2023 GMT
        Subject: CN=Virginia, C=IT, ST=Italia, O=Regione Veneto
        Subject Public Key Info:
            Public Key Algorithm: id-ecPublicKey
                Public-Key: (256 bit)
                pub:
                    04:8e:60:38:27:c9:61:9a:c6:e4:2a:95:72:f1:0d:
                    cd:ac:f7:be:a5:5d:09:64:70:26:27:77:0c:57:89:
                    1c:7f:f7:0e:ae:23:79:eb:30:26:e2:0e:8e:a5:69:
                    2a:b5:fe:a6:ec:43:d4:98:25:f6:39:07:36:58:7f:
                    aa:20:07:50:af
                ASN1 OID: secp256k1
        X509v3 extensions:
            X509v3 Key Usage: critical
                Digital Signature, Key Encipherment
            X509v3 Basic Constraints: critical
                CA:FALSE, pathlen:3
    Signature Algorithm: ecdsa-with-SHA256
         30:44:02:20:44:02:eb:49:25:95:6c:82:0f:39:5b:e2:bb:8e:
         39:bf:7d:23:e1:d6:8f:b9:39:2b:c9:27:64:3a:47:0d:39:84:
         02:20:30:b9:de:21:67:9c:77:c3:ac:ef:2f:de:57:5e:d6:bd:
         00:58:1e:4a:c0:8e:95:6e:ae:be:7a:d2:c6:43:4d:0d
-----BEGIN CERTIFICATE-----
MIIB8DCCAZegAwIBAgIBDDAKBggqhkjOPQQDAjCBlzEXMBUGA1UEAwwOUmVnaW9u
ZSBWZW5ldG8xCzAJBgNVBAYTAklUMQ8wDQYDVQQIDAZJdGFsaWExGDAWBgNVBAoM
D0UtVm90aW5nIHN5c3RlbTEiMCAGA1UECwwZRS1Wb3Rpbmcgc3lzdGVtIGF1dGhv
cml0eTEgMB4GCSqGSIb3DQEJARYRVmVuZXRvQGV2b3RpbmcuaXQwHhcNMjIwODI2
MTUxOTUyWhcNMjMwODI2MTUxOTUyWjBKMREwDwYDVQQDDAhWaXJnaW5pYTELMAkG
A1UEBhMCSVQxDzANBgNVBAgMBkl0YWxpYTEXMBUGA1UECgwOUmVnaW9uZSBWZW5l
dG8wVjAQBgcqhkjOPQIBBgUrgQQACgNCAASOYDgnyWGaxuQqlXLxDc2s976lXQlk
cCYndwxXiRx/9w6uI3nrMCbiDo6laSq1/qbsQ9SYJfY5BzZYf6ogB1CvoyMwITAO
BgNVHQ8BAf8EBAMCBaAwDwYDVR0TAQH/BAUwAwIBAzAKBggqhkjOPQQDAgNHADBE
AiBEAutJJZVsgg85W+K7jjm/fSPh1o+5OSvJJ2Q6Rw05hAIgMLneIWecd8Os7y/e
V17WvQBYHkrAjpVurr560sZDTQ0=
-----END CERTIFICATE-----
