Certificate:
    Data:
        Version: 3 (0x2)
        Serial Number: 12 (0xc)
        Signature Algorithm: ecdsa-with-SHA256
        Issuer: CN=Regione Sicilia, C=IT, ST=Italia, O=E-Voting system, OU=E-Voting system authority/emailAddress=Sicilia@evoting.it
        Validity
            Not Before: Aug  3 13:26:52 2022 GMT
            Not After : Aug  3 13:26:52 2023 GMT
        Subject: CN=Roger, C=IT, ST=Italia, O=Regione Sicilia
        Subject Public Key Info:
            Public Key Algorithm: id-ecPublicKey
                Public-Key: (256 bit)
                pub:
                    04:bb:d6:7c:c6:39:bd:6b:58:16:f4:61:2d:78:a8:
                    1e:1e:be:80:c2:f8:11:b0:5a:49:ab:89:b6:3d:ae:
                    be:55:3f:f5:1c:c9:12:4a:9a:e5:f1:94:10:d0:aa:
                    a5:3c:03:87:78:df:32:e7:b0:48:45:29:b8:87:a0:
                    71:c3:14:b1:58
                ASN1 OID: prime256v1
                NIST CURVE: P-256
        X509v3 extensions:
            X509v3 Key Usage: critical
                Digital Signature, Key Encipherment
            X509v3 Basic Constraints: critical
                CA:FALSE, pathlen:3
    Signature Algorithm: ecdsa-with-SHA256
         30:45:02:20:55:a4:91:f0:1e:06:aa:67:8b:8f:bf:27:83:61:
         2a:94:f7:6b:71:cb:46:7d:28:61:08:77:08:1b:7e:6c:08:f7:
         02:21:00:de:73:6e:b7:8f:5f:d7:85:1d:56:71:a0:0c:9a:20:
         af:82:38:22:6d:48:3b:2d:78:8c:07:3a:95:d3:04:35:f1
-----BEGIN CERTIFICATE-----
MIIB9DCCAZqgAwIBAgIBDDAKBggqhkjOPQQDAjCBmTEYMBYGA1UEAwwPUmVnaW9u
ZSBTaWNpbGlhMQswCQYDVQQGEwJJVDEPMA0GA1UECAwGSXRhbGlhMRgwFgYDVQQK
DA9FLVZvdGluZyBzeXN0ZW0xIjAgBgNVBAsMGUUtVm90aW5nIHN5c3RlbSBhdXRo
b3JpdHkxITAfBgkqhkiG9w0BCQEWElNpY2lsaWFAZXZvdGluZy5pdDAeFw0yMjA4
MDMxMzI2NTJaFw0yMzA4MDMxMzI2NTJaMEgxDjAMBgNVBAMMBVJvZ2VyMQswCQYD
VQQGEwJJVDEPMA0GA1UECAwGSXRhbGlhMRgwFgYDVQQKDA9SZWdpb25lIFNpY2ls
aWEwWTATBgcqhkjOPQIBBggqhkjOPQMBBwNCAAS71nzGOb1rWBb0YS14qB4evoDC
+BGwWkmribY9rr5VP/UcyRJKmuXxlBDQqqU8A4d43zLnsEhFKbiHoHHDFLFYoyMw
ITAOBgNVHQ8BAf8EBAMCBaAwDwYDVR0TAQH/BAUwAwIBAzAKBggqhkjOPQQDAgNI
ADBFAiBVpJHwHgaqZ4uPvyeDYSqU92txy0Z9KGEIdwgbfmwI9wIhAN5zbrePX9eF
HVZxoAyaIK+COCJtSDsteIwHOpXTBDXx
-----END CERTIFICATE-----
