Certificate:
    Data:
        Version: 3 (0x2)
        Serial Number: 13 (0xd)
        Signature Algorithm: ecdsa-with-SHA256
        Issuer: CN=Regione Sicilia, C=IT, ST=Italia, O=E-Voting system, OU=E-Voting system authority/emailAddress=Sicilia@evoting.it
        Validity
            Not Before: Aug  3 13:26:55 2022 GMT
            Not After : Aug  3 13:26:55 2023 GMT
        Subject: CN=Mayra, C=IT, ST=Italia, O=Regione Sicilia
        Subject Public Key Info:
            Public Key Algorithm: id-ecPublicKey
                Public-Key: (256 bit)
                pub:
                    04:a1:b1:f9:c2:44:3d:fd:6c:01:e9:7e:7c:54:ee:
                    19:cf:91:be:90:45:49:12:c8:23:3b:46:24:58:5c:
                    73:58:21:25:dc:2f:8b:81:b2:f2:02:9a:99:ee:6e:
                    8c:53:8a:8a:b3:52:ab:ca:7d:03:7b:e7:ef:d8:1d:
                    df:1b:62:59:f8
                ASN1 OID: prime256v1
                NIST CURVE: P-256
        X509v3 extensions:
            X509v3 Key Usage: critical
                Digital Signature, Key Encipherment
            X509v3 Basic Constraints: critical
                CA:FALSE, pathlen:3
    Signature Algorithm: ecdsa-with-SHA256
         30:45:02:21:00:db:76:68:63:7f:74:9a:ae:89:da:21:74:87:
         bb:12:4a:e1:ea:4f:53:37:a5:31:f0:9b:83:49:72:2a:eb:e2:
         3b:02:20:2d:1f:a9:6e:ba:ee:6a:71:f0:e8:2b:a2:01:0c:d0:
         1a:e6:51:6e:52:a5:0d:49:a5:31:ac:5a:e1:d6:9b:cf:ac
-----BEGIN CERTIFICATE-----
MIIB9DCCAZqgAwIBAgIBDTAKBggqhkjOPQQDAjCBmTEYMBYGA1UEAwwPUmVnaW9u
ZSBTaWNpbGlhMQswCQYDVQQGEwJJVDEPMA0GA1UECAwGSXRhbGlhMRgwFgYDVQQK
DA9FLVZvdGluZyBzeXN0ZW0xIjAgBgNVBAsMGUUtVm90aW5nIHN5c3RlbSBhdXRo
b3JpdHkxITAfBgkqhkiG9w0BCQEWElNpY2lsaWFAZXZvdGluZy5pdDAeFw0yMjA4
MDMxMzI2NTVaFw0yMzA4MDMxMzI2NTVaMEgxDjAMBgNVBAMMBU1heXJhMQswCQYD
VQQGEwJJVDEPMA0GA1UECAwGSXRhbGlhMRgwFgYDVQQKDA9SZWdpb25lIFNpY2ls
aWEwWTATBgcqhkjOPQIBBggqhkjOPQMBBwNCAAShsfnCRD39bAHpfnxU7hnPkb6Q
RUkSyCM7RiRYXHNYISXcL4uBsvICmpnuboxTioqzUqvKfQN75+/YHd8bYln4oyMw
ITAOBgNVHQ8BAf8EBAMCBaAwDwYDVR0TAQH/BAUwAwIBAzAKBggqhkjOPQQDAgNI
ADBFAiEA23ZoY390mq6J2iF0h7sSSuHqT1M3pTHwm4NJcirr4jsCIC0fqW667mpx
8OgrogEM0BrmUW5SpQ1JpTGsWuHWm8+s
-----END CERTIFICATE-----
