Certificate:
    Data:
        Version: 3 (0x2)
        Serial Number: 17 (0x11)
        Signature Algorithm: ecdsa-with-SHA256
        Issuer: CN=Regione Sardegna, C=IT, ST=Italia, O=E-Voting system, OU=E-Voting system authority/emailAddress=Sardegna@evoting.it
        Validity
            Not Before: Aug  3 13:27:10 2022 GMT
            Not After : Aug  3 13:27:10 2023 GMT
        Subject: CN=Willie, C=IT, ST=Italia, O=Regione Sardegna
        Subject Public Key Info:
            Public Key Algorithm: id-ecPublicKey
                Public-Key: (256 bit)
                pub:
                    04:43:12:d6:58:9a:9f:55:39:81:f0:25:7e:7c:19:
                    af:e9:52:27:80:8f:23:bf:c2:be:49:bc:2e:15:56:
                    37:5d:12:87:2c:be:f8:df:10:83:bc:f7:8f:61:45:
                    73:5f:c1:73:f0:88:51:8e:08:86:0e:7a:d7:14:cb:
                    33:4e:b7:b6:9e
                ASN1 OID: prime256v1
                NIST CURVE: P-256
        X509v3 extensions:
            X509v3 Key Usage: critical
                Digital Signature, Key Encipherment
            X509v3 Basic Constraints: critical
                CA:FALSE, pathlen:3
    Signature Algorithm: ecdsa-with-SHA256
         30:46:02:21:00:f9:f8:5e:b6:58:8c:f9:a5:c4:3f:b0:1f:12:
         a4:a2:2c:6e:bb:5a:ec:2b:13:27:0d:59:bb:cb:02:20:75:08:
         b3:02:21:00:d8:aa:1b:55:35:e4:69:35:4b:51:4a:37:1d:45:
         ec:3c:94:a2:f1:9e:b9:62:ac:35:bb:18:14:27:a9:4a:0a:c9
-----BEGIN CERTIFICATE-----
MIIB+TCCAZ6gAwIBAgIBETAKBggqhkjOPQQDAjCBmzEZMBcGA1UEAwwQUmVnaW9u
ZSBTYXJkZWduYTELMAkGA1UEBhMCSVQxDzANBgNVBAgMBkl0YWxpYTEYMBYGA1UE
CgwPRS1Wb3Rpbmcgc3lzdGVtMSIwIAYDVQQLDBlFLVZvdGluZyBzeXN0ZW0gYXV0
aG9yaXR5MSIwIAYJKoZIhvcNAQkBFhNTYXJkZWduYUBldm90aW5nLml0MB4XDTIy
MDgwMzEzMjcxMFoXDTIzMDgwMzEzMjcxMFowSjEPMA0GA1UEAwwGV2lsbGllMQsw
CQYDVQQGEwJJVDEPMA0GA1UECAwGSXRhbGlhMRkwFwYDVQQKDBBSZWdpb25lIFNh
cmRlZ25hMFkwEwYHKoZIzj0CAQYIKoZIzj0DAQcDQgAEQxLWWJqfVTmB8CV+fBmv
6VIngI8jv8K+SbwuFVY3XRKHLL743xCDvPePYUVzX8Fz8IhRjgiGDnrXFMszTre2
nqMjMCEwDgYDVR0PAQH/BAQDAgWgMA8GA1UdEwEB/wQFMAMCAQMwCgYIKoZIzj0E
AwIDSQAwRgIhAPn4XrZYjPmlxD+wHxKkoixuu1rsKxMnDVm7ywIgdQizAiEA2Kob
VTXkaTVLUUo3HUXsPJSi8Z65Yqw1uxgUJ6lKCsk=
-----END CERTIFICATE-----
