Certificate:
    Data:
        Version: 3 (0x2)
        Serial Number: 18 (0x12)
        Signature Algorithm: ecdsa-with-SHA256
        Issuer: CN=Regione Sardegna, C=IT, ST=Italia, O=E-Voting system, OU=E-Voting system authority/emailAddress=Sardegna@evoting.it
        Validity
            Not Before: Aug  3 13:27:12 2022 GMT
            Not After : Aug  3 13:27:12 2023 GMT
        Subject: CN=Joann, C=IT, ST=Italia, O=Regione Sardegna
        Subject Public Key Info:
            Public Key Algorithm: id-ecPublicKey
                Public-Key: (256 bit)
                pub:
                    04:7b:dd:a8:a9:26:dc:ba:2c:c8:d0:bd:38:1b:d1:
                    72:f2:24:44:56:49:11:76:2d:da:73:c5:3e:f6:f8:
                    f0:d8:0d:49:6f:95:29:87:f1:08:60:2f:67:57:86:
                    5a:a4:0f:93:30:64:15:91:fb:41:58:b9:d5:c3:ba:
                    b7:7c:da:e0:37
                ASN1 OID: prime256v1
                NIST CURVE: P-256
        X509v3 extensions:
            X509v3 Key Usage: critical
                Digital Signature, Key Encipherment
            X509v3 Basic Constraints: critical
                CA:FALSE, pathlen:3
    Signature Algorithm: ecdsa-with-SHA256
         30:44:02:20:38:5a:26:c2:c9:11:90:21:ac:1c:58:d9:e8:c9:
         74:74:8c:22:1f:3c:67:31:43:7c:dc:ba:bb:98:10:ad:e4:28:
         02:20:6c:1e:fe:41:3b:2f:75:5c:e7:54:3e:bf:37:3d:76:64:
         04:8a:e9:f3:bc:77:5a:87:5a:8b:39:27:dc:69:c3:a6
-----BEGIN CERTIFICATE-----
MIIB9jCCAZ2gAwIBAgIBEjAKBggqhkjOPQQDAjCBmzEZMBcGA1UEAwwQUmVnaW9u
ZSBTYXJkZWduYTELMAkGA1UEBhMCSVQxDzANBgNVBAgMBkl0YWxpYTEYMBYGA1UE
CgwPRS1Wb3Rpbmcgc3lzdGVtMSIwIAYDVQQLDBlFLVZvdGluZyBzeXN0ZW0gYXV0
aG9yaXR5MSIwIAYJKoZIhvcNAQkBFhNTYXJkZWduYUBldm90aW5nLml0MB4XDTIy
MDgwMzEzMjcxMloXDTIzMDgwMzEzMjcxMlowSTEOMAwGA1UEAwwFSm9hbm4xCzAJ
BgNVBAYTAklUMQ8wDQYDVQQIDAZJdGFsaWExGTAXBgNVBAoMEFJlZ2lvbmUgU2Fy
ZGVnbmEwWTATBgcqhkjOPQIBBggqhkjOPQMBBwNCAAR73aipJty6LMjQvTgb0XLy
JERWSRF2LdpzxT72+PDYDUlvlSmH8QhgL2dXhlqkD5MwZBWR+0FYudXDurd82uA3
oyMwITAOBgNVHQ8BAf8EBAMCBaAwDwYDVR0TAQH/BAUwAwIBAzAKBggqhkjOPQQD
AgNHADBEAiA4WibCyRGQIawcWNnoyXR0jCIfPGcxQ3zcuruYEK3kKAIgbB7+QTsv
dVznVD6/Nz12ZASK6fO8d1qHWos5J9xpw6Y=
-----END CERTIFICATE-----
