Certificate:
    Data:
        Version: 3 (0x2)
        Serial Number: 19 (0x13)
        Signature Algorithm: ecdsa-with-SHA256
        Issuer: CN=Regione Sardegna, C=IT, ST=Italia, O=E-Voting system, OU=E-Voting system authority/emailAddress=Sardegna@evoting.it
        Validity
            Not Before: Aug  3 13:27:14 2022 GMT
            Not After : Aug  3 13:27:14 2023 GMT
        Subject: CN=Chuck, C=IT, ST=Italia, O=Regione Sardegna
        Subject Public Key Info:
            Public Key Algorithm: id-ecPublicKey
                Public-Key: (256 bit)
                pub:
                    04:ea:05:93:3a:a2:c0:fc:82:ec:c5:45:8a:0f:5e:
                    c0:7f:b8:4d:9b:eb:85:40:b7:72:5d:fb:ac:72:74:
                    ae:9c:ee:6c:3d:c9:50:08:af:91:d9:b6:be:d9:52:
                    e1:0d:2e:f2:92:d3:fd:7c:a1:2b:09:5b:5b:47:66:
                    b9:ad:f2:6c:5c
                ASN1 OID: prime256v1
                NIST CURVE: P-256
        X509v3 extensions:
            X509v3 Key Usage: critical
                Digital Signature, Key Encipherment
            X509v3 Basic Constraints: critical
                CA:FALSE, pathlen:3
    Signature Algorithm: ecdsa-with-SHA256
         30:46:02:21:00:b3:98:ab:0b:cc:0b:4e:6a:3e:29:75:34:50:
         69:08:d3:3a:13:52:db:d0:a1:8c:14:00:b2:af:ef:00:ce:ad:
         28:02:21:00:f4:a9:cc:44:b7:57:53:8a:b8:71:cc:02:5a:41:
         59:ac:11:ea:03:4f:0c:aa:78:69:e9:24:d5:92:8f:ef:ee:6e
-----BEGIN CERTIFICATE-----
MIIB+DCCAZ2gAwIBAgIBEzAKBggqhkjOPQQDAjCBmzEZMBcGA1UEAwwQUmVnaW9u
ZSBTYXJkZWduYTELMAkGA1UEBhMCSVQxDzANBgNVBAgMBkl0YWxpYTEYMBYGA1UE
CgwPRS1Wb3Rpbmcgc3lzdGVtMSIwIAYDVQQLDBlFLVZvdGluZyBzeXN0ZW0gYXV0
aG9yaXR5MSIwIAYJKoZIhvcNAQkBFhNTYXJkZWduYUBldm90aW5nLml0MB4XDTIy
MDgwMzEzMjcxNFoXDTIzMDgwMzEzMjcxNFowSTEOMAwGA1UEAwwFQ2h1Y2sxCzAJ
BgNVBAYTAklUMQ8wDQYDVQQIDAZJdGFsaWExGTAXBgNVBAoMEFJlZ2lvbmUgU2Fy
ZGVnbmEwWTATBgcqhkjOPQIBBggqhkjOPQMBBwNCAATqBZM6osD8guzFRYoPXsB/
uE2b64VAt3Jd+6xydK6c7mw9yVAIr5HZtr7ZUuENLvKS0/18oSsJW1tHZrmt8mxc
oyMwITAOBgNVHQ8BAf8EBAMCBaAwDwYDVR0TAQH/BAUwAwIBAzAKBggqhkjOPQQD
AgNJADBGAiEAs5irC8wLTmo+KXU0UGkI0zoTUtvQoYwUALKv7wDOrSgCIQD0qcxE
t1dTirhxzAJaQVmsEeoDTwyqeGnpJNWSj+/ubg==
-----END CERTIFICATE-----
