Certificate:
    Data:
        Version: 3 (0x2)
        Serial Number: 20 (0x14)
        Signature Algorithm: ecdsa-with-SHA256
        Issuer: CN=Regione Marche, C=IT, ST=Italia, O=E-Voting system, OU=E-Voting system authority/emailAddress=Marche@evoting.it
        Validity
            Not Before: Aug 26 15:20:46 2022 GMT
            Not After : Aug 26 15:20:46 2023 GMT
        Subject: CN=Eugene, C=IT, ST=Italia, O=Regione Marche
        Subject Public Key Info:
            Public Key Algorithm: id-ecPublicKey
                Public-Key: (256 bit)
                pub:
                    04:d7:e7:86:bb:d0:0b:76:4f:0f:9c:83:0d:bb:40:
                    cd:d1:82:4c:54:82:e7:3a:c5:e2:e7:b3:0f:e3:51:
                    ad:65:a9:5a:0f:32:1f:e8:d4:c8:6b:b0:f7:11:79:
                    b8:0e:0e:cb:58:28:52:03:1f:09:77:85:1b:75:a5:
                    0d:29:4c:5c:24
                ASN1 OID: secp256k1
        X509v3 extensions:
            X509v3 Key Usage: critical
                Digital Signature, Key Encipherment
            X509v3 Basic Constraints: critical
                CA:FALSE, pathlen:3
    Signature Algorithm: ecdsa-with-SHA256
         30:45:02:20:5c:cb:88:06:c6:84:dc:54:5c:6f:a4:33:92:8f:
         56:12:c3:5b:1f:b1:f9:66:4e:d7:98:59:49:7c:ca:e2:77:92:
         02:21:00:8f:99:54:9e:92:7c:a2:1f:49:ec:e9:b6:23:de:70:
         1e:50:1b:1b:70:11:93:07:90:78:42:1f:c2:08:a3:5e:c7
-----BEGIN CERTIFICATE-----
MIIB7zCCAZWgAwIBAgIBFDAKBggqhkjOPQQDAjCBlzEXMBUGA1UEAwwOUmVnaW9u
ZSBNYXJjaGUxCzAJBgNVBAYTAklUMQ8wDQYDVQQIDAZJdGFsaWExGDAWBgNVBAoM
D0UtVm90aW5nIHN5c3RlbTEiMCAGA1UECwwZRS1Wb3Rpbmcgc3lzdGVtIGF1dGhv
cml0eTEgMB4GCSqGSIb3DQEJARYRTWFyY2hlQGV2b3RpbmcuaXQwHhcNMjIwODI2
MTUyMDQ2WhcNMjMwODI2MTUyMDQ2WjBIMQ8wDQYDVQQDDAZFdWdlbmUxCzAJBgNV
BAYTAklUMQ8wDQYDVQQIDAZJdGFsaWExFzAVBgNVBAoMDlJlZ2lvbmUgTWFyY2hl
MFYwEAYHKoZIzj0CAQYFK4EEAAoDQgAE1+eGu9ALdk8PnIMNu0DN0YJMVILnOsXi
57MP41GtZalaDzIf6NTIa7D3EXm4Dg7LWChSAx8Jd4UbdaUNKUxcJKMjMCEwDgYD
VR0PAQH/BAQDAgWgMA8GA1UdEwEB/wQFMAMCAQMwCgYIKoZIzj0EAwIDSAAwRQIg
XMuIBsaE3FRcb6Qzko9WEsNbH7H5Zk7XmFlJfMrid5ICIQCPmVSeknyiH0ns6bYj
3nAeUBsbcBGTB5B4Qh/CCKNexw==
-----END CERTIFICATE-----
