Certificate:
    Data:
        Version: 3 (0x2)
        Serial Number: 21 (0x15)
        Signature Algorithm: ecdsa-with-SHA256
        Issuer: CN=Regione Sicilia, C=IT, ST=Italia, O=E-Voting system, OU=E-Voting system authority/emailAddress=Sicilia@evoting.it
        Validity
            Not Before: Aug  3 13:27:17 2022 GMT
            Not After : Aug  3 13:27:17 2023 GMT
        Subject: CN=Marilee, C=IT, ST=Italia, O=Regione Sicilia
        Subject Public Key Info:
            Public Key Algorithm: id-ecPublicKey
                Public-Key: (256 bit)
                pub:
                    04:9c:0e:19:25:a5:01:cb:46:00:c7:ce:cf:3b:12:
                    49:19:06:9d:ad:a4:41:9e:62:28:38:04:25:80:bd:
                    39:9d:92:0d:50:73:99:10:86:38:cc:b4:f0:c5:f8:
                    f8:63:14:e0:63:ea:2d:b5:5f:10:ec:3b:f4:31:30:
                    c7:13:43:54:8a
                ASN1 OID: prime256v1
                NIST CURVE: P-256
        X509v3 extensions:
            X509v3 Key Usage: critical
                Digital Signature, Key Encipherment
            X509v3 Basic Constraints: critical
                CA:FALSE, pathlen:3
    Signature Algorithm: ecdsa-with-SHA256
         30:45:02:20:36:a3:e4:18:7d:92:43:6a:20:e9:35:d5:99:bb:
         e6:ca:79:8c:f7:34:33:31:45:dd:83:73:92:fe:37:8c:99:c3:
         02:21:00:e3:6c:b3:a7:c9:dd:76:99:0d:66:d0:70:e2:04:f3:
         2a:d8:bc:c0:a7:76:c4:f4:21:6a:45:d6:17:7c:24:00:e8
-----BEGIN CERTIFICATE-----
MIIB9jCCAZygAwIBAgIBFTAKBggqhkjOPQQDAjCBmTEYMBYGA1UEAwwPUmVnaW9u
ZSBTaWNpbGlhMQswCQYDVQQGEwJJVDEPMA0GA1UECAwGSXRhbGlhMRgwFgYDVQQK
DA9FLVZvdGluZyBzeXN0ZW0xIjAgBgNVBAsMGUUtVm90aW5nIHN5c3RlbSBhdXRo
b3JpdHkxITAfBgkqhkiG9w0BCQEWElNpY2lsaWFAZXZvdGluZy5pdDAeFw0yMjA4
MDMxMzI3MTdaFw0yMzA4MDMxMzI3MTdaMEoxEDAOBgNVBAMMB01hcmlsZWUxCzAJ
BgNVBAYTAklUMQ8wDQYDVQQIDAZJdGFsaWExGDAWBgNVBAoMD1JlZ2lvbmUgU2lj
aWxpYTBZMBMGByqGSM49AgEGCCqGSM49AwEHA0IABJwOGSWlActGAMfOzzsSSRkG
na2kQZ5iKDgEJYC9OZ2SDVBzmRCGOMy08MX4+GMU4GPqLbVfEOw79DEwxxNDVIqj
IzAhMA4GA1UdDwEB/wQEAwIFoDAPBgNVHRMBAf8EBTADAgEDMAoGCCqGSM49BAMC
A0gAMEUCIDaj5Bh9kkNqIOk11Zm75sp5jPc0MzFF3YNzkv43jJnDAiEA42yzp8nd
dpkNZtBw4gTzKti8wKd2xPQhakXWF3wkAOg=
-----END CERTIFICATE-----
