Certificate:
    Data:
        Version: 3 (0x2)
        Serial Number: 21 (0x15)
        Signature Algorithm: ecdsa-with-SHA256
        Issuer: CN=Regione Marche, C=IT, ST=Italia, O=E-Voting system, OU=E-Voting system authority/emailAddress=Marche@evoting.it
        Validity
            Not Before: Aug 26 15:20:54 2022 GMT
            Not After : Aug 26 15:20:54 2023 GMT
        Subject: CN=Sue, C=IT, ST=Italia, O=Regione Marche
        Subject Public Key Info:
            Public Key Algorithm: id-ecPublicKey
                Public-Key: (256 bit)
                pub:
                    04:85:73:a8:25:7a:0a:11:74:a1:d3:e1:bc:89:5c:
                    c2:e5:8c:56:d6:de:03:88:35:24:99:1f:3a:25:3e:
                    20:e4:b7:89:e2:d7:35:31:fa:e8:a9:6c:e1:07:02:
                    97:a8:2f:b5:37:a3:30:46:6f:85:d5:b2:27:a2:d4:
                    2c:c2:8c:e0:15
                ASN1 OID: secp256k1
        X509v3 extensions:
            X509v3 Key Usage: critical
                Digital Signature, Key Encipherment
            X509v3 Basic Constraints: critical
                CA:FALSE, pathlen:3
    Signature Algorithm: ecdsa-with-SHA256
         30:45:02:20:53:9f:f6:7e:d9:3d:8d:85:50:6e:04:59:18:49:
         d8:a9:58:91:3c:3e:f3:3f:0d:70:9b:0a:e9:09:4b:c4:f6:69:
         02:21:00:a0:27:0c:7d:14:74:70:65:09:33:ec:e9:49:41:b2:
         9b:17:5e:92:f0:f7:ba:56:da:81:64:89:ce:d5:6b:6e:a0
-----BEGIN CERTIFICATE-----
MIIB7DCCAZKgAwIBAgIBFTAKBggqhkjOPQQDAjCBlzEXMBUGA1UEAwwOUmVnaW9u
ZSBNYXJjaGUxCzAJBgNVBAYTAklUMQ8wDQYDVQQIDAZJdGFsaWExGDAWBgNVBAoM
D0UtVm90aW5nIHN5c3RlbTEiMCAGA1UECwwZRS1Wb3Rpbmcgc3lzdGVtIGF1dGhv
cml0eTEgMB4GCSqGSIb3DQEJARYRTWFyY2hlQGV2b3RpbmcuaXQwHhcNMjIwODI2
MTUyMDU0WhcNMjMwODI2MTUyMDU0WjBFMQwwCgYDVQQDDANTdWUxCzAJBgNVBAYT
AklUMQ8wDQYDVQQIDAZJdGFsaWExFzAVBgNVBAoMDlJlZ2lvbmUgTWFyY2hlMFYw
EAYHKoZIzj0CAQYFK4EEAAoDQgAEhXOoJXoKEXSh0+G8iVzC5YxW1t4DiDUkmR86
JT4g5LeJ4tc1MfroqWzhBwKXqC+1N6MwRm+F1bInotQswozgFaMjMCEwDgYDVR0P
AQH/BAQDAgWgMA8GA1UdEwEB/wQFMAMCAQMwCgYIKoZIzj0EAwIDSAAwRQIgU5/2
ftk9jYVQbgRZGEnYqViRPD7zPw1wmwrpCUvE9mkCIQCgJwx9FHRwZQkz7OlJQbKb
F16S8Pe6VtqBZInO1WtuoA==
-----END CERTIFICATE-----
