Certificate:
    Data:
        Version: 3 (0x2)
        Serial Number: 22 (0x16)
        Signature Algorithm: ecdsa-with-SHA256
        Issuer: CN=Regione Sardegna, C=IT, ST=Italia, O=E-Voting system, OU=E-Voting system authority/emailAddress=Sardegna@evoting.it
        Validity
            Not Before: Aug  3 13:27:20 2022 GMT
            Not After : Aug  3 13:27:20 2023 GMT
        Subject: CN=Clark, C=IT, ST=Italia, O=Regione Sardegna
        Subject Public Key Info:
            Public Key Algorithm: id-ecPublicKey
                Public-Key: (256 bit)
                pub:
                    04:e6:3e:62:01:21:2d:76:59:3c:a0:1d:c9:cb:11:
                    65:ea:af:96:b3:87:fe:1a:13:93:be:eb:88:5b:d9:
                    bf:c9:7f:ce:a2:ef:39:8e:72:0e:35:00:86:93:d5:
                    02:62:15:d6:8b:cf:94:91:17:7a:d1:ea:14:87:87:
                    a5:f1:0c:a9:37
                ASN1 OID: prime256v1
                NIST CURVE: P-256
        X509v3 extensions:
            X509v3 Key Usage: critical
                Digital Signature, Key Encipherment
            X509v3 Basic Constraints: critical
                CA:FALSE, pathlen:3
    Signature Algorithm: ecdsa-with-SHA256
         30:44:02:20:50:2d:31:28:7e:7f:7b:16:d5:c6:b8:b3:93:e1:
         ed:fc:45:ea:f7:96:89:8a:ea:e7:90:af:8f:1f:9f:63:28:9a:
         02:20:65:c6:69:87:67:6c:11:82:6e:3c:dc:93:89:5e:d7:f9:
         9a:83:4e:ff:34:95:79:50:fc:b6:ec:f3:7a:35:d0:14
-----BEGIN CERTIFICATE-----
MIIB9jCCAZ2gAwIBAgIBFjAKBggqhkjOPQQDAjCBmzEZMBcGA1UEAwwQUmVnaW9u
ZSBTYXJkZWduYTELMAkGA1UEBhMCSVQxDzANBgNVBAgMBkl0YWxpYTEYMBYGA1UE
CgwPRS1Wb3Rpbmcgc3lzdGVtMSIwIAYDVQQLDBlFLVZvdGluZyBzeXN0ZW0gYXV0
aG9yaXR5MSIwIAYJKoZIhvcNAQkBFhNTYXJkZWduYUBldm90aW5nLml0MB4XDTIy
MDgwMzEzMjcyMFoXDTIzMDgwMzEzMjcyMFowSTEOMAwGA1UEAwwFQ2xhcmsxCzAJ
BgNVBAYTAklUMQ8wDQYDVQQIDAZJdGFsaWExGTAXBgNVBAoMEFJlZ2lvbmUgU2Fy
ZGVnbmEwWTATBgcqhkjOPQIBBggqhkjOPQMBBwNCAATmPmIBIS12WTygHcnLEWXq
r5azh/4aE5O+64hb2b/Jf86i7zmOcg41AIaT1QJiFdaLz5SRF3rR6hSHh6XxDKk3
oyMwITAOBgNVHQ8BAf8EBAMCBaAwDwYDVR0TAQH/BAUwAwIBAzAKBggqhkjOPQQD
AgNHADBEAiBQLTEofn97FtXGuLOT4e38Rer3lomK6ueQr48fn2MomgIgZcZph2ds
EYJuPNyTiV7X+ZqDTv80lXlQ/Lbs83o10BQ=
-----END CERTIFICATE-----
