Certificate:
    Data:
        Version: 3 (0x2)
        Serial Number: 22 (0x16)
        Signature Algorithm: ecdsa-with-SHA256
        Issuer: CN=Regione Marche, C=IT, ST=Italia, O=E-Voting system, OU=E-Voting system authority/emailAddress=Marche@evoting.it
        Validity
            Not Before: Aug 26 15:20:57 2022 GMT
            Not After : Aug 26 15:20:57 2023 GMT
        Subject: CN=Chastity, C=IT, ST=Italia, O=Regione Marche
        Subject Public Key Info:
            Public Key Algorithm: id-ecPublicKey
                Public-Key: (256 bit)
                pub:
                    04:f6:3a:73:a4:8c:2f:61:cc:07:39:01:71:12:53:
                    a4:e1:4a:5b:48:1c:4c:61:b2:7c:60:20:b3:cb:6f:
                    46:0d:52:d6:6f:19:98:04:8e:58:90:49:2b:2a:3a:
                    1e:ae:45:69:0e:c3:ef:58:64:73:c9:4e:d2:fc:d1:
                    7a:2e:d8:28:69
                ASN1 OID: secp256k1
        X509v3 extensions:
            X509v3 Key Usage: critical
                Digital Signature, Key Encipherment
            X509v3 Basic Constraints: critical
                CA:FALSE, pathlen:3
    Signature Algorithm: ecdsa-with-SHA256
         30:46:02:21:00:c8:ef:0c:9b:c8:03:1c:25:fa:b0:10:f8:c0:
         8b:31:29:6d:18:a5:7f:44:52:9f:cb:12:cf:c4:0b:eb:c8:86:
         b6:02:21:00:9d:f8:1c:b5:57:ac:e6:82:e7:18:ee:29:35:ab:
         3b:32:ab:ed:6e:cc:59:ab:47:3b:70:13:51:d1:66:2e:dc:91
-----BEGIN CERTIFICATE-----
MIIB8jCCAZegAwIBAgIBFjAKBggqhkjOPQQDAjCBlzEXMBUGA1UEAwwOUmVnaW9u
ZSBNYXJjaGUxCzAJBgNVBAYTAklUMQ8wDQYDVQQIDAZJdGFsaWExGDAWBgNVBAoM
D0UtVm90aW5nIHN5c3RlbTEiMCAGA1UECwwZRS1Wb3Rpbmcgc3lzdGVtIGF1dGhv
cml0eTEgMB4GCSqGSIb3DQEJARYRTWFyY2hlQGV2b3RpbmcuaXQwHhcNMjIwODI2
MTUyMDU3WhcNMjMwODI2MTUyMDU3WjBKMREwDwYDVQQDDAhDaGFzdGl0eTELMAkG
A1UEBhMCSVQxDzANBgNVBAgMBkl0YWxpYTEXMBUGA1UECgwOUmVnaW9uZSBNYXJj
aGUwVjAQBgcqhkjOPQIBBgUrgQQACgNCAAT2OnOkjC9hzAc5AXESU6ThSltIHExh
snxgILPLb0YNUtZvGZgEjliQSSsqOh6uRWkOw+9YZHPJTtL80Xou2ChpoyMwITAO
BgNVHQ8BAf8EBAMCBaAwDwYDVR0TAQH/BAUwAwIBAzAKBggqhkjOPQQDAgNJADBG
AiEAyO8Mm8gDHCX6sBD4wIsxKW0YpX9EUp/LEs/EC+vIhrYCIQCd+By1V6zmgucY
7ik1qzsyq+1uzFmrRztwE1HRZi7ckQ==
-----END CERTIFICATE-----
