Certificate:
    Data:
        Version: 3 (0x2)
        Serial Number: 24 (0x18)
        Signature Algorithm: ecdsa-with-SHA256
        Issuer: CN=Regione Sicilia, C=IT, ST=Italia, O=E-Voting system, OU=E-Voting system authority/emailAddress=Sicilia@evoting.it
        Validity
            Not Before: Aug  3 13:27:40 2022 GMT
            Not After : Aug  3 13:27:40 2023 GMT
        Subject: CN=Diane, C=IT, ST=Italia, O=Regione Sicilia
        Subject Public Key Info:
            Public Key Algorithm: id-ecPublicKey
                Public-Key: (256 bit)
                pub:
                    04:a7:b4:95:f4:2d:c8:da:12:c4:85:e7:a2:61:d3:
                    e2:48:c8:2d:b7:42:35:10:28:3e:4c:4c:a1:f2:0b:
                    37:fc:75:74:a6:6a:16:cb:03:2e:0e:f9:ce:c9:2a:
                    63:96:ae:72:fd:3c:44:2e:bc:b6:c4:78:d2:eb:ad:
                    4e:c3:e3:61:ed
                ASN1 OID: prime256v1
                NIST CURVE: P-256
        X509v3 extensions:
            X509v3 Key Usage: critical
                Digital Signature, Key Encipherment
            X509v3 Basic Constraints: critical
                CA:FALSE, pathlen:3
    Signature Algorithm: ecdsa-with-SHA256
         30:45:02:20:06:5e:f0:8e:a8:f7:ee:d6:41:35:80:7e:f8:0c:
         7d:09:01:7f:50:39:6e:85:43:0c:64:9e:be:b2:e7:fa:be:cb:
         02:21:00:95:c3:aa:9c:b5:ee:0c:e9:ca:79:e2:b0:4c:b5:2a:
         c0:94:89:ba:b3:c3:97:df:b2:d6:81:4c:9d:5f:05:95:57
-----BEGIN CERTIFICATE-----
MIIB9DCCAZqgAwIBAgIBGDAKBggqhkjOPQQDAjCBmTEYMBYGA1UEAwwPUmVnaW9u
ZSBTaWNpbGlhMQswCQYDVQQGEwJJVDEPMA0GA1UECAwGSXRhbGlhMRgwFgYDVQQK
DA9FLVZvdGluZyBzeXN0ZW0xIjAgBgNVBAsMGUUtVm90aW5nIHN5c3RlbSBhdXRo
b3JpdHkxITAfBgkqhkiG9w0BCQEWElNpY2lsaWFAZXZvdGluZy5pdDAeFw0yMjA4
MDMxMzI3NDBaFw0yMzA4MDMxMzI3NDBaMEgxDjAMBgNVBAMMBURpYW5lMQswCQYD
VQQGEwJJVDEPMA0GA1UECAwGSXRhbGlhMRgwFgYDVQQKDA9SZWdpb25lIFNpY2ls
aWEwWTATBgcqhkjOPQIBBggqhkjOPQMBBwNCAASntJX0LcjaEsSF56Jh0+JIyC23
QjUQKD5MTKHyCzf8dXSmahbLAy4O+c7JKmOWrnL9PEQuvLbEeNLrrU7D42HtoyMw
ITAOBgNVHQ8BAf8EBAMCBaAwDwYDVR0TAQH/BAUwAwIBAzAKBggqhkjOPQQDAgNI
ADBFAiAGXvCOqPfu1kE1gH74DH0JAX9QOW6FQwxknr6y5/q+ywIhAJXDqpy17gzp
ynnisEy1KsCUibqzw5ffstaBTJ1fBZVX
-----END CERTIFICATE-----
