Certificate:
    Data:
        Version: 3 (0x2)
        Serial Number: 27 (0x1b)
        Signature Algorithm: ecdsa-with-SHA256
        Issuer: CN=Regione Sicilia, C=IT, ST=Italia, O=E-Voting system, OU=E-Voting system authority/emailAddress=Sicilia@evoting.it
        Validity
            Not Before: Aug  3 13:28:00 2022 GMT
            Not After : Aug  3 13:28:00 2023 GMT
        Subject: CN=Dinah, C=IT, ST=Italia, O=Regione Sicilia
        Subject Public Key Info:
            Public Key Algorithm: id-ecPublicKey
                Public-Key: (256 bit)
                pub:
                    04:be:cd:f1:8a:48:5b:f3:ab:38:6e:99:1f:80:64:
                    40:95:64:80:bb:ea:72:5c:6a:2c:6a:d0:96:fb:a3:
                    ea:7a:a9:3c:8a:ae:75:54:46:7b:04:ca:9d:b9:0d:
                    c5:3a:4a:92:81:bf:51:96:6a:e0:58:3c:7e:1c:cc:
                    ba:3b:76:16:58
                ASN1 OID: prime256v1
                NIST CURVE: P-256
        X509v3 extensions:
            X509v3 Key Usage: critical
                Digital Signature, Key Encipherment
            X509v3 Basic Constraints: critical
                CA:FALSE, pathlen:3
    Signature Algorithm: ecdsa-with-SHA256
         30:46:02:21:00:e0:d6:74:72:6d:5e:02:b0:84:82:86:98:8c:
         5d:be:77:1b:82:58:76:15:ec:91:64:3d:89:d5:e7:6e:b5:86:
         26:02:21:00:e8:81:d3:03:d2:86:fc:de:6b:53:2a:17:49:96:
         a9:26:1e:64:e7:8f:78:14:81:21:6f:f5:57:f6:bf:74:0d:4a
-----BEGIN CERTIFICATE-----
MIIB9TCCAZqgAwIBAgIBGzAKBggqhkjOPQQDAjCBmTEYMBYGA1UEAwwPUmVnaW9u
ZSBTaWNpbGlhMQswCQYDVQQGEwJJVDEPMA0GA1UECAwGSXRhbGlhMRgwFgYDVQQK
DA9FLVZvdGluZyBzeXN0ZW0xIjAgBgNVBAsMGUUtVm90aW5nIHN5c3RlbSBhdXRo
b3JpdHkxITAfBgkqhkiG9w0BCQEWElNpY2lsaWFAZXZvdGluZy5pdDAeFw0yMjA4
MDMxMzI4MDBaFw0yMzA4MDMxMzI4MDBaMEgxDjAMBgNVBAMMBURpbmFoMQswCQYD
VQQGEwJJVDEPMA0GA1UECAwGSXRhbGlhMRgwFgYDVQQKDA9SZWdpb25lIFNpY2ls
aWEwWTATBgcqhkjOPQIBBggqhkjOPQMBBwNCAAS+zfGKSFvzqzhumR+AZECVZIC7
6nJcaixq0Jb7o+p6qTyKrnVURnsEyp25DcU6SpKBv1GWauBYPH4czLo7dhZYoyMw
ITAOBgNVHQ8BAf8EBAMCBaAwDwYDVR0TAQH/BAUwAwIBAzAKBggqhkjOPQQDAgNJ
ADBGAiEA4NZ0cm1eArCEgoaYjF2+dxuCWHYV7JFkPYnV5261hiYCIQDogdMD0ob8
3mtTKhdJlqkmHmTnj3gUgSFv9Vf2v3QNSg==
-----END CERTIFICATE-----
