Certificate:
    Data:
        Version: 3 (0x2)
        Serial Number: 27 (0x1b)
        Signature Algorithm: ecdsa-with-SHA256
        Issuer: CN=Regione Marche, C=IT, ST=Italia, O=E-Voting system, OU=E-Voting system authority/emailAddress=Marche@evoting.it
        Validity
            Not Before: Aug 26 15:21:22 2022 GMT
            Not After : Aug 26 15:21:22 2023 GMT
        Subject: CN=Shirley, C=IT, ST=Italia, O=Regione Marche
        Subject Public Key Info:
            Public Key Algorithm: id-ecPublicKey
                Public-Key: (256 bit)
                pub:
                    04:75:d6:91:85:eb:2b:79:c4:e9:8b:bd:67:54:cc:
                    de:65:44:25:3f:68:64:aa:81:57:ad:9f:52:54:e9:
                    87:20:47:a6:43:70:ba:5f:9a:82:96:84:72:5a:d8:
                    6c:1f:63:62:b8:24:75:d8:b5:0f:71:6a:04:98:5d:
                    6d:72:71:b1:e9
                ASN1 OID: secp256k1
        X509v3 extensions:
            X509v3 Key Usage: critical
                Digital Signature, Key Encipherment
            X509v3 Basic Constraints: critical
                CA:FALSE, pathlen:3
    Signature Algorithm: ecdsa-with-SHA256
         30:46:02:21:00:bc:19:f9:bc:a8:9b:09:5a:a6:e5:ae:78:8e:
         a4:ae:30:11:c3:be:9d:a7:97:6b:fd:bb:96:80:0a:fc:e4:45:
         70:02:21:00:d2:0d:5d:4c:be:51:7d:9b:96:80:22:31:51:81:
         85:d6:06:ac:28:cf:fb:a4:0f:b2:c9:9c:f4:21:a1:f1:c8:fd
-----BEGIN CERTIFICATE-----
MIIB8TCCAZagAwIBAgIBGzAKBggqhkjOPQQDAjCBlzEXMBUGA1UEAwwOUmVnaW9u
ZSBNYXJjaGUxCzAJBgNVBAYTAklUMQ8wDQYDVQQIDAZJdGFsaWExGDAWBgNVBAoM
D0UtVm90aW5nIHN5c3RlbTEiMCAGA1UECwwZRS1Wb3Rpbmcgc3lzdGVtIGF1dGhv
cml0eTEgMB4GCSqGSIb3DQEJARYRTWFyY2hlQGV2b3RpbmcuaXQwHhcNMjIwODI2
MTUyMTIyWhcNMjMwODI2MTUyMTIyWjBJMRAwDgYDVQQDDAdTaGlybGV5MQswCQYD
VQQGEwJJVDEPMA0GA1UECAwGSXRhbGlhMRcwFQYDVQQKDA5SZWdpb25lIE1hcmNo
ZTBWMBAGByqGSM49AgEGBSuBBAAKA0IABHXWkYXrK3nE6Yu9Z1TM3mVEJT9oZKqB
V62fUlTphyBHpkNwul+agpaEclrYbB9jYrgkddi1D3FqBJhdbXJxsemjIzAhMA4G
A1UdDwEB/wQEAwIFoDAPBgNVHRMBAf8EBTADAgEDMAoGCCqGSM49BAMCA0kAMEYC
IQC8Gfm8qJsJWqblrniOpK4wEcO+naeXa/27loAK/ORFcAIhANINXUy+UX2bloAi
MVGBhdYGrCjP+6QPssmc9CGh8cj9
-----END CERTIFICATE-----
