Certificate:
    Data:
        Version: 3 (0x2)
        Serial Number: 29 (0x1d)
        Signature Algorithm: ecdsa-with-SHA256
        Issuer: CN=Regione Umbria, C=IT, ST=Italia, O=E-Voting system, OU=E-Voting system authority/emailAddress=Umbria@evoting.it
        Validity
            Not Before: Aug  3 13:28:16 2022 GMT
            Not After : Aug  3 13:28:16 2023 GMT
        Subject: CN=Camille, C=IT, ST=Italia, O=Regione Umbria
        Subject Public Key Info:
            Public Key Algorithm: id-ecPublicKey
                Public-Key: (256 bit)
                pub:
                    04:d1:67:28:0b:f3:7d:47:37:96:3b:08:87:0c:74:
                    27:2a:fc:6a:ce:e9:94:e4:00:05:50:6a:f6:c8:f0:
                    67:f8:f0:0a:90:c1:bc:5e:57:ac:0a:ef:ab:78:61:
                    a1:41:b1:ff:a1:52:b9:49:ab:96:65:e1:95:ba:e9:
                    f0:82:fc:97:6c
                ASN1 OID: prime256v1
                NIST CURVE: P-256
        X509v3 extensions:
            X509v3 Key Usage: critical
                Digital Signature, Key Encipherment
            X509v3 Basic Constraints: critical
                CA:FALSE, pathlen:3
    Signature Algorithm: ecdsa-with-SHA256
         30:44:02:20:56:5f:08:a5:fc:ea:71:43:4a:bc:7d:35:08:36:
         22:3f:54:2b:b2:1e:cd:4c:81:23:c1:fe:2a:9f:85:6b:b1:11:
         02:20:6b:9e:ef:37:c8:b8:07:db:25:a0:9d:7c:a8:1b:de:27:
         32:b0:9b:ad:46:e6:d2:a0:0e:e5:7f:32:9f:d9:5e:3b
-----BEGIN CERTIFICATE-----
MIIB8jCCAZmgAwIBAgIBHTAKBggqhkjOPQQDAjCBlzEXMBUGA1UEAwwOUmVnaW9u
ZSBVbWJyaWExCzAJBgNVBAYTAklUMQ8wDQYDVQQIDAZJdGFsaWExGDAWBgNVBAoM
D0UtVm90aW5nIHN5c3RlbTEiMCAGA1UECwwZRS1Wb3Rpbmcgc3lzdGVtIGF1dGhv
cml0eTEgMB4GCSqGSIb3DQEJARYRVW1icmlhQGV2b3RpbmcuaXQwHhcNMjIwODAz
MTMyODE2WhcNMjMwODAzMTMyODE2WjBJMRAwDgYDVQQDDAdDYW1pbGxlMQswCQYD
VQQGEwJJVDEPMA0GA1UECAwGSXRhbGlhMRcwFQYDVQQKDA5SZWdpb25lIFVtYnJp
YTBZMBMGByqGSM49AgEGCCqGSM49AwEHA0IABNFnKAvzfUc3ljsIhwx0Jyr8as7p
lOQABVBq9sjwZ/jwCpDBvF5XrArvq3hhoUGx/6FSuUmrlmXhlbrp8IL8l2yjIzAh
MA4GA1UdDwEB/wQEAwIFoDAPBgNVHRMBAf8EBTADAgEDMAoGCCqGSM49BAMCA0cA
MEQCIFZfCKX86nFDSrx9NQg2Ij9UK7IezUyBI8H+Kp+Fa7ERAiBrnu83yLgH2yWg
nXyoG94nMrCbrUbm0qAO5X8yn9leOw==
-----END CERTIFICATE-----
