Certificate:
    Data:
        Version: 3 (0x2)
        Serial Number: 30 (0x1e)
        Signature Algorithm: ecdsa-with-SHA256
        Issuer: CN=Regione Umbria, C=IT, ST=Italia, O=E-Voting system, OU=E-Voting system authority/emailAddress=Umbria@evoting.it
        Validity
            Not Before: Aug  3 13:28:21 2022 GMT
            Not After : Aug  3 13:28:21 2023 GMT
        Subject: CN=Delores, C=IT, ST=Italia, O=Regione Umbria
        Subject Public Key Info:
            Public Key Algorithm: id-ecPublicKey
                Public-Key: (256 bit)
                pub:
                    04:5e:6e:8f:f1:d1:8b:03:ba:15:ec:f3:46:05:8d:
                    c1:a3:f5:25:d5:fb:ed:4f:6f:21:4f:a9:c6:3b:6d:
                    a0:a3:83:53:ad:07:ef:fb:58:b3:bd:39:d5:73:31:
                    04:bc:27:1b:23:89:ed:c6:3a:6b:38:a5:73:c8:44:
                    51:56:28:43:2e
                ASN1 OID: prime256v1
                NIST CURVE: P-256
        X509v3 extensions:
            X509v3 Key Usage: critical
                Digital Signature, Key Encipherment
            X509v3 Basic Constraints: critical
                CA:FALSE, pathlen:3
    Signature Algorithm: ecdsa-with-SHA256
         30:44:02:20:42:b5:8c:3a:80:f7:37:17:53:10:ab:69:0c:21:
         d4:e0:d6:b0:9a:d2:62:93:59:42:41:36:03:31:4f:94:e0:45:
         02:20:24:1d:25:cb:fa:79:a7:bc:17:9e:6f:d1:33:91:f0:4e:
         2c:20:0a:88:3e:a8:91:ef:b1:61:57:d8:21:a6:40:2c
-----BEGIN CERTIFICATE-----
MIIB8jCCAZmgAwIBAgIBHjAKBggqhkjOPQQDAjCBlzEXMBUGA1UEAwwOUmVnaW9u
ZSBVbWJyaWExCzAJBgNVBAYTAklUMQ8wDQYDVQQIDAZJdGFsaWExGDAWBgNVBAoM
D0UtVm90aW5nIHN5c3RlbTEiMCAGA1UECwwZRS1Wb3Rpbmcgc3lzdGVtIGF1dGhv
cml0eTEgMB4GCSqGSIb3DQEJARYRVW1icmlhQGV2b3RpbmcuaXQwHhcNMjIwODAz
MTMyODIxWhcNMjMwODAzMTMyODIxWjBJMRAwDgYDVQQDDAdEZWxvcmVzMQswCQYD
VQQGEwJJVDEPMA0GA1UECAwGSXRhbGlhMRcwFQYDVQQKDA5SZWdpb25lIFVtYnJp
YTBZMBMGByqGSM49AgEGCCqGSM49AwEHA0IABF5uj/HRiwO6FezzRgWNwaP1JdX7
7U9vIU+pxjttoKODU60H7/tYs7051XMxBLwnGyOJ7cY6azilc8hEUVYoQy6jIzAh
MA4GA1UdDwEB/wQEAwIFoDAPBgNVHRMBAf8EBTADAgEDMAoGCCqGSM49BAMCA0cA
MEQCIEK1jDqA9zcXUxCraQwh1ODWsJrSYpNZQkE2AzFPlOBFAiAkHSXL+nmnvBee
b9EzkfBOLCAKiD6oke+xYVfYIaZALA==
-----END CERTIFICATE-----
