Certificate:
    Data:
        Version: 3 (0x2)
        Serial Number: 31 (0x1f)
        Signature Algorithm: ecdsa-with-SHA256
        Issuer: CN=Regione Umbria, C=IT, ST=Italia, O=E-Voting system, OU=E-Voting system authority/emailAddress=Umbria@evoting.it
        Validity
            Not Before: Aug  3 13:28:29 2022 GMT
            Not After : Aug  3 13:28:29 2023 GMT
        Subject: CN=Dorie, C=IT, ST=Italia, O=Regione Umbria
        Subject Public Key Info:
            Public Key Algorithm: id-ecPublicKey
                Public-Key: (256 bit)
                pub:
                    04:63:7b:95:5e:e1:b5:c6:3d:6b:94:ab:1f:97:9b:
                    3a:09:80:00:06:1c:91:d6:83:5b:d3:ca:fe:3e:68:
                    0a:b2:90:ab:c9:18:7f:b5:99:7a:08:ba:ec:d3:23:
                    f6:5f:a8:14:b0:49:97:71:20:b6:a3:cb:f6:97:7e:
                    1d:2d:8e:8e:0a
                ASN1 OID: prime256v1
                NIST CURVE: P-256
        X509v3 extensions:
            X509v3 Key Usage: critical
                Digital Signature, Key Encipherment
            X509v3 Basic Constraints: critical
                CA:FALSE, pathlen:3
    Signature Algorithm: ecdsa-with-SHA256
         30:45:02:20:69:f5:fd:f4:37:2a:a0:e8:b6:91:0c:28:a3:9c:
         e3:07:ea:26:2f:99:95:f0:c4:6a:1d:fa:e0:cb:c6:4c:19:9b:
         02:21:00:c8:71:7b:8a:45:c9:a2:bd:12:eb:05:b7:65:f1:ab:
         f7:fa:b1:65:90:21:30:05:d8:99:a7:72:dd:c0:7c:cf:64
-----BEGIN CERTIFICATE-----
MIIB8TCCAZegAwIBAgIBHzAKBggqhkjOPQQDAjCBlzEXMBUGA1UEAwwOUmVnaW9u
ZSBVbWJyaWExCzAJBgNVBAYTAklUMQ8wDQYDVQQIDAZJdGFsaWExGDAWBgNVBAoM
D0UtVm90aW5nIHN5c3RlbTEiMCAGA1UECwwZRS1Wb3Rpbmcgc3lzdGVtIGF1dGhv
cml0eTEgMB4GCSqGSIb3DQEJARYRVW1icmlhQGV2b3RpbmcuaXQwHhcNMjIwODAz
MTMyODI5WhcNMjMwODAzMTMyODI5WjBHMQ4wDAYDVQQDDAVEb3JpZTELMAkGA1UE
BhMCSVQxDzANBgNVBAgMBkl0YWxpYTEXMBUGA1UECgwOUmVnaW9uZSBVbWJyaWEw
WTATBgcqhkjOPQIBBggqhkjOPQMBBwNCAARje5Ve4bXGPWuUqx+XmzoJgAAGHJHW
g1vTyv4+aAqykKvJGH+1mXoIuuzTI/ZfqBSwSZdxILajy/aXfh0tjo4KoyMwITAO
BgNVHQ8BAf8EBAMCBaAwDwYDVR0TAQH/BAUwAwIBAzAKBggqhkjOPQQDAgNIADBF
AiBp9f30Nyqg6LaRDCijnOMH6iYvmZXwxGod+uDLxkwZmwIhAMhxe4pFyaK9EusF
t2Xxq/f6sWWQITAF2Jmnct3AfM9k
-----END CERTIFICATE-----
