Certificate:
    Data:
        Version: 3 (0x2)
        Serial Number: 31 (0x1f)
        Signature Algorithm: ecdsa-with-SHA256
        Issuer: CN=Regione Veneto, C=IT, ST=Italia, O=E-Voting system, OU=E-Voting system authority/emailAddress=Veneto@evoting.it
        Validity
            Not Before: Aug 26 15:21:47 2022 GMT
            Not After : Aug 26 15:21:47 2023 GMT
        Subject: CN=Alison, C=IT, ST=Italia, O=Regione Veneto
        Subject Public Key Info:
            Public Key Algorithm: id-ecPublicKey
                Public-Key: (256 bit)
                pub:
                    04:31:9e:4c:3c:3f:77:50:1e:d4:80:e0:77:d0:8a:
                    10:3b:91:c3:cc:6a:37:78:94:ea:3b:99:ed:53:02:
                    f4:37:76:ae:be:78:2f:87:ba:41:36:86:5e:ba:63:
                    c3:7e:e8:2d:ba:d8:dd:25:a3:5b:01:8a:0d:7c:cc:
                    53:ae:aa:56:14
                ASN1 OID: secp256k1
        X509v3 extensions:
            X509v3 Key Usage: critical
                Digital Signature, Key Encipherment
            X509v3 Basic Constraints: critical
                CA:FALSE, pathlen:3
    Signature Algorithm: ecdsa-with-SHA256
         30:45:02:20:41:2b:e0:2b:a1:be:f9:8b:d0:ae:34:ee:ec:8c:
         f4:20:d3:70:2e:11:df:1b:10:b9:36:da:46:ef:ff:20:8c:86:
         02:21:00:ec:fe:80:83:24:b9:bd:7c:15:fa:b2:63:8a:0e:3e:
         bc:b0:50:9c:fc:aa:e1:20:a4:46:fb:fe:e4:a7:48:e8:af
-----BEGIN CERTIFICATE-----
MIIB7zCCAZWgAwIBAgIBHzAKBggqhkjOPQQDAjCBlzEXMBUGA1UEAwwOUmVnaW9u
ZSBWZW5ldG8xCzAJBgNVBAYTAklUMQ8wDQYDVQQIDAZJdGFsaWExGDAWBgNVBAoM
D0UtVm90aW5nIHN5c3RlbTEiMCAGA1UECwwZRS1Wb3Rpbmcgc3lzdGVtIGF1dGhv
cml0eTEgMB4GCSqGSIb3DQEJARYRVmVuZXRvQGV2b3RpbmcuaXQwHhcNMjIwODI2
MTUyMTQ3WhcNMjMwODI2MTUyMTQ3WjBIMQ8wDQYDVQQDDAZBbGlzb24xCzAJBgNV
BAYTAklUMQ8wDQYDVQQIDAZJdGFsaWExFzAVBgNVBAoMDlJlZ2lvbmUgVmVuZXRv
MFYwEAYHKoZIzj0CAQYFK4EEAAoDQgAEMZ5MPD93UB7UgOB30IoQO5HDzGo3eJTq
O5ntUwL0N3auvngvh7pBNoZeumPDfugtutjdJaNbAYoNfMxTrqpWFKMjMCEwDgYD
VR0PAQH/BAQDAgWgMA8GA1UdEwEB/wQFMAMCAQMwCgYIKoZIzj0EAwIDSAAwRQIg
QSvgK6G++YvQrjTu7Iz0INNwLhHfGxC5NtpG7/8gjIYCIQDs/oCDJLm9fBX6smOK
Dj68sFCc/KrhIKRG+/7kp0jorw==
-----END CERTIFICATE-----
