Certificate:
    Data:
        Version: 3 (0x2)
        Serial Number: 32 (0x20)
        Signature Algorithm: ecdsa-with-SHA256
        Issuer: CN=Regione Umbria, C=IT, ST=Italia, O=E-Voting system, OU=E-Voting system authority/emailAddress=Umbria@evoting.it
        Validity
            Not Before: Aug  3 13:28:30 2022 GMT
            Not After : Aug  3 13:28:30 2023 GMT
        Subject: CN=Bernice, C=IT, ST=Italia, O=Regione Umbria
        Subject Public Key Info:
            Public Key Algorithm: id-ecPublicKey
                Public-Key: (256 bit)
                pub:
                    04:77:3a:1e:5e:71:f7:ed:fb:60:14:bd:36:f6:80:
                    45:f2:e3:e0:5a:bc:e0:f8:b3:58:77:16:27:29:40:
                    9f:31:1f:b1:53:be:5b:88:2a:98:1c:c3:f5:85:8f:
                    3e:92:35:9d:21:be:59:b1:e6:e6:cf:45:ab:74:b4:
                    d8:b5:6d:fd:5d
                ASN1 OID: prime256v1
                NIST CURVE: P-256
        X509v3 extensions:
            X509v3 Key Usage: critical
                Digital Signature, Key Encipherment
            X509v3 Basic Constraints: critical
                CA:FALSE, pathlen:3
    Signature Algorithm: ecdsa-with-SHA256
         30:45:02:20:0f:4c:63:8d:94:36:9a:59:73:0e:6f:95:e9:a6:
         b8:aa:89:cd:e9:61:27:4d:d8:cb:e6:b5:e2:fe:8e:f3:21:d7:
         02:21:00:db:a3:d9:71:60:47:a3:ba:48:c8:4c:c6:a7:f2:33:
         bd:cd:a4:5c:20:06:3f:16:ef:f2:c8:a6:ea:d9:ed:eb:d4
-----BEGIN CERTIFICATE-----
MIIB8zCCAZmgAwIBAgIBIDAKBggqhkjOPQQDAjCBlzEXMBUGA1UEAwwOUmVnaW9u
ZSBVbWJyaWExCzAJBgNVBAYTAklUMQ8wDQYDVQQIDAZJdGFsaWExGDAWBgNVBAoM
D0UtVm90aW5nIHN5c3RlbTEiMCAGA1UECwwZRS1Wb3Rpbmcgc3lzdGVtIGF1dGhv
cml0eTEgMB4GCSqGSIb3DQEJARYRVW1icmlhQGV2b3RpbmcuaXQwHhcNMjIwODAz
MTMyODMwWhcNMjMwODAzMTMyODMwWjBJMRAwDgYDVQQDDAdCZXJuaWNlMQswCQYD
VQQGEwJJVDEPMA0GA1UECAwGSXRhbGlhMRcwFQYDVQQKDA5SZWdpb25lIFVtYnJp
YTBZMBMGByqGSM49AgEGCCqGSM49AwEHA0IABHc6Hl5x9+37YBS9NvaARfLj4Fq8
4PizWHcWJylAnzEfsVO+W4gqmBzD9YWPPpI1nSG+WbHm5s9Fq3S02LVt/V2jIzAh
MA4GA1UdDwEB/wQEAwIFoDAPBgNVHRMBAf8EBTADAgEDMAoGCCqGSM49BAMCA0gA
MEUCIA9MY42UNppZcw5vlemmuKqJzelhJ03Yy+a14v6O8yHXAiEA26PZcWBHo7pI
yEzGp/Izvc2kXCAGPxbv8sim6tnt69Q=
-----END CERTIFICATE-----
