Certificate:
    Data:
        Version: 3 (0x2)
        Serial Number: 33 (0x21)
        Signature Algorithm: ecdsa-with-SHA256
        Issuer: CN=Regione Sicilia, C=IT, ST=Italia, O=E-Voting system, OU=E-Voting system authority/emailAddress=Sicilia@evoting.it
        Validity
            Not Before: Aug  3 13:28:34 2022 GMT
            Not After : Aug  3 13:28:34 2023 GMT
        Subject: CN=Claude, C=IT, ST=Italia, O=Regione Sicilia
        Subject Public Key Info:
            Public Key Algorithm: id-ecPublicKey
                Public-Key: (256 bit)
                pub:
                    04:a5:c7:f4:5c:94:f6:44:7e:98:c8:8d:a9:44:bb:
                    2d:54:e8:bf:b9:ff:ac:02:29:a4:9c:ea:48:ca:fb:
                    07:e0:f3:01:1e:0b:cc:ba:dc:d5:6c:b0:7d:ec:a8:
                    4a:27:7d:37:da:17:53:28:0b:50:53:46:f9:f9:e2:
                    95:f4:f3:e2:10
                ASN1 OID: prime256v1
                NIST CURVE: P-256
        X509v3 extensions:
            X509v3 Key Usage: critical
                Digital Signature, Key Encipherment
            X509v3 Basic Constraints: critical
                CA:FALSE, pathlen:3
    Signature Algorithm: ecdsa-with-SHA256
         30:45:02:21:00:e2:12:11:94:63:c9:65:90:b0:45:0e:9b:90:
         b4:5a:91:c1:59:4e:22:42:65:92:fc:38:bd:fc:7b:92:52:73:
         57:02:20:36:8d:26:f5:54:70:f5:14:65:dd:1e:78:e0:5d:4c:
         a7:8d:b3:d7:57:3f:df:b9:0d:46:0c:b2:44:c1:16:6c:fb
-----BEGIN CERTIFICATE-----
MIIB9TCCAZugAwIBAgIBITAKBggqhkjOPQQDAjCBmTEYMBYGA1UEAwwPUmVnaW9u
ZSBTaWNpbGlhMQswCQYDVQQGEwJJVDEPMA0GA1UECAwGSXRhbGlhMRgwFgYDVQQK
DA9FLVZvdGluZyBzeXN0ZW0xIjAgBgNVBAsMGUUtVm90aW5nIHN5c3RlbSBhdXRo
b3JpdHkxITAfBgkqhkiG9w0BCQEWElNpY2lsaWFAZXZvdGluZy5pdDAeFw0yMjA4
MDMxMzI4MzRaFw0yMzA4MDMxMzI4MzRaMEkxDzANBgNVBAMMBkNsYXVkZTELMAkG
A1UEBhMCSVQxDzANBgNVBAgMBkl0YWxpYTEYMBYGA1UECgwPUmVnaW9uZSBTaWNp
bGlhMFkwEwYHKoZIzj0CAQYIKoZIzj0DAQcDQgAEpcf0XJT2RH6YyI2pRLstVOi/
uf+sAimknOpIyvsH4PMBHgvMutzVbLB97KhKJ3032hdTKAtQU0b5+eKV9PPiEKMj
MCEwDgYDVR0PAQH/BAQDAgWgMA8GA1UdEwEB/wQFMAMCAQMwCgYIKoZIzj0EAwID
SAAwRQIhAOISEZRjyWWQsEUOm5C0WpHBWU4iQmWS/Di9/HuSUnNXAiA2jSb1VHD1
FGXdHnjgXUynjbPXVz/fuQ1GDLJEwRZs+w==
-----END CERTIFICATE-----
