Certificate:
    Data:
        Version: 3 (0x2)
        Serial Number: 33 (0x21)
        Signature Algorithm: ecdsa-with-SHA256
        Issuer: CN=Regione Veneto, C=IT, ST=Italia, O=E-Voting system, OU=E-Voting system authority/emailAddress=Veneto@evoting.it
        Validity
            Not Before: Aug 26 15:21:50 2022 GMT
            Not After : Aug 26 15:21:50 2023 GMT
        Subject: CN=Harvey, C=IT, ST=Italia, O=Regione Veneto
        Subject Public Key Info:
            Public Key Algorithm: id-ecPublicKey
                Public-Key: (256 bit)
                pub:
                    04:94:f0:3b:44:7d:3f:62:5b:09:1f:15:1b:ff:b4:
                    26:56:65:51:9c:15:8f:97:a2:9a:92:de:9f:f5:ce:
                    5f:af:6b:bd:3e:7c:10:3f:fa:58:e8:57:08:63:e2:
                    9c:0d:34:8a:b4:c8:c2:98:b5:f3:3e:92:c7:4d:cc:
                    58:64:f3:7d:c0
                ASN1 OID: secp256k1
        X509v3 extensions:
            X509v3 Key Usage: critical
                Digital Signature, Key Encipherment
            X509v3 Basic Constraints: critical
                CA:FALSE, pathlen:3
    Signature Algorithm: ecdsa-with-SHA256
         30:44:02:20:59:c9:19:7a:72:4f:5d:39:85:98:7c:08:76:e7:
         18:14:20:36:02:81:c0:16:a9:07:d0:c3:2c:e8:57:e3:0c:e2:
         02:20:40:82:00:9d:dd:14:2b:06:4a:9e:4c:3a:82:4e:f2:03:
         0c:8a:ac:a6:7d:0a:46:62:a6:2d:45:94:46:16:1c:35
-----BEGIN CERTIFICATE-----
MIIB7jCCAZWgAwIBAgIBITAKBggqhkjOPQQDAjCBlzEXMBUGA1UEAwwOUmVnaW9u
ZSBWZW5ldG8xCzAJBgNVBAYTAklUMQ8wDQYDVQQIDAZJdGFsaWExGDAWBgNVBAoM
D0UtVm90aW5nIHN5c3RlbTEiMCAGA1UECwwZRS1Wb3Rpbmcgc3lzdGVtIGF1dGhv
cml0eTEgMB4GCSqGSIb3DQEJARYRVmVuZXRvQGV2b3RpbmcuaXQwHhcNMjIwODI2
MTUyMTUwWhcNMjMwODI2MTUyMTUwWjBIMQ8wDQYDVQQDDAZIYXJ2ZXkxCzAJBgNV
BAYTAklUMQ8wDQYDVQQIDAZJdGFsaWExFzAVBgNVBAoMDlJlZ2lvbmUgVmVuZXRv
MFYwEAYHKoZIzj0CAQYFK4EEAAoDQgAElPA7RH0/YlsJHxUb/7QmVmVRnBWPl6Ka
kt6f9c5fr2u9PnwQP/pY6FcIY+KcDTSKtMjCmLXzPpLHTcxYZPN9wKMjMCEwDgYD
VR0PAQH/BAQDAgWgMA8GA1UdEwEB/wQFMAMCAQMwCgYIKoZIzj0EAwIDRwAwRAIg
WckZenJPXTmFmHwIducYFCA2AoHAFqkH0MMs6FfjDOICIECCAJ3dFCsGSp5MOoJO
8gMMiqymfQpGYqYtRZRGFhw1
-----END CERTIFICATE-----
