Certificate:
    Data:
        Version: 3 (0x2)
        Serial Number: 36 (0x24)
        Signature Algorithm: ecdsa-with-SHA256
        Issuer: CN=Regione Basilicata, C=IT, ST=Italia, O=E-Voting system, OU=E-Voting system authority/emailAddress=Basilicata@evoting.it
        Validity
            Not Before: Aug 26 15:21:22 2022 GMT
            Not After : Aug 26 15:21:22 2023 GMT
        Subject: CN=Arnold, C=IT, ST=Italia, O=Regione Basilicata
        Subject Public Key Info:
            Public Key Algorithm: id-ecPublicKey
                Public-Key: (256 bit)
                pub:
                    04:3a:27:22:d0:5a:d7:02:39:30:67:16:83:31:76:
                    df:6e:b2:3f:ab:30:f4:dc:f3:86:4e:b2:8c:17:c1:
                    22:40:1d:db:bb:bb:a0:af:65:40:7f:2b:19:d2:4a:
                    23:02:84:79:60:35:61:da:df:31:67:4b:d7:ad:fa:
                    ab:7f:52:99:d9
                ASN1 OID: secp256k1
        X509v3 extensions:
            X509v3 Key Usage: critical
                Digital Signature, Key Encipherment
            X509v3 Basic Constraints: critical
                CA:FALSE, pathlen:3
    Signature Algorithm: ecdsa-with-SHA256
         30:44:02:20:61:63:cd:74:bc:06:10:45:37:87:b5:d1:5f:e2:
         9b:25:3d:0b:ea:b1:9d:8f:b1:fc:13:9a:5f:be:bd:05:fc:43:
         02:20:5f:46:7f:32:04:fb:74:d7:91:6f:9d:a2:67:c3:b8:0e:
         07:8b:4e:27:64:f7:df:42:22:80:e6:3b:f0:4f:bc:b3
-----BEGIN CERTIFICATE-----
MIIB+jCCAaGgAwIBAgIBJDAKBggqhkjOPQQDAjCBnzEbMBkGA1UEAwwSUmVnaW9u
ZSBCYXNpbGljYXRhMQswCQYDVQQGEwJJVDEPMA0GA1UECAwGSXRhbGlhMRgwFgYD
VQQKDA9FLVZvdGluZyBzeXN0ZW0xIjAgBgNVBAsMGUUtVm90aW5nIHN5c3RlbSBh
dXRob3JpdHkxJDAiBgkqhkiG9w0BCQEWFUJhc2lsaWNhdGFAZXZvdGluZy5pdDAe
Fw0yMjA4MjYxNTIxMjJaFw0yMzA4MjYxNTIxMjJaMEwxDzANBgNVBAMMBkFybm9s
ZDELMAkGA1UEBhMCSVQxDzANBgNVBAgMBkl0YWxpYTEbMBkGA1UECgwSUmVnaW9u
ZSBCYXNpbGljYXRhMFYwEAYHKoZIzj0CAQYFK4EEAAoDQgAEOici0FrXAjkwZxaD
MXbfbrI/qzD03POGTrKMF8EiQB3bu7ugr2VAfysZ0kojAoR5YDVh2t8xZ0vXrfqr
f1KZ2aMjMCEwDgYDVR0PAQH/BAQDAgWgMA8GA1UdEwEB/wQFMAMCAQMwCgYIKoZI
zj0EAwIDRwAwRAIgYWPNdLwGEEU3h7XRX+KbJT0L6rGdj7H8E5pfvr0F/EMCIF9G
fzIE+3TXkW+domfDuA4Hi04nZPffQiKA5jvwT7yz
-----END CERTIFICATE-----
