Certificate:
    Data:
        Version: 3 (0x2)
        Serial Number: 36 (0x24)
        Signature Algorithm: ecdsa-with-SHA256
        Issuer: CN=Regione Umbria, C=IT, ST=Italia, O=E-Voting system, OU=E-Voting system authority/emailAddress=Umbria@evoting.it
        Validity
            Not Before: Aug  3 13:28:39 2022 GMT
            Not After : Aug  3 13:28:39 2023 GMT
        Subject: CN=Arlene, C=IT, ST=Italia, O=Regione Umbria
        Subject Public Key Info:
            Public Key Algorithm: id-ecPublicKey
                Public-Key: (256 bit)
                pub:
                    04:6a:31:cb:bf:74:a6:9d:29:d9:b8:8a:fd:5b:ea:
                    df:e6:86:a1:92:a1:57:99:29:f7:88:ab:d1:13:37:
                    01:28:3f:f4:07:fe:3d:ff:bd:9a:a6:54:bc:8c:7f:
                    4f:28:e6:f3:7f:6a:c5:95:ae:da:ce:42:99:b0:f5:
                    0a:5c:00:cb:ab
                ASN1 OID: prime256v1
                NIST CURVE: P-256
        X509v3 extensions:
            X509v3 Key Usage: critical
                Digital Signature, Key Encipherment
            X509v3 Basic Constraints: critical
                CA:FALSE, pathlen:3
    Signature Algorithm: ecdsa-with-SHA256
         30:45:02:21:00:b1:3f:ec:8e:0f:ea:ff:6b:ab:ec:f1:3b:d7:
         a0:fb:44:ec:a2:c5:5d:e3:f8:6c:c8:ad:d7:8b:f6:7b:10:a6:
         f4:02:20:0b:f5:93:0d:f7:20:70:d1:52:ab:2c:0c:e5:4a:5e:
         11:2e:02:bb:df:11:bd:3a:a2:cb:25:b1:7f:f6:d8:2c:46
-----BEGIN CERTIFICATE-----
MIIB8jCCAZigAwIBAgIBJDAKBggqhkjOPQQDAjCBlzEXMBUGA1UEAwwOUmVnaW9u
ZSBVbWJyaWExCzAJBgNVBAYTAklUMQ8wDQYDVQQIDAZJdGFsaWExGDAWBgNVBAoM
D0UtVm90aW5nIHN5c3RlbTEiMCAGA1UECwwZRS1Wb3Rpbmcgc3lzdGVtIGF1dGhv
cml0eTEgMB4GCSqGSIb3DQEJARYRVW1icmlhQGV2b3RpbmcuaXQwHhcNMjIwODAz
MTMyODM5WhcNMjMwODAzMTMyODM5WjBIMQ8wDQYDVQQDDAZBcmxlbmUxCzAJBgNV
BAYTAklUMQ8wDQYDVQQIDAZJdGFsaWExFzAVBgNVBAoMDlJlZ2lvbmUgVW1icmlh
MFkwEwYHKoZIzj0CAQYIKoZIzj0DAQcDQgAEajHLv3SmnSnZuIr9W+rf5oahkqFX
mSn3iKvREzcBKD/0B/49/72aplS8jH9PKObzf2rFla7azkKZsPUKXADLq6MjMCEw
DgYDVR0PAQH/BAQDAgWgMA8GA1UdEwEB/wQFMAMCAQMwCgYIKoZIzj0EAwIDSAAw
RQIhALE/7I4P6v9rq+zxO9eg+0TsosVd4/hsyK3Xi/Z7EKb0AiAL9ZMN9yBw0VKr
LAzlSl4RLgK73xG9OqLLJbF/9tgsRg==
-----END CERTIFICATE-----
