Certificate:
    Data:
        Version: 3 (0x2)
        Serial Number: 37 (0x25)
        Signature Algorithm: ecdsa-with-SHA256
        Issuer: CN=Regione Umbria, C=IT, ST=Italia, O=E-Voting system, OU=E-Voting system authority/emailAddress=Umbria@evoting.it
        Validity
            Not Before: Aug  3 13:28:40 2022 GMT
            Not After : Aug  3 13:28:40 2023 GMT
        Subject: CN=Debbie, C=IT, ST=Italia, O=Regione Umbria
        Subject Public Key Info:
            Public Key Algorithm: id-ecPublicKey
                Public-Key: (256 bit)
                pub:
                    04:36:8b:c8:37:95:c3:e8:a5:61:b3:9a:0c:0c:eb:
                    37:14:ca:0c:96:4e:34:ec:14:17:fd:a8:45:04:d8:
                    25:03:9b:6a:29:18:88:0e:d8:21:ee:f9:bb:51:c6:
                    9e:93:01:99:f7:f8:db:b6:6a:bb:8a:54:53:ad:77:
                    75:33:40:01:55
                ASN1 OID: prime256v1
                NIST CURVE: P-256
        X509v3 extensions:
            X509v3 Key Usage: critical
                Digital Signature, Key Encipherment
            X509v3 Basic Constraints: critical
                CA:FALSE, pathlen:3
    Signature Algorithm: ecdsa-with-SHA256
         30:45:02:20:1e:4e:06:66:32:4e:12:96:26:e6:81:68:58:b3:
         cd:9d:2f:47:b4:76:0a:2c:f6:ba:7d:13:41:4c:38:ca:29:88:
         02:21:00:9e:ae:27:a3:5a:6a:f4:bc:02:72:35:9d:dd:bf:85:
         d4:69:4e:7a:75:5f:84:e8:d0:05:75:aa:b9:44:32:65:9c
-----BEGIN CERTIFICATE-----
MIIB8jCCAZigAwIBAgIBJTAKBggqhkjOPQQDAjCBlzEXMBUGA1UEAwwOUmVnaW9u
ZSBVbWJyaWExCzAJBgNVBAYTAklUMQ8wDQYDVQQIDAZJdGFsaWExGDAWBgNVBAoM
D0UtVm90aW5nIHN5c3RlbTEiMCAGA1UECwwZRS1Wb3Rpbmcgc3lzdGVtIGF1dGhv
cml0eTEgMB4GCSqGSIb3DQEJARYRVW1icmlhQGV2b3RpbmcuaXQwHhcNMjIwODAz
MTMyODQwWhcNMjMwODAzMTMyODQwWjBIMQ8wDQYDVQQDDAZEZWJiaWUxCzAJBgNV
BAYTAklUMQ8wDQYDVQQIDAZJdGFsaWExFzAVBgNVBAoMDlJlZ2lvbmUgVW1icmlh
MFkwEwYHKoZIzj0CAQYIKoZIzj0DAQcDQgAENovIN5XD6KVhs5oMDOs3FMoMlk40
7BQX/ahFBNglA5tqKRiIDtgh7vm7UcaekwGZ9/jbtmq7ilRTrXd1M0ABVaMjMCEw
DgYDVR0PAQH/BAQDAgWgMA8GA1UdEwEB/wQFMAMCAQMwCgYIKoZIzj0EAwIDSAAw
RQIgHk4GZjJOEpYm5oFoWLPNnS9HtHYKLPa6fRNBTDjKKYgCIQCeriejWmr0vAJy
NZ3dv4XUaU56dV+E6NAFdaq5RDJlnA==
-----END CERTIFICATE-----
