Certificate:
    Data:
        Version: 3 (0x2)
        Serial Number: 42 (0x2a)
        Signature Algorithm: ecdsa-with-SHA256
        Issuer: CN=Regione Friuli_Venezia_Giulia, C=IT, ST=Italia, O=E-Voting system, OU=E-Voting system authority/emailAddress=Friuli_Venezia_Giulia@evoting.it
        Validity
            Not Before: Aug 26 15:21:40 2022 GMT
            Not After : Aug 26 15:21:40 2023 GMT
        Subject: CN=Debra, C=IT, ST=Italia, O=Regione Friuli_Venezia_Giulia
        Subject Public Key Info:
            Public Key Algorithm: id-ecPublicKey
                Public-Key: (256 bit)
                pub:
                    04:a3:55:0a:64:80:16:54:22:dc:62:c9:54:96:09:
                    f9:38:3b:fe:cc:23:41:4b:53:36:b6:30:9a:1f:96:
                    1f:68:ad:1e:29:d7:8f:46:32:b8:18:31:98:f8:23:
                    15:e5:f3:1f:2b:74:d8:ee:e0:a6:7a:9d:ed:a9:ee:
                    bb:4c:1e:26:fc
                ASN1 OID: secp256k1
        X509v3 extensions:
            X509v3 Key Usage: critical
                Digital Signature, Key Encipherment
            X509v3 Basic Constraints: critical
                CA:FALSE, pathlen:3
    Signature Algorithm: ecdsa-with-SHA256
         30:44:02:20:6a:d6:a9:af:df:57:14:64:51:2f:1f:5d:95:53:
         68:6a:16:57:21:b7:83:eb:ab:c4:de:72:00:ce:95:a0:f1:29:
         02:20:09:d6:76:d4:90:5f:ea:f1:4f:34:28:14:bc:61:ec:b3:
         4a:9c:f9:fd:a5:5b:d0:9d:0f:ef:18:7a:52:e9:ff:71
-----BEGIN CERTIFICATE-----
MIICGjCCAcGgAwIBAgIBKjAKBggqhkjOPQQDAjCBtTEmMCQGA1UEAwwdUmVnaW9u
ZSBGcml1bGlfVmVuZXppYV9HaXVsaWExCzAJBgNVBAYTAklUMQ8wDQYDVQQIDAZJ
dGFsaWExGDAWBgNVBAoMD0UtVm90aW5nIHN5c3RlbTEiMCAGA1UECwwZRS1Wb3Rp
bmcgc3lzdGVtIGF1dGhvcml0eTEvMC0GCSqGSIb3DQEJARYgRnJpdWxpX1ZlbmV6
aWFfR2l1bGlhQGV2b3RpbmcuaXQwHhcNMjIwODI2MTUyMTQwWhcNMjMwODI2MTUy
MTQwWjBWMQ4wDAYDVQQDDAVEZWJyYTELMAkGA1UEBhMCSVQxDzANBgNVBAgMBkl0
YWxpYTEmMCQGA1UECgwdUmVnaW9uZSBGcml1bGlfVmVuZXppYV9HaXVsaWEwVjAQ
BgcqhkjOPQIBBgUrgQQACgNCAASjVQpkgBZUItxiyVSWCfk4O/7MI0FLUza2MJof
lh9orR4p149GMrgYMZj4IxXl8x8rdNju4KZ6ne2p7rtMHib8oyMwITAOBgNVHQ8B
Af8EBAMCBaAwDwYDVR0TAQH/BAUwAwIBAzAKBggqhkjOPQQDAgNHADBEAiBq1qmv
31cUZFEvH12VU2hqFlcht4Prq8TecgDOlaDxKQIgCdZ21JBf6vFPNCgUvGHss0qc
+f2lW9CdD+8YelLp/3E=
-----END CERTIFICATE-----
