Certificate:
    Data:
        Version: 3 (0x2)
        Serial Number: 43 (0x2b)
        Signature Algorithm: ecdsa-with-SHA256
        Issuer: CN=Regione Puglia, C=IT, ST=Italia, O=E-Voting system, OU=E-Voting system authority/emailAddress=Puglia@evoting.it
        Validity
            Not Before: Aug  3 13:28:48 2022 GMT
            Not After : Aug  3 13:28:48 2023 GMT
        Subject: CN=Madelyn, C=IT, ST=Italia, O=Regione Puglia
        Subject Public Key Info:
            Public Key Algorithm: id-ecPublicKey
                Public-Key: (256 bit)
                pub:
                    04:72:2b:34:6a:e9:44:09:63:2f:14:02:b6:4c:11:
                    f8:14:a3:6c:a8:e7:7b:2f:cc:08:39:a2:62:50:a5:
                    88:47:89:cb:d6:2b:13:1b:b7:fb:de:3b:0a:3a:21:
                    51:b6:83:d4:3d:f9:05:08:52:3c:ee:03:f1:3c:b9:
                    a2:bf:8d:0a:b6
                ASN1 OID: prime256v1
                NIST CURVE: P-256
        X509v3 extensions:
            X509v3 Key Usage: critical
                Digital Signature, Key Encipherment
            X509v3 Basic Constraints: critical
                CA:FALSE, pathlen:3
    Signature Algorithm: ecdsa-with-SHA256
         30:46:02:21:00:bd:bc:24:cc:48:76:50:1a:16:31:ce:89:da:
         de:f7:9e:c6:99:f0:e1:e1:08:72:b4:3d:47:e3:86:3a:ee:d8:
         e3:02:21:00:db:b4:61:1c:dd:ea:c6:43:b8:7f:6c:1c:89:4e:
         f5:70:86:cd:42:8e:dd:e6:b2:51:3d:e1:a2:f7:7f:0a:3d:3d
-----BEGIN CERTIFICATE-----
MIIB9DCCAZmgAwIBAgIBKzAKBggqhkjOPQQDAjCBlzEXMBUGA1UEAwwOUmVnaW9u
ZSBQdWdsaWExCzAJBgNVBAYTAklUMQ8wDQYDVQQIDAZJdGFsaWExGDAWBgNVBAoM
D0UtVm90aW5nIHN5c3RlbTEiMCAGA1UECwwZRS1Wb3Rpbmcgc3lzdGVtIGF1dGhv
cml0eTEgMB4GCSqGSIb3DQEJARYRUHVnbGlhQGV2b3RpbmcuaXQwHhcNMjIwODAz
MTMyODQ4WhcNMjMwODAzMTMyODQ4WjBJMRAwDgYDVQQDDAdNYWRlbHluMQswCQYD
VQQGEwJJVDEPMA0GA1UECAwGSXRhbGlhMRcwFQYDVQQKDA5SZWdpb25lIFB1Z2xp
YTBZMBMGByqGSM49AgEGCCqGSM49AwEHA0IABHIrNGrpRAljLxQCtkwR+BSjbKjn
ey/MCDmiYlCliEeJy9YrExu3+947CjohUbaD1D35BQhSPO4D8Ty5or+NCrajIzAh
MA4GA1UdDwEB/wQEAwIFoDAPBgNVHRMBAf8EBTADAgEDMAoGCCqGSM49BAMCA0kA
MEYCIQC9vCTMSHZQGhYxzona3veexpnw4eEIcrQ9R+OGOu7Y4wIhANu0YRzd6sZD
uH9sHIlO9XCGzUKO3eayUT3hovd/Cj09
-----END CERTIFICATE-----
