Certificate:
    Data:
        Version: 3 (0x2)
        Serial Number: 44 (0x2c)
        Signature Algorithm: ecdsa-with-SHA256
        Issuer: CN=Regione Puglia, C=IT, ST=Italia, O=E-Voting system, OU=E-Voting system authority/emailAddress=Puglia@evoting.it
        Validity
            Not Before: Aug  3 13:28:49 2022 GMT
            Not After : Aug  3 13:28:49 2023 GMT
        Subject: CN=Hosea, C=IT, ST=Italia, O=Regione Puglia
        Subject Public Key Info:
            Public Key Algorithm: id-ecPublicKey
                Public-Key: (256 bit)
                pub:
                    04:31:4c:fd:46:d0:4b:02:67:1f:76:d0:8d:e8:57:
                    11:c9:3d:b0:15:c6:3f:68:4d:a9:0b:db:48:b9:24:
                    58:d2:5a:c8:dd:f4:71:76:1b:89:c2:aa:e9:eb:ed:
                    6a:02:23:8d:01:8c:73:56:70:4c:ac:e0:30:ee:36:
                    76:34:d4:20:af
                ASN1 OID: prime256v1
                NIST CURVE: P-256
        X509v3 extensions:
            X509v3 Key Usage: critical
                Digital Signature, Key Encipherment
            X509v3 Basic Constraints: critical
                CA:FALSE, pathlen:3
    Signature Algorithm: ecdsa-with-SHA256
         30:44:02:20:36:3f:f7:8c:62:27:3d:48:da:3d:d2:ee:58:9a:
         c8:7d:e3:3c:ed:60:38:eb:a1:44:f5:2a:a6:f8:1a:ca:c7:93:
         02:20:65:e4:98:c7:49:a5:eb:21:01:51:5e:ea:8a:2b:b3:bf:
         49:b3:77:4b:12:22:25:6e:74:a2:92:09:ef:04:df:57
-----BEGIN CERTIFICATE-----
MIIB8DCCAZegAwIBAgIBLDAKBggqhkjOPQQDAjCBlzEXMBUGA1UEAwwOUmVnaW9u
ZSBQdWdsaWExCzAJBgNVBAYTAklUMQ8wDQYDVQQIDAZJdGFsaWExGDAWBgNVBAoM
D0UtVm90aW5nIHN5c3RlbTEiMCAGA1UECwwZRS1Wb3Rpbmcgc3lzdGVtIGF1dGhv
cml0eTEgMB4GCSqGSIb3DQEJARYRUHVnbGlhQGV2b3RpbmcuaXQwHhcNMjIwODAz
MTMyODQ5WhcNMjMwODAzMTMyODQ5WjBHMQ4wDAYDVQQDDAVIb3NlYTELMAkGA1UE
BhMCSVQxDzANBgNVBAgMBkl0YWxpYTEXMBUGA1UECgwOUmVnaW9uZSBQdWdsaWEw
WTATBgcqhkjOPQIBBggqhkjOPQMBBwNCAAQxTP1G0EsCZx920I3oVxHJPbAVxj9o
TakL20i5JFjSWsjd9HF2G4nCqunr7WoCI40BjHNWcEys4DDuNnY01CCvoyMwITAO
BgNVHQ8BAf8EBAMCBaAwDwYDVR0TAQH/BAUwAwIBAzAKBggqhkjOPQQDAgNHADBE
AiA2P/eMYic9SNo90u5Ymsh94zztYDjroUT1Kqb4GsrHkwIgZeSYx0ml6yEBUV7q
iiuzv0mzd0sSIiVudKKSCe8E31c=
-----END CERTIFICATE-----
