Certificate:
    Data:
        Version: 3 (0x2)
        Serial Number: 48 (0x30)
        Signature Algorithm: ecdsa-with-SHA256
        Issuer: CN=Regione Lazio, C=IT, ST=Italia, O=E-Voting system, OU=E-Voting system authority/emailAddress=Lazio@evoting.it
        Validity
            Not Before: Aug 26 15:21:46 2022 GMT
            Not After : Aug 26 15:21:46 2023 GMT
        Subject: CN=Ralph, C=IT, ST=Italia, O=Regione Lazio
        Subject Public Key Info:
            Public Key Algorithm: id-ecPublicKey
                Public-Key: (256 bit)
                pub:
                    04:19:83:d2:d3:1f:47:f8:bf:59:69:9e:2d:66:ed:
                    35:50:a0:12:0b:8f:43:61:13:dc:e9:eb:45:8f:80:
                    ba:40:6a:02:42:26:33:a6:30:82:9e:4b:b1:a9:7e:
                    97:e3:bb:01:da:dd:b0:8e:16:c7:a3:d2:83:3c:d9:
                    ae:08:72:df:17
                ASN1 OID: secp256k1
        X509v3 extensions:
            X509v3 Key Usage: critical
                Digital Signature, Key Encipherment
            X509v3 Basic Constraints: critical
                CA:FALSE, pathlen:3
    Signature Algorithm: ecdsa-with-SHA256
         30:44:02:20:2b:b8:7a:c4:9c:d5:57:1e:dc:6c:73:4e:a1:ea:
         ed:b1:53:67:7f:81:3c:b8:6c:ce:f4:52:77:4a:aa:aa:c5:0f:
         02:20:73:d6:67:c2:ec:e4:d0:24:1d:05:11:4f:12:2f:9d:e2:
         5e:89:0f:d6:3f:bf:a0:c5:fa:5d:ed:09:0e:08:ef:e4
-----BEGIN CERTIFICATE-----
MIIB6jCCAZGgAwIBAgIBMDAKBggqhkjOPQQDAjCBlTEWMBQGA1UEAwwNUmVnaW9u
ZSBMYXppbzELMAkGA1UEBhMCSVQxDzANBgNVBAgMBkl0YWxpYTEYMBYGA1UECgwP
RS1Wb3Rpbmcgc3lzdGVtMSIwIAYDVQQLDBlFLVZvdGluZyBzeXN0ZW0gYXV0aG9y
aXR5MR8wHQYJKoZIhvcNAQkBFhBMYXppb0Bldm90aW5nLml0MB4XDTIyMDgyNjE1
MjE0NloXDTIzMDgyNjE1MjE0NlowRjEOMAwGA1UEAwwFUmFscGgxCzAJBgNVBAYT
AklUMQ8wDQYDVQQIDAZJdGFsaWExFjAUBgNVBAoMDVJlZ2lvbmUgTGF6aW8wVjAQ
BgcqhkjOPQIBBgUrgQQACgNCAAQZg9LTH0f4v1lpni1m7TVQoBILj0NhE9zp60WP
gLpAagJCJjOmMIKeS7GpfpfjuwHa3bCOFsej0oM82a4Ict8XoyMwITAOBgNVHQ8B
Af8EBAMCBaAwDwYDVR0TAQH/BAUwAwIBAzAKBggqhkjOPQQDAgNHADBEAiAruHrE
nNVXHtxsc06h6u2xU2d/gTy4bM70UndKqqrFDwIgc9Znwuzk0CQdBRFPEi+d4l6J
D9Y/v6DF+l3tCQ4I7+Q=
-----END CERTIFICATE-----
