Certificate:
    Data:
        Version: 3 (0x2)
        Serial Number: 49 (0x31)
        Signature Algorithm: ecdsa-with-SHA256
        Issuer: CN=Regione Emilia_Romagna, C=IT, ST=Italia, O=E-Voting system, OU=E-Voting system authority/emailAddress=Emilia_Romagna@evoting.it
        Validity
            Not Before: Aug  3 13:28:51 2022 GMT
            Not After : Aug  3 13:28:51 2023 GMT
        Subject: CN=Sarah, C=IT, ST=Italia, O=Regione Emilia_Romagna
        Subject Public Key Info:
            Public Key Algorithm: id-ecPublicKey
                Public-Key: (256 bit)
                pub:
                    04:c2:f1:d2:b1:55:2c:7d:f0:39:7a:10:b9:d6:35:
                    36:75:09:04:4d:e3:eb:4d:29:e6:74:f0:87:31:53:
                    30:a0:e8:8b:47:11:00:74:4a:55:83:7a:f8:b2:31:
                    de:b9:33:6f:e9:45:f3:32:86:a3:e6:d3:52:db:25:
                    fd:8b:8b:52:7b
                ASN1 OID: prime256v1
                NIST CURVE: P-256
        X509v3 extensions:
            X509v3 Key Usage: critical
                Digital Signature, Key Encipherment
            X509v3 Basic Constraints: critical
                CA:FALSE, pathlen:3
    Signature Algorithm: ecdsa-with-SHA256
         30:45:02:20:0c:12:1d:59:e1:83:a4:e8:11:58:66:85:a0:4e:
         f8:65:59:41:ca:76:4d:36:66:b7:94:a7:d0:64:ff:5c:c6:64:
         02:21:00:c0:7b:d4:45:55:1e:9e:9f:da:85:97:85:32:c3:02:
         5d:65:f3:b2:9d:e5:3d:fe:8c:9f:ea:cc:f5:ad:cf:95:ad
-----BEGIN CERTIFICATE-----
MIICCTCCAa+gAwIBAgIBMTAKBggqhkjOPQQDAjCBpzEfMB0GA1UEAwwWUmVnaW9u
ZSBFbWlsaWFfUm9tYWduYTELMAkGA1UEBhMCSVQxDzANBgNVBAgMBkl0YWxpYTEY
MBYGA1UECgwPRS1Wb3Rpbmcgc3lzdGVtMSIwIAYDVQQLDBlFLVZvdGluZyBzeXN0
ZW0gYXV0aG9yaXR5MSgwJgYJKoZIhvcNAQkBFhlFbWlsaWFfUm9tYWduYUBldm90
aW5nLml0MB4XDTIyMDgwMzEzMjg1MVoXDTIzMDgwMzEzMjg1MVowTzEOMAwGA1UE
AwwFU2FyYWgxCzAJBgNVBAYTAklUMQ8wDQYDVQQIDAZJdGFsaWExHzAdBgNVBAoM
FlJlZ2lvbmUgRW1pbGlhX1JvbWFnbmEwWTATBgcqhkjOPQIBBggqhkjOPQMBBwNC
AATC8dKxVSx98Dl6ELnWNTZ1CQRN4+tNKeZ08IcxUzCg6ItHEQB0SlWDeviyMd65
M2/pRfMyhqPm01LbJf2Li1J7oyMwITAOBgNVHQ8BAf8EBAMCBaAwDwYDVR0TAQH/
BAUwAwIBAzAKBggqhkjOPQQDAgNIADBFAiAMEh1Z4YOk6BFYZoWgTvhlWUHKdk02
ZreUp9Bk/1zGZAIhAMB71EVVHp6f2oWXhTLDAl1l87Kd5T3+jJ/qzPWtz5Wt
-----END CERTIFICATE-----
