Certificate:
    Data:
        Version: 3 (0x2)
        Serial Number: 51 (0x33)
        Signature Algorithm: ecdsa-with-SHA256
        Issuer: CN=Regione Marche, C=IT, ST=Italia, O=E-Voting system, OU=E-Voting system authority/emailAddress=Marche@evoting.it
        Validity
            Not Before: Aug  3 13:28:49 2022 GMT
            Not After : Aug  3 13:28:49 2023 GMT
        Subject: CN=Stuart, C=IT, ST=Italia, O=Regione Marche
        Subject Public Key Info:
            Public Key Algorithm: id-ecPublicKey
                Public-Key: (256 bit)
                pub:
                    04:b7:d0:3b:f0:84:0c:6f:c0:83:77:fe:ac:c2:94:
                    0f:d3:98:8d:6a:29:16:be:8d:a3:3f:a2:91:b7:cf:
                    bd:da:6b:8d:58:a8:ee:3d:69:1e:73:5f:74:8c:3d:
                    56:69:4e:6f:bc:ca:a5:91:81:a1:1e:67:bc:09:83:
                    16:bd:17:be:43
                ASN1 OID: prime256v1
                NIST CURVE: P-256
        X509v3 extensions:
            X509v3 Key Usage: critical
                Digital Signature, Key Encipherment
            X509v3 Basic Constraints: critical
                CA:FALSE, pathlen:3
    Signature Algorithm: ecdsa-with-SHA256
         30:44:02:20:62:d5:6c:c3:97:36:b5:f6:9a:50:8f:e5:ea:a2:
         3d:72:2d:f3:ab:ec:bc:55:58:be:f9:b6:2a:3b:ff:a8:8b:b7:
         02:20:1b:5a:43:b4:06:f7:5d:9a:85:cb:a5:f8:a7:fc:9f:db:
         88:88:61:56:3c:4c:e2:29:80:81:40:5e:f7:14:33:2d
-----BEGIN CERTIFICATE-----
MIIB8TCCAZigAwIBAgIBMzAKBggqhkjOPQQDAjCBlzEXMBUGA1UEAwwOUmVnaW9u
ZSBNYXJjaGUxCzAJBgNVBAYTAklUMQ8wDQYDVQQIDAZJdGFsaWExGDAWBgNVBAoM
D0UtVm90aW5nIHN5c3RlbTEiMCAGA1UECwwZRS1Wb3Rpbmcgc3lzdGVtIGF1dGhv
cml0eTEgMB4GCSqGSIb3DQEJARYRTWFyY2hlQGV2b3RpbmcuaXQwHhcNMjIwODAz
MTMyODQ5WhcNMjMwODAzMTMyODQ5WjBIMQ8wDQYDVQQDDAZTdHVhcnQxCzAJBgNV
BAYTAklUMQ8wDQYDVQQIDAZJdGFsaWExFzAVBgNVBAoMDlJlZ2lvbmUgTWFyY2hl
MFkwEwYHKoZIzj0CAQYIKoZIzj0DAQcDQgAEt9A78IQMb8CDd/6swpQP05iNaikW
vo2jP6KRt8+92muNWKjuPWkec190jD1WaU5vvMqlkYGhHme8CYMWvRe+Q6MjMCEw
DgYDVR0PAQH/BAQDAgWgMA8GA1UdEwEB/wQFMAMCAQMwCgYIKoZIzj0EAwIDRwAw
RAIgYtVsw5c2tfaaUI/l6qI9ci3zq+y8VVi++bYqO/+oi7cCIBtaQ7QG912ahcul
+Kf8n9uIiGFWPEziKYCBQF73FDMt
-----END CERTIFICATE-----
