Certificate:
    Data:
        Version: 3 (0x2)
        Serial Number: 51 (0x33)
        Signature Algorithm: ecdsa-with-SHA256
        Issuer: CN=Regione Lazio, C=IT, ST=Italia, O=E-Voting system, OU=E-Voting system authority/emailAddress=Lazio@evoting.it
        Validity
            Not Before: Aug 26 15:21:48 2022 GMT
            Not After : Aug 26 15:21:48 2023 GMT
        Subject: CN=Claudia, C=IT, ST=Italia, O=Regione Lazio
        Subject Public Key Info:
            Public Key Algorithm: id-ecPublicKey
                Public-Key: (256 bit)
                pub:
                    04:3e:4f:f0:c6:ec:03:fa:f2:8d:a3:de:35:b3:9f:
                    5b:29:4d:c3:c2:66:2a:c9:b4:ba:57:51:d7:95:53:
                    6e:5c:e0:4b:c9:2e:99:6c:f0:c6:6c:b7:0f:4f:ba:
                    f6:e8:f1:3c:6f:3b:71:eb:e1:22:d7:ea:56:24:94:
                    22:8a:8b:1d:f3
                ASN1 OID: secp256k1
        X509v3 extensions:
            X509v3 Key Usage: critical
                Digital Signature, Key Encipherment
            X509v3 Basic Constraints: critical
                CA:FALSE, pathlen:3
    Signature Algorithm: ecdsa-with-SHA256
         30:45:02:21:00:f7:ac:97:7f:c9:b2:b8:d5:a0:a9:e7:88:68:
         65:87:0f:bb:12:a8:45:d5:a6:4d:aa:77:18:5f:83:66:c9:cf:
         af:02:20:25:62:1b:6b:02:dd:fc:a4:66:4c:5d:53:26:fb:fc:
         06:91:9a:2a:d3:82:4d:55:0e:95:dd:d7:39:cb:7d:cc:0b
-----BEGIN CERTIFICATE-----
MIIB7TCCAZOgAwIBAgIBMzAKBggqhkjOPQQDAjCBlTEWMBQGA1UEAwwNUmVnaW9u
ZSBMYXppbzELMAkGA1UEBhMCSVQxDzANBgNVBAgMBkl0YWxpYTEYMBYGA1UECgwP
RS1Wb3Rpbmcgc3lzdGVtMSIwIAYDVQQLDBlFLVZvdGluZyBzeXN0ZW0gYXV0aG9y
aXR5MR8wHQYJKoZIhvcNAQkBFhBMYXppb0Bldm90aW5nLml0MB4XDTIyMDgyNjE1
MjE0OFoXDTIzMDgyNjE1MjE0OFowSDEQMA4GA1UEAwwHQ2xhdWRpYTELMAkGA1UE
BhMCSVQxDzANBgNVBAgMBkl0YWxpYTEWMBQGA1UECgwNUmVnaW9uZSBMYXppbzBW
MBAGByqGSM49AgEGBSuBBAAKA0IABD5P8MbsA/ryjaPeNbOfWylNw8JmKsm0uldR
15VTblzgS8kumWzwxmy3D0+69ujxPG87cevhItfqViSUIoqLHfOjIzAhMA4GA1Ud
DwEB/wQEAwIFoDAPBgNVHRMBAf8EBTADAgEDMAoGCCqGSM49BAMCA0gAMEUCIQD3
rJd/ybK41aCp54hoZYcPuxKoRdWmTap3GF+DZsnPrwIgJWIbawLd/KRmTF1TJvv8
BpGaKtOCTVUOld3XOct9zAs=
-----END CERTIFICATE-----
