Certificate:
    Data:
        Version: 3 (0x2)
        Serial Number: 53 (0x35)
        Signature Algorithm: ecdsa-with-SHA256
        Issuer: CN=Regione Lombardia, C=IT, ST=Italia, O=E-Voting system, OU=E-Voting system authority/emailAddress=Lombardia@evoting.it
        Validity
            Not Before: Aug  3 13:28:50 2022 GMT
            Not After : Aug  3 13:28:50 2023 GMT
        Subject: CN=Everett, C=IT, ST=Italia, O=Regione Lombardia
        Subject Public Key Info:
            Public Key Algorithm: id-ecPublicKey
                Public-Key: (256 bit)
                pub:
                    04:77:b1:6a:0b:c1:d4:b9:9f:9e:b6:6f:ba:4f:60:
                    2f:0b:14:c6:b5:8b:59:12:69:e8:30:36:02:56:cc:
                    c4:03:eb:13:e0:88:ee:e9:61:28:01:f0:23:b0:96:
                    a4:0c:b7:1c:66:ef:a6:06:25:4e:f9:a4:af:8c:d5:
                    4b:9d:d1:ce:4d
                ASN1 OID: prime256v1
                NIST CURVE: P-256
        X509v3 extensions:
            X509v3 Key Usage: critical
                Digital Signature, Key Encipherment
            X509v3 Basic Constraints: critical
                CA:FALSE, pathlen:3
    Signature Algorithm: ecdsa-with-SHA256
         30:44:02:20:6d:61:74:29:ac:0d:ae:1f:bc:21:a3:3a:de:ac:
         a5:22:2a:75:90:31:cb:4a:88:49:1d:b5:80:da:be:9f:c5:93:
         02:20:28:dc:58:92:87:93:6c:3c:fa:47:1a:f9:9a:74:3c:38:
         d9:0e:a5:ae:50:1b:6e:ec:74:22:7b:69:15:6a:9f:27
-----BEGIN CERTIFICATE-----
MIIB+zCCAaKgAwIBAgIBNTAKBggqhkjOPQQDAjCBnTEaMBgGA1UEAwwRUmVnaW9u
ZSBMb21iYXJkaWExCzAJBgNVBAYTAklUMQ8wDQYDVQQIDAZJdGFsaWExGDAWBgNV
BAoMD0UtVm90aW5nIHN5c3RlbTEiMCAGA1UECwwZRS1Wb3Rpbmcgc3lzdGVtIGF1
dGhvcml0eTEjMCEGCSqGSIb3DQEJARYUTG9tYmFyZGlhQGV2b3RpbmcuaXQwHhcN
MjIwODAzMTMyODUwWhcNMjMwODAzMTMyODUwWjBMMRAwDgYDVQQDDAdFdmVyZXR0
MQswCQYDVQQGEwJJVDEPMA0GA1UECAwGSXRhbGlhMRowGAYDVQQKDBFSZWdpb25l
IExvbWJhcmRpYTBZMBMGByqGSM49AgEGCCqGSM49AwEHA0IABHexagvB1LmfnrZv
uk9gLwsUxrWLWRJp6DA2AlbMxAPrE+CI7ulhKAHwI7CWpAy3HGbvpgYlTvmkr4zV
S53Rzk2jIzAhMA4GA1UdDwEB/wQEAwIFoDAPBgNVHRMBAf8EBTADAgEDMAoGCCqG
SM49BAMCA0cAMEQCIG1hdCmsDa4fvCGjOt6spSIqdZAxy0qISR21gNq+n8WTAiAo
3FiSh5NsPPpHGvmadDw42Q6lrlAbbux0IntpFWqfJw==
-----END CERTIFICATE-----
