Certificate:
    Data:
        Version: 3 (0x2)
        Serial Number: 53 (0x35)
        Signature Algorithm: ecdsa-with-SHA256
        Issuer: CN=Regione Piemonte, C=IT, ST=Italia, O=E-Voting system, OU=E-Voting system authority/emailAddress=Piemonte@evoting.it
        Validity
            Not Before: Aug 26 15:21:48 2022 GMT
            Not After : Aug 26 15:21:48 2023 GMT
        Subject: CN=Luke, C=IT, ST=Italia, O=Regione Piemonte
        Subject Public Key Info:
            Public Key Algorithm: id-ecPublicKey
                Public-Key: (256 bit)
                pub:
                    04:78:f1:8c:db:c5:2e:27:9b:2a:87:27:e7:33:ca:
                    58:2d:f8:a2:06:a7:14:63:bf:0f:f1:bb:c6:bd:20:
                    74:ff:2e:d8:3d:38:1e:61:3e:58:fd:0a:5f:7b:70:
                    01:5c:ee:75:36:f9:ed:71:2e:5f:30:4c:d9:6b:2f:
                    36:d8:a6:a4:67
                ASN1 OID: secp256k1
        X509v3 extensions:
            X509v3 Key Usage: critical
                Digital Signature, Key Encipherment
            X509v3 Basic Constraints: critical
                CA:FALSE, pathlen:3
    Signature Algorithm: ecdsa-with-SHA256
         30:44:02:20:6e:e0:12:82:da:88:8a:fd:e3:7b:de:88:94:30:
         4c:a9:d3:61:cd:eb:4f:73:b9:96:b4:fc:ea:64:12:a7:4d:bf:
         02:20:2a:18:54:14:cb:88:2e:00:33:68:01:56:e6:13:d9:e4:
         10:42:5a:a8:aa:53:f3:c7:ba:f4:97:87:49:25:2b:6c
-----BEGIN CERTIFICATE-----
MIIB8jCCAZmgAwIBAgIBNTAKBggqhkjOPQQDAjCBmzEZMBcGA1UEAwwQUmVnaW9u
ZSBQaWVtb250ZTELMAkGA1UEBhMCSVQxDzANBgNVBAgMBkl0YWxpYTEYMBYGA1UE
CgwPRS1Wb3Rpbmcgc3lzdGVtMSIwIAYDVQQLDBlFLVZvdGluZyBzeXN0ZW0gYXV0
aG9yaXR5MSIwIAYJKoZIhvcNAQkBFhNQaWVtb250ZUBldm90aW5nLml0MB4XDTIy
MDgyNjE1MjE0OFoXDTIzMDgyNjE1MjE0OFowSDENMAsGA1UEAwwETHVrZTELMAkG
A1UEBhMCSVQxDzANBgNVBAgMBkl0YWxpYTEZMBcGA1UECgwQUmVnaW9uZSBQaWVt
b250ZTBWMBAGByqGSM49AgEGBSuBBAAKA0IABHjxjNvFLiebKocn5zPKWC34ogan
FGO/D/G7xr0gdP8u2D04HmE+WP0KX3twAVzudTb57XEuXzBM2WsvNtimpGejIzAh
MA4GA1UdDwEB/wQEAwIFoDAPBgNVHRMBAf8EBTADAgEDMAoGCCqGSM49BAMCA0cA
MEQCIG7gEoLaiIr943veiJQwTKnTYc3rT3O5lrT86mQSp02/AiAqGFQUy4guADNo
AVbmE9nkEEJaqKpT88e69JeHSSUrbA==
-----END CERTIFICATE-----
