Certificate:
    Data:
        Version: 3 (0x2)
        Serial Number: 54 (0x36)
        Signature Algorithm: ecdsa-with-SHA256
        Issuer: CN=Regione Valle_d_Aosta, C=IT, ST=Italia, O=E-Voting system, OU=E-Voting system authority/emailAddress=Valle_d_Aosta@evoting.it
        Validity
            Not Before: Aug  3 13:28:45 2022 GMT
            Not After : Aug  3 13:28:45 2023 GMT
        Subject: CN=Kristi, C=IT, ST=Italia, O=Regione Valle_d_Aosta
        Subject Public Key Info:
            Public Key Algorithm: id-ecPublicKey
                Public-Key: (256 bit)
                pub:
                    04:ad:6b:02:b8:3f:f7:70:8e:e3:22:f6:12:8c:2b:
                    d1:01:de:f0:5b:4c:5f:46:53:58:48:93:6d:f2:6f:
                    01:55:84:50:5f:22:ea:40:46:e3:bb:57:8d:8d:db:
                    fe:c8:9e:95:da:8f:0b:ba:8e:53:51:7b:00:35:a6:
                    bd:da:01:28:c6
                ASN1 OID: prime256v1
                NIST CURVE: P-256
        X509v3 extensions:
            X509v3 Key Usage: critical
                Digital Signature, Key Encipherment
            X509v3 Basic Constraints: critical
                CA:FALSE, pathlen:3
    Signature Algorithm: ecdsa-with-SHA256
         30:45:02:20:21:50:db:3d:ac:44:79:3c:71:a6:b0:5c:0d:2e:
         e4:ad:7f:c6:83:8a:95:53:e4:e7:38:50:8a:c6:91:3a:47:05:
         02:21:00:93:12:e6:fe:8f:53:d4:85:d3:45:1d:d0:7e:8e:6c:
         53:27:b9:14:0f:d8:19:66:08:67:19:9d:4a:b5:70:9c:fb
-----BEGIN CERTIFICATE-----
MIICBzCCAa2gAwIBAgIBNjAKBggqhkjOPQQDAjCBpTEeMBwGA1UEAwwVUmVnaW9u
ZSBWYWxsZV9kX0Fvc3RhMQswCQYDVQQGEwJJVDEPMA0GA1UECAwGSXRhbGlhMRgw
FgYDVQQKDA9FLVZvdGluZyBzeXN0ZW0xIjAgBgNVBAsMGUUtVm90aW5nIHN5c3Rl
bSBhdXRob3JpdHkxJzAlBgkqhkiG9w0BCQEWGFZhbGxlX2RfQW9zdGFAZXZvdGlu
Zy5pdDAeFw0yMjA4MDMxMzI4NDVaFw0yMzA4MDMxMzI4NDVaME8xDzANBgNVBAMM
BktyaXN0aTELMAkGA1UEBhMCSVQxDzANBgNVBAgMBkl0YWxpYTEeMBwGA1UECgwV
UmVnaW9uZSBWYWxsZV9kX0Fvc3RhMFkwEwYHKoZIzj0CAQYIKoZIzj0DAQcDQgAE
rWsCuD/3cI7jIvYSjCvRAd7wW0xfRlNYSJNt8m8BVYRQXyLqQEbju1eNjdv+yJ6V
2o8Luo5TUXsANaa92gEoxqMjMCEwDgYDVR0PAQH/BAQDAgWgMA8GA1UdEwEB/wQF
MAMCAQMwCgYIKoZIzj0EAwIDSAAwRQIgIVDbPaxEeTxxprBcDS7krX/Gg4qVU+Tn
OFCKxpE6RwUCIQCTEub+j1PUhdNFHdB+jmxTJ7kUD9gZZghnGZ1KtXCc+w==
-----END CERTIFICATE-----
