Certificate:
    Data:
        Version: 3 (0x2)
        Serial Number: 54 (0x36)
        Signature Algorithm: ecdsa-with-SHA256
        Issuer: CN=Regione Trentino_Alto_Adige, C=IT, ST=Italia, O=E-Voting system, OU=E-Voting system authority/emailAddress=Trentino_Alto_Adige@evoting.it
        Validity
            Not Before: Aug 26 15:21:47 2022 GMT
            Not After : Aug 26 15:21:47 2023 GMT
        Subject: CN=Marc, C=IT, ST=Italia, O=Regione Trentino_Alto_Adige
        Subject Public Key Info:
            Public Key Algorithm: id-ecPublicKey
                Public-Key: (256 bit)
                pub:
                    04:b9:98:57:26:66:7c:ea:35:df:a3:86:a6:4e:48:
                    b8:69:80:bb:5f:4f:c8:7e:d5:15:02:48:24:bc:be:
                    91:64:3f:bd:f0:1b:83:0c:03:88:8a:1a:11:d3:cd:
                    4c:67:70:f6:8b:be:64:c1:7d:5d:a3:cb:ad:a2:8d:
                    3a:b3:ac:d7:b0
                ASN1 OID: secp256k1
        X509v3 extensions:
            X509v3 Key Usage: critical
                Digital Signature, Key Encipherment
            X509v3 Basic Constraints: critical
                CA:FALSE, pathlen:3
    Signature Algorithm: ecdsa-with-SHA256
         30:46:02:21:00:e1:13:93:da:f8:f7:ea:86:39:3f:c8:88:eb:
         01:28:29:9d:1b:de:cd:e2:21:b3:47:18:cf:06:ba:76:4d:ee:
         b7:02:21:00:ef:77:8c:23:c9:c8:bc:8a:1d:78:4c:81:ff:f0:
         17:72:99:30:f6:89:ed:8a:dd:bf:14:aa:b6:d0:27:3f:4c:e2
-----BEGIN CERTIFICATE-----
MIICFTCCAbqgAwIBAgIBNjAKBggqhkjOPQQDAjCBsTEkMCIGA1UEAwwbUmVnaW9u
ZSBUcmVudGlub19BbHRvX0FkaWdlMQswCQYDVQQGEwJJVDEPMA0GA1UECAwGSXRh
bGlhMRgwFgYDVQQKDA9FLVZvdGluZyBzeXN0ZW0xIjAgBgNVBAsMGUUtVm90aW5n
IHN5c3RlbSBhdXRob3JpdHkxLTArBgkqhkiG9w0BCQEWHlRyZW50aW5vX0FsdG9f
QWRpZ2VAZXZvdGluZy5pdDAeFw0yMjA4MjYxNTIxNDdaFw0yMzA4MjYxNTIxNDda
MFMxDTALBgNVBAMMBE1hcmMxCzAJBgNVBAYTAklUMQ8wDQYDVQQIDAZJdGFsaWEx
JDAiBgNVBAoMG1JlZ2lvbmUgVHJlbnRpbm9fQWx0b19BZGlnZTBWMBAGByqGSM49
AgEGBSuBBAAKA0IABLmYVyZmfOo136OGpk5IuGmAu19PyH7VFQJIJLy+kWQ/vfAb
gwwDiIoaEdPNTGdw9ou+ZMF9XaPLraKNOrOs17CjIzAhMA4GA1UdDwEB/wQEAwIF
oDAPBgNVHRMBAf8EBTADAgEDMAoGCCqGSM49BAMCA0kAMEYCIQDhE5Pa+Pfqhjk/
yIjrASgpnRvezeIhs0cYzwa6dk3utwIhAO93jCPJyLyKHXhMgf/wF3KZMPaJ7Yrd
vxSqttAnP0zi
-----END CERTIFICATE-----
