Certificate:
    Data:
        Version: 3 (0x2)
        Serial Number: 56 (0x38)
        Signature Algorithm: ecdsa-with-SHA256
        Issuer: CN=Regione Abruzzo, C=IT, ST=Italia, O=E-Voting system, OU=E-Voting system authority/emailAddress=Abruzzo@evoting.it
        Validity
            Not Before: Aug  3 13:28:47 2022 GMT
            Not After : Aug  3 13:28:47 2023 GMT
        Subject: CN=Bill, C=IT, ST=Italia, O=Regione Abruzzo
        Subject Public Key Info:
            Public Key Algorithm: id-ecPublicKey
                Public-Key: (256 bit)
                pub:
                    04:6d:99:77:cd:e6:7b:d9:98:ba:f3:6f:b3:29:3d:
                    ab:ef:ba:ba:cb:8a:b8:5b:6e:06:fa:b0:f2:43:fc:
                    3a:3d:14:ae:d5:79:e3:71:dc:f2:06:08:ad:7e:63:
                    13:50:7b:e5:e9:88:b8:f4:00:bf:69:17:9c:8e:5c:
                    ac:35:eb:43:2f
                ASN1 OID: prime256v1
                NIST CURVE: P-256
        X509v3 extensions:
            X509v3 Key Usage: critical
                Digital Signature, Key Encipherment
            X509v3 Basic Constraints: critical
                CA:FALSE, pathlen:3
    Signature Algorithm: ecdsa-with-SHA256
         30:44:02:20:19:f0:84:db:bf:21:93:e2:43:c4:9f:7d:c6:a3:
         9f:8b:91:95:e6:17:5e:4f:f4:a5:3e:07:f9:78:00:74:17:70:
         02:20:5d:2c:31:fc:e0:8b:71:d1:6e:6d:47:d1:c9:8b:41:2b:
         d2:36:a1:27:96:ca:6c:c7:05:c4:97:51:c8:6d:b2:a2
-----BEGIN CERTIFICATE-----
MIIB8jCCAZmgAwIBAgIBODAKBggqhkjOPQQDAjCBmTEYMBYGA1UEAwwPUmVnaW9u
ZSBBYnJ1enpvMQswCQYDVQQGEwJJVDEPMA0GA1UECAwGSXRhbGlhMRgwFgYDVQQK
DA9FLVZvdGluZyBzeXN0ZW0xIjAgBgNVBAsMGUUtVm90aW5nIHN5c3RlbSBhdXRo
b3JpdHkxITAfBgkqhkiG9w0BCQEWEkFicnV6em9AZXZvdGluZy5pdDAeFw0yMjA4
MDMxMzI4NDdaFw0yMzA4MDMxMzI4NDdaMEcxDTALBgNVBAMMBEJpbGwxCzAJBgNV
BAYTAklUMQ8wDQYDVQQIDAZJdGFsaWExGDAWBgNVBAoMD1JlZ2lvbmUgQWJydXp6
bzBZMBMGByqGSM49AgEGCCqGSM49AwEHA0IABG2Zd83me9mYuvNvsyk9q++6usuK
uFtuBvqw8kP8Oj0UrtV543Hc8gYIrX5jE1B75emIuPQAv2kXnI5crDXrQy+jIzAh
MA4GA1UdDwEB/wQEAwIFoDAPBgNVHRMBAf8EBTADAgEDMAoGCCqGSM49BAMCA0cA
MEQCIBnwhNu/IZPiQ8Sffcajn4uRleYXXk/0pT4H+XgAdBdwAiBdLDH84Itx0W5t
R9HJi0Er0jahJ5bKbMcFxJdRyG2yog==
-----END CERTIFICATE-----
