Certificate:
    Data:
        Version: 3 (0x2)
        Serial Number: 59 (0x3b)
        Signature Algorithm: ecdsa-with-SHA256
        Issuer: CN=Regione Liguria, C=IT, ST=Italia, O=E-Voting system, OU=E-Voting system authority/emailAddress=Liguria@evoting.it
        Validity
            Not Before: Aug 26 15:21:45 2022 GMT
            Not After : Aug 26 15:21:45 2023 GMT
        Subject: CN=Myron, C=IT, ST=Italia, O=Regione Liguria
        Subject Public Key Info:
            Public Key Algorithm: id-ecPublicKey
                Public-Key: (256 bit)
                pub:
                    04:5a:fe:85:d3:f9:65:18:4f:88:ec:a2:03:19:30:
                    4b:22:8e:3c:3f:d5:8a:58:d3:68:62:db:58:36:e2:
                    60:ef:81:e8:75:74:16:32:82:b1:23:83:04:b6:d5:
                    a7:1c:19:9d:bc:2d:ed:11:39:28:96:e4:9f:86:6c:
                    16:9f:3a:47:f5
                ASN1 OID: secp256k1
        X509v3 extensions:
            X509v3 Key Usage: critical
                Digital Signature, Key Encipherment
            X509v3 Basic Constraints: critical
                CA:FALSE, pathlen:3
    Signature Algorithm: ecdsa-with-SHA256
         30:45:02:20:2b:2d:36:93:5a:48:01:18:b5:6e:06:e9:cf:3f:
         9a:07:01:d6:e5:3f:ca:33:8a:75:de:87:85:b8:15:89:ba:c7:
         02:21:00:f6:8b:07:45:48:01:32:6e:d0:5d:71:1c:d0:bb:a9:
         2c:63:cb:3c:04:11:13:d4:0b:12:56:13:bc:53:bb:dd:ce
-----BEGIN CERTIFICATE-----
MIIB8TCCAZegAwIBAgIBOzAKBggqhkjOPQQDAjCBmTEYMBYGA1UEAwwPUmVnaW9u
ZSBMaWd1cmlhMQswCQYDVQQGEwJJVDEPMA0GA1UECAwGSXRhbGlhMRgwFgYDVQQK
DA9FLVZvdGluZyBzeXN0ZW0xIjAgBgNVBAsMGUUtVm90aW5nIHN5c3RlbSBhdXRo
b3JpdHkxITAfBgkqhkiG9w0BCQEWEkxpZ3VyaWFAZXZvdGluZy5pdDAeFw0yMjA4
MjYxNTIxNDVaFw0yMzA4MjYxNTIxNDVaMEgxDjAMBgNVBAMMBU15cm9uMQswCQYD
VQQGEwJJVDEPMA0GA1UECAwGSXRhbGlhMRgwFgYDVQQKDA9SZWdpb25lIExpZ3Vy
aWEwVjAQBgcqhkjOPQIBBgUrgQQACgNCAARa/oXT+WUYT4jsogMZMEsijjw/1YpY
02hi21g24mDvgeh1dBYygrEjgwS21accGZ28Le0ROSiW5J+GbBafOkf1oyMwITAO
BgNVHQ8BAf8EBAMCBaAwDwYDVR0TAQH/BAUwAwIBAzAKBggqhkjOPQQDAgNIADBF
AiArLTaTWkgBGLVuBunPP5oHAdblP8ozinXeh4W4FYm6xwIhAPaLB0VIATJu0F1x
HNC7qSxjyzwEERPUCxJWE7xTu93O
-----END CERTIFICATE-----
