Certificate:
    Data:
        Version: 3 (0x2)
        Serial Number: 59 (0x3b)
        Signature Algorithm: ecdsa-with-SHA256
        Issuer: CN=Regione Campania, C=IT, ST=Italia, O=E-Voting system, OU=E-Voting system authority/emailAddress=Campania@evoting.it
        Validity
            Not Before: Aug  3 13:28:49 2022 GMT
            Not After : Aug  3 13:28:49 2023 GMT
        Subject: CN=Katrina, C=IT, ST=Italia, O=Regione Campania
        Subject Public Key Info:
            Public Key Algorithm: id-ecPublicKey
                Public-Key: (256 bit)
                pub:
                    04:88:a1:90:f2:fc:88:50:8a:d9:67:8e:72:b2:0e:
                    a1:3b:a1:68:fe:70:c7:ba:e7:ad:8b:df:6c:72:c1:
                    4a:5f:dd:66:6f:c8:b2:d6:8d:a3:56:3f:c4:06:b2:
                    94:2e:9a:c1:17:1c:b8:38:71:24:8f:a7:4b:72:2f:
                    c1:7f:19:24:4c
                ASN1 OID: prime256v1
                NIST CURVE: P-256
        X509v3 extensions:
            X509v3 Key Usage: critical
                Digital Signature, Key Encipherment
            X509v3 Basic Constraints: critical
                CA:FALSE, pathlen:3
    Signature Algorithm: ecdsa-with-SHA256
         30:45:02:21:00:bd:10:cf:03:a0:af:58:30:92:41:76:89:15:
         8e:aa:4e:ec:d8:0e:5d:85:df:81:7f:2a:a2:94:56:b0:a8:95:
         c7:02:20:47:31:13:e9:ce:d3:0e:fc:bc:f8:ec:49:02:90:ad:
         6b:11:67:bc:17:4b:f4:53:bb:06:e1:72:bd:f4:f8:e1:83
-----BEGIN CERTIFICATE-----
MIIB+TCCAZ+gAwIBAgIBOzAKBggqhkjOPQQDAjCBmzEZMBcGA1UEAwwQUmVnaW9u
ZSBDYW1wYW5pYTELMAkGA1UEBhMCSVQxDzANBgNVBAgMBkl0YWxpYTEYMBYGA1UE
CgwPRS1Wb3Rpbmcgc3lzdGVtMSIwIAYDVQQLDBlFLVZvdGluZyBzeXN0ZW0gYXV0
aG9yaXR5MSIwIAYJKoZIhvcNAQkBFhNDYW1wYW5pYUBldm90aW5nLml0MB4XDTIy
MDgwMzEzMjg0OVoXDTIzMDgwMzEzMjg0OVowSzEQMA4GA1UEAwwHS2F0cmluYTEL
MAkGA1UEBhMCSVQxDzANBgNVBAgMBkl0YWxpYTEZMBcGA1UECgwQUmVnaW9uZSBD
YW1wYW5pYTBZMBMGByqGSM49AgEGCCqGSM49AwEHA0IABIihkPL8iFCK2WeOcrIO
oTuhaP5wx7rnrYvfbHLBSl/dZm/IstaNo1Y/xAaylC6awRccuDhxJI+nS3IvwX8Z
JEyjIzAhMA4GA1UdDwEB/wQEAwIFoDAPBgNVHRMBAf8EBTADAgEDMAoGCCqGSM49
BAMCA0gAMEUCIQC9EM8DoK9YMJJBdokVjqpO7NgOXYXfgX8qopRWsKiVxwIgRzET
6c7TDvy8+OxJApCtaxFnvBdL9FO7BuFyvfT44YM=
-----END CERTIFICATE-----
