Certificate:
    Data:
        Version: 3 (0x2)
        Serial Number: 61 (0x3d)
        Signature Algorithm: ecdsa-with-SHA256
        Issuer: CN=Regione Campania, C=IT, ST=Italia, O=E-Voting system, OU=E-Voting system authority/emailAddress=Campania@evoting.it
        Validity
            Not Before: Aug  3 13:28:50 2022 GMT
            Not After : Aug  3 13:28:50 2023 GMT
        Subject: CN=Anthony, C=IT, ST=Italia, O=Regione Campania
        Subject Public Key Info:
            Public Key Algorithm: id-ecPublicKey
                Public-Key: (256 bit)
                pub:
                    04:b4:94:db:19:57:dd:8a:61:5c:4b:15:1b:cb:0b:
                    95:6e:5a:ac:49:69:19:ac:4c:fe:24:f0:99:da:f7:
                    4f:07:85:66:8f:06:96:29:26:75:50:1a:14:55:c4:
                    1d:47:04:ad:54:21:30:b6:c2:bd:31:e6:04:14:f4:
                    26:37:2f:01:60
                ASN1 OID: prime256v1
                NIST CURVE: P-256
        X509v3 extensions:
            X509v3 Key Usage: critical
                Digital Signature, Key Encipherment
            X509v3 Basic Constraints: critical
                CA:FALSE, pathlen:3
    Signature Algorithm: ecdsa-with-SHA256
         30:45:02:20:2c:37:4d:ab:25:fa:e7:12:6f:8a:9a:ca:8f:57:
         7c:b2:ac:02:d4:79:11:02:23:48:e6:4c:ea:a6:0e:58:60:34:
         02:21:00:e1:3c:18:3e:cb:fe:c5:d4:dc:bf:85:a4:69:7a:fe:
         7c:47:8e:13:37:0a:b8:24:0a:ea:0d:42:8c:0c:89:7a:c0
-----BEGIN CERTIFICATE-----
MIIB+TCCAZ+gAwIBAgIBPTAKBggqhkjOPQQDAjCBmzEZMBcGA1UEAwwQUmVnaW9u
ZSBDYW1wYW5pYTELMAkGA1UEBhMCSVQxDzANBgNVBAgMBkl0YWxpYTEYMBYGA1UE
CgwPRS1Wb3Rpbmcgc3lzdGVtMSIwIAYDVQQLDBlFLVZvdGluZyBzeXN0ZW0gYXV0
aG9yaXR5MSIwIAYJKoZIhvcNAQkBFhNDYW1wYW5pYUBldm90aW5nLml0MB4XDTIy
MDgwMzEzMjg1MFoXDTIzMDgwMzEzMjg1MFowSzEQMA4GA1UEAwwHQW50aG9ueTEL
MAkGA1UEBhMCSVQxDzANBgNVBAgMBkl0YWxpYTEZMBcGA1UECgwQUmVnaW9uZSBD
YW1wYW5pYTBZMBMGByqGSM49AgEGCCqGSM49AwEHA0IABLSU2xlX3YphXEsVG8sL
lW5arElpGaxM/iTwmdr3TweFZo8GlikmdVAaFFXEHUcErVQhMLbCvTHmBBT0Jjcv
AWCjIzAhMA4GA1UdDwEB/wQEAwIFoDAPBgNVHRMBAf8EBTADAgEDMAoGCCqGSM49
BAMCA0gAMEUCICw3Tasl+ucSb4qayo9XfLKsAtR5EQIjSOZM6qYOWGA0AiEA4TwY
Psv+xdTcv4WkaXr+fEeOEzcKuCQK6g1CjAyJesA=
-----END CERTIFICATE-----
