Certificate:
    Data:
        Version: 3 (0x2)
        Serial Number: 62 (0x3e)
        Signature Algorithm: ecdsa-with-SHA256
        Issuer: CN=Regione Piemonte, C=IT, ST=Italia, O=E-Voting system, OU=E-Voting system authority/emailAddress=Piemonte@evoting.it
        Validity
            Not Before: Aug  3 13:28:18 2022 GMT
            Not After : Aug  3 13:28:18 2023 GMT
        Subject: CN=Emma, C=IT, ST=Italia, O=Regione Piemonte
        Subject Public Key Info:
            Public Key Algorithm: id-ecPublicKey
                Public-Key: (256 bit)
                pub:
                    04:45:87:3b:80:39:0e:4c:31:98:7e:cb:43:f1:bc:
                    b1:3f:01:9b:65:70:78:7b:91:d1:36:81:36:38:90:
                    a6:76:53:ca:39:a2:13:13:36:39:f7:0b:20:cd:ec:
                    76:7d:37:8f:01:fb:02:7d:f6:01:1e:57:bd:76:28:
                    f6:b7:16:44:80
                ASN1 OID: prime256v1
                NIST CURVE: P-256
        X509v3 extensions:
            X509v3 Key Usage: critical
                Digital Signature, Key Encipherment
            X509v3 Basic Constraints: critical
                CA:FALSE, pathlen:3
    Signature Algorithm: ecdsa-with-SHA256
         30:44:02:20:62:48:3b:55:31:44:0b:12:3e:2b:05:35:bf:c3:
         b5:83:d0:0a:9a:8f:4b:2b:f1:6a:77:28:ac:4d:30:7f:a1:db:
         02:20:32:72:a0:37:16:42:d0:9b:8e:bc:14:1d:8b:39:01:2b:
         15:2e:79:fa:40:20:23:c8:0d:25:5a:03:e6:09:bd:33
-----BEGIN CERTIFICATE-----
MIIB9TCCAZygAwIBAgIBPjAKBggqhkjOPQQDAjCBmzEZMBcGA1UEAwwQUmVnaW9u
ZSBQaWVtb250ZTELMAkGA1UEBhMCSVQxDzANBgNVBAgMBkl0YWxpYTEYMBYGA1UE
CgwPRS1Wb3Rpbmcgc3lzdGVtMSIwIAYDVQQLDBlFLVZvdGluZyBzeXN0ZW0gYXV0
aG9yaXR5MSIwIAYJKoZIhvcNAQkBFhNQaWVtb250ZUBldm90aW5nLml0MB4XDTIy
MDgwMzEzMjgxOFoXDTIzMDgwMzEzMjgxOFowSDENMAsGA1UEAwwERW1tYTELMAkG
A1UEBhMCSVQxDzANBgNVBAgMBkl0YWxpYTEZMBcGA1UECgwQUmVnaW9uZSBQaWVt
b250ZTBZMBMGByqGSM49AgEGCCqGSM49AwEHA0IABEWHO4A5DkwxmH7LQ/G8sT8B
m2VweHuR0TaBNjiQpnZTyjmiExM2OfcLIM3sdn03jwH7An32AR5XvXYo9rcWRICj
IzAhMA4GA1UdDwEB/wQEAwIFoDAPBgNVHRMBAf8EBTADAgEDMAoGCCqGSM49BAMC
A0cAMEQCIGJIO1UxRAsSPisFNb/DtYPQCpqPSyvxancorE0wf6HbAiAycqA3FkLQ
m468FB2LOQErFS55+kAgI8gNJVoD5gm9Mw==
-----END CERTIFICATE-----
