Certificate:
    Data:
        Version: 3 (0x2)
        Serial Number: 66 (0x42)
        Signature Algorithm: ecdsa-with-SHA256
        Issuer: CN=Regione Piemonte, C=IT, ST=Italia, O=E-Voting system, OU=E-Voting system authority/emailAddress=Piemonte@evoting.it
        Validity
            Not Before: Aug  3 13:28:44 2022 GMT
            Not After : Aug  3 13:28:44 2023 GMT
        Subject: CN=Edmund, C=IT, ST=Italia, O=Regione Piemonte
        Subject Public Key Info:
            Public Key Algorithm: id-ecPublicKey
                Public-Key: (256 bit)
                pub:
                    04:5c:9b:d4:07:69:67:f2:27:8b:5e:bb:e5:fc:b0:
                    2f:85:bb:2b:e7:5f:d4:9c:56:9f:fe:79:60:c6:6f:
                    0b:4b:37:2b:90:05:80:f0:ff:65:86:2d:d4:94:8f:
                    86:c8:ee:50:37:ef:8f:8a:3e:c7:bf:9e:b0:7e:33:
                    87:b4:dc:34:02
                ASN1 OID: prime256v1
                NIST CURVE: P-256
        X509v3 extensions:
            X509v3 Key Usage: critical
                Digital Signature, Key Encipherment
            X509v3 Basic Constraints: critical
                CA:FALSE, pathlen:3
    Signature Algorithm: ecdsa-with-SHA256
         30:45:02:20:08:7b:ee:15:0a:04:fe:97:22:d4:8f:0d:67:85:
         25:f7:73:32:38:89:32:c6:62:38:ba:95:c5:9e:75:87:8e:46:
         02:21:00:df:f9:e9:b9:95:9c:e1:3b:96:08:b7:ea:29:b8:58:
         5e:1b:d2:31:4b:ea:a4:9f:2b:f4:16:85:a1:0e:b0:a8:01
-----BEGIN CERTIFICATE-----
MIIB+DCCAZ6gAwIBAgIBQjAKBggqhkjOPQQDAjCBmzEZMBcGA1UEAwwQUmVnaW9u
ZSBQaWVtb250ZTELMAkGA1UEBhMCSVQxDzANBgNVBAgMBkl0YWxpYTEYMBYGA1UE
CgwPRS1Wb3Rpbmcgc3lzdGVtMSIwIAYDVQQLDBlFLVZvdGluZyBzeXN0ZW0gYXV0
aG9yaXR5MSIwIAYJKoZIhvcNAQkBFhNQaWVtb250ZUBldm90aW5nLml0MB4XDTIy
MDgwMzEzMjg0NFoXDTIzMDgwMzEzMjg0NFowSjEPMA0GA1UEAwwGRWRtdW5kMQsw
CQYDVQQGEwJJVDEPMA0GA1UECAwGSXRhbGlhMRkwFwYDVQQKDBBSZWdpb25lIFBp
ZW1vbnRlMFkwEwYHKoZIzj0CAQYIKoZIzj0DAQcDQgAEXJvUB2ln8ieLXrvl/LAv
hbsr51/UnFaf/nlgxm8LSzcrkAWA8P9lhi3UlI+GyO5QN++Pij7Hv56wfjOHtNw0
AqMjMCEwDgYDVR0PAQH/BAQDAgWgMA8GA1UdEwEB/wQFMAMCAQMwCgYIKoZIzj0E
AwIDSAAwRQIgCHvuFQoE/pci1I8NZ4Ul93MyOIkyxmI4upXFnnWHjkYCIQDf+em5
lZzhO5YIt+opuFheG9IxS+qknyv0FoWhDrCoAQ==
-----END CERTIFICATE-----
