Certificate:
    Data:
        Version: 3 (0x2)
        Serial Number: 67 (0x43)
        Signature Algorithm: ecdsa-with-SHA256
        Issuer: CN=Regione Piemonte, C=IT, ST=Italia, O=E-Voting system, OU=E-Voting system authority/emailAddress=Piemonte@evoting.it
        Validity
            Not Before: Aug  3 13:28:44 2022 GMT
            Not After : Aug  3 13:28:44 2023 GMT
        Subject: CN=Curtis, C=IT, ST=Italia, O=Regione Piemonte
        Subject Public Key Info:
            Public Key Algorithm: id-ecPublicKey
                Public-Key: (256 bit)
                pub:
                    04:a7:92:79:c5:f1:ca:fd:3d:c1:d9:61:a6:68:f0:
                    35:16:96:f4:19:04:de:5a:02:70:df:88:bc:ba:5b:
                    64:ec:13:bc:7f:34:88:15:11:78:24:6a:a5:82:e0:
                    8f:f3:6f:a0:c9:3f:ea:41:7c:17:07:25:af:9a:a4:
                    47:49:be:89:a1
                ASN1 OID: prime256v1
                NIST CURVE: P-256
        X509v3 extensions:
            X509v3 Key Usage: critical
                Digital Signature, Key Encipherment
            X509v3 Basic Constraints: critical
                CA:FALSE, pathlen:3
    Signature Algorithm: ecdsa-with-SHA256
         30:45:02:20:19:36:b7:cd:1c:58:a5:45:6f:d1:88:73:47:be:
         97:4c:14:1c:82:09:2a:09:6c:d3:d7:c1:a5:be:c3:cb:51:94:
         02:21:00:f8:ba:c9:00:72:b3:9f:4c:c6:d2:1c:66:71:77:34:
         cf:18:c9:14:28:8c:f3:cb:12:84:b5:f9:44:4a:60:6b:6f
-----BEGIN CERTIFICATE-----
MIIB+DCCAZ6gAwIBAgIBQzAKBggqhkjOPQQDAjCBmzEZMBcGA1UEAwwQUmVnaW9u
ZSBQaWVtb250ZTELMAkGA1UEBhMCSVQxDzANBgNVBAgMBkl0YWxpYTEYMBYGA1UE
CgwPRS1Wb3Rpbmcgc3lzdGVtMSIwIAYDVQQLDBlFLVZvdGluZyBzeXN0ZW0gYXV0
aG9yaXR5MSIwIAYJKoZIhvcNAQkBFhNQaWVtb250ZUBldm90aW5nLml0MB4XDTIy
MDgwMzEzMjg0NFoXDTIzMDgwMzEzMjg0NFowSjEPMA0GA1UEAwwGQ3VydGlzMQsw
CQYDVQQGEwJJVDEPMA0GA1UECAwGSXRhbGlhMRkwFwYDVQQKDBBSZWdpb25lIFBp
ZW1vbnRlMFkwEwYHKoZIzj0CAQYIKoZIzj0DAQcDQgAEp5J5xfHK/T3B2WGmaPA1
Fpb0GQTeWgJw34i8ultk7BO8fzSIFRF4JGqlguCP82+gyT/qQXwXByWvmqRHSb6J
oaMjMCEwDgYDVR0PAQH/BAQDAgWgMA8GA1UdEwEB/wQFMAMCAQMwCgYIKoZIzj0E
AwIDSAAwRQIgGTa3zRxYpUVv0YhzR76XTBQcggkqCWzT18GlvsPLUZQCIQD4uskA
crOfTMbSHGZxdzTPGMkUKIzzyxKEtflESmBrbw==
-----END CERTIFICATE-----
