Certificate:
    Data:
        Version: 3 (0x2)
        Serial Number: 68 (0x44)
        Signature Algorithm: ecdsa-with-SHA256
        Issuer: CN=Regione Piemonte, C=IT, ST=Italia, O=E-Voting system, OU=E-Voting system authority/emailAddress=Piemonte@evoting.it
        Validity
            Not Before: Aug  3 13:28:50 2022 GMT
            Not After : Aug  3 13:28:50 2023 GMT
        Subject: CN=Yvonne, C=IT, ST=Italia, O=Regione Piemonte
        Subject Public Key Info:
            Public Key Algorithm: id-ecPublicKey
                Public-Key: (256 bit)
                pub:
                    04:ec:f5:a4:88:32:37:bf:f5:0b:10:f1:8c:54:80:
                    3e:76:de:00:75:70:a0:ab:6a:c6:ad:50:62:0a:6b:
                    86:8e:1b:1c:39:75:2b:85:95:98:f1:46:e4:21:aa:
                    79:e0:59:22:0d:d5:ad:33:5d:c3:e1:72:74:46:69:
                    1a:e9:77:cd:ee
                ASN1 OID: prime256v1
                NIST CURVE: P-256
        X509v3 extensions:
            X509v3 Key Usage: critical
                Digital Signature, Key Encipherment
            X509v3 Basic Constraints: critical
                CA:FALSE, pathlen:3
    Signature Algorithm: ecdsa-with-SHA256
         30:45:02:20:4d:bd:cc:21:41:b7:e8:57:90:57:74:a1:55:52:
         9a:76:45:24:12:41:88:64:ab:a4:f6:ff:d4:af:3b:cb:49:11:
         02:21:00:ea:71:21:d7:7d:c5:c1:4c:62:eb:d1:c6:33:43:5d:
         09:2b:2c:22:aa:f0:e7:4d:82:7d:9b:4d:1b:37:f3:18:04
-----BEGIN CERTIFICATE-----
MIIB+DCCAZ6gAwIBAgIBRDAKBggqhkjOPQQDAjCBmzEZMBcGA1UEAwwQUmVnaW9u
ZSBQaWVtb250ZTELMAkGA1UEBhMCSVQxDzANBgNVBAgMBkl0YWxpYTEYMBYGA1UE
CgwPRS1Wb3Rpbmcgc3lzdGVtMSIwIAYDVQQLDBlFLVZvdGluZyBzeXN0ZW0gYXV0
aG9yaXR5MSIwIAYJKoZIhvcNAQkBFhNQaWVtb250ZUBldm90aW5nLml0MB4XDTIy
MDgwMzEzMjg1MFoXDTIzMDgwMzEzMjg1MFowSjEPMA0GA1UEAwwGWXZvbm5lMQsw
CQYDVQQGEwJJVDEPMA0GA1UECAwGSXRhbGlhMRkwFwYDVQQKDBBSZWdpb25lIFBp
ZW1vbnRlMFkwEwYHKoZIzj0CAQYIKoZIzj0DAQcDQgAE7PWkiDI3v/ULEPGMVIA+
dt4AdXCgq2rGrVBiCmuGjhscOXUrhZWY8UbkIap54FkiDdWtM13D4XJ0Rmka6XfN
7qMjMCEwDgYDVR0PAQH/BAQDAgWgMA8GA1UdEwEB/wQFMAMCAQMwCgYIKoZIzj0E
AwIDSAAwRQIgTb3MIUG36FeQV3ShVVKadkUkEkGIZKuk9v/UrzvLSRECIQDqcSHX
fcXBTGLr0cYzQ10JKywiqvDnTYJ9m00bN/MYBA==
-----END CERTIFICATE-----
