Certificate:
    Data:
        Version: 3 (0x2)
        Serial Number: 27 (0x1b)
        Signature Algorithm: ecdsa-with-SHA256
        Issuer: CN=Regione Lombardia, C=IT, ST=Italia, O=E-Voting system, OU=E-Voting system authority/emailAddress=Lombardia@evoting.it
        Validity
            Not Before: Aug  3 13:26:58 2022 GMT
            Not After : Aug  3 13:26:58 2023 GMT
        Subject: CN=Aaron, C=IT, ST=Italia, O=Regione Lombardia
        Subject Public Key Info:
            Public Key Algorithm: id-ecPublicKey
                Public-Key: (256 bit)
                pub:
                    04:9b:37:42:27:8e:a1:e2:cd:be:cd:c6:29:6e:9a:
                    f7:21:57:69:f8:67:19:e9:6d:60:41:b8:c7:52:8e:
                    b6:14:c9:eb:83:b9:75:05:9c:b3:a1:f2:bc:8c:af:
                    0e:08:a5:62:51:8e:27:c6:f2:63:c6:d4:29:22:eb:
                    5d:38:39:70:50
                ASN1 OID: prime256v1
                NIST CURVE: P-256
        X509v3 extensions:
            X509v3 Key Usage: critical
                Digital Signature, Key Encipherment
            X509v3 Basic Constraints: critical
                CA:FALSE, pathlen:3
    Signature Algorithm: ecdsa-with-SHA256
         30:46:02:21:00:90:40:d8:1c:4b:d5:1c:4b:99:98:53:11:66:
         da:c1:1e:ee:63:cf:bc:3d:63:5f:af:2a:dd:c2:b0:03:4c:65:
         6f:02:21:00:d6:49:12:7e:6e:72:35:ab:bc:74:78:b1:d2:cc:
         84:55:c5:57:9a:bc:91:21:9e:30:7b:3d:92:f3:18:36:dd:20
-----BEGIN CERTIFICATE-----
MIIB+zCCAaCgAwIBAgIBGzAKBggqhkjOPQQDAjCBnTEaMBgGA1UEAwwRUmVnaW9u
ZSBMb21iYXJkaWExCzAJBgNVBAYTAklUMQ8wDQYDVQQIDAZJdGFsaWExGDAWBgNV
BAoMD0UtVm90aW5nIHN5c3RlbTEiMCAGA1UECwwZRS1Wb3Rpbmcgc3lzdGVtIGF1
dGhvcml0eTEjMCEGCSqGSIb3DQEJARYUTG9tYmFyZGlhQGV2b3RpbmcuaXQwHhcN
MjIwODAzMTMyNjU4WhcNMjMwODAzMTMyNjU4WjBKMQ4wDAYDVQQDDAVBYXJvbjEL
MAkGA1UEBhMCSVQxDzANBgNVBAgMBkl0YWxpYTEaMBgGA1UECgwRUmVnaW9uZSBM
b21iYXJkaWEwWTATBgcqhkjOPQIBBggqhkjOPQMBBwNCAASbN0InjqHizb7Nxilu
mvchV2n4ZxnpbWBBuMdSjrYUyeuDuXUFnLOh8ryMrw4IpWJRjifG8mPG1Cki6104
OXBQoyMwITAOBgNVHQ8BAf8EBAMCBaAwDwYDVR0TAQH/BAUwAwIBAzAKBggqhkjO
PQQDAgNJADBGAiEAkEDYHEvVHEuZmFMRZtrBHu5jz7w9Y1+vKt3CsANMZW8CIQDW
SRJ+bnI1q7x0eLHSzIRVxVeavJEhnjB7PZLzGDbdIA==
-----END CERTIFICATE-----
