Certificate:
    Data:
        Version: 3 (0x2)
        Serial Number: 32 (0x20)
        Signature Algorithm: ecdsa-with-SHA256
        Issuer: CN=Regione Emilia_Romagna, C=IT, ST=Italia, O=E-Voting system, OU=E-Voting system authority/emailAddress=Emilia_Romagna@evoting.it
        Validity
            Not Before: Aug 26 15:20:33 2022 GMT
            Not After : Aug 26 15:20:33 2023 GMT
        Subject: CN=Aaron, C=IT, ST=Italia, O=Regione Emilia_Romagna
        Subject Public Key Info:
            Public Key Algorithm: id-ecPublicKey
                Public-Key: (256 bit)
                pub:
                    04:74:ba:50:45:c0:7c:7e:26:49:e9:7b:1c:77:02:
                    de:1f:26:41:6d:48:0d:11:17:b0:61:a8:dc:84:fb:
                    c8:0f:30:9c:87:0b:38:57:e3:5e:f9:da:d6:a2:db:
                    66:f1:80:58:71:ee:30:03:a8:c6:fa:eb:57:8e:49:
                    23:bf:bd:38:d8
                ASN1 OID: secp256k1
        X509v3 extensions:
            X509v3 Key Usage: critical
                Digital Signature, Key Encipherment
            X509v3 Basic Constraints: critical
                CA:FALSE, pathlen:3
    Signature Algorithm: ecdsa-with-SHA256
         30:45:02:20:3c:6f:69:2f:d0:f3:f2:97:a1:63:0e:5a:c4:cf:
         78:5c:a2:86:42:26:ed:86:d1:3d:0a:c3:4a:b1:50:ec:6b:05:
         02:21:00:d4:e3:38:2a:ad:33:82:c1:dc:da:bd:be:46:95:30:
         c6:54:d2:ed:31:94:e7:69:f2:8e:9b:5d:de:96:29:8a:7e
-----BEGIN CERTIFICATE-----
MIICBjCCAaygAwIBAgIBIDAKBggqhkjOPQQDAjCBpzEfMB0GA1UEAwwWUmVnaW9u
ZSBFbWlsaWFfUm9tYWduYTELMAkGA1UEBhMCSVQxDzANBgNVBAgMBkl0YWxpYTEY
MBYGA1UECgwPRS1Wb3Rpbmcgc3lzdGVtMSIwIAYDVQQLDBlFLVZvdGluZyBzeXN0
ZW0gYXV0aG9yaXR5MSgwJgYJKoZIhvcNAQkBFhlFbWlsaWFfUm9tYWduYUBldm90
aW5nLml0MB4XDTIyMDgyNjE1MjAzM1oXDTIzMDgyNjE1MjAzM1owTzEOMAwGA1UE
AwwFQWFyb24xCzAJBgNVBAYTAklUMQ8wDQYDVQQIDAZJdGFsaWExHzAdBgNVBAoM
FlJlZ2lvbmUgRW1pbGlhX1JvbWFnbmEwVjAQBgcqhkjOPQIBBgUrgQQACgNCAAR0
ulBFwHx+Jknpexx3At4fJkFtSA0RF7BhqNyE+8gPMJyHCzhX41752tai22bxgFhx
7jADqMb661eOSSO/vTjYoyMwITAOBgNVHQ8BAf8EBAMCBaAwDwYDVR0TAQH/BAUw
AwIBAzAKBggqhkjOPQQDAgNIADBFAiA8b2kv0PPyl6FjDlrEz3hcooZCJu2G0T0K
w0qxUOxrBQIhANTjOCqtM4LB3Nq9vkaVMMZU0u0xlOdp8o6bXd6WKYp+
-----END CERTIFICATE-----
