Certificate:
    Data:
        Version: 3 (0x2)
        Serial Number: 48 (0x30)
        Signature Algorithm: ecdsa-with-SHA256
        Issuer: CN=Regione Liguria, C=IT, ST=Italia, O=E-Voting system, OU=E-Voting system authority/emailAddress=Liguria@evoting.it
        Validity
            Not Before: Aug 26 15:20:55 2022 GMT
            Not After : Aug 26 15:20:55 2023 GMT
        Subject: CN=Abraham, C=IT, ST=Italia, O=Regione Liguria
        Subject Public Key Info:
            Public Key Algorithm: id-ecPublicKey
                Public-Key: (256 bit)
                pub:
                    04:46:10:a4:e1:18:b4:0a:de:af:3a:b9:b6:c5:22:
                    65:ff:d6:38:0d:97:e5:17:9e:fb:7b:b6:3e:a4:f7:
                    2f:31:35:23:06:b3:81:d8:ff:90:17:6d:03:bd:50:
                    de:30:80:07:05:04:cc:ea:38:06:4f:7f:4e:cf:ad:
                    9f:64:df:f4:6b
                ASN1 OID: secp256k1
        X509v3 extensions:
            X509v3 Key Usage: critical
                Digital Signature, Key Encipherment
            X509v3 Basic Constraints: critical
                CA:FALSE, pathlen:3
    Signature Algorithm: ecdsa-with-SHA256
         30:44:02:20:6b:98:f8:38:59:8f:c5:4b:f5:2a:83:9f:ee:63:
         3e:6b:e0:06:4a:1a:e2:94:ac:2e:2f:37:a0:5e:e2:2c:81:59:
         02:20:64:d0:0a:85:9a:86:28:59:a0:44:1a:92:04:1f:46:14:
         ea:5b:82:af:8c:78:60:ad:a1:f7:6b:a1:20:05:af:38
-----BEGIN CERTIFICATE-----
MIIB8jCCAZmgAwIBAgIBMDAKBggqhkjOPQQDAjCBmTEYMBYGA1UEAwwPUmVnaW9u
ZSBMaWd1cmlhMQswCQYDVQQGEwJJVDEPMA0GA1UECAwGSXRhbGlhMRgwFgYDVQQK
DA9FLVZvdGluZyBzeXN0ZW0xIjAgBgNVBAsMGUUtVm90aW5nIHN5c3RlbSBhdXRo
b3JpdHkxITAfBgkqhkiG9w0BCQEWEkxpZ3VyaWFAZXZvdGluZy5pdDAeFw0yMjA4
MjYxNTIwNTVaFw0yMzA4MjYxNTIwNTVaMEoxEDAOBgNVBAMMB0FicmFoYW0xCzAJ
BgNVBAYTAklUMQ8wDQYDVQQIDAZJdGFsaWExGDAWBgNVBAoMD1JlZ2lvbmUgTGln
dXJpYTBWMBAGByqGSM49AgEGBSuBBAAKA0IABEYQpOEYtArerzq5tsUiZf/WOA2X
5Ree+3u2PqT3LzE1Iwazgdj/kBdtA71Q3jCABwUEzOo4Bk9/Ts+tn2Tf9GujIzAh
MA4GA1UdDwEB/wQEAwIFoDAPBgNVHRMBAf8EBTADAgEDMAoGCCqGSM49BAMCA0cA
MEQCIGuY+DhZj8VL9SqDn+5jPmvgBkoa4pSsLi83oF7iLIFZAiBk0AqFmoYoWaBE
GpIEH0YU6luCr4x4YK2h92uhIAWvOA==
-----END CERTIFICATE-----
