Certificate:
    Data:
        Version: 3 (0x2)
        Serial Number: 18 (0x12)
        Signature Algorithm: ecdsa-with-SHA256
        Issuer: CN=Regione Veneto, C=IT, ST=Italia, O=E-Voting system, OU=E-Voting system authority/emailAddress=Veneto@evoting.it
        Validity
            Not Before: Aug 26 15:20:36 2022 GMT
            Not After : Aug 26 15:20:36 2023 GMT
        Subject: CN=Ada, C=IT, ST=Italia, O=Regione Veneto
        Subject Public Key Info:
            Public Key Algorithm: id-ecPublicKey
                Public-Key: (256 bit)
                pub:
                    04:73:03:01:13:7e:3f:5b:07:a4:98:ee:04:03:12:
                    ad:52:8b:d5:b8:59:48:39:48:6a:f7:47:a2:1d:ac:
                    f3:c7:5b:5d:c0:3e:b6:8b:c6:25:f9:83:f7:ea:cf:
                    95:a9:ec:63:0e:79:6f:8e:97:23:51:22:0b:39:55:
                    e7:b1:0e:ad:24
                ASN1 OID: secp256k1
        X509v3 extensions:
            X509v3 Key Usage: critical
                Digital Signature, Key Encipherment
            X509v3 Basic Constraints: critical
                CA:FALSE, pathlen:3
    Signature Algorithm: ecdsa-with-SHA256
         30:45:02:20:4b:d4:0f:9e:9e:b9:e8:16:78:b4:aa:a7:67:b9:
         36:78:99:50:40:76:a3:28:f1:1a:4b:4f:d6:db:82:ce:59:a5:
         02:21:00:c0:53:9c:2f:2a:09:8d:c6:23:97:db:16:3f:6e:18:
         a2:27:2b:f0:1e:55:51:a1:d6:3b:60:93:e6:dc:50:3f:d7
-----BEGIN CERTIFICATE-----
MIIB7DCCAZKgAwIBAgIBEjAKBggqhkjOPQQDAjCBlzEXMBUGA1UEAwwOUmVnaW9u
ZSBWZW5ldG8xCzAJBgNVBAYTAklUMQ8wDQYDVQQIDAZJdGFsaWExGDAWBgNVBAoM
D0UtVm90aW5nIHN5c3RlbTEiMCAGA1UECwwZRS1Wb3Rpbmcgc3lzdGVtIGF1dGhv
cml0eTEgMB4GCSqGSIb3DQEJARYRVmVuZXRvQGV2b3RpbmcuaXQwHhcNMjIwODI2
MTUyMDM2WhcNMjMwODI2MTUyMDM2WjBFMQwwCgYDVQQDDANBZGExCzAJBgNVBAYT
AklUMQ8wDQYDVQQIDAZJdGFsaWExFzAVBgNVBAoMDlJlZ2lvbmUgVmVuZXRvMFYw
EAYHKoZIzj0CAQYFK4EEAAoDQgAEcwMBE34/WwekmO4EAxKtUovVuFlIOUhq90ei
Hazzx1tdwD62i8Yl+YP36s+VqexjDnlvjpcjUSILOVXnsQ6tJKMjMCEwDgYDVR0P
AQH/BAQDAgWgMA8GA1UdEwEB/wQFMAMCAQMwCgYIKoZIzj0EAwIDSAAwRQIgS9QP
np656BZ4tKqnZ7k2eJlQQHajKPEaS0/W24LOWaUCIQDAU5wvKgmNxiOX2xY/bhii
JyvwHlVRodY7YJPm3FA/1w==
-----END CERTIFICATE-----
