Certificate:
    Data:
        Version: 3 (0x2)
        Serial Number: 46 (0x2e)
        Signature Algorithm: ecdsa-with-SHA256
        Issuer: CN=Regione Basilicata, C=IT, ST=Italia, O=E-Voting system, OU=E-Voting system authority/emailAddress=Basilicata@evoting.it
        Validity
            Not Before: Aug  3 13:28:08 2022 GMT
            Not After : Aug  3 13:28:08 2023 GMT
        Subject: CN=Adan, C=IT, ST=Italia, O=Regione Basilicata
        Subject Public Key Info:
            Public Key Algorithm: id-ecPublicKey
                Public-Key: (256 bit)
                pub:
                    04:5f:be:6e:cf:6d:79:d2:eb:eb:63:21:18:95:6b:
                    f7:56:cf:ec:e3:ab:ea:e8:0f:a9:26:88:e6:ea:1e:
                    dc:ea:e2:1c:3d:e5:30:16:5f:44:b8:db:63:75:75:
                    0d:89:94:65:ee:b2:85:12:eb:3b:06:b0:5e:6d:4f:
                    71:ec:24:03:f1
                ASN1 OID: prime256v1
                NIST CURVE: P-256
        X509v3 extensions:
            X509v3 Key Usage: critical
                Digital Signature, Key Encipherment
            X509v3 Basic Constraints: critical
                CA:FALSE, pathlen:3
    Signature Algorithm: ecdsa-with-SHA256
         30:46:02:21:00:98:e3:4c:c6:1f:e4:74:14:7e:9e:8b:ba:5c:
         27:d4:84:55:4c:ab:7b:9e:c5:fc:42:c0:7d:fb:28:21:e5:c8:
         a0:02:21:00:ff:6c:4a:46:22:5d:ad:15:cb:47:00:f0:44:b2:
         e2:3a:94:3c:18:c3:fc:23:bd:69:be:cc:50:b5:d5:c3:8c:aa
-----BEGIN CERTIFICATE-----
MIIB/TCCAaKgAwIBAgIBLjAKBggqhkjOPQQDAjCBnzEbMBkGA1UEAwwSUmVnaW9u
ZSBCYXNpbGljYXRhMQswCQYDVQQGEwJJVDEPMA0GA1UECAwGSXRhbGlhMRgwFgYD
VQQKDA9FLVZvdGluZyBzeXN0ZW0xIjAgBgNVBAsMGUUtVm90aW5nIHN5c3RlbSBh
dXRob3JpdHkxJDAiBgkqhkiG9w0BCQEWFUJhc2lsaWNhdGFAZXZvdGluZy5pdDAe
Fw0yMjA4MDMxMzI4MDhaFw0yMzA4MDMxMzI4MDhaMEoxDTALBgNVBAMMBEFkYW4x
CzAJBgNVBAYTAklUMQ8wDQYDVQQIDAZJdGFsaWExGzAZBgNVBAoMElJlZ2lvbmUg
QmFzaWxpY2F0YTBZMBMGByqGSM49AgEGCCqGSM49AwEHA0IABF++bs9tedLr62Mh
GJVr91bP7OOr6ugPqSaI5uoe3OriHD3lMBZfRLjbY3V1DYmUZe6yhRLrOwawXm1P
cewkA/GjIzAhMA4GA1UdDwEB/wQEAwIFoDAPBgNVHRMBAf8EBTADAgEDMAoGCCqG
SM49BAMCA0kAMEYCIQCY40zGH+R0FH6ei7pcJ9SEVUyre57F/ELAffsoIeXIoAIh
AP9sSkYiXa0Vy0cA8ESy4jqUPBjD/CO9ab7MULXVw4yq
-----END CERTIFICATE-----
