Certificate:
    Data:
        Version: 3 (0x2)
        Serial Number: 14 (0xe)
        Signature Algorithm: ecdsa-with-SHA256
        Issuer: CN=Regione Basilicata, C=IT, ST=Italia, O=E-Voting system, OU=E-Voting system authority/emailAddress=Basilicata@evoting.it
        Validity
            Not Before: Aug  3 13:26:13 2022 GMT
            Not After : Aug  3 13:26:13 2023 GMT
        Subject: CN=Addie, C=IT, ST=Italia, O=Regione Basilicata
        Subject Public Key Info:
            Public Key Algorithm: id-ecPublicKey
                Public-Key: (256 bit)
                pub:
                    04:89:f6:73:2e:4c:22:45:00:2b:ef:13:4b:9c:39:
                    3b:9d:44:c4:ce:9e:9e:77:86:a5:81:d5:ab:9d:b6:
                    5c:01:59:0a:5d:a6:25:cd:ed:c1:18:7b:36:f9:47:
                    41:d6:d5:5b:77:f0:ac:51:8b:d7:29:c5:25:26:9d:
                    e1:b7:14:85:44
                ASN1 OID: prime256v1
                NIST CURVE: P-256
        X509v3 extensions:
            X509v3 Key Usage: critical
                Digital Signature, Key Encipherment
            X509v3 Basic Constraints: critical
                CA:FALSE, pathlen:3
    Signature Algorithm: ecdsa-with-SHA256
         30:46:02:21:00:d9:48:b0:82:5e:4f:55:5b:dc:11:89:a2:74:
         ff:1f:56:3f:ff:d6:5f:f7:70:6a:6b:2e:d4:0a:f1:a0:d4:c7:
         69:02:21:00:8e:32:4a:ed:e2:45:e2:9b:23:d6:01:6f:2b:56:
         84:3e:e6:78:a7:40:76:db:7a:65:28:da:ad:24:6a:2a:a2:65
-----BEGIN CERTIFICATE-----
MIIB/jCCAaOgAwIBAgIBDjAKBggqhkjOPQQDAjCBnzEbMBkGA1UEAwwSUmVnaW9u
ZSBCYXNpbGljYXRhMQswCQYDVQQGEwJJVDEPMA0GA1UECAwGSXRhbGlhMRgwFgYD
VQQKDA9FLVZvdGluZyBzeXN0ZW0xIjAgBgNVBAsMGUUtVm90aW5nIHN5c3RlbSBh
dXRob3JpdHkxJDAiBgkqhkiG9w0BCQEWFUJhc2lsaWNhdGFAZXZvdGluZy5pdDAe
Fw0yMjA4MDMxMzI2MTNaFw0yMzA4MDMxMzI2MTNaMEsxDjAMBgNVBAMMBUFkZGll
MQswCQYDVQQGEwJJVDEPMA0GA1UECAwGSXRhbGlhMRswGQYDVQQKDBJSZWdpb25l
IEJhc2lsaWNhdGEwWTATBgcqhkjOPQIBBggqhkjOPQMBBwNCAASJ9nMuTCJFACvv
E0ucOTudRMTOnp53hqWB1audtlwBWQpdpiXN7cEYezb5R0HW1Vt38KxRi9cpxSUm
neG3FIVEoyMwITAOBgNVHQ8BAf8EBAMCBaAwDwYDVR0TAQH/BAUwAwIBAzAKBggq
hkjOPQQDAgNJADBGAiEA2Uiwgl5PVVvcEYmidP8fVj//1l/3cGprLtQK8aDUx2kC
IQCOMkrt4kXimyPWAW8rVoQ+5ninQHbbemUo2q0kaiqiZQ==
-----END CERTIFICATE-----
