Certificate:
    Data:
        Version: 3 (0x2)
        Serial Number: 56 (0x38)
        Signature Algorithm: ecdsa-with-SHA256
        Issuer: CN=Regione Puglia, C=IT, ST=Italia, O=E-Voting system, OU=E-Voting system authority/emailAddress=Puglia@evoting.it
        Validity
            Not Before: Aug 26 15:21:40 2022 GMT
            Not After : Aug 26 15:21:40 2023 GMT
        Subject: CN=Addie, C=IT, ST=Italia, O=Regione Puglia
        Subject Public Key Info:
            Public Key Algorithm: id-ecPublicKey
                Public-Key: (256 bit)
                pub:
                    04:c1:25:fe:08:96:2e:49:ad:85:ac:9c:a2:88:49:
                    17:8a:c4:a8:17:eb:fa:b2:6a:47:8c:e2:2b:8c:6f:
                    e6:60:92:83:88:0d:0f:d4:2e:bb:cf:ba:92:b9:a7:
                    62:98:4c:15:66:85:4c:94:2b:b0:69:73:05:47:10:
                    49:a7:0e:7c:71
                ASN1 OID: secp256k1
        X509v3 extensions:
            X509v3 Key Usage: critical
                Digital Signature, Key Encipherment
            X509v3 Basic Constraints: critical
                CA:FALSE, pathlen:3
    Signature Algorithm: ecdsa-with-SHA256
         30:44:02:20:23:ef:11:35:5d:98:6c:73:36:f2:4a:5a:4c:49:
         40:87:a4:b4:ce:32:0f:e6:32:4a:ab:f2:6b:de:c3:b3:a4:45:
         02:20:62:7b:e5:e6:8d:f6:67:1f:0a:bd:33:8d:50:25:a6:2b:
         80:84:41:65:ca:1c:73:fb:be:23:d2:cc:a1:1f:ec:9e
-----BEGIN CERTIFICATE-----
MIIB7TCCAZSgAwIBAgIBODAKBggqhkjOPQQDAjCBlzEXMBUGA1UEAwwOUmVnaW9u
ZSBQdWdsaWExCzAJBgNVBAYTAklUMQ8wDQYDVQQIDAZJdGFsaWExGDAWBgNVBAoM
D0UtVm90aW5nIHN5c3RlbTEiMCAGA1UECwwZRS1Wb3Rpbmcgc3lzdGVtIGF1dGhv
cml0eTEgMB4GCSqGSIb3DQEJARYRUHVnbGlhQGV2b3RpbmcuaXQwHhcNMjIwODI2
MTUyMTQwWhcNMjMwODI2MTUyMTQwWjBHMQ4wDAYDVQQDDAVBZGRpZTELMAkGA1UE
BhMCSVQxDzANBgNVBAgMBkl0YWxpYTEXMBUGA1UECgwOUmVnaW9uZSBQdWdsaWEw
VjAQBgcqhkjOPQIBBgUrgQQACgNCAATBJf4Ili5JrYWsnKKISReKxKgX6/qyakeM
4iuMb+ZgkoOIDQ/ULrvPupK5p2KYTBVmhUyUK7BpcwVHEEmnDnxxoyMwITAOBgNV
HQ8BAf8EBAMCBaAwDwYDVR0TAQH/BAUwAwIBAzAKBggqhkjOPQQDAgNHADBEAiAj
7xE1XZhsczbySlpMSUCHpLTOMg/mMkqr8mvew7OkRQIgYnvl5o32Zx8KvTONUCWm
K4CEQWXKHHP7viPSzKEf7J4=
-----END CERTIFICATE-----
