Certificate:
    Data:
        Version: 3 (0x2)
        Serial Number: 36 (0x24)
        Signature Algorithm: ecdsa-with-SHA256
        Issuer: CN=Regione Sicilia, C=IT, ST=Italia, O=E-Voting system, OU=E-Voting system authority/emailAddress=Sicilia@evoting.it
        Validity
            Not Before: Aug 26 15:20:38 2022 GMT
            Not After : Aug 26 15:20:38 2023 GMT
        Subject: CN=Adeline, C=IT, ST=Italia, O=Regione Sicilia
        Subject Public Key Info:
            Public Key Algorithm: id-ecPublicKey
                Public-Key: (256 bit)
                pub:
                    04:10:5f:52:9f:ee:fa:88:a4:16:21:21:59:1f:1b:
                    60:ce:5b:31:7a:7e:17:32:3f:89:52:12:bb:30:01:
                    3e:81:d7:f0:63:f4:d6:70:5f:50:34:9a:91:0e:7e:
                    e1:63:87:8c:ea:dd:52:95:e0:88:59:30:66:2e:e6:
                    37:b1:0f:53:a9
                ASN1 OID: secp256k1
        X509v3 extensions:
            X509v3 Key Usage: critical
                Digital Signature, Key Encipherment
            X509v3 Basic Constraints: critical
                CA:FALSE, pathlen:3
    Signature Algorithm: ecdsa-with-SHA256
         30:46:02:21:00:e8:39:33:78:a2:31:ab:39:10:7a:0f:f0:cf:
         40:a3:a8:46:8c:62:bf:19:c8:1c:99:07:ed:a0:34:4d:30:de:
         95:02:21:00:aa:6b:77:4e:fc:5e:9c:40:8e:7e:c6:ca:5c:f9:
         7f:1d:63:7f:c3:c9:74:10:26:c2:3e:be:67:b2:e6:28:88:cf
-----BEGIN CERTIFICATE-----
MIIB9DCCAZmgAwIBAgIBJDAKBggqhkjOPQQDAjCBmTEYMBYGA1UEAwwPUmVnaW9u
ZSBTaWNpbGlhMQswCQYDVQQGEwJJVDEPMA0GA1UECAwGSXRhbGlhMRgwFgYDVQQK
DA9FLVZvdGluZyBzeXN0ZW0xIjAgBgNVBAsMGUUtVm90aW5nIHN5c3RlbSBhdXRo
b3JpdHkxITAfBgkqhkiG9w0BCQEWElNpY2lsaWFAZXZvdGluZy5pdDAeFw0yMjA4
MjYxNTIwMzhaFw0yMzA4MjYxNTIwMzhaMEoxEDAOBgNVBAMMB0FkZWxpbmUxCzAJ
BgNVBAYTAklUMQ8wDQYDVQQIDAZJdGFsaWExGDAWBgNVBAoMD1JlZ2lvbmUgU2lj
aWxpYTBWMBAGByqGSM49AgEGBSuBBAAKA0IABBBfUp/u+oikFiEhWR8bYM5bMXp+
FzI/iVISuzABPoHX8GP01nBfUDSakQ5+4WOHjOrdUpXgiFkwZi7mN7EPU6mjIzAh
MA4GA1UdDwEB/wQEAwIFoDAPBgNVHRMBAf8EBTADAgEDMAoGCCqGSM49BAMCA0kA
MEYCIQDoOTN4ojGrORB6D/DPQKOoRoxivxnIHJkH7aA0TTDelQIhAKprd078XpxA
jn7Gylz5fx1jf8PJdBAmwj6+Z7LmKIjP
-----END CERTIFICATE-----
