Certificate:
    Data:
        Version: 3 (0x2)
        Serial Number: 22 (0x16)
        Signature Algorithm: ecdsa-with-SHA256
        Issuer: CN=Regione Marche, C=IT, ST=Italia, O=E-Voting system, OU=E-Voting system authority/emailAddress=Marche@evoting.it
        Validity
            Not Before: Aug  3 13:26:54 2022 GMT
            Not After : Aug  3 13:26:54 2023 GMT
        Subject: CN=Adriana, C=IT, ST=Italia, O=Regione Marche
        Subject Public Key Info:
            Public Key Algorithm: id-ecPublicKey
                Public-Key: (256 bit)
                pub:
                    04:b2:2f:3e:a9:be:51:97:57:eb:db:90:4b:35:12:
                    1b:7a:51:f3:f6:97:87:c0:f3:1c:65:85:e6:ef:32:
                    84:a3:df:df:70:1d:f7:5e:8b:20:c6:04:dc:9b:8a:
                    61:27:ed:86:c7:e4:af:3a:8e:67:eb:d8:43:11:8f:
                    d3:f7:53:9a:de
                ASN1 OID: prime256v1
                NIST CURVE: P-256
        X509v3 extensions:
            X509v3 Key Usage: critical
                Digital Signature, Key Encipherment
            X509v3 Basic Constraints: critical
                CA:FALSE, pathlen:3
    Signature Algorithm: ecdsa-with-SHA256
         30:44:02:20:20:74:c3:17:bc:c7:25:4b:e1:12:80:91:e1:02:
         05:29:66:aa:c3:45:7f:64:23:3c:f9:91:fb:09:63:9a:13:38:
         02:20:76:72:74:9b:aa:9e:73:77:17:fb:14:42:6b:e8:83:f9:
         cb:21:2b:66:41:4d:85:b0:8e:bf:57:9e:9e:4a:1d:29
-----BEGIN CERTIFICATE-----
MIIB8jCCAZmgAwIBAgIBFjAKBggqhkjOPQQDAjCBlzEXMBUGA1UEAwwOUmVnaW9u
ZSBNYXJjaGUxCzAJBgNVBAYTAklUMQ8wDQYDVQQIDAZJdGFsaWExGDAWBgNVBAoM
D0UtVm90aW5nIHN5c3RlbTEiMCAGA1UECwwZRS1Wb3Rpbmcgc3lzdGVtIGF1dGhv
cml0eTEgMB4GCSqGSIb3DQEJARYRTWFyY2hlQGV2b3RpbmcuaXQwHhcNMjIwODAz
MTMyNjU0WhcNMjMwODAzMTMyNjU0WjBJMRAwDgYDVQQDDAdBZHJpYW5hMQswCQYD
VQQGEwJJVDEPMA0GA1UECAwGSXRhbGlhMRcwFQYDVQQKDA5SZWdpb25lIE1hcmNo
ZTBZMBMGByqGSM49AgEGCCqGSM49AwEHA0IABLIvPqm+UZdX69uQSzUSG3pR8/aX
h8DzHGWF5u8yhKPf33Ad916LIMYE3JuKYSfthsfkrzqOZ+vYQxGP0/dTmt6jIzAh
MA4GA1UdDwEB/wQEAwIFoDAPBgNVHRMBAf8EBTADAgEDMAoGCCqGSM49BAMCA0cA
MEQCICB0wxe8xyVL4RKAkeECBSlmqsNFf2QjPPmR+wljmhM4AiB2cnSbqp5zdxf7
FEJr6IP5yyErZkFNhbCOv1eenkodKQ==
-----END CERTIFICATE-----
