Certificate:
    Data:
        Version: 3 (0x2)
        Serial Number: 21 (0x15)
        Signature Algorithm: ecdsa-with-SHA256
        Issuer: CN=Regione Piemonte, C=IT, ST=Italia, O=E-Voting system, OU=E-Voting system authority/emailAddress=Piemonte@evoting.it
        Validity
            Not Before: Aug  3 13:26:30 2022 GMT
            Not After : Aug  3 13:26:30 2023 GMT
        Subject: CN=Aida, C=IT, ST=Italia, O=Regione Piemonte
        Subject Public Key Info:
            Public Key Algorithm: id-ecPublicKey
                Public-Key: (256 bit)
                pub:
                    04:24:09:6d:13:b7:5b:3f:16:d2:63:36:f2:70:12:
                    e1:2e:d8:d8:f0:5a:f3:a6:13:95:a0:99:8c:be:5f:
                    93:af:ea:4a:72:b7:8d:90:fc:f7:92:68:c3:cb:98:
                    1a:6c:2f:92:78:c7:b2:68:41:81:fd:ed:c3:c2:69:
                    7f:70:ac:ec:0e
                ASN1 OID: prime256v1
                NIST CURVE: P-256
        X509v3 extensions:
            X509v3 Key Usage: critical
                Digital Signature, Key Encipherment
            X509v3 Basic Constraints: critical
                CA:FALSE, pathlen:3
    Signature Algorithm: ecdsa-with-SHA256
         30:45:02:20:2e:d4:e3:85:69:2e:0c:28:cf:ae:d8:1a:5a:c7:
         11:b8:d1:49:69:f3:2d:e2:43:d7:d6:81:02:f0:0c:ab:1d:c9:
         02:21:00:ed:a3:fe:e2:a5:3d:7f:05:e0:aa:94:e4:a8:9a:e4:
         5b:31:d1:40:cb:d0:14:04:ea:b1:1b:7f:08:c7:7b:20:ff
-----BEGIN CERTIFICATE-----
MIIB9jCCAZygAwIBAgIBFTAKBggqhkjOPQQDAjCBmzEZMBcGA1UEAwwQUmVnaW9u
ZSBQaWVtb250ZTELMAkGA1UEBhMCSVQxDzANBgNVBAgMBkl0YWxpYTEYMBYGA1UE
CgwPRS1Wb3Rpbmcgc3lzdGVtMSIwIAYDVQQLDBlFLVZvdGluZyBzeXN0ZW0gYXV0
aG9yaXR5MSIwIAYJKoZIhvcNAQkBFhNQaWVtb250ZUBldm90aW5nLml0MB4XDTIy
MDgwMzEzMjYzMFoXDTIzMDgwMzEzMjYzMFowSDENMAsGA1UEAwwEQWlkYTELMAkG
A1UEBhMCSVQxDzANBgNVBAgMBkl0YWxpYTEZMBcGA1UECgwQUmVnaW9uZSBQaWVt
b250ZTBZMBMGByqGSM49AgEGCCqGSM49AwEHA0IABCQJbRO3Wz8W0mM28nAS4S7Y
2PBa86YTlaCZjL5fk6/qSnK3jZD895Jow8uYGmwvknjHsmhBgf3tw8Jpf3Cs7A6j
IzAhMA4GA1UdDwEB/wQEAwIFoDAPBgNVHRMBAf8EBTADAgEDMAoGCCqGSM49BAMC
A0gAMEUCIC7U44VpLgwoz67YGlrHEbjRSWnzLeJD19aBAvAMqx3JAiEA7aP+4qU9
fwXgqpTkqJrkWzHRQMvQFATqsRt/CMd7IP8=
-----END CERTIFICATE-----
