Certificate:
    Data:
        Version: 3 (0x2)
        Serial Number: 15 (0xf)
        Signature Algorithm: ecdsa-with-SHA256
        Issuer: CN=Regione Basilicata, C=IT, ST=Italia, O=E-Voting system, OU=E-Voting system authority/emailAddress=Basilicata@evoting.it
        Validity
            Not Before: Aug 26 15:19:27 2022 GMT
            Not After : Aug 26 15:19:27 2023 GMT
        Subject: CN=Alberta, C=IT, ST=Italia, O=Regione Basilicata
        Subject Public Key Info:
            Public Key Algorithm: id-ecPublicKey
                Public-Key: (256 bit)
                pub:
                    04:a9:21:9a:e1:99:19:d9:bc:d1:14:f0:89:a3:0a:
                    8a:3c:52:56:94:c1:04:60:0e:da:41:65:2a:12:f4:
                    13:55:28:89:27:95:96:0f:2c:86:0e:5a:ee:36:f9:
                    80:6a:f1:22:29:bc:7b:e1:d0:0f:0b:02:1c:a5:9c:
                    c9:e6:ba:de:2d
                ASN1 OID: secp256k1
        X509v3 extensions:
            X509v3 Key Usage: critical
                Digital Signature, Key Encipherment
            X509v3 Basic Constraints: critical
                CA:FALSE, pathlen:3
    Signature Algorithm: ecdsa-with-SHA256
         30:44:02:20:08:35:19:a1:a3:65:46:bd:39:23:05:d1:d0:06:
         ce:57:26:80:e1:46:2e:1a:9d:fa:54:7d:18:96:9b:f5:22:26:
         02:20:32:fb:bf:8a:c0:34:7a:e3:89:fd:0c:80:06:b5:aa:35:
         83:ac:95:4e:7f:da:02:49:0c:cc:ba:1a:5c:9c:bc:b6
-----BEGIN CERTIFICATE-----
MIIB+zCCAaKgAwIBAgIBDzAKBggqhkjOPQQDAjCBnzEbMBkGA1UEAwwSUmVnaW9u
ZSBCYXNpbGljYXRhMQswCQYDVQQGEwJJVDEPMA0GA1UECAwGSXRhbGlhMRgwFgYD
VQQKDA9FLVZvdGluZyBzeXN0ZW0xIjAgBgNVBAsMGUUtVm90aW5nIHN5c3RlbSBh
dXRob3JpdHkxJDAiBgkqhkiG9w0BCQEWFUJhc2lsaWNhdGFAZXZvdGluZy5pdDAe
Fw0yMjA4MjYxNTE5MjdaFw0yMzA4MjYxNTE5MjdaME0xEDAOBgNVBAMMB0FsYmVy
dGExCzAJBgNVBAYTAklUMQ8wDQYDVQQIDAZJdGFsaWExGzAZBgNVBAoMElJlZ2lv
bmUgQmFzaWxpY2F0YTBWMBAGByqGSM49AgEGBSuBBAAKA0IABKkhmuGZGdm80RTw
iaMKijxSVpTBBGAO2kFlKhL0E1UoiSeVlg8shg5a7jb5gGrxIim8e+HQDwsCHKWc
yea63i2jIzAhMA4GA1UdDwEB/wQEAwIFoDAPBgNVHRMBAf8EBTADAgEDMAoGCCqG
SM49BAMCA0cAMEQCIAg1GaGjZUa9OSMF0dAGzlcmgOFGLhqd+lR9GJab9SImAiAy
+7+KwDR644n9DIAGtao1g6yVTn/aAkkMzLoaXJy8tg==
-----END CERTIFICATE-----
