Certificate:
    Data:
        Version: 3 (0x2)
        Serial Number: 8 (0x8)
        Signature Algorithm: ecdsa-with-SHA256
        Issuer: CN=Regione Basilicata, C=IT, ST=Italia, O=E-Voting system, OU=E-Voting system authority/emailAddress=Basilicata@evoting.it
        Validity
            Not Before: Aug 26 15:19:03 2022 GMT
            Not After : Aug 26 15:19:03 2023 GMT
        Subject: CN=Albert, C=IT, ST=Italia, O=Regione Basilicata
        Subject Public Key Info:
            Public Key Algorithm: id-ecPublicKey
                Public-Key: (256 bit)
                pub:
                    04:62:57:fc:7c:60:7b:64:66:5f:2e:86:7e:c8:6c:
                    29:8f:bb:bf:9f:37:11:ff:8f:79:f8:72:47:f5:3e:
                    44:9c:b9:fe:0c:0e:3e:cb:bf:b8:3f:dc:4f:db:db:
                    82:09:95:47:db:49:1d:cb:66:3b:63:37:6d:9f:4f:
                    c2:1d:48:71:73
                ASN1 OID: secp256k1
        X509v3 extensions:
            X509v3 Key Usage: critical
                Digital Signature, Key Encipherment
            X509v3 Basic Constraints: critical
                CA:FALSE, pathlen:3
    Signature Algorithm: ecdsa-with-SHA256
         30:46:02:21:00:9b:c1:52:66:c1:a8:68:d4:0a:54:05:23:74:
         b0:66:63:b7:20:46:50:d2:13:2e:d8:ce:21:65:b3:34:ba:88:
         a3:02:21:00:ef:dc:0c:aa:b0:6d:c0:8d:49:5a:65:47:e7:90:
         31:fb:3c:ac:2d:a5:1f:4f:e2:44:32:35:6e:3d:c9:71:12:0c
-----BEGIN CERTIFICATE-----
MIIB/DCCAaGgAwIBAgIBCDAKBggqhkjOPQQDAjCBnzEbMBkGA1UEAwwSUmVnaW9u
ZSBCYXNpbGljYXRhMQswCQYDVQQGEwJJVDEPMA0GA1UECAwGSXRhbGlhMRgwFgYD
VQQKDA9FLVZvdGluZyBzeXN0ZW0xIjAgBgNVBAsMGUUtVm90aW5nIHN5c3RlbSBh
dXRob3JpdHkxJDAiBgkqhkiG9w0BCQEWFUJhc2lsaWNhdGFAZXZvdGluZy5pdDAe
Fw0yMjA4MjYxNTE5MDNaFw0yMzA4MjYxNTE5MDNaMEwxDzANBgNVBAMMBkFsYmVy
dDELMAkGA1UEBhMCSVQxDzANBgNVBAgMBkl0YWxpYTEbMBkGA1UECgwSUmVnaW9u
ZSBCYXNpbGljYXRhMFYwEAYHKoZIzj0CAQYFK4EEAAoDQgAEYlf8fGB7ZGZfLoZ+
yGwpj7u/nzcR/495+HJH9T5EnLn+DA4+y7+4P9xP29uCCZVH20kdy2Y7Yzdtn0/C
HUhxc6MjMCEwDgYDVR0PAQH/BAQDAgWgMA8GA1UdEwEB/wQFMAMCAQMwCgYIKoZI
zj0EAwIDSQAwRgIhAJvBUmbBqGjUClQFI3SwZmO3IEZQ0hMu2M4hZbM0uoijAiEA
79wMqrBtwI1JWmVH55Ax+zysLaUfT+JEMjVuPclxEgw=
-----END CERTIFICATE-----
