Certificate:
    Data:
        Version: 3 (0x2)
        Serial Number: 27 (0x1b)
        Signature Algorithm: ecdsa-with-SHA256
        Issuer: CN=Regione Basilicata, C=IT, ST=Italia, O=E-Voting system, OU=E-Voting system authority/emailAddress=Basilicata@evoting.it
        Validity
            Not Before: Aug  3 13:26:48 2022 GMT
            Not After : Aug  3 13:26:48 2023 GMT
        Subject: CN=Alberta, C=IT, ST=Italia, O=Regione Basilicata
        Subject Public Key Info:
            Public Key Algorithm: id-ecPublicKey
                Public-Key: (256 bit)
                pub:
                    04:d9:4b:8d:11:fe:50:3a:17:8e:fc:c3:ae:4c:53:
                    33:39:2c:84:fc:dc:de:81:72:fa:76:e9:10:fb:60:
                    49:f5:9a:f0:ce:ba:d4:e9:6c:38:47:97:d0:7e:ff:
                    15:70:e4:48:2c:ee:04:5f:73:29:1f:d4:e2:d6:8f:
                    ea:b0:65:c3:47
                ASN1 OID: prime256v1
                NIST CURVE: P-256
        X509v3 extensions:
            X509v3 Key Usage: critical
                Digital Signature, Key Encipherment
            X509v3 Basic Constraints: critical
                CA:FALSE, pathlen:3
    Signature Algorithm: ecdsa-with-SHA256
         30:46:02:21:00:db:4b:6b:9c:c8:4a:3e:ac:84:01:ac:e3:80:
         a5:2b:64:8a:2a:94:7f:ad:3c:70:26:08:7b:e7:14:62:94:3c:
         37:02:21:00:95:78:99:da:aa:ca:4b:54:c7:c8:88:33:80:fe:
         df:ad:bd:4a:e3:ca:ae:f1:79:9b:f7:52:ff:dc:35:d2:90:5c
-----BEGIN CERTIFICATE-----
MIICADCCAaWgAwIBAgIBGzAKBggqhkjOPQQDAjCBnzEbMBkGA1UEAwwSUmVnaW9u
ZSBCYXNpbGljYXRhMQswCQYDVQQGEwJJVDEPMA0GA1UECAwGSXRhbGlhMRgwFgYD
VQQKDA9FLVZvdGluZyBzeXN0ZW0xIjAgBgNVBAsMGUUtVm90aW5nIHN5c3RlbSBh
dXRob3JpdHkxJDAiBgkqhkiG9w0BCQEWFUJhc2lsaWNhdGFAZXZvdGluZy5pdDAe
Fw0yMjA4MDMxMzI2NDhaFw0yMzA4MDMxMzI2NDhaME0xEDAOBgNVBAMMB0FsYmVy
dGExCzAJBgNVBAYTAklUMQ8wDQYDVQQIDAZJdGFsaWExGzAZBgNVBAoMElJlZ2lv
bmUgQmFzaWxpY2F0YTBZMBMGByqGSM49AgEGCCqGSM49AwEHA0IABNlLjRH+UDoX
jvzDrkxTMzkshPzc3oFy+nbpEPtgSfWa8M661OlsOEeX0H7/FXDkSCzuBF9zKR/U
4taP6rBlw0ejIzAhMA4GA1UdDwEB/wQEAwIFoDAPBgNVHRMBAf8EBTADAgEDMAoG
CCqGSM49BAMCA0kAMEYCIQDbS2ucyEo+rIQBrOOApStkiiqUf608cCYIe+cUYpQ8
NwIhAJV4mdqqyktUx8iIM4D+3629SuPKrvF5m/dS/9w10pBc
-----END CERTIFICATE-----
