Certificate:
    Data:
        Version: 3 (0x2)
        Serial Number: 6 (0x6)
        Signature Algorithm: ecdsa-with-SHA256
        Issuer: CN=Regione Valle_d_Aosta, C=IT, ST=Italia, O=E-Voting system, OU=E-Voting system authority/emailAddress=Valle_d_Aosta@evoting.it
        Validity
            Not Before: Aug 26 15:18:37 2022 GMT
            Not After : Aug 26 15:18:37 2023 GMT
        Subject: CN=Alejandro, C=IT, ST=Italia, O=Regione Valle_d_Aosta
        Subject Public Key Info:
            Public Key Algorithm: id-ecPublicKey
                Public-Key: (256 bit)
                pub:
                    04:65:fd:ea:c5:57:2c:cc:44:17:69:d3:fc:af:0d:
                    b0:da:a3:09:c8:43:b6:f4:4c:38:3e:2e:16:1c:07:
                    ab:4a:52:24:17:ca:72:b7:e2:4b:78:fe:2c:3a:a3:
                    b3:77:4b:fa:0b:18:c1:76:57:c3:49:79:89:20:f4:
                    20:06:83:30:1f
                ASN1 OID: secp256k1
        X509v3 extensions:
            X509v3 Key Usage: critical
                Digital Signature, Key Encipherment
            X509v3 Basic Constraints: critical
                CA:FALSE, pathlen:3
    Signature Algorithm: ecdsa-with-SHA256
         30:45:02:21:00:a4:9c:e9:0a:57:f0:8d:8c:9f:4d:b5:54:96:
         92:d8:22:97:ec:83:69:b6:a7:68:f0:b8:0c:ed:21:b0:c0:66:
         c1:02:20:5f:86:d7:83:bd:70:3d:fe:2a:65:00:40:6e:f7:1f:
         ed:f4:d7:d3:0b:1c:71:b2:02:23:75:5b:48:c8:e9:73:0b
-----BEGIN CERTIFICATE-----
MIICBzCCAa2gAwIBAgIBBjAKBggqhkjOPQQDAjCBpTEeMBwGA1UEAwwVUmVnaW9u
ZSBWYWxsZV9kX0Fvc3RhMQswCQYDVQQGEwJJVDEPMA0GA1UECAwGSXRhbGlhMRgw
FgYDVQQKDA9FLVZvdGluZyBzeXN0ZW0xIjAgBgNVBAsMGUUtVm90aW5nIHN5c3Rl
bSBhdXRob3JpdHkxJzAlBgkqhkiG9w0BCQEWGFZhbGxlX2RfQW9zdGFAZXZvdGlu
Zy5pdDAeFw0yMjA4MjYxNTE4MzdaFw0yMzA4MjYxNTE4MzdaMFIxEjAQBgNVBAMM
CUFsZWphbmRybzELMAkGA1UEBhMCSVQxDzANBgNVBAgMBkl0YWxpYTEeMBwGA1UE
CgwVUmVnaW9uZSBWYWxsZV9kX0Fvc3RhMFYwEAYHKoZIzj0CAQYFK4EEAAoDQgAE
Zf3qxVcszEQXadP8rw2w2qMJyEO29Ew4Pi4WHAerSlIkF8pyt+JLeP4sOqOzd0v6
CxjBdlfDSXmJIPQgBoMwH6MjMCEwDgYDVR0PAQH/BAQDAgWgMA8GA1UdEwEB/wQF
MAMCAQMwCgYIKoZIzj0EAwIDSAAwRQIhAKSc6QpX8I2Mn021VJaS2CKX7INptqdo
8LgM7SGwwGbBAiBfhteDvXA9/iplAEBu9x/t9NfTCxxxsgIjdVtIyOlzCw==
-----END CERTIFICATE-----
