Certificate:
    Data:
        Version: 3 (0x2)
        Serial Number: 20 (0x14)
        Signature Algorithm: ecdsa-with-SHA256
        Issuer: CN=Regione Toscana, C=IT, ST=Italia, O=E-Voting system, OU=E-Voting system authority/emailAddress=Toscana@evoting.it
        Validity
            Not Before: Aug 26 15:19:59 2022 GMT
            Not After : Aug 26 15:19:59 2023 GMT
        Subject: CN=Alexander, C=IT, ST=Italia, O=Regione Toscana
        Subject Public Key Info:
            Public Key Algorithm: id-ecPublicKey
                Public-Key: (256 bit)
                pub:
                    04:3e:a4:4f:92:c2:58:65:5d:7e:c6:47:92:7b:30:
                    74:22:32:28:f8:14:43:21:09:39:dc:b5:49:6c:02:
                    27:b3:3c:ac:11:84:ec:15:15:07:7a:e4:f1:a9:05:
                    48:c3:65:1b:8a:6c:8b:3b:2f:57:02:10:f0:f1:4e:
                    4a:52:09:85:57
                ASN1 OID: secp256k1
        X509v3 extensions:
            X509v3 Key Usage: critical
                Digital Signature, Key Encipherment
            X509v3 Basic Constraints: critical
                CA:FALSE, pathlen:3
    Signature Algorithm: ecdsa-with-SHA256
         30:46:02:21:00:b4:be:eb:4f:6d:95:1c:20:89:00:45:6b:fc:
         8a:f6:33:84:94:e9:2b:c8:3e:dc:3b:98:81:87:74:c9:57:45:
         a7:02:21:00:d6:4b:25:0c:7b:9e:83:02:70:86:66:a8:5e:17:
         b8:79:fe:7e:2b:b7:86:be:c8:74:ef:5e:de:df:54:73:4e:cb
-----BEGIN CERTIFICATE-----
MIIB9jCCAZugAwIBAgIBFDAKBggqhkjOPQQDAjCBmTEYMBYGA1UEAwwPUmVnaW9u
ZSBUb3NjYW5hMQswCQYDVQQGEwJJVDEPMA0GA1UECAwGSXRhbGlhMRgwFgYDVQQK
DA9FLVZvdGluZyBzeXN0ZW0xIjAgBgNVBAsMGUUtVm90aW5nIHN5c3RlbSBhdXRo
b3JpdHkxITAfBgkqhkiG9w0BCQEWElRvc2NhbmFAZXZvdGluZy5pdDAeFw0yMjA4
MjYxNTE5NTlaFw0yMzA4MjYxNTE5NTlaMEwxEjAQBgNVBAMMCUFsZXhhbmRlcjEL
MAkGA1UEBhMCSVQxDzANBgNVBAgMBkl0YWxpYTEYMBYGA1UECgwPUmVnaW9uZSBU
b3NjYW5hMFYwEAYHKoZIzj0CAQYFK4EEAAoDQgAEPqRPksJYZV1+xkeSezB0IjIo
+BRDIQk53LVJbAInszysEYTsFRUHeuTxqQVIw2UbimyLOy9XAhDw8U5KUgmFV6Mj
MCEwDgYDVR0PAQH/BAQDAgWgMA8GA1UdEwEB/wQFMAMCAQMwCgYIKoZIzj0EAwID
SQAwRgIhALS+609tlRwgiQBFa/yK9jOElOkryD7cO5iBh3TJV0WnAiEA1kslDHue
gwJwhmaoXhe4ef5+K7eGvsh0717e31RzTss=
-----END CERTIFICATE-----
