Certificate:
    Data:
        Version: 3 (0x2)
        Serial Number: 37 (0x25)
        Signature Algorithm: ecdsa-with-SHA256
        Issuer: CN=Regione Liguria, C=IT, ST=Italia, O=E-Voting system, OU=E-Voting system authority/emailAddress=Liguria@evoting.it
        Validity
            Not Before: Aug  3 13:27:51 2022 GMT
            Not After : Aug  3 13:27:51 2023 GMT
        Subject: CN=Alexis, C=IT, ST=Italia, O=Regione Liguria
        Subject Public Key Info:
            Public Key Algorithm: id-ecPublicKey
                Public-Key: (256 bit)
                pub:
                    04:c4:fe:44:3c:ee:8f:d8:7c:67:34:52:3d:de:cd:
                    27:e9:fe:d8:2d:aa:ea:4c:ac:07:17:da:4c:de:59:
                    91:a5:1f:af:d9:63:09:55:f2:cd:3b:eb:c8:16:7e:
                    8c:0a:d7:3e:9c:ed:95:b4:4e:5c:14:89:1e:ca:fa:
                    e0:bc:d7:a7:22
                ASN1 OID: prime256v1
                NIST CURVE: P-256
        X509v3 extensions:
            X509v3 Key Usage: critical
                Digital Signature, Key Encipherment
            X509v3 Basic Constraints: critical
                CA:FALSE, pathlen:3
    Signature Algorithm: ecdsa-with-SHA256
         30:44:02:20:7c:3b:aa:68:99:08:96:32:68:07:e9:1c:34:73:
         24:15:64:97:f2:87:10:62:d6:40:26:86:81:5b:f8:8d:4e:f5:
         02:20:7a:b8:06:7b:90:6b:ca:0b:51:41:47:86:11:e0:09:33:
         03:36:5a:88:3e:83:2c:27:79:45:b9:b1:bd:3c:7f:67
-----BEGIN CERTIFICATE-----
MIIB9DCCAZugAwIBAgIBJTAKBggqhkjOPQQDAjCBmTEYMBYGA1UEAwwPUmVnaW9u
ZSBMaWd1cmlhMQswCQYDVQQGEwJJVDEPMA0GA1UECAwGSXRhbGlhMRgwFgYDVQQK
DA9FLVZvdGluZyBzeXN0ZW0xIjAgBgNVBAsMGUUtVm90aW5nIHN5c3RlbSBhdXRo
b3JpdHkxITAfBgkqhkiG9w0BCQEWEkxpZ3VyaWFAZXZvdGluZy5pdDAeFw0yMjA4
MDMxMzI3NTFaFw0yMzA4MDMxMzI3NTFaMEkxDzANBgNVBAMMBkFsZXhpczELMAkG
A1UEBhMCSVQxDzANBgNVBAgMBkl0YWxpYTEYMBYGA1UECgwPUmVnaW9uZSBMaWd1
cmlhMFkwEwYHKoZIzj0CAQYIKoZIzj0DAQcDQgAExP5EPO6P2HxnNFI93s0n6f7Y
LarqTKwHF9pM3lmRpR+v2WMJVfLNO+vIFn6MCtc+nO2VtE5cFIkeyvrgvNenIqMj
MCEwDgYDVR0PAQH/BAQDAgWgMA8GA1UdEwEB/wQFMAMCAQMwCgYIKoZIzj0EAwID
RwAwRAIgfDuqaJkIljJoB+kcNHMkFWSX8ocQYtZAJoaBW/iNTvUCIHq4BnuQa8oL
UUFHhhHgCTMDNlqIPoMsJ3lFubG9PH9n
-----END CERTIFICATE-----
