Certificate:
    Data:
        Version: 3 (0x2)
        Serial Number: 13 (0xd)
        Signature Algorithm: ecdsa-with-SHA256
        Issuer: CN=Regione Liguria, C=IT, ST=Italia, O=E-Voting system, OU=E-Voting system authority/emailAddress=Liguria@evoting.it
        Validity
            Not Before: Aug  3 13:26:15 2022 GMT
            Not After : Aug  3 13:26:15 2023 GMT
        Subject: CN=Alexander, C=IT, ST=Italia, O=Regione Liguria
        Subject Public Key Info:
            Public Key Algorithm: id-ecPublicKey
                Public-Key: (256 bit)
                pub:
                    04:dd:f8:88:af:e9:f0:7b:82:e6:16:18:3f:b0:37:
                    b0:88:2a:18:1a:28:26:70:39:a4:0f:6a:94:75:0e:
                    d8:84:ad:a4:6d:13:ff:d8:6a:63:d5:c4:b7:2a:fc:
                    57:ed:1a:4a:f1:16:ee:60:c1:bb:c5:fd:aa:28:72:
                    8c:46:a4:36:97
                ASN1 OID: prime256v1
                NIST CURVE: P-256
        X509v3 extensions:
            X509v3 Key Usage: critical
                Digital Signature, Key Encipherment
            X509v3 Basic Constraints: critical
                CA:FALSE, pathlen:3
    Signature Algorithm: ecdsa-with-SHA256
         30:46:02:21:00:90:06:11:f3:37:1f:a2:3f:87:2e:0c:37:d3:
         e8:32:ef:2c:96:60:6b:09:a8:0e:35:94:f2:dc:78:8b:fb:3d:
         c8:02:21:00:de:29:54:aa:12:be:4f:ad:17:c9:07:91:96:a3:
         06:9d:58:fa:e4:71:07:ed:ca:1e:1d:2c:70:1e:57:ce:6e:b8
-----BEGIN CERTIFICATE-----
MIIB+TCCAZ6gAwIBAgIBDTAKBggqhkjOPQQDAjCBmTEYMBYGA1UEAwwPUmVnaW9u
ZSBMaWd1cmlhMQswCQYDVQQGEwJJVDEPMA0GA1UECAwGSXRhbGlhMRgwFgYDVQQK
DA9FLVZvdGluZyBzeXN0ZW0xIjAgBgNVBAsMGUUtVm90aW5nIHN5c3RlbSBhdXRo
b3JpdHkxITAfBgkqhkiG9w0BCQEWEkxpZ3VyaWFAZXZvdGluZy5pdDAeFw0yMjA4
MDMxMzI2MTVaFw0yMzA4MDMxMzI2MTVaMEwxEjAQBgNVBAMMCUFsZXhhbmRlcjEL
MAkGA1UEBhMCSVQxDzANBgNVBAgMBkl0YWxpYTEYMBYGA1UECgwPUmVnaW9uZSBM
aWd1cmlhMFkwEwYHKoZIzj0CAQYIKoZIzj0DAQcDQgAE3fiIr+nwe4LmFhg/sDew
iCoYGigmcDmkD2qUdQ7YhK2kbRP/2Gpj1cS3KvxX7RpK8RbuYMG7xf2qKHKMRqQ2
l6MjMCEwDgYDVR0PAQH/BAQDAgWgMA8GA1UdEwEB/wQFMAMCAQMwCgYIKoZIzj0E
AwIDSQAwRgIhAJAGEfM3H6I/hy4MN9PoMu8slmBrCagONZTy3HiL+z3IAiEA3ilU
qhK+T60XyQeRlqMGnVj65HEH7coeHSxwHlfObrg=
-----END CERTIFICATE-----
