Certificate:
    Data:
        Version: 3 (0x2)
        Serial Number: 53 (0x35)
        Signature Algorithm: ecdsa-with-SHA256
        Issuer: CN=Regione Emilia_Romagna, C=IT, ST=Italia, O=E-Voting system, OU=E-Voting system authority/emailAddress=Emilia_Romagna@evoting.it
        Validity
            Not Before: Aug 26 15:21:35 2022 GMT
            Not After : Aug 26 15:21:35 2023 GMT
        Subject: CN=Alex, C=IT, ST=Italia, O=Regione Emilia_Romagna
        Subject Public Key Info:
            Public Key Algorithm: id-ecPublicKey
                Public-Key: (256 bit)
                pub:
                    04:05:76:fa:9c:f1:06:92:7a:f6:65:82:e2:4e:9b:
                    fa:4e:17:8d:1b:39:a6:a8:ca:24:ba:a6:39:e8:f6:
                    19:c3:3c:82:e2:c1:73:9c:1b:b0:d6:e1:25:89:26:
                    62:d0:e7:80:18:8d:23:6c:c6:33:40:f1:1a:fd:3e:
                    d2:13:bf:5a:2a
                ASN1 OID: secp256k1
        X509v3 extensions:
            X509v3 Key Usage: critical
                Digital Signature, Key Encipherment
            X509v3 Basic Constraints: critical
                CA:FALSE, pathlen:3
    Signature Algorithm: ecdsa-with-SHA256
         30:46:02:21:00:98:84:08:31:98:92:77:a7:18:31:41:09:53:
         08:c3:77:95:98:3b:54:3c:65:b9:c8:83:71:22:27:2d:62:91:
         e7:02:21:00:c1:16:46:17:9a:6e:95:34:23:26:7a:af:8f:73:
         c7:30:a0:07:08:39:74:7d:e5:c9:70:3d:92:d1:01:26:b7:58
-----BEGIN CERTIFICATE-----
MIICBjCCAaugAwIBAgIBNTAKBggqhkjOPQQDAjCBpzEfMB0GA1UEAwwWUmVnaW9u
ZSBFbWlsaWFfUm9tYWduYTELMAkGA1UEBhMCSVQxDzANBgNVBAgMBkl0YWxpYTEY
MBYGA1UECgwPRS1Wb3Rpbmcgc3lzdGVtMSIwIAYDVQQLDBlFLVZvdGluZyBzeXN0
ZW0gYXV0aG9yaXR5MSgwJgYJKoZIhvcNAQkBFhlFbWlsaWFfUm9tYWduYUBldm90
aW5nLml0MB4XDTIyMDgyNjE1MjEzNVoXDTIzMDgyNjE1MjEzNVowTjENMAsGA1UE
AwwEQWxleDELMAkGA1UEBhMCSVQxDzANBgNVBAgMBkl0YWxpYTEfMB0GA1UECgwW
UmVnaW9uZSBFbWlsaWFfUm9tYWduYTBWMBAGByqGSM49AgEGBSuBBAAKA0IABAV2
+pzxBpJ69mWC4k6b+k4XjRs5pqjKJLqmOej2GcM8guLBc5wbsNbhJYkmYtDngBiN
I2zGM0DxGv0+0hO/WiqjIzAhMA4GA1UdDwEB/wQEAwIFoDAPBgNVHRMBAf8EBTAD
AgEDMAoGCCqGSM49BAMCA0kAMEYCIQCYhAgxmJJ3pxgxQQlTCMN3lZg7VDxluciD
cSInLWKR5wIhAMEWRheabpU0IyZ6r49zxzCgBwg5dH3lyXA9ktEBJrdY
-----END CERTIFICATE-----
