Certificate:
    Data:
        Version: 3 (0x2)
        Serial Number: 24 (0x18)
        Signature Algorithm: ecdsa-with-SHA256
        Issuer: CN=Regione Veneto, C=IT, ST=Italia, O=E-Voting system, OU=E-Voting system authority/emailAddress=Veneto@evoting.it
        Validity
            Not Before: Aug 26 15:21:05 2022 GMT
            Not After : Aug 26 15:21:05 2023 GMT
        Subject: CN=Alfred, C=IT, ST=Italia, O=Regione Veneto
        Subject Public Key Info:
            Public Key Algorithm: id-ecPublicKey
                Public-Key: (256 bit)
                pub:
                    04:b8:0d:99:e9:d4:a2:a1:ad:a7:cc:1c:33:0b:f4:
                    66:61:9e:b3:30:2a:96:f3:83:55:ab:a5:06:75:c4:
                    eb:f0:ac:24:8c:01:8f:9e:38:dd:98:df:17:02:3b:
                    f8:a0:7e:00:1c:f3:37:39:20:63:b6:cd:ad:c1:1b:
                    44:66:f3:db:25
                ASN1 OID: secp256k1
        X509v3 extensions:
            X509v3 Key Usage: critical
                Digital Signature, Key Encipherment
            X509v3 Basic Constraints: critical
                CA:FALSE, pathlen:3
    Signature Algorithm: ecdsa-with-SHA256
         30:46:02:21:00:da:1c:01:25:45:03:07:47:f0:36:04:12:96:
         3d:1d:7f:ce:63:95:b2:10:5d:b5:b1:7e:74:9c:21:53:33:61:
         26:02:21:00:c2:aa:fc:7e:a7:e1:e9:15:67:19:02:a9:e3:b8:
         94:63:29:85:44:8f:57:db:9f:e1:5a:75:2a:c7:ea:50:82:6c
-----BEGIN CERTIFICATE-----
MIIB8DCCAZWgAwIBAgIBGDAKBggqhkjOPQQDAjCBlzEXMBUGA1UEAwwOUmVnaW9u
ZSBWZW5ldG8xCzAJBgNVBAYTAklUMQ8wDQYDVQQIDAZJdGFsaWExGDAWBgNVBAoM
D0UtVm90aW5nIHN5c3RlbTEiMCAGA1UECwwZRS1Wb3Rpbmcgc3lzdGVtIGF1dGhv
cml0eTEgMB4GCSqGSIb3DQEJARYRVmVuZXRvQGV2b3RpbmcuaXQwHhcNMjIwODI2
MTUyMTA1WhcNMjMwODI2MTUyMTA1WjBIMQ8wDQYDVQQDDAZBbGZyZWQxCzAJBgNV
BAYTAklUMQ8wDQYDVQQIDAZJdGFsaWExFzAVBgNVBAoMDlJlZ2lvbmUgVmVuZXRv
MFYwEAYHKoZIzj0CAQYFK4EEAAoDQgAEuA2Z6dSioa2nzBwzC/RmYZ6zMCqW84NV
q6UGdcTr8KwkjAGPnjjdmN8XAjv4oH4AHPM3OSBjts2twRtEZvPbJaMjMCEwDgYD
VR0PAQH/BAQDAgWgMA8GA1UdEwEB/wQFMAMCAQMwCgYIKoZIzj0EAwIDSQAwRgIh
ANocASVFAwdH8DYEEpY9HX/OY5WyEF21sX50nCFTM2EmAiEAwqr8fqfh6RVnGQKp
47iUYymFRI9X25/hWnUqx+pQgmw=
-----END CERTIFICATE-----
