Certificate:
    Data:
        Version: 3 (0x2)
        Serial Number: 20 (0x14)
        Signature Algorithm: ecdsa-with-SHA256
        Issuer: CN=Regione Liguria, C=IT, ST=Italia, O=E-Voting system, OU=E-Voting system authority/emailAddress=Liguria@evoting.it
        Validity
            Not Before: Aug  3 13:26:40 2022 GMT
            Not After : Aug  3 13:26:40 2023 GMT
        Subject: CN=Alfred, C=IT, ST=Italia, O=Regione Liguria
        Subject Public Key Info:
            Public Key Algorithm: id-ecPublicKey
                Public-Key: (256 bit)
                pub:
                    04:10:ee:e1:84:ca:9a:44:08:e4:77:cf:32:fd:3d:
                    54:c4:af:54:c7:23:5a:9e:1d:32:09:5d:ce:6b:3c:
                    77:4e:19:75:b5:33:f4:de:71:c5:e4:fe:24:a5:b1:
                    16:62:a0:71:db:f6:f8:56:a1:73:0b:6e:18:7e:23:
                    0e:20:81:66:db
                ASN1 OID: prime256v1
                NIST CURVE: P-256
        X509v3 extensions:
            X509v3 Key Usage: critical
                Digital Signature, Key Encipherment
            X509v3 Basic Constraints: critical
                CA:FALSE, pathlen:3
    Signature Algorithm: ecdsa-with-SHA256
         30:45:02:20:6f:19:2d:90:8f:01:b4:87:94:b9:36:c1:31:13:
         61:01:8c:ca:6c:62:9e:f9:32:e9:98:d9:33:2b:af:bd:93:d7:
         02:21:00:e1:6d:67:54:82:90:3c:50:82:32:d5:fb:fa:08:21:
         ae:86:66:c2:60:be:6f:d9:bd:af:38:b7:9d:2d:37:87:2a
-----BEGIN CERTIFICATE-----
MIIB9TCCAZugAwIBAgIBFDAKBggqhkjOPQQDAjCBmTEYMBYGA1UEAwwPUmVnaW9u
ZSBMaWd1cmlhMQswCQYDVQQGEwJJVDEPMA0GA1UECAwGSXRhbGlhMRgwFgYDVQQK
DA9FLVZvdGluZyBzeXN0ZW0xIjAgBgNVBAsMGUUtVm90aW5nIHN5c3RlbSBhdXRo
b3JpdHkxITAfBgkqhkiG9w0BCQEWEkxpZ3VyaWFAZXZvdGluZy5pdDAeFw0yMjA4
MDMxMzI2NDBaFw0yMzA4MDMxMzI2NDBaMEkxDzANBgNVBAMMBkFsZnJlZDELMAkG
A1UEBhMCSVQxDzANBgNVBAgMBkl0YWxpYTEYMBYGA1UECgwPUmVnaW9uZSBMaWd1
cmlhMFkwEwYHKoZIzj0CAQYIKoZIzj0DAQcDQgAEEO7hhMqaRAjkd88y/T1UxK9U
xyNanh0yCV3Oazx3Thl1tTP03nHF5P4kpbEWYqBx2/b4VqFzC24YfiMOIIFm26Mj
MCEwDgYDVR0PAQH/BAQDAgWgMA8GA1UdEwEB/wQFMAMCAQMwCgYIKoZIzj0EAwID
SAAwRQIgbxktkI8BtIeUuTbBMRNhAYzKbGKe+TLpmNkzK6+9k9cCIQDhbWdUgpA8
UIIy1fv6CCGuhmbCYL5v2b2vOLedLTeHKg==
-----END CERTIFICATE-----
