Certificate:
    Data:
        Version: 3 (0x2)
        Serial Number: 56 (0x38)
        Signature Algorithm: ecdsa-with-SHA256
        Issuer: CN=Regione Liguria, C=IT, ST=Italia, O=E-Voting system, OU=E-Voting system authority/emailAddress=Liguria@evoting.it
        Validity
            Not Before: Aug  3 13:28:40 2022 GMT
            Not After : Aug  3 13:28:40 2023 GMT
        Subject: CN=Alicia, C=IT, ST=Italia, O=Regione Liguria
        Subject Public Key Info:
            Public Key Algorithm: id-ecPublicKey
                Public-Key: (256 bit)
                pub:
                    04:48:18:fc:e5:76:f3:87:cb:05:6e:70:2f:6c:f1:
                    5b:51:e1:64:aa:f2:cb:7e:17:cb:94:7f:60:21:1e:
                    19:a1:d6:5b:db:89:30:2d:25:fe:89:19:40:73:7b:
                    34:15:13:f1:6e:59:6e:19:84:a5:1b:fa:05:da:8c:
                    81:b3:5a:6d:c3
                ASN1 OID: prime256v1
                NIST CURVE: P-256
        X509v3 extensions:
            X509v3 Key Usage: critical
                Digital Signature, Key Encipherment
            X509v3 Basic Constraints: critical
                CA:FALSE, pathlen:3
    Signature Algorithm: ecdsa-with-SHA256
         30:45:02:21:00:c4:4a:99:18:b1:59:93:23:5f:07:24:d6:5d:
         73:a0:18:c3:76:ad:95:8a:72:95:9a:e4:6f:f4:ea:8b:c9:30:
         90:02:20:15:b7:5a:dd:2b:9f:b5:b0:5b:78:75:2f:40:7a:0b:
         ce:23:c4:d2:38:0f:ec:10:5d:9e:9e:bd:03:6b:ad:83:f0
-----BEGIN CERTIFICATE-----
MIIB9TCCAZugAwIBAgIBODAKBggqhkjOPQQDAjCBmTEYMBYGA1UEAwwPUmVnaW9u
ZSBMaWd1cmlhMQswCQYDVQQGEwJJVDEPMA0GA1UECAwGSXRhbGlhMRgwFgYDVQQK
DA9FLVZvdGluZyBzeXN0ZW0xIjAgBgNVBAsMGUUtVm90aW5nIHN5c3RlbSBhdXRo
b3JpdHkxITAfBgkqhkiG9w0BCQEWEkxpZ3VyaWFAZXZvdGluZy5pdDAeFw0yMjA4
MDMxMzI4NDBaFw0yMzA4MDMxMzI4NDBaMEkxDzANBgNVBAMMBkFsaWNpYTELMAkG
A1UEBhMCSVQxDzANBgNVBAgMBkl0YWxpYTEYMBYGA1UECgwPUmVnaW9uZSBMaWd1
cmlhMFkwEwYHKoZIzj0CAQYIKoZIzj0DAQcDQgAESBj85Xbzh8sFbnAvbPFbUeFk
qvLLfhfLlH9gIR4ZodZb24kwLSX+iRlAc3s0FRPxblluGYSlG/oF2oyBs1ptw6Mj
MCEwDgYDVR0PAQH/BAQDAgWgMA8GA1UdEwEB/wQFMAMCAQMwCgYIKoZIzj0EAwID
SAAwRQIhAMRKmRixWZMjXwck1l1zoBjDdq2VinKVmuRv9OqLyTCQAiAVt1rdK5+1
sFt4dS9AegvOI8TSOA/sEF2enr0Da62D8A==
-----END CERTIFICATE-----
