Certificate:
    Data:
        Version: 3 (0x2)
        Serial Number: 16 (0x10)
        Signature Algorithm: ecdsa-with-SHA256
        Issuer: CN=Regione Friuli_Venezia_Giulia, C=IT, ST=Italia, O=E-Voting system, OU=E-Voting system authority/emailAddress=Friuli_Venezia_Giulia@evoting.it
        Validity
            Not Before: Aug 26 15:19:39 2022 GMT
            Not After : Aug 26 15:19:39 2023 GMT
        Subject: CN=Alicia, C=IT, ST=Italia, O=Regione Friuli_Venezia_Giulia
        Subject Public Key Info:
            Public Key Algorithm: id-ecPublicKey
                Public-Key: (256 bit)
                pub:
                    04:ae:f5:05:6a:96:14:5f:be:16:cb:62:ab:11:4c:
                    d7:26:0d:a9:05:8e:e7:aa:26:ca:8d:c3:58:47:0f:
                    93:72:3b:68:b9:1d:75:1e:e1:16:2d:6b:91:97:c4:
                    d5:fb:65:88:79:4a:c6:68:a7:1c:92:44:30:b9:ee:
                    ab:e4:15:f2:de
                ASN1 OID: secp256k1
        X509v3 extensions:
            X509v3 Key Usage: critical
                Digital Signature, Key Encipherment
            X509v3 Basic Constraints: critical
                CA:FALSE, pathlen:3
    Signature Algorithm: ecdsa-with-SHA256
         30:45:02:21:00:b7:b3:fa:3b:75:13:5b:16:c2:8d:c6:3e:cb:
         8a:e3:ea:53:1d:20:76:5d:e2:4c:79:e0:27:ec:5c:b0:1e:19:
         b2:02:20:5d:19:9a:b6:30:f8:7f:a8:f2:36:77:6b:c1:2c:7d:
         c7:21:97:57:99:02:1b:37:70:24:80:fb:60:8d:15:5b:08
-----BEGIN CERTIFICATE-----
MIICHDCCAcKgAwIBAgIBEDAKBggqhkjOPQQDAjCBtTEmMCQGA1UEAwwdUmVnaW9u
ZSBGcml1bGlfVmVuZXppYV9HaXVsaWExCzAJBgNVBAYTAklUMQ8wDQYDVQQIDAZJ
dGFsaWExGDAWBgNVBAoMD0UtVm90aW5nIHN5c3RlbTEiMCAGA1UECwwZRS1Wb3Rp
bmcgc3lzdGVtIGF1dGhvcml0eTEvMC0GCSqGSIb3DQEJARYgRnJpdWxpX1ZlbmV6
aWFfR2l1bGlhQGV2b3RpbmcuaXQwHhcNMjIwODI2MTUxOTM5WhcNMjMwODI2MTUx
OTM5WjBXMQ8wDQYDVQQDDAZBbGljaWExCzAJBgNVBAYTAklUMQ8wDQYDVQQIDAZJ
dGFsaWExJjAkBgNVBAoMHVJlZ2lvbmUgRnJpdWxpX1ZlbmV6aWFfR2l1bGlhMFYw
EAYHKoZIzj0CAQYFK4EEAAoDQgAErvUFapYUX74Wy2KrEUzXJg2pBY7nqibKjcNY
Rw+TcjtouR11HuEWLWuRl8TV+2WIeUrGaKcckkQwue6r5BXy3qMjMCEwDgYDVR0P
AQH/BAQDAgWgMA8GA1UdEwEB/wQFMAMCAQMwCgYIKoZIzj0EAwIDSAAwRQIhALez
+jt1E1sWwo3GPsuK4+pTHSB2XeJMeeAn7FywHhmyAiBdGZq2MPh/qPI2d2vBLH3H
IZdXmQIbN3AkgPtgjRVbCA==
-----END CERTIFICATE-----
