Certificate:
    Data:
        Version: 3 (0x2)
        Serial Number: 21 (0x15)
        Signature Algorithm: ecdsa-with-SHA256
        Issuer: CN=Regione Valle_d_Aosta, C=IT, ST=Italia, O=E-Voting system, OU=E-Voting system authority/emailAddress=Valle_d_Aosta@evoting.it
        Validity
            Not Before: Aug  3 13:26:33 2022 GMT
            Not After : Aug  3 13:26:33 2023 GMT
        Subject: CN=Alice, C=IT, ST=Italia, O=Regione Valle_d_Aosta
        Subject Public Key Info:
            Public Key Algorithm: id-ecPublicKey
                Public-Key: (256 bit)
                pub:
                    04:10:a7:65:2c:f2:5b:2e:b0:13:ae:9f:ab:e4:98:
                    29:78:dd:7d:e0:ad:c8:df:91:df:73:1c:28:c2:c2:
                    bd:a0:c5:29:b4:a7:fe:3b:11:8c:e7:c7:8d:bc:df:
                    8b:18:34:34:75:ea:c4:3e:97:8e:4a:f0:41:46:01:
                    dc:ce:b4:fb:e4
                ASN1 OID: prime256v1
                NIST CURVE: P-256
        X509v3 extensions:
            X509v3 Key Usage: critical
                Digital Signature, Key Encipherment
            X509v3 Basic Constraints: critical
                CA:FALSE, pathlen:3
    Signature Algorithm: ecdsa-with-SHA256
         30:44:02:20:53:58:f9:37:c2:ca:1c:e5:ca:b1:73:11:db:b1:
         07:80:30:db:2e:fa:f5:e8:02:3c:17:fb:1d:b6:47:8c:5d:2e:
         02:20:2c:a2:ce:2f:aa:c2:41:74:60:68:f2:54:4d:d5:09:dc:
         2b:f2:85:46:d0:ad:37:dd:58:4b:9e:b3:7b:8f:3a:51
-----BEGIN CERTIFICATE-----
MIICBTCCAaygAwIBAgIBFTAKBggqhkjOPQQDAjCBpTEeMBwGA1UEAwwVUmVnaW9u
ZSBWYWxsZV9kX0Fvc3RhMQswCQYDVQQGEwJJVDEPMA0GA1UECAwGSXRhbGlhMRgw
FgYDVQQKDA9FLVZvdGluZyBzeXN0ZW0xIjAgBgNVBAsMGUUtVm90aW5nIHN5c3Rl
bSBhdXRob3JpdHkxJzAlBgkqhkiG9w0BCQEWGFZhbGxlX2RfQW9zdGFAZXZvdGlu
Zy5pdDAeFw0yMjA4MDMxMzI2MzNaFw0yMzA4MDMxMzI2MzNaME4xDjAMBgNVBAMM
BUFsaWNlMQswCQYDVQQGEwJJVDEPMA0GA1UECAwGSXRhbGlhMR4wHAYDVQQKDBVS
ZWdpb25lIFZhbGxlX2RfQW9zdGEwWTATBgcqhkjOPQIBBggqhkjOPQMBBwNCAAQQ
p2Us8lsusBOun6vkmCl43X3grcjfkd9zHCjCwr2gxSm0p/47EYznx42834sYNDR1
6sQ+l45K8EFGAdzOtPvkoyMwITAOBgNVHQ8BAf8EBAMCBaAwDwYDVR0TAQH/BAUw
AwIBAzAKBggqhkjOPQQDAgNHADBEAiBTWPk3wsoc5cqxcxHbsQeAMNsu+vXoAjwX
+x22R4xdLgIgLKLOL6rCQXRgaPJUTdUJ3CvyhUbQrTfdWEues3uPOlE=
-----END CERTIFICATE-----
