Certificate:
    Data:
        Version: 3 (0x2)
        Serial Number: 41 (0x29)
        Signature Algorithm: ecdsa-with-SHA256
        Issuer: CN=Regione Toscana, C=IT, ST=Italia, O=E-Voting system, OU=E-Voting system authority/emailAddress=Toscana@evoting.it
        Validity
            Not Before: Aug 26 15:21:21 2022 GMT
            Not After : Aug 26 15:21:21 2023 GMT
        Subject: CN=Alix, C=IT, ST=Italia, O=Regione Toscana
        Subject Public Key Info:
            Public Key Algorithm: id-ecPublicKey
                Public-Key: (256 bit)
                pub:
                    04:7e:29:f1:a4:30:df:10:1b:e9:0c:b3:63:41:a9:
                    80:1b:19:fd:ed:d7:6f:da:21:c2:5a:66:1e:85:0d:
                    44:f7:3c:2a:48:6b:2e:b8:76:88:65:0c:0e:f3:5b:
                    7b:76:d4:19:2c:43:4c:79:ea:6d:ee:0b:c4:cc:db:
                    a9:75:d3:e3:39
                ASN1 OID: secp256k1
        X509v3 extensions:
            X509v3 Key Usage: critical
                Digital Signature, Key Encipherment
            X509v3 Basic Constraints: critical
                CA:FALSE, pathlen:3
    Signature Algorithm: ecdsa-with-SHA256
         30:46:02:21:00:d0:84:6a:cc:9f:08:56:1f:4d:6a:9a:b4:79:
         b2:79:32:ba:48:65:41:5e:62:f5:bb:44:69:4f:51:9e:70:81:
         d9:02:21:00:fb:e3:31:62:0d:e4:18:34:0f:d5:88:68:fe:cd:
         ed:18:e9:fe:ba:1c:68:1d:31:9f:02:20:b6:50:44:df:4a:0f
-----BEGIN CERTIFICATE-----
MIIB8TCCAZagAwIBAgIBKTAKBggqhkjOPQQDAjCBmTEYMBYGA1UEAwwPUmVnaW9u
ZSBUb3NjYW5hMQswCQYDVQQGEwJJVDEPMA0GA1UECAwGSXRhbGlhMRgwFgYDVQQK
DA9FLVZvdGluZyBzeXN0ZW0xIjAgBgNVBAsMGUUtVm90aW5nIHN5c3RlbSBhdXRo
b3JpdHkxITAfBgkqhkiG9w0BCQEWElRvc2NhbmFAZXZvdGluZy5pdDAeFw0yMjA4
MjYxNTIxMjFaFw0yMzA4MjYxNTIxMjFaMEcxDTALBgNVBAMMBEFsaXgxCzAJBgNV
BAYTAklUMQ8wDQYDVQQIDAZJdGFsaWExGDAWBgNVBAoMD1JlZ2lvbmUgVG9zY2Fu
YTBWMBAGByqGSM49AgEGBSuBBAAKA0IABH4p8aQw3xAb6QyzY0GpgBsZ/e3Xb9oh
wlpmHoUNRPc8KkhrLrh2iGUMDvNbe3bUGSxDTHnqbe4LxMzbqXXT4zmjIzAhMA4G
A1UdDwEB/wQEAwIFoDAPBgNVHRMBAf8EBTADAgEDMAoGCCqGSM49BAMCA0kAMEYC
IQDQhGrMnwhWH01qmrR5snkyukhlQV5i9btEaU9RnnCB2QIhAPvjMWIN5Bg0D9WI
aP7N7Rjp/rocaB0xnwIgtlBE30oP
-----END CERTIFICATE-----
