Certificate:
    Data:
        Version: 3 (0x2)
        Serial Number: 37 (0x25)
        Signature Algorithm: ecdsa-with-SHA256
        Issuer: CN=Regione Molise, C=IT, ST=Italia, O=E-Voting system, OU=E-Voting system authority/emailAddress=Molise@evoting.it
        Validity
            Not Before: Aug  3 13:27:50 2022 GMT
            Not After : Aug  3 13:27:50 2023 GMT
        Subject: CN=Alla, C=IT, ST=Italia, O=Regione Molise
        Subject Public Key Info:
            Public Key Algorithm: id-ecPublicKey
                Public-Key: (256 bit)
                pub:
                    04:33:c5:5b:f5:e0:05:6c:78:2d:a4:8d:d6:c1:da:
                    ba:c9:90:80:53:e6:15:7d:a2:30:48:02:c4:b0:ef:
                    f9:75:16:42:12:d7:25:ba:98:ee:86:40:15:fd:08:
                    98:06:69:3d:a1:d9:05:c1:54:07:63:8c:2f:84:40:
                    a8:74:ea:4e:d4
                ASN1 OID: prime256v1
                NIST CURVE: P-256
        X509v3 extensions:
            X509v3 Key Usage: critical
                Digital Signature, Key Encipherment
            X509v3 Basic Constraints: critical
                CA:FALSE, pathlen:3
    Signature Algorithm: ecdsa-with-SHA256
         30:44:02:20:66:7d:f1:48:b0:a2:42:f4:b6:d2:bc:ae:0d:96:
         42:b0:55:1b:74:15:9b:ba:d9:a5:cd:d9:37:0d:8f:62:3e:39:
         02:20:3f:22:6e:84:7b:4e:97:52:21:52:9a:45:38:e8:61:8e:
         50:08:3a:f8:94:dd:49:e8:42:47:b3:f4:ca:af:91:08
-----BEGIN CERTIFICATE-----
MIIB7zCCAZagAwIBAgIBJTAKBggqhkjOPQQDAjCBlzEXMBUGA1UEAwwOUmVnaW9u
ZSBNb2xpc2UxCzAJBgNVBAYTAklUMQ8wDQYDVQQIDAZJdGFsaWExGDAWBgNVBAoM
D0UtVm90aW5nIHN5c3RlbTEiMCAGA1UECwwZRS1Wb3Rpbmcgc3lzdGVtIGF1dGhv
cml0eTEgMB4GCSqGSIb3DQEJARYRTW9saXNlQGV2b3RpbmcuaXQwHhcNMjIwODAz
MTMyNzUwWhcNMjMwODAzMTMyNzUwWjBGMQ0wCwYDVQQDDARBbGxhMQswCQYDVQQG
EwJJVDEPMA0GA1UECAwGSXRhbGlhMRcwFQYDVQQKDA5SZWdpb25lIE1vbGlzZTBZ
MBMGByqGSM49AgEGCCqGSM49AwEHA0IABDPFW/XgBWx4LaSN1sHausmQgFPmFX2i
MEgCxLDv+XUWQhLXJbqY7oZAFf0ImAZpPaHZBcFUB2OML4RAqHTqTtSjIzAhMA4G
A1UdDwEB/wQEAwIFoDAPBgNVHRMBAf8EBTADAgEDMAoGCCqGSM49BAMCA0cAMEQC
IGZ98UiwokL0ttK8rg2WQrBVG3QVm7rZpc3ZNw2PYj45AiA/Im6Ee06XUiFSmkU4
6GGOUAg6+JTdSehCR7P0yq+RCA==
-----END CERTIFICATE-----
