Certificate:
    Data:
        Version: 3 (0x2)
        Serial Number: 45 (0x2d)
        Signature Algorithm: ecdsa-with-SHA256
        Issuer: CN=Regione Toscana, C=IT, ST=Italia, O=E-Voting system, OU=E-Voting system authority/emailAddress=Toscana@evoting.it
        Validity
            Not Before: Aug 26 15:21:44 2022 GMT
            Not After : Aug 26 15:21:44 2023 GMT
        Subject: CN=Allen, C=IT, ST=Italia, O=Regione Toscana
        Subject Public Key Info:
            Public Key Algorithm: id-ecPublicKey
                Public-Key: (256 bit)
                pub:
                    04:0a:c2:8a:69:d5:e6:c5:55:30:f8:32:7e:14:10:
                    72:37:78:05:4e:99:ae:87:7b:b9:f2:b5:60:71:cd:
                    17:a4:87:10:12:c0:ad:7b:c3:b2:9d:43:5b:69:21:
                    5d:6e:43:77:53:68:2b:9e:12:cb:61:dc:76:a8:6b:
                    04:0a:48:2c:2b
                ASN1 OID: secp256k1
        X509v3 extensions:
            X509v3 Key Usage: critical
                Digital Signature, Key Encipherment
            X509v3 Basic Constraints: critical
                CA:FALSE, pathlen:3
    Signature Algorithm: ecdsa-with-SHA256
         30:44:02:20:17:dd:a3:a4:ef:67:d2:b1:1a:b6:ba:37:d3:b2:
         de:42:d9:02:3f:8f:81:89:94:f1:99:79:45:33:73:aa:b9:54:
         02:20:34:21:eb:47:50:9d:77:fe:be:14:15:b9:94:5e:9c:b4:
         b0:3a:00:39:cb:82:32:50:27:1a:dc:74:2e:92:d9:b0
-----BEGIN CERTIFICATE-----
MIIB8DCCAZegAwIBAgIBLTAKBggqhkjOPQQDAjCBmTEYMBYGA1UEAwwPUmVnaW9u
ZSBUb3NjYW5hMQswCQYDVQQGEwJJVDEPMA0GA1UECAwGSXRhbGlhMRgwFgYDVQQK
DA9FLVZvdGluZyBzeXN0ZW0xIjAgBgNVBAsMGUUtVm90aW5nIHN5c3RlbSBhdXRo
b3JpdHkxITAfBgkqhkiG9w0BCQEWElRvc2NhbmFAZXZvdGluZy5pdDAeFw0yMjA4
MjYxNTIxNDRaFw0yMzA4MjYxNTIxNDRaMEgxDjAMBgNVBAMMBUFsbGVuMQswCQYD
VQQGEwJJVDEPMA0GA1UECAwGSXRhbGlhMRgwFgYDVQQKDA9SZWdpb25lIFRvc2Nh
bmEwVjAQBgcqhkjOPQIBBgUrgQQACgNCAAQKwopp1ebFVTD4Mn4UEHI3eAVOma6H
e7nytWBxzRekhxASwK17w7KdQ1tpIV1uQ3dTaCueEsth3HaoawQKSCwroyMwITAO
BgNVHQ8BAf8EBAMCBaAwDwYDVR0TAQH/BAUwAwIBAzAKBggqhkjOPQQDAgNHADBE
AiAX3aOk72fSsRq2ujfTst5C2QI/j4GJlPGZeUUzc6q5VAIgNCHrR1Cdd/6+FBW5
lF6ctLA6ADnLgjJQJxrcdC6S2bA=
-----END CERTIFICATE-----
