Certificate:
    Data:
        Version: 3 (0x2)
        Serial Number: 39 (0x27)
        Signature Algorithm: ecdsa-with-SHA256
        Issuer: CN=Regione Emilia_Romagna, C=IT, ST=Italia, O=E-Voting system, OU=E-Voting system authority/emailAddress=Emilia_Romagna@evoting.it
        Validity
            Not Before: Aug 26 15:21:01 2022 GMT
            Not After : Aug 26 15:21:01 2023 GMT
        Subject: CN=Allison, C=IT, ST=Italia, O=Regione Emilia_Romagna
        Subject Public Key Info:
            Public Key Algorithm: id-ecPublicKey
                Public-Key: (256 bit)
                pub:
                    04:1b:45:62:d0:93:50:2a:0a:2f:9d:da:68:63:0f:
                    5e:51:db:14:f6:16:9c:f3:d2:01:c5:50:4d:57:d7:
                    df:07:1b:82:a2:e0:90:1e:4a:28:64:1c:86:66:9c:
                    37:02:0d:e7:49:7a:00:bd:f2:a0:7d:6f:9c:c9:d8:
                    4b:2e:21:d2:6a
                ASN1 OID: secp256k1
        X509v3 extensions:
            X509v3 Key Usage: critical
                Digital Signature, Key Encipherment
            X509v3 Basic Constraints: critical
                CA:FALSE, pathlen:3
    Signature Algorithm: ecdsa-with-SHA256
         30:46:02:21:00:a4:f6:ea:8d:09:9b:06:5b:ae:78:23:42:f1:
         62:7c:ae:5b:7b:e9:c7:6a:32:50:8f:89:a5:38:69:05:76:85:
         3d:02:21:00:ed:f8:58:12:fa:56:28:3f:1b:58:26:36:a2:41:
         e9:1a:7f:32:7f:f7:84:86:db:4f:66:96:fb:de:69:74:56:4c
-----BEGIN CERTIFICATE-----
MIICCTCCAa6gAwIBAgIBJzAKBggqhkjOPQQDAjCBpzEfMB0GA1UEAwwWUmVnaW9u
ZSBFbWlsaWFfUm9tYWduYTELMAkGA1UEBhMCSVQxDzANBgNVBAgMBkl0YWxpYTEY
MBYGA1UECgwPRS1Wb3Rpbmcgc3lzdGVtMSIwIAYDVQQLDBlFLVZvdGluZyBzeXN0
ZW0gYXV0aG9yaXR5MSgwJgYJKoZIhvcNAQkBFhlFbWlsaWFfUm9tYWduYUBldm90
aW5nLml0MB4XDTIyMDgyNjE1MjEwMVoXDTIzMDgyNjE1MjEwMVowUTEQMA4GA1UE
AwwHQWxsaXNvbjELMAkGA1UEBhMCSVQxDzANBgNVBAgMBkl0YWxpYTEfMB0GA1UE
CgwWUmVnaW9uZSBFbWlsaWFfUm9tYWduYTBWMBAGByqGSM49AgEGBSuBBAAKA0IA
BBtFYtCTUCoKL53aaGMPXlHbFPYWnPPSAcVQTVfX3wcbgqLgkB5KKGQchmacNwIN
50l6AL3yoH1vnMnYSy4h0mqjIzAhMA4GA1UdDwEB/wQEAwIFoDAPBgNVHRMBAf8E
BTADAgEDMAoGCCqGSM49BAMCA0kAMEYCIQCk9uqNCZsGW654I0LxYnyuW3vpx2oy
UI+JpThpBXaFPQIhAO34WBL6Vig/G1gmNqJB6Rp/Mn/3hIbbT2aW+95pdFZM
-----END CERTIFICATE-----
