Certificate:
    Data:
        Version: 3 (0x2)
        Serial Number: 10 (0xa)
        Signature Algorithm: ecdsa-with-SHA256
        Issuer: CN=Regione Lazio, C=IT, ST=Italia, O=E-Voting system, OU=E-Voting system authority/emailAddress=Lazio@evoting.it
        Validity
            Not Before: Aug 26 15:19:04 2022 GMT
            Not After : Aug 26 15:19:04 2023 GMT
        Subject: CN=Alma, C=IT, ST=Italia, O=Regione Lazio
        Subject Public Key Info:
            Public Key Algorithm: id-ecPublicKey
                Public-Key: (256 bit)
                pub:
                    04:05:7e:08:94:48:5e:8a:e4:85:1d:15:4a:9e:aa:
                    37:b9:d5:ec:85:ac:02:cb:61:94:bb:9c:95:d7:03:
                    df:4b:e4:5e:e8:f7:b2:5a:6a:41:36:73:1f:ed:83:
                    fe:5b:36:24:25:05:6e:49:ae:0c:12:d6:fb:a3:68:
                    bd:06:bf:05:cc
                ASN1 OID: secp256k1
        X509v3 extensions:
            X509v3 Key Usage: critical
                Digital Signature, Key Encipherment
            X509v3 Basic Constraints: critical
                CA:FALSE, pathlen:3
    Signature Algorithm: ecdsa-with-SHA256
         30:46:02:21:00:af:7f:10:20:f7:1a:86:25:e4:4e:f5:b0:a0:
         c4:03:7f:20:45:53:81:1a:9b:93:6a:bf:c6:0d:5c:ff:3e:f7:
         70:02:21:00:e5:76:da:35:30:a3:92:27:eb:78:8d:a9:9e:b0:
         51:bb:e3:1c:4d:c0:ea:74:bf:2b:6e:48:1f:cb:9e:2a:63:97
-----BEGIN CERTIFICATE-----
MIIB6zCCAZCgAwIBAgIBCjAKBggqhkjOPQQDAjCBlTEWMBQGA1UEAwwNUmVnaW9u
ZSBMYXppbzELMAkGA1UEBhMCSVQxDzANBgNVBAgMBkl0YWxpYTEYMBYGA1UECgwP
RS1Wb3Rpbmcgc3lzdGVtMSIwIAYDVQQLDBlFLVZvdGluZyBzeXN0ZW0gYXV0aG9y
aXR5MR8wHQYJKoZIhvcNAQkBFhBMYXppb0Bldm90aW5nLml0MB4XDTIyMDgyNjE1
MTkwNFoXDTIzMDgyNjE1MTkwNFowRTENMAsGA1UEAwwEQWxtYTELMAkGA1UEBhMC
SVQxDzANBgNVBAgMBkl0YWxpYTEWMBQGA1UECgwNUmVnaW9uZSBMYXppbzBWMBAG
ByqGSM49AgEGBSuBBAAKA0IABAV+CJRIXorkhR0VSp6qN7nV7IWsAsthlLucldcD
30vkXuj3slpqQTZzH+2D/ls2JCUFbkmuDBLW+6NovQa/BcyjIzAhMA4GA1UdDwEB
/wQEAwIFoDAPBgNVHRMBAf8EBTADAgEDMAoGCCqGSM49BAMCA0kAMEYCIQCvfxAg
9xqGJeRO9bCgxAN/IEVTgRqbk2q/xg1c/z73cAIhAOV22jUwo5In63iNqZ6wUbvj
HE3A6nS/K25IH8ueKmOX
-----END CERTIFICATE-----
