Certificate:
    Data:
        Version: 3 (0x2)
        Serial Number: 36 (0x24)
        Signature Algorithm: ecdsa-with-SHA256
        Issuer: CN=Regione Lazio, C=IT, ST=Italia, O=E-Voting system, OU=E-Voting system authority/emailAddress=Lazio@evoting.it
        Validity
            Not Before: Aug 26 15:21:10 2022 GMT
            Not After : Aug 26 15:21:10 2023 GMT
        Subject: CN=Alta, C=IT, ST=Italia, O=Regione Lazio
        Subject Public Key Info:
            Public Key Algorithm: id-ecPublicKey
                Public-Key: (256 bit)
                pub:
                    04:a0:2e:db:f3:33:b6:43:ed:64:73:68:a7:d2:0b:
                    9c:d8:80:8a:ee:b2:de:c5:9c:6d:49:73:31:97:5d:
                    b9:0f:47:41:16:e5:67:40:c8:f4:50:3e:0b:46:25:
                    a6:84:96:14:fa:f5:9c:dc:c6:63:d6:98:a7:6f:64:
                    a1:e5:bc:ba:84
                ASN1 OID: secp256k1
        X509v3 extensions:
            X509v3 Key Usage: critical
                Digital Signature, Key Encipherment
            X509v3 Basic Constraints: critical
                CA:FALSE, pathlen:3
    Signature Algorithm: ecdsa-with-SHA256
         30:45:02:21:00:ba:e3:f6:66:df:f5:35:a0:34:e2:90:27:df:
         56:b7:89:77:bf:de:45:4b:80:26:cd:4d:da:7e:68:a5:47:97:
         3b:02:20:1b:b9:25:24:0a:ff:5d:67:a2:6e:1f:a8:ea:5f:74:
         ce:71:ab:e5:76:46:d7:e6:5f:c4:aa:26:d5:ba:30:1a:de
-----BEGIN CERTIFICATE-----
MIIB6jCCAZCgAwIBAgIBJDAKBggqhkjOPQQDAjCBlTEWMBQGA1UEAwwNUmVnaW9u
ZSBMYXppbzELMAkGA1UEBhMCSVQxDzANBgNVBAgMBkl0YWxpYTEYMBYGA1UECgwP
RS1Wb3Rpbmcgc3lzdGVtMSIwIAYDVQQLDBlFLVZvdGluZyBzeXN0ZW0gYXV0aG9y
aXR5MR8wHQYJKoZIhvcNAQkBFhBMYXppb0Bldm90aW5nLml0MB4XDTIyMDgyNjE1
MjExMFoXDTIzMDgyNjE1MjExMFowRTENMAsGA1UEAwwEQWx0YTELMAkGA1UEBhMC
SVQxDzANBgNVBAgMBkl0YWxpYTEWMBQGA1UECgwNUmVnaW9uZSBMYXppbzBWMBAG
ByqGSM49AgEGBSuBBAAKA0IABKAu2/MztkPtZHNop9ILnNiAiu6y3sWcbUlzMZdd
uQ9HQRblZ0DI9FA+C0YlpoSWFPr1nNzGY9aYp29koeW8uoSjIzAhMA4GA1UdDwEB
/wQEAwIFoDAPBgNVHRMBAf8EBTADAgEDMAoGCCqGSM49BAMCA0gAMEUCIQC64/Zm
3/U1oDTikCffVreJd7/eRUuAJs1N2n5opUeXOwIgG7klJAr/XWeibh+o6l90znGr
5XZG1+ZfxKom1bowGt4=
-----END CERTIFICATE-----
