Certificate:
    Data:
        Version: 3 (0x2)
        Serial Number: 28 (0x1c)
        Signature Algorithm: ecdsa-with-SHA256
        Issuer: CN=Regione Valle_d_Aosta, C=IT, ST=Italia, O=E-Voting system, OU=E-Voting system authority/emailAddress=Valle_d_Aosta@evoting.it
        Validity
            Not Before: Aug  3 13:27:02 2022 GMT
            Not After : Aug  3 13:27:02 2023 GMT
        Subject: CN=Alvin, C=IT, ST=Italia, O=Regione Valle_d_Aosta
        Subject Public Key Info:
            Public Key Algorithm: id-ecPublicKey
                Public-Key: (256 bit)
                pub:
                    04:53:15:22:64:bc:8f:25:55:14:be:76:03:17:5f:
                    aa:ad:90:d2:ec:f4:d7:b0:c1:c3:1f:5f:37:14:76:
                    79:7d:37:0b:67:9e:d3:36:de:d6:ec:1a:09:93:73:
                    c5:cc:df:ec:72:11:0b:e9:f1:90:6d:1f:cf:a2:85:
                    d3:e5:d3:0f:66
                ASN1 OID: prime256v1
                NIST CURVE: P-256
        X509v3 extensions:
            X509v3 Key Usage: critical
                Digital Signature, Key Encipherment
            X509v3 Basic Constraints: critical
                CA:FALSE, pathlen:3
    Signature Algorithm: ecdsa-with-SHA256
         30:45:02:21:00:fb:bf:8f:0a:b8:45:61:ad:ea:e5:01:2b:0e:
         4c:79:fd:57:7b:1a:0f:05:5e:3b:d1:2b:38:21:7f:f0:ce:a7:
         62:02:20:47:dc:d3:78:5c:0b:b8:6b:c4:e4:33:f3:03:f8:fe:
         5c:5e:96:25:93:13:c1:24:c5:90:20:bd:98:f1:3d:d8:b1
-----BEGIN CERTIFICATE-----
MIICBjCCAaygAwIBAgIBHDAKBggqhkjOPQQDAjCBpTEeMBwGA1UEAwwVUmVnaW9u
ZSBWYWxsZV9kX0Fvc3RhMQswCQYDVQQGEwJJVDEPMA0GA1UECAwGSXRhbGlhMRgw
FgYDVQQKDA9FLVZvdGluZyBzeXN0ZW0xIjAgBgNVBAsMGUUtVm90aW5nIHN5c3Rl
bSBhdXRob3JpdHkxJzAlBgkqhkiG9w0BCQEWGFZhbGxlX2RfQW9zdGFAZXZvdGlu
Zy5pdDAeFw0yMjA4MDMxMzI3MDJaFw0yMzA4MDMxMzI3MDJaME4xDjAMBgNVBAMM
BUFsdmluMQswCQYDVQQGEwJJVDEPMA0GA1UECAwGSXRhbGlhMR4wHAYDVQQKDBVS
ZWdpb25lIFZhbGxlX2RfQW9zdGEwWTATBgcqhkjOPQIBBggqhkjOPQMBBwNCAART
FSJkvI8lVRS+dgMXX6qtkNLs9NewwcMfXzcUdnl9NwtnntM23tbsGgmTc8XM3+xy
EQvp8ZBtH8+ihdPl0w9moyMwITAOBgNVHQ8BAf8EBAMCBaAwDwYDVR0TAQH/BAUw
AwIBAzAKBggqhkjOPQQDAgNIADBFAiEA+7+PCrhFYa3q5QErDkx5/Vd7Gg8FXjvR
Kzghf/DOp2ICIEfc03hcC7hrxOQz8wP4/lxeliWTE8EkxZAgvZjxPdix
-----END CERTIFICATE-----
