Certificate:
    Data:
        Version: 3 (0x2)
        Serial Number: 36 (0x24)
        Signature Algorithm: ecdsa-with-SHA256
        Issuer: CN=Regione Calabria, C=IT, ST=Italia, O=E-Voting system, OU=E-Voting system authority/emailAddress=Calabria@evoting.it
        Validity
            Not Before: Aug 26 15:21:10 2022 GMT
            Not After : Aug 26 15:21:10 2023 GMT
        Subject: CN=Alyse, C=IT, ST=Italia, O=Regione Calabria
        Subject Public Key Info:
            Public Key Algorithm: id-ecPublicKey
                Public-Key: (256 bit)
                pub:
                    04:0c:e1:b2:e1:5e:8b:d4:99:e2:a6:58:90:c0:3e:
                    e3:82:c8:b5:f6:04:67:50:04:16:aa:36:20:3e:cb:
                    0c:71:e1:51:56:3b:95:9e:e8:82:e1:79:f3:38:23:
                    6d:a1:2f:a5:f9:8d:36:7b:de:98:56:d5:41:3e:43:
                    49:58:59:23:06
                ASN1 OID: secp256k1
        X509v3 extensions:
            X509v3 Key Usage: critical
                Digital Signature, Key Encipherment
            X509v3 Basic Constraints: critical
                CA:FALSE, pathlen:3
    Signature Algorithm: ecdsa-with-SHA256
         30:46:02:21:00:c1:25:0a:08:95:a4:5c:30:5c:5d:e6:f4:c5:
         50:ad:5f:6c:23:e6:c0:05:bf:db:91:f0:e7:6d:8b:90:2b:1a:
         0b:02:21:00:f1:89:0e:05:a7:e3:d7:56:da:ab:ec:e9:34:c4:
         85:01:f4:c6:b9:45:68:82:0f:73:92:a0:71:5e:6d:79:b2:77
-----BEGIN CERTIFICATE-----
MIIB9TCCAZqgAwIBAgIBJDAKBggqhkjOPQQDAjCBmzEZMBcGA1UEAwwQUmVnaW9u
ZSBDYWxhYnJpYTELMAkGA1UEBhMCSVQxDzANBgNVBAgMBkl0YWxpYTEYMBYGA1UE
CgwPRS1Wb3Rpbmcgc3lzdGVtMSIwIAYDVQQLDBlFLVZvdGluZyBzeXN0ZW0gYXV0
aG9yaXR5MSIwIAYJKoZIhvcNAQkBFhNDYWxhYnJpYUBldm90aW5nLml0MB4XDTIy
MDgyNjE1MjExMFoXDTIzMDgyNjE1MjExMFowSTEOMAwGA1UEAwwFQWx5c2UxCzAJ
BgNVBAYTAklUMQ8wDQYDVQQIDAZJdGFsaWExGTAXBgNVBAoMEFJlZ2lvbmUgQ2Fs
YWJyaWEwVjAQBgcqhkjOPQIBBgUrgQQACgNCAAQM4bLhXovUmeKmWJDAPuOCyLX2
BGdQBBaqNiA+ywxx4VFWO5We6ILhefM4I22hL6X5jTZ73phW1UE+Q0lYWSMGoyMw
ITAOBgNVHQ8BAf8EBAMCBaAwDwYDVR0TAQH/BAUwAwIBAzAKBggqhkjOPQQDAgNJ
ADBGAiEAwSUKCJWkXDBcXeb0xVCtX2wj5sAFv9uR8Odti5ArGgsCIQDxiQ4Fp+PX
Vtqr7Ok0xIUB9Ma5RWiCD3OSoHFebXmydw==
-----END CERTIFICATE-----
