Certificate:
    Data:
        Version: 3 (0x2)
        Serial Number: 43 (0x2b)
        Signature Algorithm: ecdsa-with-SHA256
        Issuer: CN=Regione Puglia, C=IT, ST=Italia, O=E-Voting system, OU=E-Voting system authority/emailAddress=Puglia@evoting.it
        Validity
            Not Before: Aug 26 15:21:12 2022 GMT
            Not After : Aug 26 15:21:12 2023 GMT
        Subject: CN=Amado, C=IT, ST=Italia, O=Regione Puglia
        Subject Public Key Info:
            Public Key Algorithm: id-ecPublicKey
                Public-Key: (256 bit)
                pub:
                    04:60:4f:06:5b:00:ad:cb:07:46:c7:99:3a:33:12:
                    57:40:34:cb:89:46:58:64:c3:57:b9:8e:92:7c:28:
                    db:30:08:d3:54:a8:2a:52:df:e0:fa:d8:60:4c:0d:
                    4d:b0:04:37:f0:94:82:74:59:59:dd:8f:c3:78:27:
                    9f:50:43:26:29
                ASN1 OID: secp256k1
        X509v3 extensions:
            X509v3 Key Usage: critical
                Digital Signature, Key Encipherment
            X509v3 Basic Constraints: critical
                CA:FALSE, pathlen:3
    Signature Algorithm: ecdsa-with-SHA256
         30:46:02:21:00:9f:8f:c1:a7:9e:03:29:2e:2c:35:3d:42:8e:
         92:51:ae:cc:8e:15:aa:0e:fb:4c:89:7f:ae:33:e2:5e:8f:81:
         31:02:21:00:d3:9a:69:17:e9:0b:61:5c:dd:24:8c:63:d1:d2:
         93:6d:1d:98:95:87:eb:98:ef:5d:31:c3:83:07:5e:9a:ed:f2
-----BEGIN CERTIFICATE-----
MIIB7zCCAZSgAwIBAgIBKzAKBggqhkjOPQQDAjCBlzEXMBUGA1UEAwwOUmVnaW9u
ZSBQdWdsaWExCzAJBgNVBAYTAklUMQ8wDQYDVQQIDAZJdGFsaWExGDAWBgNVBAoM
D0UtVm90aW5nIHN5c3RlbTEiMCAGA1UECwwZRS1Wb3Rpbmcgc3lzdGVtIGF1dGhv
cml0eTEgMB4GCSqGSIb3DQEJARYRUHVnbGlhQGV2b3RpbmcuaXQwHhcNMjIwODI2
MTUyMTEyWhcNMjMwODI2MTUyMTEyWjBHMQ4wDAYDVQQDDAVBbWFkbzELMAkGA1UE
BhMCSVQxDzANBgNVBAgMBkl0YWxpYTEXMBUGA1UECgwOUmVnaW9uZSBQdWdsaWEw
VjAQBgcqhkjOPQIBBgUrgQQACgNCAARgTwZbAK3LB0bHmTozEldANMuJRlhkw1e5
jpJ8KNswCNNUqCpS3+D62GBMDU2wBDfwlIJ0WVndj8N4J59QQyYpoyMwITAOBgNV
HQ8BAf8EBAMCBaAwDwYDVR0TAQH/BAUwAwIBAzAKBggqhkjOPQQDAgNJADBGAiEA
n4/Bp54DKS4sNT1CjpJRrsyOFaoO+0yJf64z4l6PgTECIQDTmmkX6QthXN0kjGPR
0pNtHZiVh+uY710xw4MHXprt8g==
-----END CERTIFICATE-----
