Certificate:
    Data:
        Version: 3 (0x2)
        Serial Number: 32 (0x20)
        Signature Algorithm: ecdsa-with-SHA256
        Issuer: CN=Regione Marche, C=IT, ST=Italia, O=E-Voting system, OU=E-Voting system authority/emailAddress=Marche@evoting.it
        Validity
            Not Before: Aug 26 15:21:43 2022 GMT
            Not After : Aug 26 15:21:43 2023 GMT
        Subject: CN=Amanda, C=IT, ST=Italia, O=Regione Marche
        Subject Public Key Info:
            Public Key Algorithm: id-ecPublicKey
                Public-Key: (256 bit)
                pub:
                    04:62:c1:be:91:29:06:3e:55:32:94:55:dc:86:33:
                    de:40:0c:46:d8:27:57:5e:2c:1a:0c:6a:ac:d4:7a:
                    81:ac:20:29:04:4c:f5:23:47:b9:1d:b2:dc:20:8b:
                    58:d2:a0:94:a2:1f:7a:6e:70:0e:0c:5e:f3:0d:67:
                    26:ec:07:df:73
                ASN1 OID: secp256k1
        X509v3 extensions:
            X509v3 Key Usage: critical
                Digital Signature, Key Encipherment
            X509v3 Basic Constraints: critical
                CA:FALSE, pathlen:3
    Signature Algorithm: ecdsa-with-SHA256
         30:45:02:20:48:c7:64:ae:4d:3c:50:dc:9e:aa:42:c2:92:a3:
         2b:74:5c:d1:a7:08:c7:fe:32:a0:16:ab:ed:1a:98:b6:69:82:
         02:21:00:c2:c2:42:b0:82:99:6a:56:b3:bc:77:66:fa:71:60:
         7d:18:6d:4c:dd:68:62:ec:b5:53:ab:80:04:cd:12:d3:8d
-----BEGIN CERTIFICATE-----
MIIB7zCCAZWgAwIBAgIBIDAKBggqhkjOPQQDAjCBlzEXMBUGA1UEAwwOUmVnaW9u
ZSBNYXJjaGUxCzAJBgNVBAYTAklUMQ8wDQYDVQQIDAZJdGFsaWExGDAWBgNVBAoM
D0UtVm90aW5nIHN5c3RlbTEiMCAGA1UECwwZRS1Wb3Rpbmcgc3lzdGVtIGF1dGhv
cml0eTEgMB4GCSqGSIb3DQEJARYRTWFyY2hlQGV2b3RpbmcuaXQwHhcNMjIwODI2
MTUyMTQzWhcNMjMwODI2MTUyMTQzWjBIMQ8wDQYDVQQDDAZBbWFuZGExCzAJBgNV
BAYTAklUMQ8wDQYDVQQIDAZJdGFsaWExFzAVBgNVBAoMDlJlZ2lvbmUgTWFyY2hl
MFYwEAYHKoZIzj0CAQYFK4EEAAoDQgAEYsG+kSkGPlUylFXchjPeQAxG2CdXXiwa
DGqs1HqBrCApBEz1I0e5HbLcIItY0qCUoh96bnAODF7zDWcm7Affc6MjMCEwDgYD
VR0PAQH/BAQDAgWgMA8GA1UdEwEB/wQFMAMCAQMwCgYIKoZIzj0EAwIDSAAwRQIg
SMdkrk08UNyeqkLCkqMrdFzRpwjH/jKgFqvtGpi2aYICIQDCwkKwgplqVrO8d2b6
cWB9GG1M3Whi7LVTq4AEzRLTjQ==
-----END CERTIFICATE-----
