Certificate:
    Data:
        Version: 3 (0x2)
        Serial Number: 28 (0x1c)
        Signature Algorithm: ecdsa-with-SHA256
        Issuer: CN=Regione Emilia_Romagna, C=IT, ST=Italia, O=E-Voting system, OU=E-Voting system authority/emailAddress=Emilia_Romagna@evoting.it
        Validity
            Not Before: Aug 26 15:20:07 2022 GMT
            Not After : Aug 26 15:20:07 2023 GMT
        Subject: CN=Amelia, C=IT, ST=Italia, O=Regione Emilia_Romagna
        Subject Public Key Info:
            Public Key Algorithm: id-ecPublicKey
                Public-Key: (256 bit)
                pub:
                    04:a1:31:6e:a8:be:4f:8b:5d:75:e9:6d:77:ff:90:
                    e3:f2:b0:44:f1:46:ab:ad:4d:0c:82:73:95:3f:b8:
                    7d:5e:23:af:71:ab:54:f3:aa:ce:f0:d1:cb:a6:5b:
                    b5:e6:86:16:9e:8c:78:26:ff:cb:8c:a8:3a:a3:4f:
                    b3:f8:c7:89:5b
                ASN1 OID: secp256k1
        X509v3 extensions:
            X509v3 Key Usage: critical
                Digital Signature, Key Encipherment
            X509v3 Basic Constraints: critical
                CA:FALSE, pathlen:3
    Signature Algorithm: ecdsa-with-SHA256
         30:44:02:20:60:04:0c:c4:bc:8d:ea:28:65:02:68:7a:0a:95:
         e8:47:44:4c:6b:8b:26:1e:2c:87:95:32:2c:33:40:a5:2f:3d:
         02:20:73:7a:a4:58:85:7f:af:1e:6f:bb:0d:3a:73:c4:b6:4f:
         f9:81:2a:f2:c9:a8:e7:de:a4:b4:7d:bb:f6:19:22:44
-----BEGIN CERTIFICATE-----
MIICBjCCAa2gAwIBAgIBHDAKBggqhkjOPQQDAjCBpzEfMB0GA1UEAwwWUmVnaW9u
ZSBFbWlsaWFfUm9tYWduYTELMAkGA1UEBhMCSVQxDzANBgNVBAgMBkl0YWxpYTEY
MBYGA1UECgwPRS1Wb3Rpbmcgc3lzdGVtMSIwIAYDVQQLDBlFLVZvdGluZyBzeXN0
ZW0gYXV0aG9yaXR5MSgwJgYJKoZIhvcNAQkBFhlFbWlsaWFfUm9tYWduYUBldm90
aW5nLml0MB4XDTIyMDgyNjE1MjAwN1oXDTIzMDgyNjE1MjAwN1owUDEPMA0GA1UE
AwwGQW1lbGlhMQswCQYDVQQGEwJJVDEPMA0GA1UECAwGSXRhbGlhMR8wHQYDVQQK
DBZSZWdpb25lIEVtaWxpYV9Sb21hZ25hMFYwEAYHKoZIzj0CAQYFK4EEAAoDQgAE
oTFuqL5Pi1116W13/5Dj8rBE8UarrU0MgnOVP7h9XiOvcatU86rO8NHLplu15oYW
nox4Jv/LjKg6o0+z+MeJW6MjMCEwDgYDVR0PAQH/BAQDAgWgMA8GA1UdEwEB/wQF
MAMCAQMwCgYIKoZIzj0EAwIDRwAwRAIgYAQMxLyN6ihlAmh6CpXoR0RMa4smHiyH
lTIsM0ClLz0CIHN6pFiFf68eb7sNOnPEtk/5gSryyajn3qS0fbv2GSJE
-----END CERTIFICATE-----
