Certificate:
    Data:
        Version: 3 (0x2)
        Serial Number: 5 (0x5)
        Signature Algorithm: ecdsa-with-SHA256
        Issuer: CN=Regione Calabria, C=IT, ST=Italia, O=E-Voting system, OU=E-Voting system authority/emailAddress=Calabria@evoting.it
        Validity
            Not Before: Aug 26 15:18:47 2022 GMT
            Not After : Aug 26 15:18:47 2023 GMT
        Subject: CN=America, C=IT, ST=Italia, O=Regione Calabria
        Subject Public Key Info:
            Public Key Algorithm: id-ecPublicKey
                Public-Key: (256 bit)
                pub:
                    04:bd:04:20:da:5c:35:7e:9d:3b:82:53:3e:04:d8:
                    ac:f9:cf:5b:b1:50:57:4f:b5:4c:b6:53:cc:47:92:
                    d7:ff:d4:e7:9b:6c:da:33:15:55:6c:a8:8c:c1:1f:
                    6d:e1:96:ee:6c:9c:06:2f:22:61:69:45:31:e3:56:
                    eb:fc:c7:a0:79
                ASN1 OID: secp256k1
        X509v3 extensions:
            X509v3 Key Usage: critical
                Digital Signature, Key Encipherment
            X509v3 Basic Constraints: critical
                CA:FALSE, pathlen:3
    Signature Algorithm: ecdsa-with-SHA256
         30:45:02:20:04:1e:74:06:dd:9c:34:57:67:bf:7a:d0:e1:2a:
         4f:45:bf:66:51:d4:17:61:7e:d9:49:0a:33:87:e4:30:17:f7:
         02:21:00:8c:8d:95:b9:0e:d9:06:af:7a:1b:90:d6:fe:da:c3:
         79:bf:fa:9a:a4:f7:9c:b0:2e:80:39:fb:5f:56:db:84:9b
-----BEGIN CERTIFICATE-----
MIIB9jCCAZygAwIBAgIBBTAKBggqhkjOPQQDAjCBmzEZMBcGA1UEAwwQUmVnaW9u
ZSBDYWxhYnJpYTELMAkGA1UEBhMCSVQxDzANBgNVBAgMBkl0YWxpYTEYMBYGA1UE
CgwPRS1Wb3Rpbmcgc3lzdGVtMSIwIAYDVQQLDBlFLVZvdGluZyBzeXN0ZW0gYXV0
aG9yaXR5MSIwIAYJKoZIhvcNAQkBFhNDYWxhYnJpYUBldm90aW5nLml0MB4XDTIy
MDgyNjE1MTg0N1oXDTIzMDgyNjE1MTg0N1owSzEQMA4GA1UEAwwHQW1lcmljYTEL
MAkGA1UEBhMCSVQxDzANBgNVBAgMBkl0YWxpYTEZMBcGA1UECgwQUmVnaW9uZSBD
YWxhYnJpYTBWMBAGByqGSM49AgEGBSuBBAAKA0IABL0EINpcNX6dO4JTPgTYrPnP
W7FQV0+1TLZTzEeS1//U55ts2jMVVWyojMEfbeGW7mycBi8iYWlFMeNW6/zHoHmj
IzAhMA4GA1UdDwEB/wQEAwIFoDAPBgNVHRMBAf8EBTADAgEDMAoGCCqGSM49BAMC
A0gAMEUCIAQedAbdnDRXZ7960OEqT0W/ZlHUF2F+2UkKM4fkMBf3AiEAjI2VuQ7Z
Bq96G5DW/trDeb/6mqT3nLAugDn7X1bbhJs=
-----END CERTIFICATE-----
