Certificate:
    Data:
        Version: 3 (0x2)
        Serial Number: 39 (0x27)
        Signature Algorithm: ecdsa-with-SHA256
        Issuer: CN=Regione Campania, C=IT, ST=Italia, O=E-Voting system, OU=E-Voting system authority/emailAddress=Campania@evoting.it
        Validity
            Not Before: Aug  3 13:27:45 2022 GMT
            Not After : Aug  3 13:27:45 2023 GMT
        Subject: CN=Amina, C=IT, ST=Italia, O=Regione Campania
        Subject Public Key Info:
            Public Key Algorithm: id-ecPublicKey
                Public-Key: (256 bit)
                pub:
                    04:7d:b3:ec:cf:96:ae:49:76:7d:4d:78:b7:ef:65:
                    df:2c:46:3a:ac:3a:5a:11:d6:5d:ee:67:af:4f:81:
                    c9:ec:0c:fc:b4:14:d3:ae:5e:90:95:08:70:47:56:
                    25:b4:a2:95:3f:f9:58:65:96:b8:2e:d8:17:37:8e:
                    8a:1d:70:46:39
                ASN1 OID: prime256v1
                NIST CURVE: P-256
        X509v3 extensions:
            X509v3 Key Usage: critical
                Digital Signature, Key Encipherment
            X509v3 Basic Constraints: critical
                CA:FALSE, pathlen:3
    Signature Algorithm: ecdsa-with-SHA256
         30:45:02:20:2c:2b:4b:59:9d:72:35:cb:fe:bb:80:70:70:d6:
         75:4a:61:f2:f9:00:a8:8e:37:2d:3b:2b:67:0d:1b:11:90:69:
         02:21:00:ec:e4:a7:22:f1:c6:cc:0b:11:6b:93:72:9c:3c:1d:
         70:d8:a5:f7:21:8d:47:30:57:dc:c6:a6:4b:17:c2:e4:66
-----BEGIN CERTIFICATE-----
MIIB9zCCAZ2gAwIBAgIBJzAKBggqhkjOPQQDAjCBmzEZMBcGA1UEAwwQUmVnaW9u
ZSBDYW1wYW5pYTELMAkGA1UEBhMCSVQxDzANBgNVBAgMBkl0YWxpYTEYMBYGA1UE
CgwPRS1Wb3Rpbmcgc3lzdGVtMSIwIAYDVQQLDBlFLVZvdGluZyBzeXN0ZW0gYXV0
aG9yaXR5MSIwIAYJKoZIhvcNAQkBFhNDYW1wYW5pYUBldm90aW5nLml0MB4XDTIy
MDgwMzEzMjc0NVoXDTIzMDgwMzEzMjc0NVowSTEOMAwGA1UEAwwFQW1pbmExCzAJ
BgNVBAYTAklUMQ8wDQYDVQQIDAZJdGFsaWExGTAXBgNVBAoMEFJlZ2lvbmUgQ2Ft
cGFuaWEwWTATBgcqhkjOPQIBBggqhkjOPQMBBwNCAAR9s+zPlq5Jdn1NeLfvZd8s
RjqsOloR1l3uZ69PgcnsDPy0FNOuXpCVCHBHViW0opU/+Vhllrgu2Bc3joodcEY5
oyMwITAOBgNVHQ8BAf8EBAMCBaAwDwYDVR0TAQH/BAUwAwIBAzAKBggqhkjOPQQD
AgNIADBFAiAsK0tZnXI1y/67gHBw1nVKYfL5AKiONy07K2cNGxGQaQIhAOzkpyLx
xswLEWuTcpw8HXDYpfchjUcwV9zGpksXwuRm
-----END CERTIFICATE-----
