Certificate:
    Data:
        Version: 3 (0x2)
        Serial Number: 19 (0x13)
        Signature Algorithm: ecdsa-with-SHA256
        Issuer: CN=Regione Abruzzo, C=IT, ST=Italia, O=E-Voting system, OU=E-Voting system authority/emailAddress=Abruzzo@evoting.it
        Validity
            Not Before: Aug 26 15:20:16 2022 GMT
            Not After : Aug 26 15:20:16 2023 GMT
        Subject: CN=Amy, C=IT, ST=Italia, O=Regione Abruzzo
        Subject Public Key Info:
            Public Key Algorithm: id-ecPublicKey
                Public-Key: (256 bit)
                pub:
                    04:00:dd:0d:07:b0:56:66:a2:0f:a7:2d:85:69:8e:
                    b1:e2:e6:96:90:43:76:6f:56:ab:43:79:43:cd:72:
                    97:0f:e2:51:17:a9:c3:83:34:9d:22:26:36:ec:b5:
                    c4:68:e7:3c:26:ff:26:8f:ff:74:63:aa:36:42:2e:
                    ce:39:6e:fa:e3
                ASN1 OID: secp256k1
        X509v3 extensions:
            X509v3 Key Usage: critical
                Digital Signature, Key Encipherment
            X509v3 Basic Constraints: critical
                CA:FALSE, pathlen:3
    Signature Algorithm: ecdsa-with-SHA256
         30:44:02:20:34:d4:78:e2:c6:1c:a3:03:c6:90:8f:53:65:c4:
         8d:63:a2:b8:39:85:f3:b7:5a:9d:da:81:8f:60:91:49:87:03:
         02:20:58:76:0e:47:03:84:1d:27:87:c9:ca:c6:10:d5:bf:dd:
         05:fd:0a:47:70:9a:8a:df:51:ef:99:67:92:c3:e2:48
-----BEGIN CERTIFICATE-----
MIIB7jCCAZWgAwIBAgIBEzAKBggqhkjOPQQDAjCBmTEYMBYGA1UEAwwPUmVnaW9u
ZSBBYnJ1enpvMQswCQYDVQQGEwJJVDEPMA0GA1UECAwGSXRhbGlhMRgwFgYDVQQK
DA9FLVZvdGluZyBzeXN0ZW0xIjAgBgNVBAsMGUUtVm90aW5nIHN5c3RlbSBhdXRo
b3JpdHkxITAfBgkqhkiG9w0BCQEWEkFicnV6em9AZXZvdGluZy5pdDAeFw0yMjA4
MjYxNTIwMTZaFw0yMzA4MjYxNTIwMTZaMEYxDDAKBgNVBAMMA0FteTELMAkGA1UE
BhMCSVQxDzANBgNVBAgMBkl0YWxpYTEYMBYGA1UECgwPUmVnaW9uZSBBYnJ1enpv
MFYwEAYHKoZIzj0CAQYFK4EEAAoDQgAEAN0NB7BWZqIPpy2FaY6x4uaWkEN2b1ar
Q3lDzXKXD+JRF6nDgzSdIiY27LXEaOc8Jv8mj/90Y6o2Qi7OOW7646MjMCEwDgYD
VR0PAQH/BAQDAgWgMA8GA1UdEwEB/wQFMAMCAQMwCgYIKoZIzj0EAwIDRwAwRAIg
NNR44sYcowPGkI9TZcSNY6K4OYXzt1qd2oGPYJFJhwMCIFh2DkcDhB0nh8nKxhDV
v90F/QpHcJqK31HvmWeSw+JI
-----END CERTIFICATE-----
