Certificate:
    Data:
        Version: 3 (0x2)
        Serial Number: 5 (0x5)
        Signature Algorithm: ecdsa-with-SHA256
        Issuer: CN=Regione Abruzzo, C=IT, ST=Italia, O=E-Voting system, OU=E-Voting system authority/emailAddress=Abruzzo@evoting.it
        Validity
            Not Before: Aug 26 15:18:34 2022 GMT
            Not After : Aug 26 15:18:34 2023 GMT
        Subject: CN=Ana, C=IT, ST=Italia, O=Regione Abruzzo
        Subject Public Key Info:
            Public Key Algorithm: id-ecPublicKey
                Public-Key: (256 bit)
                pub:
                    04:2d:65:c0:50:09:f5:fb:32:cc:4e:52:57:79:bd:
                    0f:12:f9:3c:8c:04:83:ba:73:9d:72:4e:c5:19:ab:
                    17:c4:bf:c8:7f:70:f6:dc:40:02:58:1b:53:6a:79:
                    30:d6:a9:69:14:46:f8:13:f2:f1:e0:3b:2c:09:21:
                    dc:8a:16:a7:79
                ASN1 OID: secp256k1
        X509v3 extensions:
            X509v3 Key Usage: critical
                Digital Signature, Key Encipherment
            X509v3 Basic Constraints: critical
                CA:FALSE, pathlen:3
    Signature Algorithm: ecdsa-with-SHA256
         30:46:02:21:00:b0:30:ae:07:fd:47:d4:1b:12:84:f6:54:8b:
         76:79:e3:84:41:13:74:a4:28:4e:88:a2:ad:a3:9b:ef:78:2a:
         24:02:21:00:ca:7e:a9:de:6f:ce:38:30:2d:41:25:73:7b:ef:
         be:d8:55:a9:b8:af:a3:52:08:81:69:f8:ed:99:6d:cf:d6:7f
-----BEGIN CERTIFICATE-----
MIIB8DCCAZWgAwIBAgIBBTAKBggqhkjOPQQDAjCBmTEYMBYGA1UEAwwPUmVnaW9u
ZSBBYnJ1enpvMQswCQYDVQQGEwJJVDEPMA0GA1UECAwGSXRhbGlhMRgwFgYDVQQK
DA9FLVZvdGluZyBzeXN0ZW0xIjAgBgNVBAsMGUUtVm90aW5nIHN5c3RlbSBhdXRo
b3JpdHkxITAfBgkqhkiG9w0BCQEWEkFicnV6em9AZXZvdGluZy5pdDAeFw0yMjA4
MjYxNTE4MzRaFw0yMzA4MjYxNTE4MzRaMEYxDDAKBgNVBAMMA0FuYTELMAkGA1UE
BhMCSVQxDzANBgNVBAgMBkl0YWxpYTEYMBYGA1UECgwPUmVnaW9uZSBBYnJ1enpv
MFYwEAYHKoZIzj0CAQYFK4EEAAoDQgAELWXAUAn1+zLMTlJXeb0PEvk8jASDunOd
ck7FGasXxL/If3D23EACWBtTankw1qlpFEb4E/Lx4DssCSHcihaneaMjMCEwDgYD
VR0PAQH/BAQDAgWgMA8GA1UdEwEB/wQFMAMCAQMwCgYIKoZIzj0EAwIDSQAwRgIh
ALAwrgf9R9QbEoT2VIt2eeOEQRN0pChOiKKto5vveCokAiEAyn6p3m/OODAtQSVz
e+++2FWpuK+jUgiBafjtmW3P1n8=
-----END CERTIFICATE-----
