Certificate:
    Data:
        Version: 3 (0x2)
        Serial Number: 18 (0x12)
        Signature Algorithm: ecdsa-with-SHA256
        Issuer: CN=Regione Lombardia, C=IT, ST=Italia, O=E-Voting system, OU=E-Voting system authority/emailAddress=Lombardia@evoting.it
        Validity
            Not Before: Aug 26 15:19:44 2022 GMT
            Not After : Aug 26 15:19:44 2023 GMT
        Subject: CN=Anastasia, C=IT, ST=Italia, O=Regione Lombardia
        Subject Public Key Info:
            Public Key Algorithm: id-ecPublicKey
                Public-Key: (256 bit)
                pub:
                    04:d9:cf:f7:31:cf:59:df:b7:0a:29:f6:20:6f:ed:
                    d0:01:a9:b6:32:3f:0a:09:45:c9:6e:ee:be:26:9d:
                    41:89:a3:ac:76:11:06:40:ce:0c:e6:bc:02:2f:f5:
                    04:a4:df:b9:bb:89:59:4a:39:bd:b3:b5:16:5c:40:
                    1a:82:2c:a5:02
                ASN1 OID: secp256k1
        X509v3 extensions:
            X509v3 Key Usage: critical
                Digital Signature, Key Encipherment
            X509v3 Basic Constraints: critical
                CA:FALSE, pathlen:3
    Signature Algorithm: ecdsa-with-SHA256
         30:45:02:20:35:cb:12:42:b0:d4:2e:8c:45:64:ad:e3:b5:c8:
         c5:6c:36:03:b7:35:e8:2a:9f:3b:3d:4a:6d:76:1f:41:18:c9:
         02:21:00:bf:a9:c9:d4:e6:cd:d9:a0:59:18:bc:e8:c2:c6:94:
         d0:bf:a1:d5:74:6a:53:5b:f1:31:01:97:76:c6:d3:75:fe
-----BEGIN CERTIFICATE-----
MIIB+zCCAaGgAwIBAgIBEjAKBggqhkjOPQQDAjCBnTEaMBgGA1UEAwwRUmVnaW9u
ZSBMb21iYXJkaWExCzAJBgNVBAYTAklUMQ8wDQYDVQQIDAZJdGFsaWExGDAWBgNV
BAoMD0UtVm90aW5nIHN5c3RlbTEiMCAGA1UECwwZRS1Wb3Rpbmcgc3lzdGVtIGF1
dGhvcml0eTEjMCEGCSqGSIb3DQEJARYUTG9tYmFyZGlhQGV2b3RpbmcuaXQwHhcN
MjIwODI2MTUxOTQ0WhcNMjMwODI2MTUxOTQ0WjBOMRIwEAYDVQQDDAlBbmFzdGFz
aWExCzAJBgNVBAYTAklUMQ8wDQYDVQQIDAZJdGFsaWExGjAYBgNVBAoMEVJlZ2lv
bmUgTG9tYmFyZGlhMFYwEAYHKoZIzj0CAQYFK4EEAAoDQgAE2c/3Mc9Z37cKKfYg
b+3QAam2Mj8KCUXJbu6+Jp1BiaOsdhEGQM4M5rwCL/UEpN+5u4lZSjm9s7UWXEAa
giylAqMjMCEwDgYDVR0PAQH/BAQDAgWgMA8GA1UdEwEB/wQFMAMCAQMwCgYIKoZI
zj0EAwIDSAAwRQIgNcsSQrDULoxFZK3jtcjFbDYDtzXoKp87PUptdh9BGMkCIQC/
qcnU5s3ZoFkYvOjCxpTQv6HVdGpTW/ExAZd2xtN1/g==
-----END CERTIFICATE-----
