Certificate:
    Data:
        Version: 3 (0x2)
        Serial Number: 33 (0x21)
        Signature Algorithm: ecdsa-with-SHA256
        Issuer: CN=Regione Molise, C=IT, ST=Italia, O=E-Voting system, OU=E-Voting system authority/emailAddress=Molise@evoting.it
        Validity
            Not Before: Aug  3 13:27:38 2022 GMT
            Not After : Aug  3 13:27:38 2023 GMT
        Subject: CN=Andrew, C=IT, ST=Italia, O=Regione Molise
        Subject Public Key Info:
            Public Key Algorithm: id-ecPublicKey
                Public-Key: (256 bit)
                pub:
                    04:f1:77:18:55:b0:72:73:6b:0a:e4:6a:d8:51:4a:
                    68:db:76:f0:dc:3f:24:5d:f1:a4:d1:3a:fb:fb:6e:
                    8b:f5:12:ae:e8:de:85:f5:1f:25:81:34:54:4b:45:
                    4a:1e:da:3e:42:39:65:ef:a8:bf:5f:db:05:b3:3c:
                    03:c3:08:26:37
                ASN1 OID: prime256v1
                NIST CURVE: P-256
        X509v3 extensions:
            X509v3 Key Usage: critical
                Digital Signature, Key Encipherment
            X509v3 Basic Constraints: critical
                CA:FALSE, pathlen:3
    Signature Algorithm: ecdsa-with-SHA256
         30:45:02:20:50:ce:f0:8e:56:7a:b1:6c:d7:7d:f6:46:d7:1b:
         c5:01:84:f7:71:32:34:ea:b6:82:a2:af:b9:96:59:96:53:db:
         02:21:00:90:7f:8a:d4:95:75:51:ff:69:2f:be:fa:f6:03:b8:
         a0:7c:d7:a6:b6:a0:72:96:64:c3:73:87:d9:fb:16:b9:d4
-----BEGIN CERTIFICATE-----
MIIB8jCCAZigAwIBAgIBITAKBggqhkjOPQQDAjCBlzEXMBUGA1UEAwwOUmVnaW9u
ZSBNb2xpc2UxCzAJBgNVBAYTAklUMQ8wDQYDVQQIDAZJdGFsaWExGDAWBgNVBAoM
D0UtVm90aW5nIHN5c3RlbTEiMCAGA1UECwwZRS1Wb3Rpbmcgc3lzdGVtIGF1dGhv
cml0eTEgMB4GCSqGSIb3DQEJARYRTW9saXNlQGV2b3RpbmcuaXQwHhcNMjIwODAz
MTMyNzM4WhcNMjMwODAzMTMyNzM4WjBIMQ8wDQYDVQQDDAZBbmRyZXcxCzAJBgNV
BAYTAklUMQ8wDQYDVQQIDAZJdGFsaWExFzAVBgNVBAoMDlJlZ2lvbmUgTW9saXNl
MFkwEwYHKoZIzj0CAQYIKoZIzj0DAQcDQgAE8XcYVbByc2sK5GrYUUpo23bw3D8k
XfGk0Tr7+26L9RKu6N6F9R8lgTRUS0VKHto+Qjll76i/X9sFszwDwwgmN6MjMCEw
DgYDVR0PAQH/BAQDAgWgMA8GA1UdEwEB/wQFMAMCAQMwCgYIKoZIzj0EAwIDSAAw
RQIgUM7wjlZ6sWzXffZG1xvFAYT3cTI06raCoq+5llmWU9sCIQCQf4rUlXVR/2kv
vvr2A7igfNemtqBylmTDc4fZ+xa51A==
-----END CERTIFICATE-----
