Certificate:
    Data:
        Version: 3 (0x2)
        Serial Number: 14 (0xe)
        Signature Algorithm: ecdsa-with-SHA256
        Issuer: CN=Regione Umbria, C=IT, ST=Italia, O=E-Voting system, OU=E-Voting system authority/emailAddress=Umbria@evoting.it
        Validity
            Not Before: Aug 26 15:19:14 2022 GMT
            Not After : Aug 26 15:19:14 2023 GMT
        Subject: CN=Andrea, C=IT, ST=Italia, O=Regione Umbria
        Subject Public Key Info:
            Public Key Algorithm: id-ecPublicKey
                Public-Key: (256 bit)
                pub:
                    04:61:89:4e:59:6e:da:ea:b4:41:b5:9f:94:ba:56:
                    f6:ab:26:87:7d:69:86:24:b0:5c:9f:d5:17:d0:cf:
                    83:10:37:8b:a0:e5:d2:b8:80:50:c3:df:b6:d1:f6:
                    5d:c3:79:66:97:e2:6f:48:d5:b3:09:e3:77:c2:89:
                    cb:fe:18:42:ec
                ASN1 OID: secp256k1
        X509v3 extensions:
            X509v3 Key Usage: critical
                Digital Signature, Key Encipherment
            X509v3 Basic Constraints: critical
                CA:FALSE, pathlen:3
    Signature Algorithm: ecdsa-with-SHA256
         30:44:02:20:73:62:30:2c:f2:ae:b6:f2:bf:f2:32:37:e0:13:
         82:52:3f:f2:72:37:08:29:88:8c:80:a8:bc:cb:7f:45:b2:0f:
         02:20:53:dc:34:48:70:72:91:71:17:f1:bd:13:72:bf:0f:fd:
         85:bf:c2:13:79:3f:fa:0d:7c:b3:ae:39:96:0d:b0:b2
-----BEGIN CERTIFICATE-----
MIIB7jCCAZWgAwIBAgIBDjAKBggqhkjOPQQDAjCBlzEXMBUGA1UEAwwOUmVnaW9u
ZSBVbWJyaWExCzAJBgNVBAYTAklUMQ8wDQYDVQQIDAZJdGFsaWExGDAWBgNVBAoM
D0UtVm90aW5nIHN5c3RlbTEiMCAGA1UECwwZRS1Wb3Rpbmcgc3lzdGVtIGF1dGhv
cml0eTEgMB4GCSqGSIb3DQEJARYRVW1icmlhQGV2b3RpbmcuaXQwHhcNMjIwODI2
MTUxOTE0WhcNMjMwODI2MTUxOTE0WjBIMQ8wDQYDVQQDDAZBbmRyZWExCzAJBgNV
BAYTAklUMQ8wDQYDVQQIDAZJdGFsaWExFzAVBgNVBAoMDlJlZ2lvbmUgVW1icmlh
MFYwEAYHKoZIzj0CAQYFK4EEAAoDQgAEYYlOWW7a6rRBtZ+Uulb2qyaHfWmGJLBc
n9UX0M+DEDeLoOXSuIBQw9+20fZdw3lml+JvSNWzCeN3wonL/hhC7KMjMCEwDgYD
VR0PAQH/BAQDAgWgMA8GA1UdEwEB/wQFMAMCAQMwCgYIKoZIzj0EAwIDRwAwRAIg
c2IwLPKutvK/8jI34BOCUj/ycjcIKYiMgKi8y39Fsg8CIFPcNEhwcpFxF/G9E3K/
D/2Fv8ITeT/6DXyzrjmWDbCy
-----END CERTIFICATE-----
