Certificate:
    Data:
        Version: 3 (0x2)
        Serial Number: 29 (0x1d)
        Signature Algorithm: ecdsa-with-SHA256
        Issuer: CN=Regione Basilicata, C=IT, ST=Italia, O=E-Voting system, OU=E-Voting system authority/emailAddress=Basilicata@evoting.it
        Validity
            Not Before: Aug 26 15:20:39 2022 GMT
            Not After : Aug 26 15:20:39 2023 GMT
        Subject: CN=Andrew, C=IT, ST=Italia, O=Regione Basilicata
        Subject Public Key Info:
            Public Key Algorithm: id-ecPublicKey
                Public-Key: (256 bit)
                pub:
                    04:fe:95:14:1f:d7:5f:73:f9:0e:2d:22:8f:9c:59:
                    62:1b:a0:4c:7e:bb:ad:36:1b:e6:c7:db:9e:c9:1d:
                    49:1b:92:fd:76:ba:0e:a7:ce:7a:b8:e7:c8:85:fe:
                    b3:33:ae:9a:ad:2f:2a:50:a2:21:0a:af:a5:72:68:
                    f2:cc:06:c7:a3
                ASN1 OID: secp256k1
        X509v3 extensions:
            X509v3 Key Usage: critical
                Digital Signature, Key Encipherment
            X509v3 Basic Constraints: critical
                CA:FALSE, pathlen:3
    Signature Algorithm: ecdsa-with-SHA256
         30:45:02:21:00:b0:86:34:bd:72:1b:95:3e:63:c6:f6:1a:13:
         f4:9c:0f:36:2e:b0:0d:4b:0b:b0:a2:b8:b0:9b:af:c3:4f:53:
         f9:02:20:61:c3:57:3b:c7:9a:1b:33:b5:fa:c8:b9:ec:24:d1:
         90:0e:5a:d1:18:10:0d:93:30:aa:a9:49:5f:88:af:fc:f5
-----BEGIN CERTIFICATE-----
MIIB+zCCAaGgAwIBAgIBHTAKBggqhkjOPQQDAjCBnzEbMBkGA1UEAwwSUmVnaW9u
ZSBCYXNpbGljYXRhMQswCQYDVQQGEwJJVDEPMA0GA1UECAwGSXRhbGlhMRgwFgYD
VQQKDA9FLVZvdGluZyBzeXN0ZW0xIjAgBgNVBAsMGUUtVm90aW5nIHN5c3RlbSBh
dXRob3JpdHkxJDAiBgkqhkiG9w0BCQEWFUJhc2lsaWNhdGFAZXZvdGluZy5pdDAe
Fw0yMjA4MjYxNTIwMzlaFw0yMzA4MjYxNTIwMzlaMEwxDzANBgNVBAMMBkFuZHJl
dzELMAkGA1UEBhMCSVQxDzANBgNVBAgMBkl0YWxpYTEbMBkGA1UECgwSUmVnaW9u
ZSBCYXNpbGljYXRhMFYwEAYHKoZIzj0CAQYFK4EEAAoDQgAE/pUUH9dfc/kOLSKP
nFliG6BMfrutNhvmx9ueyR1JG5L9droOp856uOfIhf6zM66arS8qUKIhCq+lcmjy
zAbHo6MjMCEwDgYDVR0PAQH/BAQDAgWgMA8GA1UdEwEB/wQFMAMCAQMwCgYIKoZI
zj0EAwIDSAAwRQIhALCGNL1yG5U+Y8b2GhP0nA82LrANSwuworiwm6/DT1P5AiBh
w1c7x5obM7X6yLnsJNGQDlrRGBANkzCqqUlfiK/89Q==
-----END CERTIFICATE-----
