Certificate:
    Data:
        Version: 3 (0x2)
        Serial Number: 32 (0x20)
        Signature Algorithm: ecdsa-with-SHA256
        Issuer: CN=Regione Piemonte, C=IT, ST=Italia, O=E-Voting system, OU=E-Voting system authority/emailAddress=Piemonte@evoting.it
        Validity
            Not Before: Aug  3 13:27:00 2022 GMT
            Not After : Aug  3 13:27:00 2023 GMT
        Subject: CN=Andrea, C=IT, ST=Italia, O=Regione Piemonte
        Subject Public Key Info:
            Public Key Algorithm: id-ecPublicKey
                Public-Key: (256 bit)
                pub:
                    04:ae:93:82:cf:f6:d2:73:fd:d8:b9:da:6f:37:7e:
                    78:9b:23:30:23:2e:28:75:58:46:a2:9c:97:6b:be:
                    25:cb:24:ae:05:eb:4e:28:1b:05:e3:83:3c:d7:25:
                    e7:56:40:81:4c:57:98:df:1d:cf:67:e1:28:e1:f1:
                    ec:9f:75:69:f5
                ASN1 OID: prime256v1
                NIST CURVE: P-256
        X509v3 extensions:
            X509v3 Key Usage: critical
                Digital Signature, Key Encipherment
            X509v3 Basic Constraints: critical
                CA:FALSE, pathlen:3
    Signature Algorithm: ecdsa-with-SHA256
         30:45:02:21:00:93:3b:01:df:b5:aa:3b:2f:15:ba:90:9e:46:
         08:f2:a6:90:a0:eb:a0:d9:d4:52:6b:e8:a6:5c:49:2b:9a:a1:
         9a:02:20:15:d6:e8:94:ba:66:82:0a:89:5b:a3:16:4c:cc:4a:
         31:33:44:ea:ce:90:bd:02:b0:9e:08:af:0a:7b:f3:e3:b2
-----BEGIN CERTIFICATE-----
MIIB+DCCAZ6gAwIBAgIBIDAKBggqhkjOPQQDAjCBmzEZMBcGA1UEAwwQUmVnaW9u
ZSBQaWVtb250ZTELMAkGA1UEBhMCSVQxDzANBgNVBAgMBkl0YWxpYTEYMBYGA1UE
CgwPRS1Wb3Rpbmcgc3lzdGVtMSIwIAYDVQQLDBlFLVZvdGluZyBzeXN0ZW0gYXV0
aG9yaXR5MSIwIAYJKoZIhvcNAQkBFhNQaWVtb250ZUBldm90aW5nLml0MB4XDTIy
MDgwMzEzMjcwMFoXDTIzMDgwMzEzMjcwMFowSjEPMA0GA1UEAwwGQW5kcmVhMQsw
CQYDVQQGEwJJVDEPMA0GA1UECAwGSXRhbGlhMRkwFwYDVQQKDBBSZWdpb25lIFBp
ZW1vbnRlMFkwEwYHKoZIzj0CAQYIKoZIzj0DAQcDQgAErpOCz/bSc/3YudpvN354
myMwIy4odVhGopyXa74lyySuBetOKBsF44M81yXnVkCBTFeY3x3PZ+Eo4fHsn3Vp
9aMjMCEwDgYDVR0PAQH/BAQDAgWgMA8GA1UdEwEB/wQFMAMCAQMwCgYIKoZIzj0E
AwIDSAAwRQIhAJM7Ad+1qjsvFbqQnkYI8qaQoOug2dRSa+imXEkrmqGaAiAV1uiU
umaCColboxZMzEoxM0TqzpC9ArCeCK8Ke/Pjsg==
-----END CERTIFICATE-----
