Certificate:
    Data:
        Version: 3 (0x2)
        Serial Number: 28 (0x1c)
        Signature Algorithm: ecdsa-with-SHA256
        Issuer: CN=Regione Basilicata, C=IT, ST=Italia, O=E-Voting system, OU=E-Voting system authority/emailAddress=Basilicata@evoting.it
        Validity
            Not Before: Aug 26 15:20:32 2022 GMT
            Not After : Aug 26 15:20:32 2023 GMT
        Subject: CN=Andre, C=IT, ST=Italia, O=Regione Basilicata
        Subject Public Key Info:
            Public Key Algorithm: id-ecPublicKey
                Public-Key: (256 bit)
                pub:
                    04:76:41:9f:7c:7c:41:1e:39:8f:52:19:08:b1:01:
                    d2:30:f0:d5:1d:85:f2:62:e3:9e:c2:cf:16:15:60:
                    5b:26:9c:c8:64:15:c4:49:ec:a7:44:e1:06:50:6c:
                    fa:cd:cf:2a:1d:f5:e5:fe:a0:61:41:b0:e7:32:70:
                    93:22:43:04:56
                ASN1 OID: secp256k1
        X509v3 extensions:
            X509v3 Key Usage: critical
                Digital Signature, Key Encipherment
            X509v3 Basic Constraints: critical
                CA:FALSE, pathlen:3
    Signature Algorithm: ecdsa-with-SHA256
         30:45:02:21:00:8a:00:43:db:27:68:07:0a:3e:6e:1a:0b:a0:
         9c:94:c9:09:72:5f:68:82:85:76:a5:3d:ad:66:55:51:a9:5d:
         4c:02:20:4c:9f:9d:5d:b8:bb:27:63:07:5a:55:db:dc:63:22:
         38:16:7a:19:60:19:15:96:41:3d:ac:3f:95:9b:a7:bb:f1
-----BEGIN CERTIFICATE-----
MIIB+jCCAaCgAwIBAgIBHDAKBggqhkjOPQQDAjCBnzEbMBkGA1UEAwwSUmVnaW9u
ZSBCYXNpbGljYXRhMQswCQYDVQQGEwJJVDEPMA0GA1UECAwGSXRhbGlhMRgwFgYD
VQQKDA9FLVZvdGluZyBzeXN0ZW0xIjAgBgNVBAsMGUUtVm90aW5nIHN5c3RlbSBh
dXRob3JpdHkxJDAiBgkqhkiG9w0BCQEWFUJhc2lsaWNhdGFAZXZvdGluZy5pdDAe
Fw0yMjA4MjYxNTIwMzJaFw0yMzA4MjYxNTIwMzJaMEsxDjAMBgNVBAMMBUFuZHJl
MQswCQYDVQQGEwJJVDEPMA0GA1UECAwGSXRhbGlhMRswGQYDVQQKDBJSZWdpb25l
IEJhc2lsaWNhdGEwVjAQBgcqhkjOPQIBBgUrgQQACgNCAAR2QZ98fEEeOY9SGQix
AdIw8NUdhfJi457CzxYVYFsmnMhkFcRJ7KdE4QZQbPrNzyod9eX+oGFBsOcycJMi
QwRWoyMwITAOBgNVHQ8BAf8EBAMCBaAwDwYDVR0TAQH/BAUwAwIBAzAKBggqhkjO
PQQDAgNIADBFAiEAigBD2ydoBwo+bhoLoJyUyQlyX2iChXalPa1mVVGpXUwCIEyf
nV24uydjB1pV29xjIjgWehlgGRWWQT2sP5Wbp7vx
-----END CERTIFICATE-----
