Certificate:
    Data:
        Version: 3 (0x2)
        Serial Number: 47 (0x2f)
        Signature Algorithm: ecdsa-with-SHA256
        Issuer: CN=Regione Friuli_Venezia_Giulia, C=IT, ST=Italia, O=E-Voting system, OU=E-Voting system authority/emailAddress=Friuli_Venezia_Giulia@evoting.it
        Validity
            Not Before: Aug  3 13:28:32 2022 GMT
            Not After : Aug  3 13:28:32 2023 GMT
        Subject: CN=Andy, C=IT, ST=Italia, O=Regione Friuli_Venezia_Giulia
        Subject Public Key Info:
            Public Key Algorithm: id-ecPublicKey
                Public-Key: (256 bit)
                pub:
                    04:a1:9a:37:37:1f:8d:10:31:e7:bf:fd:2f:d9:8e:
                    f1:95:9f:c1:ac:ba:dd:30:84:dd:19:aa:d2:49:9e:
                    81:e4:48:76:b6:70:d8:01:77:c1:f9:0b:b8:2f:1c:
                    50:d8:3b:a7:dd:4c:73:b4:12:08:ae:b5:eb:9c:ab:
                    00:87:19:d9:d1
                ASN1 OID: prime256v1
                NIST CURVE: P-256
        X509v3 extensions:
            X509v3 Key Usage: critical
                Digital Signature, Key Encipherment
            X509v3 Basic Constraints: critical
                CA:FALSE, pathlen:3
    Signature Algorithm: ecdsa-with-SHA256
         30:45:02:20:38:bb:ba:6b:11:75:b7:49:f9:79:db:92:7c:5a:
         b6:23:23:7c:91:2b:4d:ba:53:2b:6f:d0:45:aa:07:cc:c0:98:
         02:21:00:e8:84:5c:50:ef:fb:f0:b1:94:1e:44:2e:94:1f:38:
         06:92:8a:1d:93:01:5d:57:5c:69:d8:f8:d2:61:94:c4:d0
-----BEGIN CERTIFICATE-----
MIICHTCCAcOgAwIBAgIBLzAKBggqhkjOPQQDAjCBtTEmMCQGA1UEAwwdUmVnaW9u
ZSBGcml1bGlfVmVuZXppYV9HaXVsaWExCzAJBgNVBAYTAklUMQ8wDQYDVQQIDAZJ
dGFsaWExGDAWBgNVBAoMD0UtVm90aW5nIHN5c3RlbTEiMCAGA1UECwwZRS1Wb3Rp
bmcgc3lzdGVtIGF1dGhvcml0eTEvMC0GCSqGSIb3DQEJARYgRnJpdWxpX1ZlbmV6
aWFfR2l1bGlhQGV2b3RpbmcuaXQwHhcNMjIwODAzMTMyODMyWhcNMjMwODAzMTMy
ODMyWjBVMQ0wCwYDVQQDDARBbmR5MQswCQYDVQQGEwJJVDEPMA0GA1UECAwGSXRh
bGlhMSYwJAYDVQQKDB1SZWdpb25lIEZyaXVsaV9WZW5lemlhX0dpdWxpYTBZMBMG
ByqGSM49AgEGCCqGSM49AwEHA0IABKGaNzcfjRAx57/9L9mO8ZWfway63TCE3Rmq
0kmegeRIdrZw2AF3wfkLuC8cUNg7p91Mc7QSCK6165yrAIcZ2dGjIzAhMA4GA1Ud
DwEB/wQEAwIFoDAPBgNVHRMBAf8EBTADAgEDMAoGCCqGSM49BAMCA0gAMEUCIDi7
umsRdbdJ+XnbknxatiMjfJErTbpTK2/QRaoHzMCYAiEA6IRcUO/78LGUHkQulB84
BpKKHZMBXVdcadj40mGUxNA=
-----END CERTIFICATE-----
