Certificate:
    Data:
        Version: 3 (0x2)
        Serial Number: 37 (0x25)
        Signature Algorithm: ecdsa-with-SHA256
        Issuer: CN=Regione Trentino_Alto_Adige, C=IT, ST=Italia, O=E-Voting system, OU=E-Voting system authority/emailAddress=Trentino_Alto_Adige@evoting.it
        Validity
            Not Before: Aug  3 13:28:07 2022 GMT
            Not After : Aug  3 13:28:07 2023 GMT
        Subject: CN=Angeline, C=IT, ST=Italia, O=Regione Trentino_Alto_Adige
        Subject Public Key Info:
            Public Key Algorithm: id-ecPublicKey
                Public-Key: (256 bit)
                pub:
                    04:16:5e:e8:10:ea:53:2c:b6:10:92:92:a3:dd:96:
                    f4:a1:3f:03:4e:0f:76:12:07:df:5b:b3:47:71:c8:
                    8d:25:a1:d0:44:8a:71:cf:11:20:b4:c7:b9:71:94:
                    33:cb:83:5b:2e:fe:0d:58:70:2a:24:3e:8a:8a:02:
                    60:c6:fb:36:50
                ASN1 OID: prime256v1
                NIST CURVE: P-256
        X509v3 extensions:
            X509v3 Key Usage: critical
                Digital Signature, Key Encipherment
            X509v3 Basic Constraints: critical
                CA:FALSE, pathlen:3
    Signature Algorithm: ecdsa-with-SHA256
         30:45:02:21:00:89:c2:6b:59:1f:ed:8d:eb:1e:2c:20:11:83:
         65:30:90:f9:c4:2d:89:cc:d2:1b:ee:58:9c:4f:5d:c0:83:9e:
         37:02:20:1c:5d:d7:c6:ec:e7:0c:a0:08:ca:e3:3b:80:b6:07:
         68:f6:76:96:a4:b0:cc:36:28:5f:d5:96:d4:f6:1c:34:6a
-----BEGIN CERTIFICATE-----
MIICGzCCAcGgAwIBAgIBJTAKBggqhkjOPQQDAjCBsTEkMCIGA1UEAwwbUmVnaW9u
ZSBUcmVudGlub19BbHRvX0FkaWdlMQswCQYDVQQGEwJJVDEPMA0GA1UECAwGSXRh
bGlhMRgwFgYDVQQKDA9FLVZvdGluZyBzeXN0ZW0xIjAgBgNVBAsMGUUtVm90aW5n
IHN5c3RlbSBhdXRob3JpdHkxLTArBgkqhkiG9w0BCQEWHlRyZW50aW5vX0FsdG9f
QWRpZ2VAZXZvdGluZy5pdDAeFw0yMjA4MDMxMzI4MDdaFw0yMzA4MDMxMzI4MDda
MFcxETAPBgNVBAMMCEFuZ2VsaW5lMQswCQYDVQQGEwJJVDEPMA0GA1UECAwGSXRh
bGlhMSQwIgYDVQQKDBtSZWdpb25lIFRyZW50aW5vX0FsdG9fQWRpZ2UwWTATBgcq
hkjOPQIBBggqhkjOPQMBBwNCAAQWXugQ6lMsthCSkqPdlvShPwNOD3YSB99bs0dx
yI0lodBEinHPESC0x7lxlDPLg1su/g1YcCokPoqKAmDG+zZQoyMwITAOBgNVHQ8B
Af8EBAMCBaAwDwYDVR0TAQH/BAUwAwIBAzAKBggqhkjOPQQDAgNIADBFAiEAicJr
WR/tjeseLCARg2UwkPnELYnM0hvuWJxPXcCDnjcCIBxd18bs5wygCMrjO4C2B2j2
dpaksMw2KF/VltT2HDRq
-----END CERTIFICATE-----
