Certificate:
    Data:
        Version: 3 (0x2)
        Serial Number: 39 (0x27)
        Signature Algorithm: ecdsa-with-SHA256
        Issuer: CN=Regione Valle_d_Aosta, C=IT, ST=Italia, O=E-Voting system, OU=E-Voting system authority/emailAddress=Valle_d_Aosta@evoting.it
        Validity
            Not Before: Aug 26 15:20:56 2022 GMT
            Not After : Aug 26 15:20:56 2023 GMT
        Subject: CN=Angelia, C=IT, ST=Italia, O=Regione Valle_d_Aosta
        Subject Public Key Info:
            Public Key Algorithm: id-ecPublicKey
                Public-Key: (256 bit)
                pub:
                    04:e7:d6:89:6d:ae:32:dc:d5:a7:a6:8f:69:0a:54:
                    18:9d:f7:c6:a8:6a:31:38:0c:1f:ed:1e:64:ad:ff:
                    04:22:8b:80:22:46:17:d3:a4:3e:f1:9a:dc:54:1e:
                    3b:d4:62:37:b5:2b:07:dc:a3:51:28:c2:ab:a2:9f:
                    10:5c:d3:55:e0
                ASN1 OID: secp256k1
        X509v3 extensions:
            X509v3 Key Usage: critical
                Digital Signature, Key Encipherment
            X509v3 Basic Constraints: critical
                CA:FALSE, pathlen:3
    Signature Algorithm: ecdsa-with-SHA256
         30:46:02:21:00:9b:ca:5a:ee:86:79:5e:71:e8:46:dd:98:79:
         2b:24:08:ed:9c:68:14:27:cf:f0:cd:13:37:66:33:68:f8:51:
         6e:02:21:00:82:cd:d6:ac:63:97:28:ac:20:2f:96:83:57:12:
         ef:90:ec:9b:68:71:47:1e:cd:c7:69:8d:66:8d:6c:b1:c3:d1
-----BEGIN CERTIFICATE-----
MIICBjCCAaugAwIBAgIBJzAKBggqhkjOPQQDAjCBpTEeMBwGA1UEAwwVUmVnaW9u
ZSBWYWxsZV9kX0Fvc3RhMQswCQYDVQQGEwJJVDEPMA0GA1UECAwGSXRhbGlhMRgw
FgYDVQQKDA9FLVZvdGluZyBzeXN0ZW0xIjAgBgNVBAsMGUUtVm90aW5nIHN5c3Rl
bSBhdXRob3JpdHkxJzAlBgkqhkiG9w0BCQEWGFZhbGxlX2RfQW9zdGFAZXZvdGlu
Zy5pdDAeFw0yMjA4MjYxNTIwNTZaFw0yMzA4MjYxNTIwNTZaMFAxEDAOBgNVBAMM
B0FuZ2VsaWExCzAJBgNVBAYTAklUMQ8wDQYDVQQIDAZJdGFsaWExHjAcBgNVBAoM
FVJlZ2lvbmUgVmFsbGVfZF9Bb3N0YTBWMBAGByqGSM49AgEGBSuBBAAKA0IABOfW
iW2uMtzVp6aPaQpUGJ33xqhqMTgMH+0eZK3/BCKLgCJGF9OkPvGa3FQeO9RiN7Ur
B9yjUSjCq6KfEFzTVeCjIzAhMA4GA1UdDwEB/wQEAwIFoDAPBgNVHRMBAf8EBTAD
AgEDMAoGCCqGSM49BAMCA0kAMEYCIQCbylruhnlecehG3Zh5KyQI7ZxoFCfP8M0T
N2YzaPhRbgIhAILN1qxjlyisIC+Wg1cS75Dsm2hxRx7Nx2mNZo1sscPR
-----END CERTIFICATE-----
