Certificate:
    Data:
        Version: 3 (0x2)
        Serial Number: 33 (0x21)
        Signature Algorithm: ecdsa-with-SHA256
        Issuer: CN=Regione Umbria, C=IT, ST=Italia, O=E-Voting system, OU=E-Voting system authority/emailAddress=Umbria@evoting.it
        Validity
            Not Before: Aug 26 15:20:36 2022 GMT
            Not After : Aug 26 15:20:36 2023 GMT
        Subject: CN=Angel, C=IT, ST=Italia, O=Regione Umbria
        Subject Public Key Info:
            Public Key Algorithm: id-ecPublicKey
                Public-Key: (256 bit)
                pub:
                    04:8f:d4:0d:90:f6:d7:30:c2:42:7d:14:d0:7f:af:
                    42:8b:46:e8:be:fa:a4:dc:53:89:29:a7:9e:33:95:
                    75:a0:31:24:1c:b0:9c:3a:b5:5b:3f:33:5e:dc:c8:
                    3d:f1:06:66:f4:03:6a:e0:5c:82:92:12:e2:25:41:
                    eb:99:dd:83:68
                ASN1 OID: secp256k1
        X509v3 extensions:
            X509v3 Key Usage: critical
                Digital Signature, Key Encipherment
            X509v3 Basic Constraints: critical
                CA:FALSE, pathlen:3
    Signature Algorithm: ecdsa-with-SHA256
         30:45:02:20:6c:68:c5:b7:07:d3:fa:29:b0:52:b1:8a:6e:b0:
         d9:82:5c:2b:23:97:a0:83:39:97:7e:0a:8a:06:69:ff:53:66:
         02:21:00:84:fd:27:bc:57:8e:f3:39:0c:95:28:4b:b0:26:69:
         da:df:0b:47:fe:9a:f0:aa:13:38:e9:0e:23:ad:c3:3f:0f
-----BEGIN CERTIFICATE-----
MIIB7jCCAZSgAwIBAgIBITAKBggqhkjOPQQDAjCBlzEXMBUGA1UEAwwOUmVnaW9u
ZSBVbWJyaWExCzAJBgNVBAYTAklUMQ8wDQYDVQQIDAZJdGFsaWExGDAWBgNVBAoM
D0UtVm90aW5nIHN5c3RlbTEiMCAGA1UECwwZRS1Wb3Rpbmcgc3lzdGVtIGF1dGhv
cml0eTEgMB4GCSqGSIb3DQEJARYRVW1icmlhQGV2b3RpbmcuaXQwHhcNMjIwODI2
MTUyMDM2WhcNMjMwODI2MTUyMDM2WjBHMQ4wDAYDVQQDDAVBbmdlbDELMAkGA1UE
BhMCSVQxDzANBgNVBAgMBkl0YWxpYTEXMBUGA1UECgwOUmVnaW9uZSBVbWJyaWEw
VjAQBgcqhkjOPQIBBgUrgQQACgNCAASP1A2Q9tcwwkJ9FNB/r0KLRui++qTcU4kp
p54zlXWgMSQcsJw6tVs/M17cyD3xBmb0A2rgXIKSEuIlQeuZ3YNooyMwITAOBgNV
HQ8BAf8EBAMCBaAwDwYDVR0TAQH/BAUwAwIBAzAKBggqhkjOPQQDAgNIADBFAiBs
aMW3B9P6KbBSsYpusNmCXCsjl6CDOZd+CooGaf9TZgIhAIT9J7xXjvM5DJUoS7Am
adrfC0f+mvCqEzjpDiOtwz8P
-----END CERTIFICATE-----
