Certificate:
    Data:
        Version: 3 (0x2)
        Serial Number: 19 (0x13)
        Signature Algorithm: ecdsa-with-SHA256
        Issuer: CN=Regione Piemonte, C=IT, ST=Italia, O=E-Voting system, OU=E-Voting system authority/emailAddress=Piemonte@evoting.it
        Validity
            Not Before: Aug 26 15:19:53 2022 GMT
            Not After : Aug 26 15:19:53 2023 GMT
        Subject: CN=Angelita, C=IT, ST=Italia, O=Regione Piemonte
        Subject Public Key Info:
            Public Key Algorithm: id-ecPublicKey
                Public-Key: (256 bit)
                pub:
                    04:9d:dc:9f:d2:1b:c6:15:bd:81:05:23:c9:50:5d:
                    97:92:78:fc:74:a1:43:74:9f:d9:eb:7d:2d:dc:ba:
                    5a:4c:04:9b:93:70:fc:41:9e:27:64:ba:3d:43:5f:
                    70:84:3d:56:8e:16:4b:67:26:9a:20:d7:3f:c6:e1:
                    51:9f:67:12:a1
                ASN1 OID: secp256k1
        X509v3 extensions:
            X509v3 Key Usage: critical
                Digital Signature, Key Encipherment
            X509v3 Basic Constraints: critical
                CA:FALSE, pathlen:3
    Signature Algorithm: ecdsa-with-SHA256
         30:45:02:20:64:ff:1c:6c:a3:7d:57:e3:07:c1:02:26:69:a3:
         2f:49:4b:93:31:35:1b:b6:7a:37:23:a0:be:6d:51:89:1e:cd:
         02:21:00:cf:20:fc:84:93:50:5c:42:e1:86:c2:eb:98:0c:1f:
         d0:d3:4c:8e:43:16:83:b4:5c:ac:11:cd:d2:97:f9:8b:fa
-----BEGIN CERTIFICATE-----
MIIB9zCCAZ2gAwIBAgIBEzAKBggqhkjOPQQDAjCBmzEZMBcGA1UEAwwQUmVnaW9u
ZSBQaWVtb250ZTELMAkGA1UEBhMCSVQxDzANBgNVBAgMBkl0YWxpYTEYMBYGA1UE
CgwPRS1Wb3Rpbmcgc3lzdGVtMSIwIAYDVQQLDBlFLVZvdGluZyBzeXN0ZW0gYXV0
aG9yaXR5MSIwIAYJKoZIhvcNAQkBFhNQaWVtb250ZUBldm90aW5nLml0MB4XDTIy
MDgyNjE1MTk1M1oXDTIzMDgyNjE1MTk1M1owTDERMA8GA1UEAwwIQW5nZWxpdGEx
CzAJBgNVBAYTAklUMQ8wDQYDVQQIDAZJdGFsaWExGTAXBgNVBAoMEFJlZ2lvbmUg
UGllbW9udGUwVjAQBgcqhkjOPQIBBgUrgQQACgNCAASd3J/SG8YVvYEFI8lQXZeS
ePx0oUN0n9nrfS3culpMBJuTcPxBnidkuj1DX3CEPVaOFktnJpog1z/G4VGfZxKh
oyMwITAOBgNVHQ8BAf8EBAMCBaAwDwYDVR0TAQH/BAUwAwIBAzAKBggqhkjOPQQD
AgNIADBFAiBk/xxso31X4wfBAiZpoy9JS5MxNRu2ejcjoL5tUYkezQIhAM8g/IST
UFxC4YbC65gMH9DTTI5DFoO0XKwRzdKX+Yv6
-----END CERTIFICATE-----
