Certificate:
    Data:
        Version: 3 (0x2)
        Serial Number: 43 (0x2b)
        Signature Algorithm: ecdsa-with-SHA256
        Issuer: CN=Regione Lombardia, C=IT, ST=Italia, O=E-Voting system, OU=E-Voting system authority/emailAddress=Lombardia@evoting.it
        Validity
            Not Before: Aug 26 15:21:04 2022 GMT
            Not After : Aug 26 15:21:04 2023 GMT
        Subject: CN=Angie, C=IT, ST=Italia, O=Regione Lombardia
        Subject Public Key Info:
            Public Key Algorithm: id-ecPublicKey
                Public-Key: (256 bit)
                pub:
                    04:fb:94:b2:ed:3a:f3:9a:25:52:b6:97:53:29:02:
                    1c:07:19:d9:61:c5:6f:8f:4d:a9:25:47:20:a5:d4:
                    75:b4:c6:d2:b1:60:81:fe:96:0f:fe:7c:8a:78:b0:
                    ec:fc:9c:af:22:61:55:00:8b:fd:ea:0c:e5:7d:e7:
                    d9:06:05:f0:3f
                ASN1 OID: secp256k1
        X509v3 extensions:
            X509v3 Key Usage: critical
                Digital Signature, Key Encipherment
            X509v3 Basic Constraints: critical
                CA:FALSE, pathlen:3
    Signature Algorithm: ecdsa-with-SHA256
         30:44:02:20:20:e0:40:2c:e3:02:e9:37:4c:36:fc:16:16:13:
         c4:29:11:40:ec:c9:e4:c9:00:7d:ec:64:fb:c6:51:3d:78:9f:
         02:20:0a:58:4c:af:bf:5c:5c:3e:4b:ec:92:a7:7d:74:71:91:
         0b:56:95:b3:eb:4c:6c:2f:42:c0:ba:d9:0b:3e:a4:e5
-----BEGIN CERTIFICATE-----
MIIB9jCCAZ2gAwIBAgIBKzAKBggqhkjOPQQDAjCBnTEaMBgGA1UEAwwRUmVnaW9u
ZSBMb21iYXJkaWExCzAJBgNVBAYTAklUMQ8wDQYDVQQIDAZJdGFsaWExGDAWBgNV
BAoMD0UtVm90aW5nIHN5c3RlbTEiMCAGA1UECwwZRS1Wb3Rpbmcgc3lzdGVtIGF1
dGhvcml0eTEjMCEGCSqGSIb3DQEJARYUTG9tYmFyZGlhQGV2b3RpbmcuaXQwHhcN
MjIwODI2MTUyMTA0WhcNMjMwODI2MTUyMTA0WjBKMQ4wDAYDVQQDDAVBbmdpZTEL
MAkGA1UEBhMCSVQxDzANBgNVBAgMBkl0YWxpYTEaMBgGA1UECgwRUmVnaW9uZSBM
b21iYXJkaWEwVjAQBgcqhkjOPQIBBgUrgQQACgNCAAT7lLLtOvOaJVK2l1MpAhwH
GdlhxW+PTaklRyCl1HW0xtKxYIH+lg/+fIp4sOz8nK8iYVUAi/3qDOV959kGBfA/
oyMwITAOBgNVHQ8BAf8EBAMCBaAwDwYDVR0TAQH/BAUwAwIBAzAKBggqhkjOPQQD
AgNHADBEAiAg4EAs4wLpN0w2/BYWE8QpEUDsyeTJAH3sZPvGUT14nwIgClhMr79c
XD5L7JKnfXRxkQtWlbPrTGwvQsC62Qs+pOU=
-----END CERTIFICATE-----
