Certificate:
    Data:
        Version: 3 (0x2)
        Serial Number: 14 (0xe)
        Signature Algorithm: ecdsa-with-SHA256
        Issuer: CN=Regione Piemonte, C=IT, ST=Italia, O=E-Voting system, OU=E-Voting system authority/emailAddress=Piemonte@evoting.it
        Validity
            Not Before: Aug  3 13:26:11 2022 GMT
            Not After : Aug  3 13:26:11 2023 GMT
        Subject: CN=Angie, C=IT, ST=Italia, O=Regione Piemonte
        Subject Public Key Info:
            Public Key Algorithm: id-ecPublicKey
                Public-Key: (256 bit)
                pub:
                    04:d8:e2:e8:15:bb:8d:b9:f3:47:b5:08:dd:76:3b:
                    67:fd:e2:6b:6b:90:bc:08:8c:90:dd:86:1f:98:1c:
                    0a:51:5b:4a:f6:cf:d5:fc:d2:c8:85:5a:ac:77:34:
                    7b:f9:f8:5d:20:ed:aa:71:42:02:06:5f:e6:05:66:
                    2d:32:6e:0e:3c
                ASN1 OID: prime256v1
                NIST CURVE: P-256
        X509v3 extensions:
            X509v3 Key Usage: critical
                Digital Signature, Key Encipherment
            X509v3 Basic Constraints: critical
                CA:FALSE, pathlen:3
    Signature Algorithm: ecdsa-with-SHA256
         30:46:02:21:00:d3:25:a0:dc:9f:f3:4f:67:3d:22:ee:e1:0c:
         39:da:c6:ee:c9:ac:66:51:51:06:79:e4:0b:51:ff:44:70:d1:
         ba:02:21:00:81:c8:ef:c7:de:13:e5:a6:66:6d:18:96:23:2c:
         ad:5b:c0:f1:c1:9d:3c:4f:11:2a:0e:01:d7:47:29:1d:1b:62
-----BEGIN CERTIFICATE-----
MIIB+DCCAZ2gAwIBAgIBDjAKBggqhkjOPQQDAjCBmzEZMBcGA1UEAwwQUmVnaW9u
ZSBQaWVtb250ZTELMAkGA1UEBhMCSVQxDzANBgNVBAgMBkl0YWxpYTEYMBYGA1UE
CgwPRS1Wb3Rpbmcgc3lzdGVtMSIwIAYDVQQLDBlFLVZvdGluZyBzeXN0ZW0gYXV0
aG9yaXR5MSIwIAYJKoZIhvcNAQkBFhNQaWVtb250ZUBldm90aW5nLml0MB4XDTIy
MDgwMzEzMjYxMVoXDTIzMDgwMzEzMjYxMVowSTEOMAwGA1UEAwwFQW5naWUxCzAJ
BgNVBAYTAklUMQ8wDQYDVQQIDAZJdGFsaWExGTAXBgNVBAoMEFJlZ2lvbmUgUGll
bW9udGUwWTATBgcqhkjOPQIBBggqhkjOPQMBBwNCAATY4ugVu42580e1CN12O2f9
4mtrkLwIjJDdhh+YHApRW0r2z9X80siFWqx3NHv5+F0g7apxQgIGX+YFZi0ybg48
oyMwITAOBgNVHQ8BAf8EBAMCBaAwDwYDVR0TAQH/BAUwAwIBAzAKBggqhkjOPQQD
AgNJADBGAiEA0yWg3J/zT2c9Iu7hDDnaxu7JrGZRUQZ55AtR/0Rw0boCIQCByO/H
3hPlpmZtGJYjLK1bwPHBnTxPESoOAddHKR0bYg==
-----END CERTIFICATE-----
