Certificate:
    Data:
        Version: 3 (0x2)
        Serial Number: 22 (0x16)
        Signature Algorithm: ecdsa-with-SHA256
        Issuer: CN=Regione Lombardia, C=IT, ST=Italia, O=E-Voting system, OU=E-Voting system authority/emailAddress=Lombardia@evoting.it
        Validity
            Not Before: Aug 26 15:20:04 2022 GMT
            Not After : Aug 26 15:20:04 2023 GMT
        Subject: CN=Anita, C=IT, ST=Italia, O=Regione Lombardia
        Subject Public Key Info:
            Public Key Algorithm: id-ecPublicKey
                Public-Key: (256 bit)
                pub:
                    04:30:f5:45:59:78:7f:05:6e:de:6b:e7:ea:f8:92:
                    bb:6f:3f:78:87:41:ae:57:bf:fa:9c:b3:4d:6d:2f:
                    49:de:65:f3:08:2f:bc:58:9d:d5:8e:78:48:ea:63:
                    fc:31:e2:3d:13:77:05:4a:7c:5d:9d:82:79:ea:b6:
                    f0:d2:f1:51:ec
                ASN1 OID: secp256k1
        X509v3 extensions:
            X509v3 Key Usage: critical
                Digital Signature, Key Encipherment
            X509v3 Basic Constraints: critical
                CA:FALSE, pathlen:3
    Signature Algorithm: ecdsa-with-SHA256
         30:46:02:21:00:a5:3a:b8:53:12:2e:19:6b:81:ec:ce:46:0b:
         7a:70:41:ec:17:ae:cf:46:69:03:ef:38:3d:f3:52:39:ac:19:
         38:02:21:00:97:4e:4e:9a:c1:13:0a:20:33:02:ce:39:a7:7b:
         81:5a:00:7c:86:d9:38:be:ff:3b:4a:e7:dd:04:c4:f8:d7:d4
-----BEGIN CERTIFICATE-----
MIIB+DCCAZ2gAwIBAgIBFjAKBggqhkjOPQQDAjCBnTEaMBgGA1UEAwwRUmVnaW9u
ZSBMb21iYXJkaWExCzAJBgNVBAYTAklUMQ8wDQYDVQQIDAZJdGFsaWExGDAWBgNV
BAoMD0UtVm90aW5nIHN5c3RlbTEiMCAGA1UECwwZRS1Wb3Rpbmcgc3lzdGVtIGF1
dGhvcml0eTEjMCEGCSqGSIb3DQEJARYUTG9tYmFyZGlhQGV2b3RpbmcuaXQwHhcN
MjIwODI2MTUyMDA0WhcNMjMwODI2MTUyMDA0WjBKMQ4wDAYDVQQDDAVBbml0YTEL
MAkGA1UEBhMCSVQxDzANBgNVBAgMBkl0YWxpYTEaMBgGA1UECgwRUmVnaW9uZSBM
b21iYXJkaWEwVjAQBgcqhkjOPQIBBgUrgQQACgNCAAQw9UVZeH8Fbt5r5+r4krtv
P3iHQa5Xv/qcs01tL0neZfMIL7xYndWOeEjqY/wx4j0TdwVKfF2dgnnqtvDS8VHs
oyMwITAOBgNVHQ8BAf8EBAMCBaAwDwYDVR0TAQH/BAUwAwIBAzAKBggqhkjOPQQD
AgNJADBGAiEApTq4UxIuGWuB7M5GC3pwQewXrs9GaQPvOD3zUjmsGTgCIQCXTk6a
wRMKIDMCzjmne4FaAHyG2Ti+/ztK590ExPjX1A==
-----END CERTIFICATE-----
