Certificate:
    Data:
        Version: 3 (0x2)
        Serial Number: 18 (0x12)
        Signature Algorithm: ecdsa-with-SHA256
        Issuer: CN=Regione Emilia_Romagna, C=IT, ST=Italia, O=E-Voting system, OU=E-Voting system authority/emailAddress=Emilia_Romagna@evoting.it
        Validity
            Not Before: Aug  3 13:26:33 2022 GMT
            Not After : Aug  3 13:26:33 2023 GMT
        Subject: CN=Anita, C=IT, ST=Italia, O=Regione Emilia_Romagna
        Subject Public Key Info:
            Public Key Algorithm: id-ecPublicKey
                Public-Key: (256 bit)
                pub:
                    04:c6:ae:6e:16:70:88:af:f2:43:7c:ae:1a:76:21:
                    05:4c:1c:76:c8:eb:37:40:31:bd:a8:34:55:8e:77:
                    97:f2:8b:6e:f6:a9:a0:61:88:1b:f7:69:bf:84:32:
                    91:0c:6c:98:ef:f2:1c:c7:08:49:b4:95:2b:ae:ba:
                    57:79:cc:25:ea
                ASN1 OID: prime256v1
                NIST CURVE: P-256
        X509v3 extensions:
            X509v3 Key Usage: critical
                Digital Signature, Key Encipherment
            X509v3 Basic Constraints: critical
                CA:FALSE, pathlen:3
    Signature Algorithm: ecdsa-with-SHA256
         30:46:02:21:00:c4:c8:65:ef:84:89:17:15:cf:03:ad:80:f7:
         f9:29:aa:ce:f4:65:fe:db:af:21:45:5f:a0:97:5d:21:f0:c7:
         90:02:21:00:9a:86:1f:96:d5:7e:d3:90:88:19:92:a3:e0:6c:
         59:47:3a:73:10:25:bb:13:9c:6e:c2:fb:a3:15:4b:c0:51:a5
-----BEGIN CERTIFICATE-----
MIICCjCCAa+gAwIBAgIBEjAKBggqhkjOPQQDAjCBpzEfMB0GA1UEAwwWUmVnaW9u
ZSBFbWlsaWFfUm9tYWduYTELMAkGA1UEBhMCSVQxDzANBgNVBAgMBkl0YWxpYTEY
MBYGA1UECgwPRS1Wb3Rpbmcgc3lzdGVtMSIwIAYDVQQLDBlFLVZvdGluZyBzeXN0
ZW0gYXV0aG9yaXR5MSgwJgYJKoZIhvcNAQkBFhlFbWlsaWFfUm9tYWduYUBldm90
aW5nLml0MB4XDTIyMDgwMzEzMjYzM1oXDTIzMDgwMzEzMjYzM1owTzEOMAwGA1UE
AwwFQW5pdGExCzAJBgNVBAYTAklUMQ8wDQYDVQQIDAZJdGFsaWExHzAdBgNVBAoM
FlJlZ2lvbmUgRW1pbGlhX1JvbWFnbmEwWTATBgcqhkjOPQIBBggqhkjOPQMBBwNC
AATGrm4WcIiv8kN8rhp2IQVMHHbI6zdAMb2oNFWOd5fyi272qaBhiBv3ab+EMpEM
bJjv8hzHCEm0lSuuuld5zCXqoyMwITAOBgNVHQ8BAf8EBAMCBaAwDwYDVR0TAQH/
BAUwAwIBAzAKBggqhkjOPQQDAgNJADBGAiEAxMhl74SJFxXPA62A9/kpqs70Zf7b
ryFFX6CXXSHwx5ACIQCahh+W1X7TkIgZkqPgbFlHOnMQJbsTnG7C+6MVS8BRpQ==
-----END CERTIFICATE-----
