Certificate:
    Data:
        Version: 3 (0x2)
        Serial Number: 16 (0x10)
        Signature Algorithm: ecdsa-with-SHA256
        Issuer: CN=Regione Marche, C=IT, ST=Italia, O=E-Voting system, OU=E-Voting system authority/emailAddress=Marche@evoting.it
        Validity
            Not Before: Aug 26 15:19:50 2022 GMT
            Not After : Aug 26 15:19:50 2023 GMT
        Subject: CN=Ann, C=IT, ST=Italia, O=Regione Marche
        Subject Public Key Info:
            Public Key Algorithm: id-ecPublicKey
                Public-Key: (256 bit)
                pub:
                    04:09:37:37:6e:34:4a:30:1b:4c:61:33:6e:a5:b3:
                    c8:9c:73:50:c3:95:7b:87:b5:ad:e6:9d:6e:5a:40:
                    1e:e6:6c:84:24:35:92:6f:de:9e:bd:50:c7:6d:54:
                    83:25:49:63:d1:ba:dd:2c:75:40:2d:f9:02:a6:b3:
                    af:0a:85:fc:0b
                ASN1 OID: secp256k1
        X509v3 extensions:
            X509v3 Key Usage: critical
                Digital Signature, Key Encipherment
            X509v3 Basic Constraints: critical
                CA:FALSE, pathlen:3
    Signature Algorithm: ecdsa-with-SHA256
         30:45:02:20:0e:94:e5:94:d5:45:79:3a:a0:1d:80:94:5e:31:
         69:71:80:80:ef:4c:b6:e0:cb:4b:08:86:96:ba:10:c7:c6:08:
         02:21:00:fa:8d:f9:28:4f:7c:8d:9e:20:1b:53:d5:f4:d2:2a:
         4e:c7:df:9c:9a:cd:01:fe:93:c3:3a:1e:23:6c:b1:96:ba
-----BEGIN CERTIFICATE-----
MIIB7DCCAZKgAwIBAgIBEDAKBggqhkjOPQQDAjCBlzEXMBUGA1UEAwwOUmVnaW9u
ZSBNYXJjaGUxCzAJBgNVBAYTAklUMQ8wDQYDVQQIDAZJdGFsaWExGDAWBgNVBAoM
D0UtVm90aW5nIHN5c3RlbTEiMCAGA1UECwwZRS1Wb3Rpbmcgc3lzdGVtIGF1dGhv
cml0eTEgMB4GCSqGSIb3DQEJARYRTWFyY2hlQGV2b3RpbmcuaXQwHhcNMjIwODI2
MTUxOTUwWhcNMjMwODI2MTUxOTUwWjBFMQwwCgYDVQQDDANBbm4xCzAJBgNVBAYT
AklUMQ8wDQYDVQQIDAZJdGFsaWExFzAVBgNVBAoMDlJlZ2lvbmUgTWFyY2hlMFYw
EAYHKoZIzj0CAQYFK4EEAAoDQgAECTc3bjRKMBtMYTNupbPInHNQw5V7h7Wt5p1u
WkAe5myEJDWSb96evVDHbVSDJUlj0brdLHVALfkCprOvCoX8C6MjMCEwDgYDVR0P
AQH/BAQDAgWgMA8GA1UdEwEB/wQFMAMCAQMwCgYIKoZIzj0EAwIDSAAwRQIgDpTl
lNVFeTqgHYCUXjFpcYCA70y24MtLCIaWuhDHxggCIQD6jfkoT3yNniAbU9X00ipO
x9+cms0B/pPDOh4jbLGWug==
-----END CERTIFICATE-----
