Certificate:
    Data:
        Version: 3 (0x2)
        Serial Number: 29 (0x1d)
        Signature Algorithm: ecdsa-with-SHA256
        Issuer: CN=Regione Friuli_Venezia_Giulia, C=IT, ST=Italia, O=E-Voting system, OU=E-Voting system authority/emailAddress=Friuli_Venezia_Giulia@evoting.it
        Validity
            Not Before: Aug  3 13:27:23 2022 GMT
            Not After : Aug  3 13:27:23 2023 GMT
        Subject: CN=Annamaria, C=IT, ST=Italia, O=Regione Friuli_Venezia_Giulia
        Subject Public Key Info:
            Public Key Algorithm: id-ecPublicKey
                Public-Key: (256 bit)
                pub:
                    04:4b:b6:ee:2a:79:56:ae:51:eb:1c:61:8b:62:c9:
                    4c:3c:72:2a:75:bd:0f:a4:e4:97:3d:11:60:2c:59:
                    31:b5:3b:e0:4c:04:1f:ce:99:93:17:71:dc:41:c5:
                    96:d3:98:06:f3:7a:61:f5:21:e8:b7:b5:8f:86:70:
                    20:6a:01:1e:87
                ASN1 OID: prime256v1
                NIST CURVE: P-256
        X509v3 extensions:
            X509v3 Key Usage: critical
                Digital Signature, Key Encipherment
            X509v3 Basic Constraints: critical
                CA:FALSE, pathlen:3
    Signature Algorithm: ecdsa-with-SHA256
         30:45:02:21:00:b2:77:81:bf:7a:63:51:ee:6b:03:7e:76:e3:
         bd:a3:b1:20:f4:b4:97:6f:c1:10:b1:d3:59:3b:d1:e6:dd:7e:
         9f:02:20:24:d4:8a:43:5d:ff:bb:1c:50:e1:d0:30:5b:b5:82:
         50:f8:cf:17:c8:bd:57:3a:12:b5:57:7b:69:6e:ea:23:c0
-----BEGIN CERTIFICATE-----
MIICIjCCAcigAwIBAgIBHTAKBggqhkjOPQQDAjCBtTEmMCQGA1UEAwwdUmVnaW9u
ZSBGcml1bGlfVmVuZXppYV9HaXVsaWExCzAJBgNVBAYTAklUMQ8wDQYDVQQIDAZJ
dGFsaWExGDAWBgNVBAoMD0UtVm90aW5nIHN5c3RlbTEiMCAGA1UECwwZRS1Wb3Rp
bmcgc3lzdGVtIGF1dGhvcml0eTEvMC0GCSqGSIb3DQEJARYgRnJpdWxpX1ZlbmV6
aWFfR2l1bGlhQGV2b3RpbmcuaXQwHhcNMjIwODAzMTMyNzIzWhcNMjMwODAzMTMy
NzIzWjBaMRIwEAYDVQQDDAlBbm5hbWFyaWExCzAJBgNVBAYTAklUMQ8wDQYDVQQI
DAZJdGFsaWExJjAkBgNVBAoMHVJlZ2lvbmUgRnJpdWxpX1ZlbmV6aWFfR2l1bGlh
MFkwEwYHKoZIzj0CAQYIKoZIzj0DAQcDQgAES7buKnlWrlHrHGGLYslMPHIqdb0P
pOSXPRFgLFkxtTvgTAQfzpmTF3HcQcWW05gG83ph9SHot7WPhnAgagEeh6MjMCEw
DgYDVR0PAQH/BAQDAgWgMA8GA1UdEwEB/wQFMAMCAQMwCgYIKoZIzj0EAwIDSAAw
RQIhALJ3gb96Y1HuawN+duO9o7Eg9LSXb8EQsdNZO9Hm3X6fAiAk1IpDXf+7HFDh
0DBbtYJQ+M8XyL1XOhK1V3tpbuojwA==
-----END CERTIFICATE-----
