Certificate:
    Data:
        Version: 3 (0x2)
        Serial Number: 53 (0x35)
        Signature Algorithm: ecdsa-with-SHA256
        Issuer: CN=Regione Valle_d_Aosta, C=IT, ST=Italia, O=E-Voting system, OU=E-Voting system authority/emailAddress=Valle_d_Aosta@evoting.it
        Validity
            Not Before: Aug 26 15:21:40 2022 GMT
            Not After : Aug 26 15:21:40 2023 GMT
        Subject: CN=Anna, C=IT, ST=Italia, O=Regione Valle_d_Aosta
        Subject Public Key Info:
            Public Key Algorithm: id-ecPublicKey
                Public-Key: (256 bit)
                pub:
                    04:8b:c7:bb:f1:ae:5e:f4:d1:24:82:dd:94:6c:a3:
                    94:e2:71:18:a5:ba:74:9a:e8:f1:e5:7f:31:b1:bc:
                    2e:48:fa:88:32:2e:54:d6:66:fd:c2:3d:56:95:f6:
                    22:9c:93:a7:6b:a9:9e:aa:0f:12:7c:76:d1:a9:62:
                    48:1b:b5:9e:22
                ASN1 OID: secp256k1
        X509v3 extensions:
            X509v3 Key Usage: critical
                Digital Signature, Key Encipherment
            X509v3 Basic Constraints: critical
                CA:FALSE, pathlen:3
    Signature Algorithm: ecdsa-with-SHA256
         30:44:02:20:0e:f1:7e:ea:ea:e7:b3:db:c0:50:52:0e:f0:be:
         e0:39:1a:30:23:7e:e9:45:7f:ff:6d:4f:ce:d7:d4:e9:3a:09:
         02:20:22:8c:84:ce:3f:2b:11:66:1d:84:77:93:eb:aa:63:3b:
         f6:5b:1d:dd:87:4d:d2:a2:69:50:48:cc:a1:f5:ec:7b
-----BEGIN CERTIFICATE-----
MIICATCCAaigAwIBAgIBNTAKBggqhkjOPQQDAjCBpTEeMBwGA1UEAwwVUmVnaW9u
ZSBWYWxsZV9kX0Fvc3RhMQswCQYDVQQGEwJJVDEPMA0GA1UECAwGSXRhbGlhMRgw
FgYDVQQKDA9FLVZvdGluZyBzeXN0ZW0xIjAgBgNVBAsMGUUtVm90aW5nIHN5c3Rl
bSBhdXRob3JpdHkxJzAlBgkqhkiG9w0BCQEWGFZhbGxlX2RfQW9zdGFAZXZvdGlu
Zy5pdDAeFw0yMjA4MjYxNTIxNDBaFw0yMzA4MjYxNTIxNDBaME0xDTALBgNVBAMM
BEFubmExCzAJBgNVBAYTAklUMQ8wDQYDVQQIDAZJdGFsaWExHjAcBgNVBAoMFVJl
Z2lvbmUgVmFsbGVfZF9Bb3N0YTBWMBAGByqGSM49AgEGBSuBBAAKA0IABIvHu/Gu
XvTRJILdlGyjlOJxGKW6dJro8eV/MbG8Lkj6iDIuVNZm/cI9VpX2IpyTp2upnqoP
Enx20aliSBu1niKjIzAhMA4GA1UdDwEB/wQEAwIFoDAPBgNVHRMBAf8EBTADAgED
MAoGCCqGSM49BAMCA0cAMEQCIA7xfurq57PbwFBSDvC+4DkaMCN+6UV//21PztfU
6ToJAiAijITOPysRZh2Ed5PrqmM79lsd3YdN0qJpUEjMofXsew==
-----END CERTIFICATE-----
