Certificate:
    Data:
        Version: 3 (0x2)
        Serial Number: 31 (0x1f)
        Signature Algorithm: ecdsa-with-SHA256
        Issuer: CN=Regione Molise, C=IT, ST=Italia, O=E-Voting system, OU=E-Voting system authority/emailAddress=Molise@evoting.it
        Validity
            Not Before: Aug 26 15:20:52 2022 GMT
            Not After : Aug 26 15:20:52 2023 GMT
        Subject: CN=Anne, C=IT, ST=Italia, O=Regione Molise
        Subject Public Key Info:
            Public Key Algorithm: id-ecPublicKey
                Public-Key: (256 bit)
                pub:
                    04:ad:93:cb:59:53:bd:1d:7c:a5:ca:0c:78:07:fe:
                    04:16:77:de:28:97:07:f7:9b:96:51:dc:b2:6b:5d:
                    c9:ee:87:a6:62:1a:00:5c:cf:13:c3:c8:b0:25:ba:
                    3f:67:e7:59:c0:a8:2d:73:95:a4:9c:e6:51:3e:66:
                    ff:24:b5:e4:8c
                ASN1 OID: secp256k1
        X509v3 extensions:
            X509v3 Key Usage: critical
                Digital Signature, Key Encipherment
            X509v3 Basic Constraints: critical
                CA:FALSE, pathlen:3
    Signature Algorithm: ecdsa-with-SHA256
         30:45:02:21:00:c5:d6:16:9d:a9:4d:e9:4e:9e:c4:5b:1d:8c:
         af:3b:4d:08:43:c1:27:92:b1:ca:61:c5:ea:08:25:44:5b:52:
         aa:02:20:5d:80:0b:6f:a6:01:a3:c3:1a:de:ee:d5:bf:df:df:
         6c:d4:85:cd:cd:8a:8f:8f:0e:46:04:9a:b5:54:7a:88:c0
-----BEGIN CERTIFICATE-----
MIIB7TCCAZOgAwIBAgIBHzAKBggqhkjOPQQDAjCBlzEXMBUGA1UEAwwOUmVnaW9u
ZSBNb2xpc2UxCzAJBgNVBAYTAklUMQ8wDQYDVQQIDAZJdGFsaWExGDAWBgNVBAoM
D0UtVm90aW5nIHN5c3RlbTEiMCAGA1UECwwZRS1Wb3Rpbmcgc3lzdGVtIGF1dGhv
cml0eTEgMB4GCSqGSIb3DQEJARYRTW9saXNlQGV2b3RpbmcuaXQwHhcNMjIwODI2
MTUyMDUyWhcNMjMwODI2MTUyMDUyWjBGMQ0wCwYDVQQDDARBbm5lMQswCQYDVQQG
EwJJVDEPMA0GA1UECAwGSXRhbGlhMRcwFQYDVQQKDA5SZWdpb25lIE1vbGlzZTBW
MBAGByqGSM49AgEGBSuBBAAKA0IABK2Ty1lTvR18pcoMeAf+BBZ33iiXB/ebllHc
smtdye6HpmIaAFzPE8PIsCW6P2fnWcCoLXOVpJzmUT5m/yS15IyjIzAhMA4GA1Ud
DwEB/wQEAwIFoDAPBgNVHRMBAf8EBTADAgEDMAoGCCqGSM49BAMCA0gAMEUCIQDF
1hadqU3pTp7EWx2MrztNCEPBJ5KxymHF6gglRFtSqgIgXYALb6YBo8Ma3u7Vv9/f
bNSFzc2Kj48ORgSatVR6iMA=
-----END CERTIFICATE-----
