Certificate:
    Data:
        Version: 3 (0x2)
        Serial Number: 25 (0x19)
        Signature Algorithm: ecdsa-with-SHA256
        Issuer: CN=Regione Liguria, C=IT, ST=Italia, O=E-Voting system, OU=E-Voting system authority/emailAddress=Liguria@evoting.it
        Validity
            Not Before: Aug 26 15:19:23 2022 GMT
            Not After : Aug 26 15:19:23 2023 GMT
        Subject: CN=Annette, C=IT, ST=Italia, O=Regione Liguria
        Subject Public Key Info:
            Public Key Algorithm: id-ecPublicKey
                Public-Key: (256 bit)
                pub:
                    04:3a:0f:1a:ef:d9:76:c7:83:9f:83:39:08:66:02:
                    ca:5e:44:30:9d:9d:6c:3c:ef:52:45:90:70:27:81:
                    03:e1:d6:53:0b:7f:7a:00:a5:ed:53:39:0c:3b:57:
                    e1:b3:5d:ff:e5:6d:3f:80:06:34:ad:de:13:d8:53:
                    d2:1f:35:a6:fa
                ASN1 OID: secp256k1
        X509v3 extensions:
            X509v3 Key Usage: critical
                Digital Signature, Key Encipherment
            X509v3 Basic Constraints: critical
                CA:FALSE, pathlen:3
    Signature Algorithm: ecdsa-with-SHA256
         30:45:02:20:35:55:80:2a:b6:87:24:0e:63:f9:a1:b2:01:c1:
         c1:4e:3e:60:df:31:55:b8:ed:73:9e:fe:3a:90:d8:12:e8:cb:
         02:21:00:ac:88:16:41:a1:0d:f1:df:51:d2:85:d4:16:be:ee:
         5e:57:65:3b:f5:92:8c:5d:f5:df:7b:2d:94:b4:ac:12:e0
-----BEGIN CERTIFICATE-----
MIIB8zCCAZmgAwIBAgIBGTAKBggqhkjOPQQDAjCBmTEYMBYGA1UEAwwPUmVnaW9u
ZSBMaWd1cmlhMQswCQYDVQQGEwJJVDEPMA0GA1UECAwGSXRhbGlhMRgwFgYDVQQK
DA9FLVZvdGluZyBzeXN0ZW0xIjAgBgNVBAsMGUUtVm90aW5nIHN5c3RlbSBhdXRo
b3JpdHkxITAfBgkqhkiG9w0BCQEWEkxpZ3VyaWFAZXZvdGluZy5pdDAeFw0yMjA4
MjYxNTE5MjNaFw0yMzA4MjYxNTE5MjNaMEoxEDAOBgNVBAMMB0FubmV0dGUxCzAJ
BgNVBAYTAklUMQ8wDQYDVQQIDAZJdGFsaWExGDAWBgNVBAoMD1JlZ2lvbmUgTGln
dXJpYTBWMBAGByqGSM49AgEGBSuBBAAKA0IABDoPGu/ZdseDn4M5CGYCyl5EMJ2d
bDzvUkWQcCeBA+HWUwt/egCl7VM5DDtX4bNd/+VtP4AGNK3eE9hT0h81pvqjIzAh
MA4GA1UdDwEB/wQEAwIFoDAPBgNVHRMBAf8EBTADAgEDMAoGCCqGSM49BAMCA0gA
MEUCIDVVgCq2hyQOY/mhsgHBwU4+YN8xVbjtc57+OpDYEujLAiEArIgWQaEN8d9R
0oXUFr7uXldlO/WSjF3133stlLSsEuA=
-----END CERTIFICATE-----
