Certificate:
    Data:
        Version: 3 (0x2)
        Serial Number: 53 (0x35)
        Signature Algorithm: ecdsa-with-SHA256
        Issuer: CN=Regione Calabria, C=IT, ST=Italia, O=E-Voting system, OU=E-Voting system authority/emailAddress=Calabria@evoting.it
        Validity
            Not Before: Aug  3 13:28:31 2022 GMT
            Not After : Aug  3 13:28:31 2023 GMT
        Subject: CN=Annette, C=IT, ST=Italia, O=Regione Calabria
        Subject Public Key Info:
            Public Key Algorithm: id-ecPublicKey
                Public-Key: (256 bit)
                pub:
                    04:7f:a9:ea:47:5f:a1:3d:13:d5:c8:fa:b2:89:99:
                    c7:82:62:e1:a8:fe:07:f5:61:6e:fd:b2:3c:62:a4:
                    ff:bf:61:df:00:f9:d5:15:a6:5f:c6:99:67:ea:13:
                    89:91:df:7e:af:64:67:63:53:a2:f5:3d:90:dc:04:
                    be:68:a1:d6:3d
                ASN1 OID: prime256v1
                NIST CURVE: P-256
        X509v3 extensions:
            X509v3 Key Usage: critical
                Digital Signature, Key Encipherment
            X509v3 Basic Constraints: critical
                CA:FALSE, pathlen:3
    Signature Algorithm: ecdsa-with-SHA256
         30:45:02:20:43:2e:d4:7b:c5:52:47:b1:06:98:bc:7c:1c:77:
         cc:94:30:58:14:85:92:fd:06:ae:4d:81:73:9c:3f:30:5e:42:
         02:21:00:f3:75:6e:28:2d:21:73:87:2c:de:2b:80:44:06:59:
         d3:0a:6b:32:36:bb:ae:70:4a:36:9d:5d:63:79:78:2a:18
-----BEGIN CERTIFICATE-----
MIIB+TCCAZ+gAwIBAgIBNTAKBggqhkjOPQQDAjCBmzEZMBcGA1UEAwwQUmVnaW9u
ZSBDYWxhYnJpYTELMAkGA1UEBhMCSVQxDzANBgNVBAgMBkl0YWxpYTEYMBYGA1UE
CgwPRS1Wb3Rpbmcgc3lzdGVtMSIwIAYDVQQLDBlFLVZvdGluZyBzeXN0ZW0gYXV0
aG9yaXR5MSIwIAYJKoZIhvcNAQkBFhNDYWxhYnJpYUBldm90aW5nLml0MB4XDTIy
MDgwMzEzMjgzMVoXDTIzMDgwMzEzMjgzMVowSzEQMA4GA1UEAwwHQW5uZXR0ZTEL
MAkGA1UEBhMCSVQxDzANBgNVBAgMBkl0YWxpYTEZMBcGA1UECgwQUmVnaW9uZSBD
YWxhYnJpYTBZMBMGByqGSM49AgEGCCqGSM49AwEHA0IABH+p6kdfoT0T1cj6somZ
x4Ji4aj+B/Vhbv2yPGKk/79h3wD51RWmX8aZZ+oTiZHffq9kZ2NTovU9kNwEvmih
1j2jIzAhMA4GA1UdDwEB/wQEAwIFoDAPBgNVHRMBAf8EBTADAgEDMAoGCCqGSM49
BAMCA0gAMEUCIEMu1HvFUkexBpi8fBx3zJQwWBSFkv0Grk2Bc5w/MF5CAiEA83Vu
KC0hc4cs3iuARAZZ0wprMja7rnBKNp1dY3l4Khg=
-----END CERTIFICATE-----
