Certificate:
    Data:
        Version: 3 (0x2)
        Serial Number: 38 (0x26)
        Signature Algorithm: ecdsa-with-SHA256
        Issuer: CN=Regione Piemonte, C=IT, ST=Italia, O=E-Voting system, OU=E-Voting system authority/emailAddress=Piemonte@evoting.it
        Validity
            Not Before: Aug 26 15:20:58 2022 GMT
            Not After : Aug 26 15:20:58 2023 GMT
        Subject: CN=Annie, C=IT, ST=Italia, O=Regione Piemonte
        Subject Public Key Info:
            Public Key Algorithm: id-ecPublicKey
                Public-Key: (256 bit)
                pub:
                    04:9d:71:d2:96:d8:27:2b:fd:61:ab:38:a2:98:fa:
                    8f:63:68:4c:e6:67:22:e9:85:f2:d4:00:52:ec:17:
                    13:9a:11:bd:d5:d5:0d:fe:4d:65:de:85:49:41:08:
                    85:ab:7d:7a:cc:91:f1:90:44:56:b2:65:5d:c7:55:
                    92:df:ee:f4:33
                ASN1 OID: secp256k1
        X509v3 extensions:
            X509v3 Key Usage: critical
                Digital Signature, Key Encipherment
            X509v3 Basic Constraints: critical
                CA:FALSE, pathlen:3
    Signature Algorithm: ecdsa-with-SHA256
         30:45:02:21:00:d5:2c:5c:15:e9:91:1b:64:7a:4a:07:89:08:
         bd:da:52:31:ac:58:ad:48:99:99:3e:f0:8b:38:d0:91:16:de:
         b7:02:20:4c:c5:6a:85:ee:8f:18:77:1f:e1:3a:19:cd:f3:46:
         f4:96:df:f7:2f:7c:c8:6f:9d:cc:f1:1f:dc:ab:44:dc:b1
-----BEGIN CERTIFICATE-----
MIIB9DCCAZqgAwIBAgIBJjAKBggqhkjOPQQDAjCBmzEZMBcGA1UEAwwQUmVnaW9u
ZSBQaWVtb250ZTELMAkGA1UEBhMCSVQxDzANBgNVBAgMBkl0YWxpYTEYMBYGA1UE
CgwPRS1Wb3Rpbmcgc3lzdGVtMSIwIAYDVQQLDBlFLVZvdGluZyBzeXN0ZW0gYXV0
aG9yaXR5MSIwIAYJKoZIhvcNAQkBFhNQaWVtb250ZUBldm90aW5nLml0MB4XDTIy
MDgyNjE1MjA1OFoXDTIzMDgyNjE1MjA1OFowSTEOMAwGA1UEAwwFQW5uaWUxCzAJ
BgNVBAYTAklUMQ8wDQYDVQQIDAZJdGFsaWExGTAXBgNVBAoMEFJlZ2lvbmUgUGll
bW9udGUwVjAQBgcqhkjOPQIBBgUrgQQACgNCAASdcdKW2Ccr/WGrOKKY+o9jaEzm
ZyLphfLUAFLsFxOaEb3V1Q3+TWXehUlBCIWrfXrMkfGQRFayZV3HVZLf7vQzoyMw
ITAOBgNVHQ8BAf8EBAMCBaAwDwYDVR0TAQH/BAUwAwIBAzAKBggqhkjOPQQDAgNI
ADBFAiEA1SxcFemRG2R6SgeJCL3aUjGsWK1ImZk+8Is40JEW3rcCIEzFaoXujxh3
H+E6Gc3zRvSW3/cvfMhvnczxH9yrRNyx
-----END CERTIFICATE-----
