Certificate:
    Data:
        Version: 3 (0x2)
        Serial Number: 30 (0x1e)
        Signature Algorithm: ecdsa-with-SHA256
        Issuer: CN=Regione Friuli_Venezia_Giulia, C=IT, ST=Italia, O=E-Voting system, OU=E-Voting system authority/emailAddress=Friuli_Venezia_Giulia@evoting.it
        Validity
            Not Before: Aug 26 15:20:55 2022 GMT
            Not After : Aug 26 15:20:55 2023 GMT
        Subject: CN=Anthony, C=IT, ST=Italia, O=Regione Friuli_Venezia_Giulia
        Subject Public Key Info:
            Public Key Algorithm: id-ecPublicKey
                Public-Key: (256 bit)
                pub:
                    04:11:ca:4e:3a:72:dd:07:6a:d5:0a:2a:41:67:e7:
                    26:e3:24:69:50:33:40:3c:50:06:9a:90:bf:21:b4:
                    17:51:24:1b:33:2d:71:20:e2:6c:ef:6f:f1:fd:13:
                    be:dc:9e:f5:d3:ce:53:ae:2c:3a:f0:0d:eb:78:2b:
                    12:ed:5d:e3:ef
                ASN1 OID: secp256k1
        X509v3 extensions:
            X509v3 Key Usage: critical
                Digital Signature, Key Encipherment
            X509v3 Basic Constraints: critical
                CA:FALSE, pathlen:3
    Signature Algorithm: ecdsa-with-SHA256
         30:45:02:20:37:bf:79:66:10:1b:5d:a5:78:87:55:5c:de:23:
         c5:aa:cb:2d:22:76:c4:70:37:12:2d:b1:d9:66:02:39:2d:7b:
         02:21:00:f9:9c:81:f8:29:be:45:a3:84:48:0a:17:d5:d5:f0:
         1f:b7:f9:db:e3:32:54:db:20:2b:65:ba:0a:60:d2:3f:c9
-----BEGIN CERTIFICATE-----
MIICHTCCAcOgAwIBAgIBHjAKBggqhkjOPQQDAjCBtTEmMCQGA1UEAwwdUmVnaW9u
ZSBGcml1bGlfVmVuZXppYV9HaXVsaWExCzAJBgNVBAYTAklUMQ8wDQYDVQQIDAZJ
dGFsaWExGDAWBgNVBAoMD0UtVm90aW5nIHN5c3RlbTEiMCAGA1UECwwZRS1Wb3Rp
bmcgc3lzdGVtIGF1dGhvcml0eTEvMC0GCSqGSIb3DQEJARYgRnJpdWxpX1ZlbmV6
aWFfR2l1bGlhQGV2b3RpbmcuaXQwHhcNMjIwODI2MTUyMDU1WhcNMjMwODI2MTUy
MDU1WjBYMRAwDgYDVQQDDAdBbnRob255MQswCQYDVQQGEwJJVDEPMA0GA1UECAwG
SXRhbGlhMSYwJAYDVQQKDB1SZWdpb25lIEZyaXVsaV9WZW5lemlhX0dpdWxpYTBW
MBAGByqGSM49AgEGBSuBBAAKA0IABBHKTjpy3Qdq1QoqQWfnJuMkaVAzQDxQBpqQ
vyG0F1EkGzMtcSDibO9v8f0Tvtye9dPOU64sOvAN63grEu1d4++jIzAhMA4GA1Ud
DwEB/wQEAwIFoDAPBgNVHRMBAf8EBTADAgEDMAoGCCqGSM49BAMCA0gAMEUCIDe/
eWYQG12leIdVXN4jxarLLSJ2xHA3Ei2x2WYCOS17AiEA+ZyB+Cm+RaOESAoX1dXw
H7f52+MyVNsgK2W6CmDSP8k=
-----END CERTIFICATE-----
