Certificate:
    Data:
        Version: 3 (0x2)
        Serial Number: 24 (0x18)
        Signature Algorithm: ecdsa-with-SHA256
        Issuer: CN=Regione Toscana, C=IT, ST=Italia, O=E-Voting system, OU=E-Voting system authority/emailAddress=Toscana@evoting.it
        Validity
            Not Before: Aug  3 13:26:50 2022 GMT
            Not After : Aug  3 13:26:50 2023 GMT
        Subject: CN=Antione, C=IT, ST=Italia, O=Regione Toscana
        Subject Public Key Info:
            Public Key Algorithm: id-ecPublicKey
                Public-Key: (256 bit)
                pub:
                    04:e2:61:e5:c8:e0:e6:bd:6a:da:51:ce:8c:91:aa:
                    44:51:2c:a3:bf:2f:e1:51:b4:c7:5c:a1:1c:da:32:
                    a9:7e:79:a6:b2:e8:ac:94:56:74:ce:25:d0:c4:13:
                    07:36:fe:6c:f8:8c:56:fe:63:58:8d:0c:5d:4d:d4:
                    c7:8f:6d:ec:13
                ASN1 OID: prime256v1
                NIST CURVE: P-256
        X509v3 extensions:
            X509v3 Key Usage: critical
                Digital Signature, Key Encipherment
            X509v3 Basic Constraints: critical
                CA:FALSE, pathlen:3
    Signature Algorithm: ecdsa-with-SHA256
         30:45:02:21:00:d6:59:8b:cf:8f:f3:b0:87:73:d1:87:07:bc:
         cd:0c:a7:b6:81:7e:2b:c2:c4:fb:3a:02:04:ac:96:7e:07:59:
         55:02:20:42:6a:59:dd:39:f0:f4:24:cd:50:5b:53:76:56:f8:
         b6:29:a0:a5:42:7b:b8:14:dd:55:6a:eb:a8:91:17:da:82
-----BEGIN CERTIFICATE-----
MIIB9jCCAZygAwIBAgIBGDAKBggqhkjOPQQDAjCBmTEYMBYGA1UEAwwPUmVnaW9u
ZSBUb3NjYW5hMQswCQYDVQQGEwJJVDEPMA0GA1UECAwGSXRhbGlhMRgwFgYDVQQK
DA9FLVZvdGluZyBzeXN0ZW0xIjAgBgNVBAsMGUUtVm90aW5nIHN5c3RlbSBhdXRo
b3JpdHkxITAfBgkqhkiG9w0BCQEWElRvc2NhbmFAZXZvdGluZy5pdDAeFw0yMjA4
MDMxMzI2NTBaFw0yMzA4MDMxMzI2NTBaMEoxEDAOBgNVBAMMB0FudGlvbmUxCzAJ
BgNVBAYTAklUMQ8wDQYDVQQIDAZJdGFsaWExGDAWBgNVBAoMD1JlZ2lvbmUgVG9z
Y2FuYTBZMBMGByqGSM49AgEGCCqGSM49AwEHA0IABOJh5cjg5r1q2lHOjJGqRFEs
o78v4VG0x1yhHNoyqX55prLorJRWdM4l0MQTBzb+bPiMVv5jWI0MXU3Ux49t7BOj
IzAhMA4GA1UdDwEB/wQEAwIFoDAPBgNVHRMBAf8EBTADAgEDMAoGCCqGSM49BAMC
A0gAMEUCIQDWWYvPj/Owh3PRhwe8zQyntoF+K8LE+zoCBKyWfgdZVQIgQmpZ3Tnw
9CTNUFtTdlb4timgpUJ7uBTdVWrrqJEX2oI=
-----END CERTIFICATE-----
