Certificate:
    Data:
        Version: 3 (0x2)
        Serial Number: 13 (0xd)
        Signature Algorithm: ecdsa-with-SHA256
        Issuer: CN=Regione Piemonte, C=IT, ST=Italia, O=E-Voting system, OU=E-Voting system authority/emailAddress=Piemonte@evoting.it
        Validity
            Not Before: Aug  3 13:26:11 2022 GMT
            Not After : Aug  3 13:26:11 2023 GMT
        Subject: CN=Antoinette, C=IT, ST=Italia, O=Regione Piemonte
        Subject Public Key Info:
            Public Key Algorithm: id-ecPublicKey
                Public-Key: (256 bit)
                pub:
                    04:ab:c2:ae:1a:1c:3a:5c:09:d8:41:ef:3a:67:cd:
                    fc:54:3c:d5:00:72:1e:e1:59:72:08:b3:7b:99:3c:
                    76:5a:84:d0:73:88:15:6f:8e:5a:ae:3c:ef:d6:ad:
                    d1:79:1d:d7:93:10:68:7b:3b:9f:df:f8:6e:a5:2d:
                    21:50:4b:9d:35
                ASN1 OID: prime256v1
                NIST CURVE: P-256
        X509v3 extensions:
            X509v3 Key Usage: critical
                Digital Signature, Key Encipherment
            X509v3 Basic Constraints: critical
                CA:FALSE, pathlen:3
    Signature Algorithm: ecdsa-with-SHA256
         30:46:02:21:00:d2:23:06:1e:11:d5:76:12:c7:45:be:a9:99:
         e2:33:33:56:84:40:23:6b:f1:11:d2:97:85:0c:9d:83:70:df:
         0f:02:21:00:9a:1a:fe:f2:e5:dd:fe:b4:a5:41:ac:1e:a0:c4:
         fb:ea:5b:ca:0e:78:1c:84:09:1e:92:c6:e6:bc:af:15:66:3d
-----BEGIN CERTIFICATE-----
MIIB/TCCAaKgAwIBAgIBDTAKBggqhkjOPQQDAjCBmzEZMBcGA1UEAwwQUmVnaW9u
ZSBQaWVtb250ZTELMAkGA1UEBhMCSVQxDzANBgNVBAgMBkl0YWxpYTEYMBYGA1UE
CgwPRS1Wb3Rpbmcgc3lzdGVtMSIwIAYDVQQLDBlFLVZvdGluZyBzeXN0ZW0gYXV0
aG9yaXR5MSIwIAYJKoZIhvcNAQkBFhNQaWVtb250ZUBldm90aW5nLml0MB4XDTIy
MDgwMzEzMjYxMVoXDTIzMDgwMzEzMjYxMVowTjETMBEGA1UEAwwKQW50b2luZXR0
ZTELMAkGA1UEBhMCSVQxDzANBgNVBAgMBkl0YWxpYTEZMBcGA1UECgwQUmVnaW9u
ZSBQaWVtb250ZTBZMBMGByqGSM49AgEGCCqGSM49AwEHA0IABKvCrhocOlwJ2EHv
OmfN/FQ81QByHuFZcgize5k8dlqE0HOIFW+OWq4879at0Xkd15MQaHs7n9/4bqUt
IVBLnTWjIzAhMA4GA1UdDwEB/wQEAwIFoDAPBgNVHRMBAf8EBTADAgEDMAoGCCqG
SM49BAMCA0kAMEYCIQDSIwYeEdV2EsdFvqmZ4jMzVoRAI2vxEdKXhQydg3DfDwIh
AJoa/vLl3f60pUGsHqDE++pbyg54HIQJHpLG5ryvFWY9
-----END CERTIFICATE-----
