Certificate:
    Data:
        Version: 3 (0x2)
        Serial Number: 32 (0x20)
        Signature Algorithm: ecdsa-with-SHA256
        Issuer: CN=Regione Abruzzo, C=IT, ST=Italia, O=E-Voting system, OU=E-Voting system authority/emailAddress=Abruzzo@evoting.it
        Validity
            Not Before: Aug 26 15:20:48 2022 GMT
            Not After : Aug 26 15:20:48 2023 GMT
        Subject: CN=Antoinette, C=IT, ST=Italia, O=Regione Abruzzo
        Subject Public Key Info:
            Public Key Algorithm: id-ecPublicKey
                Public-Key: (256 bit)
                pub:
                    04:9d:76:9b:9b:d3:57:f8:7a:51:78:4a:4b:3b:0e:
                    44:f3:da:fa:86:82:4a:ae:10:b4:1e:4f:23:d4:86:
                    4d:0d:c1:52:c3:b0:0b:b0:51:49:23:20:ae:06:18:
                    39:ec:bb:49:b1:8a:82:b5:8f:f2:3c:1f:84:14:46:
                    2b:08:6e:c4:dd
                ASN1 OID: secp256k1
        X509v3 extensions:
            X509v3 Key Usage: critical
                Digital Signature, Key Encipherment
            X509v3 Basic Constraints: critical
                CA:FALSE, pathlen:3
    Signature Algorithm: ecdsa-with-SHA256
         30:45:02:20:0b:80:12:fa:28:03:28:d2:46:b0:a3:7f:f7:c0:
         a1:99:2b:c3:59:e0:c0:e1:f8:0b:c8:b2:c5:f5:09:17:34:91:
         02:21:00:c2:26:8f:d7:f2:c6:68:64:68:97:cd:e1:03:58:ad:
         de:61:92:eb:a6:3e:92:2e:4e:3b:33:28:89:26:70:fe:5b
-----BEGIN CERTIFICATE-----
MIIB9jCCAZygAwIBAgIBIDAKBggqhkjOPQQDAjCBmTEYMBYGA1UEAwwPUmVnaW9u
ZSBBYnJ1enpvMQswCQYDVQQGEwJJVDEPMA0GA1UECAwGSXRhbGlhMRgwFgYDVQQK
DA9FLVZvdGluZyBzeXN0ZW0xIjAgBgNVBAsMGUUtVm90aW5nIHN5c3RlbSBhdXRo
b3JpdHkxITAfBgkqhkiG9w0BCQEWEkFicnV6em9AZXZvdGluZy5pdDAeFw0yMjA4
MjYxNTIwNDhaFw0yMzA4MjYxNTIwNDhaME0xEzARBgNVBAMMCkFudG9pbmV0dGUx
CzAJBgNVBAYTAklUMQ8wDQYDVQQIDAZJdGFsaWExGDAWBgNVBAoMD1JlZ2lvbmUg
QWJydXp6bzBWMBAGByqGSM49AgEGBSuBBAAKA0IABJ12m5vTV/h6UXhKSzsORPPa
+oaCSq4QtB5PI9SGTQ3BUsOwC7BRSSMgrgYYOey7SbGKgrWP8jwfhBRGKwhuxN2j
IzAhMA4GA1UdDwEB/wQEAwIFoDAPBgNVHRMBAf8EBTADAgEDMAoGCCqGSM49BAMC
A0gAMEUCIAuAEvooAyjSRrCjf/fAoZkrw1ngwOH4C8iyxfUJFzSRAiEAwiaP1/LG
aGRol83hA1it3mGS66Y+ki5OOzMoiSZw/ls=
-----END CERTIFICATE-----
