Certificate:
    Data:
        Version: 3 (0x2)
        Serial Number: 9 (0x9)
        Signature Algorithm: ecdsa-with-SHA256
        Issuer: CN=Regione Umbria, C=IT, ST=Italia, O=E-Voting system, OU=E-Voting system authority/emailAddress=Umbria@evoting.it
        Validity
            Not Before: Aug 26 15:18:49 2022 GMT
            Not After : Aug 26 15:18:49 2023 GMT
        Subject: CN=Antwan, C=IT, ST=Italia, O=Regione Umbria
        Subject Public Key Info:
            Public Key Algorithm: id-ecPublicKey
                Public-Key: (256 bit)
                pub:
                    04:ca:94:ab:b2:74:4a:94:c2:44:ac:fc:a0:cb:52:
                    a8:8b:93:e2:a6:9d:e8:07:5c:84:48:57:be:c3:f8:
                    3b:f9:e2:c1:bf:52:2c:4b:03:21:f7:08:b3:17:d7:
                    1f:e2:73:c6:ad:a7:95:bd:e8:db:ca:09:e8:f9:96:
                    9b:41:89:76:22
                ASN1 OID: secp256k1
        X509v3 extensions:
            X509v3 Key Usage: critical
                Digital Signature, Key Encipherment
            X509v3 Basic Constraints: critical
                CA:FALSE, pathlen:3
    Signature Algorithm: ecdsa-with-SHA256
         30:45:02:20:0c:59:19:8c:5a:43:68:bf:66:e9:e9:29:58:e8:
         54:36:dc:7f:ae:38:1e:51:13:42:84:a9:a6:b5:1e:25:7d:36:
         02:21:00:92:15:3d:f5:5c:37:4f:6f:ef:12:06:0a:57:41:59:
         08:5b:43:2c:cd:45:08:13:a5:ea:31:ec:44:17:0a:24:cd
-----BEGIN CERTIFICATE-----
MIIB7zCCAZWgAwIBAgIBCTAKBggqhkjOPQQDAjCBlzEXMBUGA1UEAwwOUmVnaW9u
ZSBVbWJyaWExCzAJBgNVBAYTAklUMQ8wDQYDVQQIDAZJdGFsaWExGDAWBgNVBAoM
D0UtVm90aW5nIHN5c3RlbTEiMCAGA1UECwwZRS1Wb3Rpbmcgc3lzdGVtIGF1dGhv
cml0eTEgMB4GCSqGSIb3DQEJARYRVW1icmlhQGV2b3RpbmcuaXQwHhcNMjIwODI2
MTUxODQ5WhcNMjMwODI2MTUxODQ5WjBIMQ8wDQYDVQQDDAZBbnR3YW4xCzAJBgNV
BAYTAklUMQ8wDQYDVQQIDAZJdGFsaWExFzAVBgNVBAoMDlJlZ2lvbmUgVW1icmlh
MFYwEAYHKoZIzj0CAQYFK4EEAAoDQgAEypSrsnRKlMJErPygy1Koi5Pipp3oB1yE
SFe+w/g7+eLBv1IsSwMh9wizF9cf4nPGraeVvejbygno+ZabQYl2IqMjMCEwDgYD
VR0PAQH/BAQDAgWgMA8GA1UdEwEB/wQFMAMCAQMwCgYIKoZIzj0EAwIDSAAwRQIg
DFkZjFpDaL9m6ekpWOhUNtx/rjgeURNChKmmtR4lfTYCIQCSFT31XDdPb+8SBgpX
QVkIW0MszUUIE6XqMexEFwokzQ==
-----END CERTIFICATE-----
