Certificate:
    Data:
        Version: 3 (0x2)
        Serial Number: 36 (0x24)
        Signature Algorithm: ecdsa-with-SHA256
        Issuer: CN=Regione Campania, C=IT, ST=Italia, O=E-Voting system, OU=E-Voting system authority/emailAddress=Campania@evoting.it
        Validity
            Not Before: Aug 26 15:20:46 2022 GMT
            Not After : Aug 26 15:20:46 2023 GMT
        Subject: CN=April, C=IT, ST=Italia, O=Regione Campania
        Subject Public Key Info:
            Public Key Algorithm: id-ecPublicKey
                Public-Key: (256 bit)
                pub:
                    04:e5:55:17:ca:36:e6:14:95:ba:dc:1c:f3:d4:54:
                    63:6e:3a:0f:ae:20:ed:34:04:48:e6:02:ec:be:5d:
                    f9:00:88:a4:6c:d7:12:0c:18:81:fc:fd:6e:27:6f:
                    04:7e:2c:42:76:20:b2:46:42:59:45:46:d3:24:2b:
                    f1:46:7d:78:dc
                ASN1 OID: secp256k1
        X509v3 extensions:
            X509v3 Key Usage: critical
                Digital Signature, Key Encipherment
            X509v3 Basic Constraints: critical
                CA:FALSE, pathlen:3
    Signature Algorithm: ecdsa-with-SHA256
         30:45:02:21:00:dd:03:f6:55:a7:98:36:08:cc:3e:c3:60:61:
         1b:c8:19:e6:ae:45:5a:c7:fc:a2:fb:ad:b0:e1:60:79:0e:e4:
         1f:02:20:3e:4b:ef:37:63:5b:7b:fc:6b:97:c8:d9:19:e7:83:
         2d:b5:4b:3a:35:17:74:3a:42:9a:b9:54:69:2b:31:40:87
-----BEGIN CERTIFICATE-----
MIIB9DCCAZqgAwIBAgIBJDAKBggqhkjOPQQDAjCBmzEZMBcGA1UEAwwQUmVnaW9u
ZSBDYW1wYW5pYTELMAkGA1UEBhMCSVQxDzANBgNVBAgMBkl0YWxpYTEYMBYGA1UE
CgwPRS1Wb3Rpbmcgc3lzdGVtMSIwIAYDVQQLDBlFLVZvdGluZyBzeXN0ZW0gYXV0
aG9yaXR5MSIwIAYJKoZIhvcNAQkBFhNDYW1wYW5pYUBldm90aW5nLml0MB4XDTIy
MDgyNjE1MjA0NloXDTIzMDgyNjE1MjA0NlowSTEOMAwGA1UEAwwFQXByaWwxCzAJ
BgNVBAYTAklUMQ8wDQYDVQQIDAZJdGFsaWExGTAXBgNVBAoMEFJlZ2lvbmUgQ2Ft
cGFuaWEwVjAQBgcqhkjOPQIBBgUrgQQACgNCAATlVRfKNuYUlbrcHPPUVGNuOg+u
IO00BEjmAuy+XfkAiKRs1xIMGIH8/W4nbwR+LEJ2ILJGQllFRtMkK/FGfXjcoyMw
ITAOBgNVHQ8BAf8EBAMCBaAwDwYDVR0TAQH/BAUwAwIBAzAKBggqhkjOPQQDAgNI
ADBFAiEA3QP2VaeYNgjMPsNgYRvIGeauRVrH/KL7rbDhYHkO5B8CID5L7zdjW3v8
a5fI2Rnngy21Szo1F3Q6Qpq5VGkrMUCH
-----END CERTIFICATE-----
