Certificate:
    Data:
        Version: 3 (0x2)
        Serial Number: 45 (0x2d)
        Signature Algorithm: ecdsa-with-SHA256
        Issuer: CN=Regione Campania, C=IT, ST=Italia, O=E-Voting system, OU=E-Voting system authority/emailAddress=Campania@evoting.it
        Validity
            Not Before: Aug  3 13:28:00 2022 GMT
            Not After : Aug  3 13:28:00 2023 GMT
        Subject: CN=Apryl, C=IT, ST=Italia, O=Regione Campania
        Subject Public Key Info:
            Public Key Algorithm: id-ecPublicKey
                Public-Key: (256 bit)
                pub:
                    04:2e:ed:55:ec:f1:28:54:89:56:86:91:9b:bf:21:
                    46:2b:18:bc:99:fd:28:cb:9d:7d:ba:54:74:af:f5:
                    de:b8:a1:aa:b1:55:af:49:e9:22:ef:b8:d6:96:01:
                    3b:7b:f0:1f:ac:67:9a:04:7d:d0:73:ff:c1:a2:f4:
                    ab:23:bb:3d:39
                ASN1 OID: prime256v1
                NIST CURVE: P-256
        X509v3 extensions:
            X509v3 Key Usage: critical
                Digital Signature, Key Encipherment
            X509v3 Basic Constraints: critical
                CA:FALSE, pathlen:3
    Signature Algorithm: ecdsa-with-SHA256
         30:45:02:21:00:e4:dc:74:d4:ef:04:f0:4b:65:6f:6e:04:c5:
         99:7c:73:a4:6d:ef:0e:e3:15:ce:40:25:a9:b6:37:36:e8:62:
         84:02:20:24:cf:de:ff:4b:dd:01:21:3f:5d:cc:54:73:91:ff:
         9e:41:6b:68:71:ab:04:4c:e6:79:0e:bc:ec:6d:58:2a:de
-----BEGIN CERTIFICATE-----
MIIB9zCCAZ2gAwIBAgIBLTAKBggqhkjOPQQDAjCBmzEZMBcGA1UEAwwQUmVnaW9u
ZSBDYW1wYW5pYTELMAkGA1UEBhMCSVQxDzANBgNVBAgMBkl0YWxpYTEYMBYGA1UE
CgwPRS1Wb3Rpbmcgc3lzdGVtMSIwIAYDVQQLDBlFLVZvdGluZyBzeXN0ZW0gYXV0
aG9yaXR5MSIwIAYJKoZIhvcNAQkBFhNDYW1wYW5pYUBldm90aW5nLml0MB4XDTIy
MDgwMzEzMjgwMFoXDTIzMDgwMzEzMjgwMFowSTEOMAwGA1UEAwwFQXByeWwxCzAJ
BgNVBAYTAklUMQ8wDQYDVQQIDAZJdGFsaWExGTAXBgNVBAoMEFJlZ2lvbmUgQ2Ft
cGFuaWEwWTATBgcqhkjOPQIBBggqhkjOPQMBBwNCAAQu7VXs8ShUiVaGkZu/IUYr
GLyZ/SjLnX26VHSv9d64oaqxVa9J6SLvuNaWATt78B+sZ5oEfdBz/8Gi9Ksjuz05
oyMwITAOBgNVHQ8BAf8EBAMCBaAwDwYDVR0TAQH/BAUwAwIBAzAKBggqhkjOPQQD
AgNIADBFAiEA5Nx01O8E8Etlb24ExZl8c6Rt7w7jFc5AJam2NzboYoQCICTP3v9L
3QEhP13MVHOR/55Ba2hxqwRM5nkOvOxtWCre
-----END CERTIFICATE-----
