Certificate:
    Data:
        Version: 3 (0x2)
        Serial Number: 53 (0x35)
        Signature Algorithm: ecdsa-with-SHA256
        Issuer: CN=Regione Lazio, C=IT, ST=Italia, O=E-Voting system, OU=E-Voting system authority/emailAddress=Lazio@evoting.it
        Validity
            Not Before: Aug  3 13:28:37 2022 GMT
            Not After : Aug  3 13:28:37 2023 GMT
        Subject: CN=Archie, C=IT, ST=Italia, O=Regione Lazio
        Subject Public Key Info:
            Public Key Algorithm: id-ecPublicKey
                Public-Key: (256 bit)
                pub:
                    04:4f:3a:f4:72:ed:6e:79:67:16:93:a1:d9:38:b5:
                    b0:6d:cc:c0:c5:a2:fb:ce:8d:e8:e8:b3:b3:e0:3a:
                    22:f5:7a:94:30:ae:1d:30:f0:5a:61:04:71:5a:0d:
                    21:de:14:85:b2:88:b6:b1:9e:d2:2a:13:bf:d6:fb:
                    42:2c:aa:16:ad
                ASN1 OID: prime256v1
                NIST CURVE: P-256
        X509v3 extensions:
            X509v3 Key Usage: critical
                Digital Signature, Key Encipherment
            X509v3 Basic Constraints: critical
                CA:FALSE, pathlen:3
    Signature Algorithm: ecdsa-with-SHA256
         30:44:02:21:00:f6:c6:5a:8e:98:f5:d5:9a:02:fb:60:f9:36:
         9c:e3:9f:75:03:ba:f5:e1:f1:00:5b:91:e5:21:06:5f:6f:f7:
         22:02:1f:21:15:92:2b:13:09:b3:24:2a:e3:e0:a9:90:4f:a2:
         f1:e4:15:bc:c7:db:a9:ee:39:bc:97:15:6a:a2:49:a2
-----BEGIN CERTIFICATE-----
MIIB7jCCAZWgAwIBAgIBNTAKBggqhkjOPQQDAjCBlTEWMBQGA1UEAwwNUmVnaW9u
ZSBMYXppbzELMAkGA1UEBhMCSVQxDzANBgNVBAgMBkl0YWxpYTEYMBYGA1UECgwP
RS1Wb3Rpbmcgc3lzdGVtMSIwIAYDVQQLDBlFLVZvdGluZyBzeXN0ZW0gYXV0aG9y
aXR5MR8wHQYJKoZIhvcNAQkBFhBMYXppb0Bldm90aW5nLml0MB4XDTIyMDgwMzEz
MjgzN1oXDTIzMDgwMzEzMjgzN1owRzEPMA0GA1UEAwwGQXJjaGllMQswCQYDVQQG
EwJJVDEPMA0GA1UECAwGSXRhbGlhMRYwFAYDVQQKDA1SZWdpb25lIExhemlvMFkw
EwYHKoZIzj0CAQYIKoZIzj0DAQcDQgAETzr0cu1ueWcWk6HZOLWwbczAxaL7zo3o
6LOz4Doi9XqUMK4dMPBaYQRxWg0h3hSFsoi2sZ7SKhO/1vtCLKoWraMjMCEwDgYD
VR0PAQH/BAQDAgWgMA8GA1UdEwEB/wQFMAMCAQMwCgYIKoZIzj0EAwIDRwAwRAIh
APbGWo6Y9dWaAvtg+Tac4591A7r14fEAW5HlIQZfb/ciAh8hFZIrEwmzJCrj4KmQ
T6Lx5BW8x9up7jm8lxVqokmi
-----END CERTIFICATE-----
