Certificate:
    Data:
        Version: 3 (0x2)
        Serial Number: 31 (0x1f)
        Signature Algorithm: ecdsa-with-SHA256
        Issuer: CN=Regione Lombardia, C=IT, ST=Italia, O=E-Voting system, OU=E-Voting system authority/emailAddress=Lombardia@evoting.it
        Validity
            Not Before: Aug 26 15:20:37 2022 GMT
            Not After : Aug 26 15:20:37 2023 GMT
        Subject: CN=Archie, C=IT, ST=Italia, O=Regione Lombardia
        Subject Public Key Info:
            Public Key Algorithm: id-ecPublicKey
                Public-Key: (256 bit)
                pub:
                    04:7b:8c:5f:e5:c0:fd:b6:65:f1:df:28:f8:06:39:
                    52:17:30:ee:e2:95:68:a8:45:b5:77:fb:d6:f7:8c:
                    43:1f:5b:5d:01:df:c5:b6:0b:01:ab:56:46:71:87:
                    17:5f:bd:c6:05:9b:95:46:e9:74:35:63:3a:48:11:
                    c6:79:f1:53:4a
                ASN1 OID: secp256k1
        X509v3 extensions:
            X509v3 Key Usage: critical
                Digital Signature, Key Encipherment
            X509v3 Basic Constraints: critical
                CA:FALSE, pathlen:3
    Signature Algorithm: ecdsa-with-SHA256
         30:45:02:20:13:5b:55:5a:9f:f9:ac:9d:fd:d1:38:20:f7:c4:
         e5:76:c3:2c:25:62:1e:36:2d:c6:db:34:91:ed:f5:bc:3b:0e:
         02:21:00:cb:9d:2e:5c:31:67:d8:49:62:ec:22:ab:b9:db:0d:
         84:09:76:e3:04:07:79:f8:8f:9b:0a:bd:ba:be:6b:22:73
-----BEGIN CERTIFICATE-----
MIIB+DCCAZ6gAwIBAgIBHzAKBggqhkjOPQQDAjCBnTEaMBgGA1UEAwwRUmVnaW9u
ZSBMb21iYXJkaWExCzAJBgNVBAYTAklUMQ8wDQYDVQQIDAZJdGFsaWExGDAWBgNV
BAoMD0UtVm90aW5nIHN5c3RlbTEiMCAGA1UECwwZRS1Wb3Rpbmcgc3lzdGVtIGF1
dGhvcml0eTEjMCEGCSqGSIb3DQEJARYUTG9tYmFyZGlhQGV2b3RpbmcuaXQwHhcN
MjIwODI2MTUyMDM3WhcNMjMwODI2MTUyMDM3WjBLMQ8wDQYDVQQDDAZBcmNoaWUx
CzAJBgNVBAYTAklUMQ8wDQYDVQQIDAZJdGFsaWExGjAYBgNVBAoMEVJlZ2lvbmUg
TG9tYmFyZGlhMFYwEAYHKoZIzj0CAQYFK4EEAAoDQgAEe4xf5cD9tmXx3yj4BjlS
FzDu4pVoqEW1d/vW94xDH1tdAd/FtgsBq1ZGcYcXX73GBZuVRul0NWM6SBHGefFT
SqMjMCEwDgYDVR0PAQH/BAQDAgWgMA8GA1UdEwEB/wQFMAMCAQMwCgYIKoZIzj0E
AwIDSAAwRQIgE1tVWp/5rJ390Tgg98TldsMsJWIeNi3G2zSR7fW8Ow4CIQDLnS5c
MWfYSWLsIqu52w2ECXbjBAd5+I+bCr26vmsicw==
-----END CERTIFICATE-----
