Certificate:
    Data:
        Version: 3 (0x2)
        Serial Number: 31 (0x1f)
        Signature Algorithm: ecdsa-with-SHA256
        Issuer: CN=Regione Toscana, C=IT, ST=Italia, O=E-Voting system, OU=E-Voting system authority/emailAddress=Toscana@evoting.it
        Validity
            Not Before: Aug 26 15:20:44 2022 GMT
            Not After : Aug 26 15:20:44 2023 GMT
        Subject: CN=Ardith, C=IT, ST=Italia, O=Regione Toscana
        Subject Public Key Info:
            Public Key Algorithm: id-ecPublicKey
                Public-Key: (256 bit)
                pub:
                    04:9d:43:62:06:4d:67:68:fa:e2:58:1c:21:25:c9:
                    8d:5f:3f:1d:2d:cd:e2:11:9c:17:98:b7:13:72:2b:
                    67:7d:d6:3b:76:b7:b9:ca:23:ab:bb:1c:ac:c2:92:
                    9d:84:f5:a7:cd:0f:a4:e3:45:24:79:5d:85:0d:f2:
                    47:b7:7f:d8:64
                ASN1 OID: secp256k1
        X509v3 extensions:
            X509v3 Key Usage: critical
                Digital Signature, Key Encipherment
            X509v3 Basic Constraints: critical
                CA:FALSE, pathlen:3
    Signature Algorithm: ecdsa-with-SHA256
         30:45:02:20:54:8d:e5:dc:96:22:8b:e0:23:82:33:7e:f0:dc:
         0d:a4:30:64:8f:d3:f3:aa:d3:f4:6b:a4:98:3c:11:63:93:3c:
         02:21:00:90:a3:8f:83:45:a2:d3:f6:49:ae:b1:9d:30:ef:04:
         cc:af:05:eb:6f:7d:66:1f:d2:a7:b0:17:f8:23:ec:5d:b0
-----BEGIN CERTIFICATE-----
MIIB8jCCAZigAwIBAgIBHzAKBggqhkjOPQQDAjCBmTEYMBYGA1UEAwwPUmVnaW9u
ZSBUb3NjYW5hMQswCQYDVQQGEwJJVDEPMA0GA1UECAwGSXRhbGlhMRgwFgYDVQQK
DA9FLVZvdGluZyBzeXN0ZW0xIjAgBgNVBAsMGUUtVm90aW5nIHN5c3RlbSBhdXRo
b3JpdHkxITAfBgkqhkiG9w0BCQEWElRvc2NhbmFAZXZvdGluZy5pdDAeFw0yMjA4
MjYxNTIwNDRaFw0yMzA4MjYxNTIwNDRaMEkxDzANBgNVBAMMBkFyZGl0aDELMAkG
A1UEBhMCSVQxDzANBgNVBAgMBkl0YWxpYTEYMBYGA1UECgwPUmVnaW9uZSBUb3Nj
YW5hMFYwEAYHKoZIzj0CAQYFK4EEAAoDQgAEnUNiBk1naPriWBwhJcmNXz8dLc3i
EZwXmLcTcitnfdY7dre5yiOruxyswpKdhPWnzQ+k40UkeV2FDfJHt3/YZKMjMCEw
DgYDVR0PAQH/BAQDAgWgMA8GA1UdEwEB/wQFMAMCAQMwCgYIKoZIzj0EAwIDSAAw
RQIgVI3l3JYii+AjgjN+8NwNpDBkj9PzqtP0a6SYPBFjkzwCIQCQo4+DRaLT9kmu
sZ0w7wTMrwXrb31mH9KnsBf4I+xdsA==
-----END CERTIFICATE-----
