Certificate:
    Data:
        Version: 3 (0x2)
        Serial Number: 44 (0x2c)
        Signature Algorithm: ecdsa-with-SHA256
        Issuer: CN=Regione Trentino_Alto_Adige, C=IT, ST=Italia, O=E-Voting system, OU=E-Voting system authority/emailAddress=Trentino_Alto_Adige@evoting.it
        Validity
            Not Before: Aug  3 13:28:37 2022 GMT
            Not After : Aug  3 13:28:37 2023 GMT
        Subject: CN=Arletha, C=IT, ST=Italia, O=Regione Trentino_Alto_Adige
        Subject Public Key Info:
            Public Key Algorithm: id-ecPublicKey
                Public-Key: (256 bit)
                pub:
                    04:e3:86:94:d9:16:da:ec:8f:bc:1f:48:52:3c:fc:
                    02:1f:4d:38:c7:03:5a:f8:f7:03:ae:8b:9a:63:42:
                    8e:14:94:75:da:ee:64:2b:13:02:a0:65:42:10:d2:
                    83:ba:67:17:ec:7a:98:70:6f:e5:c6:b1:5f:30:ff:
                    2f:07:c0:4e:e7
                ASN1 OID: prime256v1
                NIST CURVE: P-256
        X509v3 extensions:
            X509v3 Key Usage: critical
                Digital Signature, Key Encipherment
            X509v3 Basic Constraints: critical
                CA:FALSE, pathlen:3
    Signature Algorithm: ecdsa-with-SHA256
         30:46:02:21:00:a0:84:4c:44:92:c1:49:0e:10:91:4a:1a:8f:
         1b:26:22:9b:f8:c4:c7:16:2f:2b:d9:b2:01:e8:45:64:d7:ec:
         2b:02:21:00:dc:be:88:f0:8f:18:b3:de:52:d8:90:9b:16:36:
         ae:7f:53:d1:b7:9e:bc:7b:da:b9:89:eb:47:db:26:ed:a2:3d
-----BEGIN CERTIFICATE-----
MIICGzCCAcCgAwIBAgIBLDAKBggqhkjOPQQDAjCBsTEkMCIGA1UEAwwbUmVnaW9u
ZSBUcmVudGlub19BbHRvX0FkaWdlMQswCQYDVQQGEwJJVDEPMA0GA1UECAwGSXRh
bGlhMRgwFgYDVQQKDA9FLVZvdGluZyBzeXN0ZW0xIjAgBgNVBAsMGUUtVm90aW5n
IHN5c3RlbSBhdXRob3JpdHkxLTArBgkqhkiG9w0BCQEWHlRyZW50aW5vX0FsdG9f
QWRpZ2VAZXZvdGluZy5pdDAeFw0yMjA4MDMxMzI4MzdaFw0yMzA4MDMxMzI4Mzda
MFYxEDAOBgNVBAMMB0FybGV0aGExCzAJBgNVBAYTAklUMQ8wDQYDVQQIDAZJdGFs
aWExJDAiBgNVBAoMG1JlZ2lvbmUgVHJlbnRpbm9fQWx0b19BZGlnZTBZMBMGByqG
SM49AgEGCCqGSM49AwEHA0IABOOGlNkW2uyPvB9IUjz8Ah9NOMcDWvj3A66LmmNC
jhSUddruZCsTAqBlQhDSg7pnF+x6mHBv5caxXzD/LwfATuejIzAhMA4GA1UdDwEB
/wQEAwIFoDAPBgNVHRMBAf8EBTADAgEDMAoGCCqGSM49BAMCA0kAMEYCIQCghExE
ksFJDhCRShqPGyYim/jExxYvK9myAehFZNfsKwIhANy+iPCPGLPeUtiQmxY2rn9T
0beevHvauYnrR9sm7aI9
-----END CERTIFICATE-----
