Certificate:
    Data:
        Version: 3 (0x2)
        Serial Number: 40 (0x28)
        Signature Algorithm: ecdsa-with-SHA256
        Issuer: CN=Regione Basilicata, C=IT, ST=Italia, O=E-Voting system, OU=E-Voting system authority/emailAddress=Basilicata@evoting.it
        Validity
            Not Before: Aug 26 15:21:35 2022 GMT
            Not After : Aug 26 15:21:35 2023 GMT
        Subject: CN=Arlyne, C=IT, ST=Italia, O=Regione Basilicata
        Subject Public Key Info:
            Public Key Algorithm: id-ecPublicKey
                Public-Key: (256 bit)
                pub:
                    04:34:77:ca:13:5b:65:c3:62:68:a9:4b:bc:39:aa:
                    b3:19:f0:d9:3c:d8:53:aa:17:e5:64:a6:98:a8:a2:
                    87:c1:b0:a8:68:fb:a6:82:0a:07:f0:7c:87:be:69:
                    b5:48:39:b0:63:8a:2c:36:db:09:67:ba:c8:fc:95:
                    91:41:5e:7b:c3
                ASN1 OID: secp256k1
        X509v3 extensions:
            X509v3 Key Usage: critical
                Digital Signature, Key Encipherment
            X509v3 Basic Constraints: critical
                CA:FALSE, pathlen:3
    Signature Algorithm: ecdsa-with-SHA256
         30:45:02:21:00:85:2b:ba:b6:05:7b:04:88:81:ea:9d:eb:4d:
         60:45:61:a6:2a:37:26:fc:5d:2f:20:6f:0a:9d:86:3b:8b:8a:
         7d:02:20:50:7c:57:4e:d7:90:cd:67:2b:ea:a2:89:66:8a:d7:
         f7:22:67:5e:bb:dd:7f:31:82:c8:69:50:b0:49:35:24:33
-----BEGIN CERTIFICATE-----
MIIB+zCCAaGgAwIBAgIBKDAKBggqhkjOPQQDAjCBnzEbMBkGA1UEAwwSUmVnaW9u
ZSBCYXNpbGljYXRhMQswCQYDVQQGEwJJVDEPMA0GA1UECAwGSXRhbGlhMRgwFgYD
VQQKDA9FLVZvdGluZyBzeXN0ZW0xIjAgBgNVBAsMGUUtVm90aW5nIHN5c3RlbSBh
dXRob3JpdHkxJDAiBgkqhkiG9w0BCQEWFUJhc2lsaWNhdGFAZXZvdGluZy5pdDAe
Fw0yMjA4MjYxNTIxMzVaFw0yMzA4MjYxNTIxMzVaMEwxDzANBgNVBAMMBkFybHlu
ZTELMAkGA1UEBhMCSVQxDzANBgNVBAgMBkl0YWxpYTEbMBkGA1UECgwSUmVnaW9u
ZSBCYXNpbGljYXRhMFYwEAYHKoZIzj0CAQYFK4EEAAoDQgAENHfKE1tlw2JoqUu8
OaqzGfDZPNhTqhflZKaYqKKHwbCoaPumggoH8HyHvmm1SDmwY4osNtsJZ7rI/JWR
QV57w6MjMCEwDgYDVR0PAQH/BAQDAgWgMA8GA1UdEwEB/wQFMAMCAQMwCgYIKoZI
zj0EAwIDSAAwRQIhAIUrurYFewSIgeqd601gRWGmKjcm/F0vIG8KnYY7i4p9AiBQ
fFdO15DNZyvqoolmitf3Imdeu91/MYLIaVCwSTUkMw==
-----END CERTIFICATE-----
