Certificate:
    Data:
        Version: 3 (0x2)
        Serial Number: 8 (0x8)
        Signature Algorithm: ecdsa-with-SHA256
        Issuer: CN=Regione Campania, C=IT, ST=Italia, O=E-Voting system, OU=E-Voting system authority/emailAddress=Campania@evoting.it
        Validity
            Not Before: Aug  3 13:25:53 2022 GMT
            Not After : Aug  3 13:25:53 2023 GMT
        Subject: CN=Armando, C=IT, ST=Italia, O=Regione Campania
        Subject Public Key Info:
            Public Key Algorithm: id-ecPublicKey
                Public-Key: (256 bit)
                pub:
                    04:32:2d:cd:a3:cc:e7:a6:a6:f9:d2:89:cc:7f:23:
                    7c:2f:e4:46:81:0f:10:74:4f:3f:5a:fd:52:c0:89:
                    dc:df:f8:aa:7d:4f:99:d6:cc:c1:70:44:22:a0:b6:
                    65:72:05:36:96:d9:9c:0b:0b:d7:02:c8:86:af:a6:
                    b5:62:3d:99:98
                ASN1 OID: prime256v1
                NIST CURVE: P-256
        X509v3 extensions:
            X509v3 Key Usage: critical
                Digital Signature, Key Encipherment
            X509v3 Basic Constraints: critical
                CA:FALSE, pathlen:3
    Signature Algorithm: ecdsa-with-SHA256
         30:46:02:21:00:bd:81:95:cf:85:74:da:be:99:c7:4d:3b:ea:
         20:28:f5:f8:89:16:53:5b:48:5a:1b:9d:3c:ed:8d:e1:f9:54:
         54:02:21:00:f4:70:72:5f:26:a8:16:79:40:da:83:13:57:48:
         be:ea:d2:6a:f9:a1:c2:96:9e:cc:68:67:52:be:32:3c:70:86
-----BEGIN CERTIFICATE-----
MIIB+jCCAZ+gAwIBAgIBCDAKBggqhkjOPQQDAjCBmzEZMBcGA1UEAwwQUmVnaW9u
ZSBDYW1wYW5pYTELMAkGA1UEBhMCSVQxDzANBgNVBAgMBkl0YWxpYTEYMBYGA1UE
CgwPRS1Wb3Rpbmcgc3lzdGVtMSIwIAYDVQQLDBlFLVZvdGluZyBzeXN0ZW0gYXV0
aG9yaXR5MSIwIAYJKoZIhvcNAQkBFhNDYW1wYW5pYUBldm90aW5nLml0MB4XDTIy
MDgwMzEzMjU1M1oXDTIzMDgwMzEzMjU1M1owSzEQMA4GA1UEAwwHQXJtYW5kbzEL
MAkGA1UEBhMCSVQxDzANBgNVBAgMBkl0YWxpYTEZMBcGA1UECgwQUmVnaW9uZSBD
YW1wYW5pYTBZMBMGByqGSM49AgEGCCqGSM49AwEHA0IABDItzaPM56am+dKJzH8j
fC/kRoEPEHRPP1r9UsCJ3N/4qn1PmdbMwXBEIqC2ZXIFNpbZnAsL1wLIhq+mtWI9
mZijIzAhMA4GA1UdDwEB/wQEAwIFoDAPBgNVHRMBAf8EBTADAgEDMAoGCCqGSM49
BAMCA0kAMEYCIQC9gZXPhXTavpnHTTvqICj1+IkWU1tIWhudPO2N4flUVAIhAPRw
cl8mqBZ5QNqDE1dIvurSavmhwpaezGhnUr4yPHCG
-----END CERTIFICATE-----
