Certificate:
    Data:
        Version: 3 (0x2)
        Serial Number: 9 (0x9)
        Signature Algorithm: ecdsa-with-SHA256
        Issuer: CN=Regione Sicilia, C=IT, ST=Italia, O=E-Voting system, OU=E-Voting system authority/emailAddress=Sicilia@evoting.it
        Validity
            Not Before: Aug 26 15:18:48 2022 GMT
            Not After : Aug 26 15:18:48 2023 GMT
        Subject: CN=Armando, C=IT, ST=Italia, O=Regione Sicilia
        Subject Public Key Info:
            Public Key Algorithm: id-ecPublicKey
                Public-Key: (256 bit)
                pub:
                    04:c3:4b:e3:f0:e0:a4:e2:ef:60:c8:33:d2:30:e5:
                    ba:68:38:d9:39:03:12:4c:3f:90:f4:89:43:6c:5c:
                    15:4a:86:d7:47:45:b0:d4:0e:6a:a6:d9:83:78:42:
                    72:a1:a2:16:4c:ae:df:72:88:e5:85:10:5b:fd:d2:
                    c7:75:0a:96:9f
                ASN1 OID: secp256k1
        X509v3 extensions:
            X509v3 Key Usage: critical
                Digital Signature, Key Encipherment
            X509v3 Basic Constraints: critical
                CA:FALSE, pathlen:3
    Signature Algorithm: ecdsa-with-SHA256
         30:46:02:21:00:d9:1c:3b:ee:8d:a0:a4:cf:8d:7d:e5:b0:60:
         e6:6f:28:59:40:91:d5:a8:0d:f4:0f:2b:b4:fd:55:d5:b5:5d:
         e0:02:21:00:86:ef:ec:6d:f8:c1:c3:6e:74:a3:b2:1a:a7:7e:
         2c:c8:72:f3:f3:de:ed:0c:56:8a:bd:bd:1d:fd:69:7b:c4:5a
-----BEGIN CERTIFICATE-----
MIIB9DCCAZmgAwIBAgIBCTAKBggqhkjOPQQDAjCBmTEYMBYGA1UEAwwPUmVnaW9u
ZSBTaWNpbGlhMQswCQYDVQQGEwJJVDEPMA0GA1UECAwGSXRhbGlhMRgwFgYDVQQK
DA9FLVZvdGluZyBzeXN0ZW0xIjAgBgNVBAsMGUUtVm90aW5nIHN5c3RlbSBhdXRo
b3JpdHkxITAfBgkqhkiG9w0BCQEWElNpY2lsaWFAZXZvdGluZy5pdDAeFw0yMjA4
MjYxNTE4NDhaFw0yMzA4MjYxNTE4NDhaMEoxEDAOBgNVBAMMB0FybWFuZG8xCzAJ
BgNVBAYTAklUMQ8wDQYDVQQIDAZJdGFsaWExGDAWBgNVBAoMD1JlZ2lvbmUgU2lj
aWxpYTBWMBAGByqGSM49AgEGBSuBBAAKA0IABMNL4/DgpOLvYMgz0jDlumg42TkD
Ekw/kPSJQ2xcFUqG10dFsNQOaqbZg3hCcqGiFkyu33KI5YUQW/3Sx3UKlp+jIzAh
MA4GA1UdDwEB/wQEAwIFoDAPBgNVHRMBAf8EBTADAgEDMAoGCCqGSM49BAMCA0kA
MEYCIQDZHDvujaCkz4195bBg5m8oWUCR1agN9A8rtP1V1bVd4AIhAIbv7G34wcNu
dKOyGqd+LMhy8/Pe7QxWir29Hf1pe8Ra
-----END CERTIFICATE-----
