Certificate:
    Data:
        Version: 3 (0x2)
        Serial Number: 8 (0x8)
        Signature Algorithm: ecdsa-with-SHA256
        Issuer: CN=Regione Marche, C=IT, ST=Italia, O=E-Voting system, OU=E-Voting system authority/emailAddress=Marche@evoting.it
        Validity
            Not Before: Aug 26 15:19:09 2022 GMT
            Not After : Aug 26 15:19:09 2023 GMT
        Subject: CN=Aron, C=IT, ST=Italia, O=Regione Marche
        Subject Public Key Info:
            Public Key Algorithm: id-ecPublicKey
                Public-Key: (256 bit)
                pub:
                    04:d3:90:91:37:6d:21:cd:f1:32:0b:ff:30:a6:15:
                    40:a2:bd:22:2b:d5:07:6b:f9:b8:bc:47:ed:73:23:
                    80:d6:77:97:27:c3:70:69:d3:4e:af:25:4e:33:49:
                    2a:96:e4:8f:43:fe:e9:0a:76:6d:50:3f:c5:3a:bf:
                    62:23:d3:4d:d3
                ASN1 OID: secp256k1
        X509v3 extensions:
            X509v3 Key Usage: critical
                Digital Signature, Key Encipherment
            X509v3 Basic Constraints: critical
                CA:FALSE, pathlen:3
    Signature Algorithm: ecdsa-with-SHA256
         30:45:02:20:65:85:ba:b7:d8:c9:1a:d9:7f:dd:04:56:9d:c5:
         b8:65:5f:2d:54:f3:9b:7b:44:29:1e:b7:97:97:1c:45:72:9a:
         02:21:00:9e:1a:e6:e1:0f:ec:98:84:c6:90:48:88:f2:a4:07:
         33:f6:99:c2:c2:14:71:3b:40:40:f9:e4:e8:4e:24:f5:e9
-----BEGIN CERTIFICATE-----
MIIB7TCCAZOgAwIBAgIBCDAKBggqhkjOPQQDAjCBlzEXMBUGA1UEAwwOUmVnaW9u
ZSBNYXJjaGUxCzAJBgNVBAYTAklUMQ8wDQYDVQQIDAZJdGFsaWExGDAWBgNVBAoM
D0UtVm90aW5nIHN5c3RlbTEiMCAGA1UECwwZRS1Wb3Rpbmcgc3lzdGVtIGF1dGhv
cml0eTEgMB4GCSqGSIb3DQEJARYRTWFyY2hlQGV2b3RpbmcuaXQwHhcNMjIwODI2
MTUxOTA5WhcNMjMwODI2MTUxOTA5WjBGMQ0wCwYDVQQDDARBcm9uMQswCQYDVQQG
EwJJVDEPMA0GA1UECAwGSXRhbGlhMRcwFQYDVQQKDA5SZWdpb25lIE1hcmNoZTBW
MBAGByqGSM49AgEGBSuBBAAKA0IABNOQkTdtIc3xMgv/MKYVQKK9IivVB2v5uLxH
7XMjgNZ3lyfDcGnTTq8lTjNJKpbkj0P+6Qp2bVA/xTq/YiPTTdOjIzAhMA4GA1Ud
DwEB/wQEAwIFoDAPBgNVHRMBAf8EBTADAgEDMAoGCCqGSM49BAMCA0gAMEUCIGWF
urfYyRrZf90EVp3FuGVfLVTzm3tEKR63l5ccRXKaAiEAnhrm4Q/smITGkEiI8qQH
M/aZwsIUcTtAQPnk6E4k9ek=
-----END CERTIFICATE-----
