Certificate:
    Data:
        Version: 3 (0x2)
        Serial Number: 1 (0x1)
        Signature Algorithm: ecdsa-with-SHA256
        Issuer: CN=Regione Valle_d_Aosta, C=IT, ST=Italia, O=E-Voting system, OU=E-Voting system authority/emailAddress=Valle_d_Aosta@evoting.it
        Validity
            Not Before: Aug 26 15:18:33 2022 GMT
            Not After : Aug 26 15:18:33 2023 GMT
        Subject: CN=Arthur, C=IT, ST=Italia, O=Regione Valle_d_Aosta
        Subject Public Key Info:
            Public Key Algorithm: id-ecPublicKey
                Public-Key: (256 bit)
                pub:
                    04:27:9c:3e:10:95:78:26:bd:46:bd:5c:9f:91:f1:
                    5e:ab:df:c5:de:c9:64:7c:f0:8b:b9:2c:05:fa:e7:
                    0a:3a:48:06:7a:0f:f3:e6:b9:06:a3:dc:7d:1d:da:
                    dd:93:7e:9f:62:ea:25:10:02:fe:ce:fb:78:23:99:
                    40:e5:7e:eb:65
                ASN1 OID: secp256k1
        X509v3 extensions:
            X509v3 Key Usage: critical
                Digital Signature, Key Encipherment
            X509v3 Basic Constraints: critical
                CA:FALSE, pathlen:3
    Signature Algorithm: ecdsa-with-SHA256
         30:45:02:21:00:c7:27:a7:f7:0c:b0:39:28:b7:e3:c2:b0:9f:
         ec:b9:31:29:79:fd:2e:b5:51:0d:24:b5:43:64:68:7a:c4:37:
         8b:02:20:3b:e8:3d:cf:4c:15:63:2c:dc:78:95:0d:00:bf:18:
         aa:ca:04:ac:e9:00:83:1c:55:b2:b6:0d:6d:71:6e:01:7c
-----BEGIN CERTIFICATE-----
MIICBDCCAaqgAwIBAgIBATAKBggqhkjOPQQDAjCBpTEeMBwGA1UEAwwVUmVnaW9u
ZSBWYWxsZV9kX0Fvc3RhMQswCQYDVQQGEwJJVDEPMA0GA1UECAwGSXRhbGlhMRgw
FgYDVQQKDA9FLVZvdGluZyBzeXN0ZW0xIjAgBgNVBAsMGUUtVm90aW5nIHN5c3Rl
bSBhdXRob3JpdHkxJzAlBgkqhkiG9w0BCQEWGFZhbGxlX2RfQW9zdGFAZXZvdGlu
Zy5pdDAeFw0yMjA4MjYxNTE4MzNaFw0yMzA4MjYxNTE4MzNaME8xDzANBgNVBAMM
BkFydGh1cjELMAkGA1UEBhMCSVQxDzANBgNVBAgMBkl0YWxpYTEeMBwGA1UECgwV
UmVnaW9uZSBWYWxsZV9kX0Fvc3RhMFYwEAYHKoZIzj0CAQYFK4EEAAoDQgAEJ5w+
EJV4Jr1GvVyfkfFeq9/F3slkfPCLuSwF+ucKOkgGeg/z5rkGo9x9Hdrdk36fYuol
EAL+zvt4I5lA5X7rZaMjMCEwDgYDVR0PAQH/BAQDAgWgMA8GA1UdEwEB/wQFMAMC
AQMwCgYIKoZIzj0EAwIDSAAwRQIhAMcnp/cMsDkot+PCsJ/suTEpef0utVENJLVD
ZGh6xDeLAiA76D3PTBVjLNx4lQ0AvxiqygSs6QCDHFWytg1tcW4BfA==
-----END CERTIFICATE-----
