Certificate:
    Data:
        Version: 3 (0x2)
        Serial Number: 44 (0x2c)
        Signature Algorithm: ecdsa-with-SHA256
        Issuer: CN=Regione Valle_d_Aosta, C=IT, ST=Italia, O=E-Voting system, OU=E-Voting system authority/emailAddress=Valle_d_Aosta@evoting.it
        Validity
            Not Before: Aug 26 15:21:14 2022 GMT
            Not After : Aug 26 15:21:14 2023 GMT
        Subject: CN=Arturo, C=IT, ST=Italia, O=Regione Valle_d_Aosta
        Subject Public Key Info:
            Public Key Algorithm: id-ecPublicKey
                Public-Key: (256 bit)
                pub:
                    04:ff:b5:56:51:de:0e:75:66:40:16:40:13:09:aa:
                    37:e2:ac:dd:d8:ec:88:a6:06:2d:4a:be:8b:58:95:
                    84:fd:8e:d7:64:92:6a:df:1f:a4:c0:73:8b:02:02:
                    4e:c2:8b:cd:74:da:33:06:36:01:10:36:25:83:9c:
                    71:b5:de:63:25
                ASN1 OID: secp256k1
        X509v3 extensions:
            X509v3 Key Usage: critical
                Digital Signature, Key Encipherment
            X509v3 Basic Constraints: critical
                CA:FALSE, pathlen:3
    Signature Algorithm: ecdsa-with-SHA256
         30:45:02:20:43:fd:5d:47:1c:2f:9d:9f:20:55:bb:f7:02:6e:
         00:f2:99:fb:01:b0:c5:a3:bc:ea:78:5b:88:c9:43:6c:cf:f6:
         02:21:00:b3:cf:17:1b:64:47:a2:32:0a:eb:43:ca:5a:04:0a:
         06:bd:11:22:27:91:b9:04:ac:47:3e:39:cc:52:47:9f:94
-----BEGIN CERTIFICATE-----
MIICBDCCAaqgAwIBAgIBLDAKBggqhkjOPQQDAjCBpTEeMBwGA1UEAwwVUmVnaW9u
ZSBWYWxsZV9kX0Fvc3RhMQswCQYDVQQGEwJJVDEPMA0GA1UECAwGSXRhbGlhMRgw
FgYDVQQKDA9FLVZvdGluZyBzeXN0ZW0xIjAgBgNVBAsMGUUtVm90aW5nIHN5c3Rl
bSBhdXRob3JpdHkxJzAlBgkqhkiG9w0BCQEWGFZhbGxlX2RfQW9zdGFAZXZvdGlu
Zy5pdDAeFw0yMjA4MjYxNTIxMTRaFw0yMzA4MjYxNTIxMTRaME8xDzANBgNVBAMM
BkFydHVybzELMAkGA1UEBhMCSVQxDzANBgNVBAgMBkl0YWxpYTEeMBwGA1UECgwV
UmVnaW9uZSBWYWxsZV9kX0Fvc3RhMFYwEAYHKoZIzj0CAQYFK4EEAAoDQgAE/7VW
Ud4OdWZAFkATCao34qzd2OyIpgYtSr6LWJWE/Y7XZJJq3x+kwHOLAgJOwovNdNoz
BjYBEDYlg5xxtd5jJaMjMCEwDgYDVR0PAQH/BAQDAgWgMA8GA1UdEwEB/wQFMAMC
AQMwCgYIKoZIzj0EAwIDSAAwRQIgQ/1dRxwvnZ8gVbv3Am4A8pn7AbDFo7zqeFuI
yUNsz/YCIQCzzxcbZEeiMgrrQ8paBAoGvREiJ5G5BKxHPjnMUkeflA==
-----END CERTIFICATE-----
