Certificate:
    Data:
        Version: 3 (0x2)
        Serial Number: 20 (0x14)
        Signature Algorithm: ecdsa-with-SHA256
        Issuer: CN=Regione Lombardia, C=IT, ST=Italia, O=E-Voting system, OU=E-Voting system authority/emailAddress=Lombardia@evoting.it
        Validity
            Not Before: Aug  3 13:26:50 2022 GMT
            Not After : Aug  3 13:26:50 2023 GMT
        Subject: CN=Ashlee, C=IT, ST=Italia, O=Regione Lombardia
        Subject Public Key Info:
            Public Key Algorithm: id-ecPublicKey
                Public-Key: (256 bit)
                pub:
                    04:ac:a6:4f:65:4b:70:3c:fb:d1:46:05:7c:36:9c:
                    22:c2:19:1f:e2:31:f8:cd:14:22:3e:f8:a3:e5:ba:
                    45:37:56:a4:17:bc:f9:c4:b5:77:29:54:56:a0:b5:
                    ae:78:e1:87:27:67:bd:95:c3:25:c0:74:9e:1b:1a:
                    19:59:3e:6a:14
                ASN1 OID: prime256v1
                NIST CURVE: P-256
        X509v3 extensions:
            X509v3 Key Usage: critical
                Digital Signature, Key Encipherment
            X509v3 Basic Constraints: critical
                CA:FALSE, pathlen:3
    Signature Algorithm: ecdsa-with-SHA256
         30:45:02:20:50:e7:7a:cd:e6:b3:e1:f3:6a:23:45:8c:ad:c3:
         29:4f:58:66:9c:aa:63:3e:7b:0f:8e:4d:cc:19:35:af:b6:5a:
         02:21:00:ca:04:f4:1e:50:62:b5:78:2a:a1:c9:97:4d:9f:dc:
         26:58:51:10:40:d8:2c:3a:dd:49:ba:23:f1:7c:4a:d8:c4
-----BEGIN CERTIFICATE-----
MIIB+zCCAaGgAwIBAgIBFDAKBggqhkjOPQQDAjCBnTEaMBgGA1UEAwwRUmVnaW9u
ZSBMb21iYXJkaWExCzAJBgNVBAYTAklUMQ8wDQYDVQQIDAZJdGFsaWExGDAWBgNV
BAoMD0UtVm90aW5nIHN5c3RlbTEiMCAGA1UECwwZRS1Wb3Rpbmcgc3lzdGVtIGF1
dGhvcml0eTEjMCEGCSqGSIb3DQEJARYUTG9tYmFyZGlhQGV2b3RpbmcuaXQwHhcN
MjIwODAzMTMyNjUwWhcNMjMwODAzMTMyNjUwWjBLMQ8wDQYDVQQDDAZBc2hsZWUx
CzAJBgNVBAYTAklUMQ8wDQYDVQQIDAZJdGFsaWExGjAYBgNVBAoMEVJlZ2lvbmUg
TG9tYmFyZGlhMFkwEwYHKoZIzj0CAQYIKoZIzj0DAQcDQgAErKZPZUtwPPvRRgV8
Npwiwhkf4jH4zRQiPvij5bpFN1akF7z5xLV3KVRWoLWueOGHJ2e9lcMlwHSeGxoZ
WT5qFKMjMCEwDgYDVR0PAQH/BAQDAgWgMA8GA1UdEwEB/wQFMAMCAQMwCgYIKoZI
zj0EAwIDSAAwRQIgUOd6zeaz4fNqI0WMrcMpT1hmnKpjPnsPjk3MGTWvtloCIQDK
BPQeUGK1eCqhyZdNn9wmWFEQQNgsOt1JuiPxfErYxA==
-----END CERTIFICATE-----
