Certificate:
    Data:
        Version: 3 (0x2)
        Serial Number: 10 (0xa)
        Signature Algorithm: ecdsa-with-SHA256
        Issuer: CN=Regione Umbria, C=IT, ST=Italia, O=E-Voting system, OU=E-Voting system authority/emailAddress=Umbria@evoting.it
        Validity
            Not Before: Aug 26 15:18:50 2022 GMT
            Not After : Aug 26 15:18:50 2023 GMT
        Subject: CN=Ashley, C=IT, ST=Italia, O=Regione Umbria
        Subject Public Key Info:
            Public Key Algorithm: id-ecPublicKey
                Public-Key: (256 bit)
                pub:
                    04:4c:77:a9:93:c0:e9:a7:37:61:36:6d:44:dc:42:
                    a4:15:53:1a:9f:50:93:73:8a:f4:8f:ae:83:68:95:
                    60:68:23:63:81:60:f9:d7:06:b7:e4:7c:d6:cb:b6:
                    0c:b9:85:d8:95:e0:a4:b5:b0:88:e2:47:b7:f1:fb:
                    77:5f:e6:00:83
                ASN1 OID: secp256k1
        X509v3 extensions:
            X509v3 Key Usage: critical
                Digital Signature, Key Encipherment
            X509v3 Basic Constraints: critical
                CA:FALSE, pathlen:3
    Signature Algorithm: ecdsa-with-SHA256
         30:45:02:20:1e:4d:49:24:2a:a5:d1:48:7e:72:f7:a0:07:dd:
         4e:53:d3:18:0b:fe:b4:26:49:7f:ce:b7:4d:84:7d:a6:1a:a4:
         02:21:00:89:0c:cd:bb:90:48:5e:2d:ff:3e:8a:cc:bb:1e:99:
         2b:3d:eb:18:16:d2:3e:fc:ed:05:ba:78:19:32:87:7d:af
-----BEGIN CERTIFICATE-----
MIIB7zCCAZWgAwIBAgIBCjAKBggqhkjOPQQDAjCBlzEXMBUGA1UEAwwOUmVnaW9u
ZSBVbWJyaWExCzAJBgNVBAYTAklUMQ8wDQYDVQQIDAZJdGFsaWExGDAWBgNVBAoM
D0UtVm90aW5nIHN5c3RlbTEiMCAGA1UECwwZRS1Wb3Rpbmcgc3lzdGVtIGF1dGhv
cml0eTEgMB4GCSqGSIb3DQEJARYRVW1icmlhQGV2b3RpbmcuaXQwHhcNMjIwODI2
MTUxODUwWhcNMjMwODI2MTUxODUwWjBIMQ8wDQYDVQQDDAZBc2hsZXkxCzAJBgNV
BAYTAklUMQ8wDQYDVQQIDAZJdGFsaWExFzAVBgNVBAoMDlJlZ2lvbmUgVW1icmlh
MFYwEAYHKoZIzj0CAQYFK4EEAAoDQgAETHepk8DppzdhNm1E3EKkFVMan1CTc4r0
j66DaJVgaCNjgWD51wa35HzWy7YMuYXYleCktbCI4ke38ft3X+YAg6MjMCEwDgYD
VR0PAQH/BAQDAgWgMA8GA1UdEwEB/wQFMAMCAQMwCgYIKoZIzj0EAwIDSAAwRQIg
Hk1JJCql0Uh+cvegB91OU9MYC/60Jkl/zrdNhH2mGqQCIQCJDM27kEheLf8+isy7
HpkrPesYFtI+/O0FungZMod9rw==
-----END CERTIFICATE-----
