Certificate:
    Data:
        Version: 3 (0x2)
        Serial Number: 9 (0x9)
        Signature Algorithm: ecdsa-with-SHA256
        Issuer: CN=Regione Friuli_Venezia_Giulia, C=IT, ST=Italia, O=E-Voting system, OU=E-Voting system authority/emailAddress=Friuli_Venezia_Giulia@evoting.it
        Validity
            Not Before: Aug 26 15:18:57 2022 GMT
            Not After : Aug 26 15:18:57 2023 GMT
        Subject: CN=Asia, C=IT, ST=Italia, O=Regione Friuli_Venezia_Giulia
        Subject Public Key Info:
            Public Key Algorithm: id-ecPublicKey
                Public-Key: (256 bit)
                pub:
                    04:cc:e4:8c:e9:87:6e:0a:60:53:d8:73:dc:2c:37:
                    7b:6f:18:50:34:d4:3a:c3:03:3c:85:2b:48:ad:f1:
                    fe:20:82:d7:36:db:58:c9:4f:7b:41:45:b4:8e:a8:
                    9e:a2:0f:53:e4:d6:5f:19:71:02:cc:62:8d:3a:c6:
                    7b:cd:f2:9e:71
                ASN1 OID: secp256k1
        X509v3 extensions:
            X509v3 Key Usage: critical
                Digital Signature, Key Encipherment
            X509v3 Basic Constraints: critical
                CA:FALSE, pathlen:3
    Signature Algorithm: ecdsa-with-SHA256
         30:46:02:21:00:c6:45:69:cb:2a:9d:c4:20:dc:31:5f:08:39:
         53:42:b5:64:d0:54:b2:8b:7a:15:10:85:4e:8d:6b:c4:e9:96:
         5d:02:21:00:ba:9e:b4:d1:c7:a3:0c:d7:65:bf:3e:f9:38:28:
         9b:d4:fe:d8:7f:77:1c:34:4a:b2:47:35:75:38:7f:3f:f7:ae
-----BEGIN CERTIFICATE-----
MIICGzCCAcCgAwIBAgIBCTAKBggqhkjOPQQDAjCBtTEmMCQGA1UEAwwdUmVnaW9u
ZSBGcml1bGlfVmVuZXppYV9HaXVsaWExCzAJBgNVBAYTAklUMQ8wDQYDVQQIDAZJ
dGFsaWExGDAWBgNVBAoMD0UtVm90aW5nIHN5c3RlbTEiMCAGA1UECwwZRS1Wb3Rp
bmcgc3lzdGVtIGF1dGhvcml0eTEvMC0GCSqGSIb3DQEJARYgRnJpdWxpX1ZlbmV6
aWFfR2l1bGlhQGV2b3RpbmcuaXQwHhcNMjIwODI2MTUxODU3WhcNMjMwODI2MTUx
ODU3WjBVMQ0wCwYDVQQDDARBc2lhMQswCQYDVQQGEwJJVDEPMA0GA1UECAwGSXRh
bGlhMSYwJAYDVQQKDB1SZWdpb25lIEZyaXVsaV9WZW5lemlhX0dpdWxpYTBWMBAG
ByqGSM49AgEGBSuBBAAKA0IABMzkjOmHbgpgU9hz3Cw3e28YUDTUOsMDPIUrSK3x
/iCC1zbbWMlPe0FFtI6onqIPU+TWXxlxAsxijTrGe83ynnGjIzAhMA4GA1UdDwEB
/wQEAwIFoDAPBgNVHRMBAf8EBTADAgEDMAoGCCqGSM49BAMCA0kAMEYCIQDGRWnL
Kp3EINwxXwg5U0K1ZNBUsot6FRCFTo1rxOmWXQIhALqetNHHowzXZb8++Tgom9T+
2H93HDRKskc1dTh/P/eu
-----END CERTIFICATE-----
