Certificate:
    Data:
        Version: 3 (0x2)
        Serial Number: 5 (0x5)
        Signature Algorithm: ecdsa-with-SHA256
        Issuer: CN=Regione Veneto, C=IT, ST=Italia, O=E-Voting system, OU=E-Voting system authority/emailAddress=Veneto@evoting.it
        Validity
            Not Before: Aug  3 13:25:51 2022 GMT
            Not After : Aug  3 13:25:51 2023 GMT
        Subject: CN=Augustine, C=IT, ST=Italia, O=Regione Veneto
        Subject Public Key Info:
            Public Key Algorithm: id-ecPublicKey
                Public-Key: (256 bit)
                pub:
                    04:e1:f2:66:b5:f8:4e:9f:f5:31:4e:10:be:d5:0c:
                    f4:22:52:62:21:b1:5e:a2:86:dc:0c:dd:3c:a7:b8:
                    60:61:4f:79:3e:f2:b6:41:b2:14:d2:4d:b2:a4:6d:
                    76:5c:17:37:08:0c:99:d2:13:e2:f2:7f:66:be:e7:
                    bf:1e:71:c8:f0
                ASN1 OID: prime256v1
                NIST CURVE: P-256
        X509v3 extensions:
            X509v3 Key Usage: critical
                Digital Signature, Key Encipherment
            X509v3 Basic Constraints: critical
                CA:FALSE, pathlen:3
    Signature Algorithm: ecdsa-with-SHA256
         30:45:02:21:00:ec:90:2b:37:a7:66:6d:70:5a:e5:30:32:06:
         c4:af:34:c1:d1:a8:1f:ed:77:46:cb:43:d1:55:34:6b:03:80:
         50:02:20:1d:2c:01:4d:c0:91:4b:1d:ca:6c:86:68:1f:f5:3c:
         1b:4f:ad:65:08:df:a5:83:a1:20:4a:3a:1a:e9:f2:0e:3d
-----BEGIN CERTIFICATE-----
MIIB9TCCAZugAwIBAgIBBTAKBggqhkjOPQQDAjCBlzEXMBUGA1UEAwwOUmVnaW9u
ZSBWZW5ldG8xCzAJBgNVBAYTAklUMQ8wDQYDVQQIDAZJdGFsaWExGDAWBgNVBAoM
D0UtVm90aW5nIHN5c3RlbTEiMCAGA1UECwwZRS1Wb3Rpbmcgc3lzdGVtIGF1dGhv
cml0eTEgMB4GCSqGSIb3DQEJARYRVmVuZXRvQGV2b3RpbmcuaXQwHhcNMjIwODAz
MTMyNTUxWhcNMjMwODAzMTMyNTUxWjBLMRIwEAYDVQQDDAlBdWd1c3RpbmUxCzAJ
BgNVBAYTAklUMQ8wDQYDVQQIDAZJdGFsaWExFzAVBgNVBAoMDlJlZ2lvbmUgVmVu
ZXRvMFkwEwYHKoZIzj0CAQYIKoZIzj0DAQcDQgAE4fJmtfhOn/UxThC+1Qz0IlJi
IbFeoobcDN08p7hgYU95PvK2QbIU0k2ypG12XBc3CAyZ0hPi8n9mvue/HnHI8KMj
MCEwDgYDVR0PAQH/BAQDAgWgMA8GA1UdEwEB/wQFMAMCAQMwCgYIKoZIzj0EAwID
SAAwRQIhAOyQKzenZm1wWuUwMgbErzTB0agf7XdGy0PRVTRrA4BQAiAdLAFNwJFL
Hcpshmgf9TwbT61lCN+lg6EgSjoa6fIOPQ==
-----END CERTIFICATE-----
