Certificate:
    Data:
        Version: 3 (0x2)
        Serial Number: 7 (0x7)
        Signature Algorithm: ecdsa-with-SHA256
        Issuer: CN=Regione Lombardia, C=IT, ST=Italia, O=E-Voting system, OU=E-Voting system authority/emailAddress=Lombardia@evoting.it
        Validity
            Not Before: Aug 26 15:19:19 2022 GMT
            Not After : Aug 26 15:19:19 2023 GMT
        Subject: CN=Barbara, C=IT, ST=Italia, O=Regione Lombardia
        Subject Public Key Info:
            Public Key Algorithm: id-ecPublicKey
                Public-Key: (256 bit)
                pub:
                    04:86:55:1f:52:7a:3a:ee:f0:9c:1c:34:2a:53:ed:
                    83:e0:27:0e:7c:e4:cc:d2:8f:82:f9:65:5e:6f:34:
                    27:54:36:7e:32:d4:8f:75:8c:4b:e0:84:49:74:36:
                    1a:1e:e0:3b:b3:3b:46:0f:ca:82:f6:7d:6c:4c:5a:
                    ef:d5:5c:a2:4b
                ASN1 OID: secp256k1
        X509v3 extensions:
            X509v3 Key Usage: critical
                Digital Signature, Key Encipherment
            X509v3 Basic Constraints: critical
                CA:FALSE, pathlen:3
    Signature Algorithm: ecdsa-with-SHA256
         30:45:02:21:00:a6:9d:10:64:4b:ef:6d:ea:90:2e:0e:23:e3:
         d6:b7:39:5d:23:34:1e:8b:cf:e5:67:6d:cc:68:e7:1a:f7:aa:
         c0:02:20:5e:5a:93:9c:87:f3:95:9e:80:a9:48:f1:88:67:0a:
         86:a2:f1:3f:7e:d5:ec:19:9b:c6:3d:60:b8:81:57:7b:20
-----BEGIN CERTIFICATE-----
MIIB+TCCAZ+gAwIBAgIBBzAKBggqhkjOPQQDAjCBnTEaMBgGA1UEAwwRUmVnaW9u
ZSBMb21iYXJkaWExCzAJBgNVBAYTAklUMQ8wDQYDVQQIDAZJdGFsaWExGDAWBgNV
BAoMD0UtVm90aW5nIHN5c3RlbTEiMCAGA1UECwwZRS1Wb3Rpbmcgc3lzdGVtIGF1
dGhvcml0eTEjMCEGCSqGSIb3DQEJARYUTG9tYmFyZGlhQGV2b3RpbmcuaXQwHhcN
MjIwODI2MTUxOTE5WhcNMjMwODI2MTUxOTE5WjBMMRAwDgYDVQQDDAdCYXJiYXJh
MQswCQYDVQQGEwJJVDEPMA0GA1UECAwGSXRhbGlhMRowGAYDVQQKDBFSZWdpb25l
IExvbWJhcmRpYTBWMBAGByqGSM49AgEGBSuBBAAKA0IABIZVH1J6Ou7wnBw0KlPt
g+AnDnzkzNKPgvllXm80J1Q2fjLUj3WMS+CESXQ2Gh7gO7M7Rg/KgvZ9bExa79Vc
okujIzAhMA4GA1UdDwEB/wQEAwIFoDAPBgNVHRMBAf8EBTADAgEDMAoGCCqGSM49
BAMCA0gAMEUCIQCmnRBkS+9t6pAuDiPj1rc5XSM0HovP5WdtzGjnGveqwAIgXlqT
nIfzlZ6AqUjxiGcKhqLxP37V7Bmbxj1guIFXeyA=
-----END CERTIFICATE-----
