Certificate:
    Data:
        Version: 3 (0x2)
        Serial Number: 22 (0x16)
        Signature Algorithm: ecdsa-with-SHA256
        Issuer: CN=Regione Umbria, C=IT, ST=Italia, O=E-Voting system, OU=E-Voting system authority/emailAddress=Umbria@evoting.it
        Validity
            Not Before: Aug 26 15:19:55 2022 GMT
            Not After : Aug 26 15:19:55 2023 GMT
        Subject: CN=Beatrice, C=IT, ST=Italia, O=Regione Umbria
        Subject Public Key Info:
            Public Key Algorithm: id-ecPublicKey
                Public-Key: (256 bit)
                pub:
                    04:5c:e7:a7:ed:33:ef:b3:27:e6:ce:47:1c:b7:a4:
                    15:1c:35:fd:96:69:11:f7:cb:03:06:b0:35:37:2b:
                    cf:87:f4:d1:0c:33:fb:8f:09:6a:23:1a:1f:d2:b8:
                    6b:12:bf:27:1d:ca:39:c3:d2:18:f3:91:68:cb:62:
                    04:6c:7b:e7:66
                ASN1 OID: secp256k1
        X509v3 extensions:
            X509v3 Key Usage: critical
                Digital Signature, Key Encipherment
            X509v3 Basic Constraints: critical
                CA:FALSE, pathlen:3
    Signature Algorithm: ecdsa-with-SHA256
         30:46:02:21:00:8e:30:7a:ec:5f:5a:9f:e4:73:da:a5:1e:71:
         fc:ee:d9:01:c2:b0:53:61:2d:3a:ac:c3:02:48:1f:ca:d0:15:
         24:02:21:00:f8:d0:09:4d:79:33:bb:6c:69:b2:9c:88:28:49:
         1c:dd:27:04:84:a7:e0:d0:db:ef:4e:13:87:e8:77:04:dc:26
-----BEGIN CERTIFICATE-----
MIIB8jCCAZegAwIBAgIBFjAKBggqhkjOPQQDAjCBlzEXMBUGA1UEAwwOUmVnaW9u
ZSBVbWJyaWExCzAJBgNVBAYTAklUMQ8wDQYDVQQIDAZJdGFsaWExGDAWBgNVBAoM
D0UtVm90aW5nIHN5c3RlbTEiMCAGA1UECwwZRS1Wb3Rpbmcgc3lzdGVtIGF1dGhv
cml0eTEgMB4GCSqGSIb3DQEJARYRVW1icmlhQGV2b3RpbmcuaXQwHhcNMjIwODI2
MTUxOTU1WhcNMjMwODI2MTUxOTU1WjBKMREwDwYDVQQDDAhCZWF0cmljZTELMAkG
A1UEBhMCSVQxDzANBgNVBAgMBkl0YWxpYTEXMBUGA1UECgwOUmVnaW9uZSBVbWJy
aWEwVjAQBgcqhkjOPQIBBgUrgQQACgNCAARc56ftM++zJ+bORxy3pBUcNf2WaRH3
ywMGsDU3K8+H9NEMM/uPCWojGh/SuGsSvycdyjnD0hjzkWjLYgRse+dmoyMwITAO
BgNVHQ8BAf8EBAMCBaAwDwYDVR0TAQH/BAUwAwIBAzAKBggqhkjOPQQDAgNJADBG
AiEAjjB67F9an+Rz2qUecfzu2QHCsFNhLTqswwJIH8rQFSQCIQD40AlNeTO7bGmy
nIgoSRzdJwSEp+DQ2+9OE4fodwTcJg==
-----END CERTIFICATE-----
