Certificate:
    Data:
        Version: 3 (0x2)
        Serial Number: 7 (0x7)
        Signature Algorithm: ecdsa-with-SHA256
        Issuer: CN=Regione Puglia, C=IT, ST=Italia, O=E-Voting system, OU=E-Voting system authority/emailAddress=Puglia@evoting.it
        Validity
            Not Before: Aug  3 13:26:10 2022 GMT
            Not After : Aug  3 13:26:10 2023 GMT
        Subject: CN=Becky, C=IT, ST=Italia, O=Regione Puglia
        Subject Public Key Info:
            Public Key Algorithm: id-ecPublicKey
                Public-Key: (256 bit)
                pub:
                    04:73:39:5e:1c:25:68:94:90:58:d1:e7:27:dc:b5:
                    73:a6:14:f2:80:b3:ee:8b:d6:da:6f:29:aa:df:17:
                    53:62:7c:5d:a6:3a:d0:ba:b3:a0:1d:03:77:c3:09:
                    3f:fc:cd:5f:93:4f:78:2b:c7:e2:92:8a:73:7b:f1:
                    e3:13:19:7a:52
                ASN1 OID: prime256v1
                NIST CURVE: P-256
        X509v3 extensions:
            X509v3 Key Usage: critical
                Digital Signature, Key Encipherment
            X509v3 Basic Constraints: critical
                CA:FALSE, pathlen:3
    Signature Algorithm: ecdsa-with-SHA256
         30:45:02:20:7f:49:f8:5e:a1:e8:ce:58:7b:a5:99:35:c2:c7:
         2b:c6:ec:70:2f:5d:74:37:a6:c0:4d:99:11:7a:a5:84:44:9f:
         02:21:00:bb:eb:10:1b:a6:00:0d:36:50:96:6c:cf:fb:b8:1e:
         65:9e:95:e1:6e:29:31:8a:3c:f9:32:4f:05:ca:72:d2:00
-----BEGIN CERTIFICATE-----
MIIB8TCCAZegAwIBAgIBBzAKBggqhkjOPQQDAjCBlzEXMBUGA1UEAwwOUmVnaW9u
ZSBQdWdsaWExCzAJBgNVBAYTAklUMQ8wDQYDVQQIDAZJdGFsaWExGDAWBgNVBAoM
D0UtVm90aW5nIHN5c3RlbTEiMCAGA1UECwwZRS1Wb3Rpbmcgc3lzdGVtIGF1dGhv
cml0eTEgMB4GCSqGSIb3DQEJARYRUHVnbGlhQGV2b3RpbmcuaXQwHhcNMjIwODAz
MTMyNjEwWhcNMjMwODAzMTMyNjEwWjBHMQ4wDAYDVQQDDAVCZWNreTELMAkGA1UE
BhMCSVQxDzANBgNVBAgMBkl0YWxpYTEXMBUGA1UECgwOUmVnaW9uZSBQdWdsaWEw
WTATBgcqhkjOPQIBBggqhkjOPQMBBwNCAARzOV4cJWiUkFjR5yfctXOmFPKAs+6L
1tpvKarfF1NifF2mOtC6s6AdA3fDCT/8zV+TT3grx+KSinN78eMTGXpSoyMwITAO
BgNVHQ8BAf8EBAMCBaAwDwYDVR0TAQH/BAUwAwIBAzAKBggqhkjOPQQDAgNIADBF
AiB/SfheoejOWHulmTXCxyvG7HAvXXQ3psBNmRF6pYREnwIhALvrEBumAA02UJZs
z/u4HmWeleFuKTGKPPkyTwXKctIA
-----END CERTIFICATE-----
