Certificate:
    Data:
        Version: 3 (0x2)
        Serial Number: 13 (0xd)
        Signature Algorithm: ecdsa-with-SHA256
        Issuer: CN=Regione Emilia_Romagna, C=IT, ST=Italia, O=E-Voting system, OU=E-Voting system authority/emailAddress=Emilia_Romagna@evoting.it
        Validity
            Not Before: Aug  3 13:26:23 2022 GMT
            Not After : Aug  3 13:26:23 2023 GMT
        Subject: CN=Belen, C=IT, ST=Italia, O=Regione Emilia_Romagna
        Subject Public Key Info:
            Public Key Algorithm: id-ecPublicKey
                Public-Key: (256 bit)
                pub:
                    04:c4:30:d2:e4:b5:b3:55:72:33:7e:d9:b0:1f:af:
                    d8:46:90:d7:71:50:05:76:ff:05:d6:cd:b3:54:d3:
                    80:96:b7:c8:e6:27:f3:0e:74:74:b2:38:5f:16:d8:
                    6c:56:4c:4e:34:37:7c:f6:16:2a:14:e8:d8:34:66:
                    27:ac:d4:f9:24
                ASN1 OID: prime256v1
                NIST CURVE: P-256
        X509v3 extensions:
            X509v3 Key Usage: critical
                Digital Signature, Key Encipherment
            X509v3 Basic Constraints: critical
                CA:FALSE, pathlen:3
    Signature Algorithm: ecdsa-with-SHA256
         30:44:02:20:52:7f:af:4a:3c:54:8c:a1:17:ba:e0:18:30:5e:
         c1:2b:91:0c:4a:fd:d1:29:ee:26:44:65:ec:c0:5d:73:54:32:
         02:20:54:a2:e9:b1:cc:08:0e:17:ad:c2:05:85:11:b3:cd:a2:
         fc:49:a6:8d:09:29:fb:69:e6:4d:fe:e8:e3:cc:36:27
-----BEGIN CERTIFICATE-----
MIICCDCCAa+gAwIBAgIBDTAKBggqhkjOPQQDAjCBpzEfMB0GA1UEAwwWUmVnaW9u
ZSBFbWlsaWFfUm9tYWduYTELMAkGA1UEBhMCSVQxDzANBgNVBAgMBkl0YWxpYTEY
MBYGA1UECgwPRS1Wb3Rpbmcgc3lzdGVtMSIwIAYDVQQLDBlFLVZvdGluZyBzeXN0
ZW0gYXV0aG9yaXR5MSgwJgYJKoZIhvcNAQkBFhlFbWlsaWFfUm9tYWduYUBldm90
aW5nLml0MB4XDTIyMDgwMzEzMjYyM1oXDTIzMDgwMzEzMjYyM1owTzEOMAwGA1UE
AwwFQmVsZW4xCzAJBgNVBAYTAklUMQ8wDQYDVQQIDAZJdGFsaWExHzAdBgNVBAoM
FlJlZ2lvbmUgRW1pbGlhX1JvbWFnbmEwWTATBgcqhkjOPQIBBggqhkjOPQMBBwNC
AATEMNLktbNVcjN+2bAfr9hGkNdxUAV2/wXWzbNU04CWt8jmJ/MOdHSyOF8W2GxW
TE40N3z2FioU6Ng0Zies1PkkoyMwITAOBgNVHQ8BAf8EBAMCBaAwDwYDVR0TAQH/
BAUwAwIBAzAKBggqhkjOPQQDAgNHADBEAiBSf69KPFSMoRe64BgwXsErkQxK/dEp
7iZEZezAXXNUMgIgVKLpscwIDhetwgWFEbPNovxJpo0JKftp5k3+6OPMNic=
-----END CERTIFICATE-----
