Certificate:
    Data:
        Version: 3 (0x2)
        Serial Number: 21 (0x15)
        Signature Algorithm: ecdsa-with-SHA256
        Issuer: CN=Regione Liguria, C=IT, ST=Italia, O=E-Voting system, OU=E-Voting system authority/emailAddress=Liguria@evoting.it
        Validity
            Not Before: Aug 26 15:19:13 2022 GMT
            Not After : Aug 26 15:19:13 2023 GMT
        Subject: CN=Belinda, C=IT, ST=Italia, O=Regione Liguria
        Subject Public Key Info:
            Public Key Algorithm: id-ecPublicKey
                Public-Key: (256 bit)
                pub:
                    04:2b:7f:a8:05:98:2d:d2:2a:a5:c6:90:cc:ac:ac:
                    68:8b:b3:98:ee:24:89:cb:1a:c3:86:61:e9:63:85:
                    a7:3d:d6:58:1e:8a:95:44:6f:26:42:13:d8:da:7b:
                    df:41:3a:af:ff:9a:47:fe:aa:e4:a5:82:b2:37:52:
                    34:83:f4:81:78
                ASN1 OID: secp256k1
        X509v3 extensions:
            X509v3 Key Usage: critical
                Digital Signature, Key Encipherment
            X509v3 Basic Constraints: critical
                CA:FALSE, pathlen:3
    Signature Algorithm: ecdsa-with-SHA256
         30:45:02:20:28:d0:5f:93:0e:c9:47:ed:2f:da:3e:97:2f:dc:
         4a:0f:f8:e2:76:aa:3d:01:aa:eb:90:bf:e2:3f:ee:a4:15:af:
         02:21:00:d9:c8:91:bf:5b:66:8b:4b:2d:11:63:11:b1:30:d2:
         39:40:87:01:09:71:eb:4b:81:35:6d:db:9f:8a:09:a1:b1
-----BEGIN CERTIFICATE-----
MIIB8zCCAZmgAwIBAgIBFTAKBggqhkjOPQQDAjCBmTEYMBYGA1UEAwwPUmVnaW9u
ZSBMaWd1cmlhMQswCQYDVQQGEwJJVDEPMA0GA1UECAwGSXRhbGlhMRgwFgYDVQQK
DA9FLVZvdGluZyBzeXN0ZW0xIjAgBgNVBAsMGUUtVm90aW5nIHN5c3RlbSBhdXRo
b3JpdHkxITAfBgkqhkiG9w0BCQEWEkxpZ3VyaWFAZXZvdGluZy5pdDAeFw0yMjA4
MjYxNTE5MTNaFw0yMzA4MjYxNTE5MTNaMEoxEDAOBgNVBAMMB0JlbGluZGExCzAJ
BgNVBAYTAklUMQ8wDQYDVQQIDAZJdGFsaWExGDAWBgNVBAoMD1JlZ2lvbmUgTGln
dXJpYTBWMBAGByqGSM49AgEGBSuBBAAKA0IABCt/qAWYLdIqpcaQzKysaIuzmO4k
icsaw4Zh6WOFpz3WWB6KlURvJkIT2Np730E6r/+aR/6q5KWCsjdSNIP0gXijIzAh
MA4GA1UdDwEB/wQEAwIFoDAPBgNVHRMBAf8EBTADAgEDMAoGCCqGSM49BAMCA0gA
MEUCICjQX5MOyUftL9o+ly/cSg/44naqPQGq65C/4j/upBWvAiEA2ciRv1tmi0st
EWMRsTDSOUCHAQlx60uBNW3bn4oJobE=
-----END CERTIFICATE-----
