Certificate:
    Data:
        Version: 3 (0x2)
        Serial Number: 38 (0x26)
        Signature Algorithm: ecdsa-with-SHA256
        Issuer: CN=Regione Trentino_Alto_Adige, C=IT, ST=Italia, O=E-Voting system, OU=E-Voting system authority/emailAddress=Trentino_Alto_Adige@evoting.it
        Validity
            Not Before: Aug  3 13:28:10 2022 GMT
            Not After : Aug  3 13:28:10 2023 GMT
        Subject: CN=Belle, C=IT, ST=Italia, O=Regione Trentino_Alto_Adige
        Subject Public Key Info:
            Public Key Algorithm: id-ecPublicKey
                Public-Key: (256 bit)
                pub:
                    04:73:b3:85:64:bf:46:a3:d5:0f:47:c7:8e:70:40:
                    f9:4b:2b:5f:7e:0e:e6:2a:fe:e2:02:09:48:ad:03:
                    58:ba:ec:dd:9f:81:92:db:a5:e1:0f:30:7d:c1:06:
                    fa:95:80:9b:4a:0e:7b:0e:8d:d1:26:8a:c1:a6:7f:
                    a0:74:1c:9c:aa
                ASN1 OID: prime256v1
                NIST CURVE: P-256
        X509v3 extensions:
            X509v3 Key Usage: critical
                Digital Signature, Key Encipherment
            X509v3 Basic Constraints: critical
                CA:FALSE, pathlen:3
    Signature Algorithm: ecdsa-with-SHA256
         30:45:02:20:1d:a3:a0:aa:33:50:ca:87:05:37:c7:de:de:d8:
         f5:11:24:61:bf:5d:e6:c1:85:8f:e3:60:eb:cc:02:22:c4:0c:
         02:21:00:a6:d7:60:ba:6a:e5:b3:7d:82:a5:98:b5:50:05:c7:
         8f:43:59:8a:5f:f1:ce:13:8e:dd:65:f1:6c:90:31:c8:32
-----BEGIN CERTIFICATE-----
MIICGDCCAb6gAwIBAgIBJjAKBggqhkjOPQQDAjCBsTEkMCIGA1UEAwwbUmVnaW9u
ZSBUcmVudGlub19BbHRvX0FkaWdlMQswCQYDVQQGEwJJVDEPMA0GA1UECAwGSXRh
bGlhMRgwFgYDVQQKDA9FLVZvdGluZyBzeXN0ZW0xIjAgBgNVBAsMGUUtVm90aW5n
IHN5c3RlbSBhdXRob3JpdHkxLTArBgkqhkiG9w0BCQEWHlRyZW50aW5vX0FsdG9f
QWRpZ2VAZXZvdGluZy5pdDAeFw0yMjA4MDMxMzI4MTBaFw0yMzA4MDMxMzI4MTBa
MFQxDjAMBgNVBAMMBUJlbGxlMQswCQYDVQQGEwJJVDEPMA0GA1UECAwGSXRhbGlh
MSQwIgYDVQQKDBtSZWdpb25lIFRyZW50aW5vX0FsdG9fQWRpZ2UwWTATBgcqhkjO
PQIBBggqhkjOPQMBBwNCAARzs4Vkv0aj1Q9Hx45wQPlLK19+DuYq/uICCUitA1i6
7N2fgZLbpeEPMH3BBvqVgJtKDnsOjdEmisGmf6B0HJyqoyMwITAOBgNVHQ8BAf8E
BAMCBaAwDwYDVR0TAQH/BAUwAwIBAzAKBggqhkjOPQQDAgNIADBFAiAdo6CqM1DK
hwU3x97e2PURJGG/XebBhY/jYOvMAiLEDAIhAKbXYLpq5bN9gqWYtVAFx49DWYpf
8c4Tjt1l8WyQMcgy
-----END CERTIFICATE-----
