Certificate:
    Data:
        Version: 3 (0x2)
        Serial Number: 56 (0x38)
        Signature Algorithm: ecdsa-with-SHA256
        Issuer: CN=Regione Calabria, C=IT, ST=Italia, O=E-Voting system, OU=E-Voting system authority/emailAddress=Calabria@evoting.it
        Validity
            Not Before: Aug  3 13:28:44 2022 GMT
            Not After : Aug  3 13:28:44 2023 GMT
        Subject: CN=Benjamin, C=IT, ST=Italia, O=Regione Calabria
        Subject Public Key Info:
            Public Key Algorithm: id-ecPublicKey
                Public-Key: (256 bit)
                pub:
                    04:cd:a2:37:3f:37:fe:da:7e:8f:4f:d2:7b:ff:f4:
                    bb:96:fc:06:2b:eb:26:76:4b:31:21:e6:14:c0:ff:
                    fc:b0:33:cc:49:2e:47:20:a9:e7:f1:2b:e5:de:fb:
                    98:7d:c5:d9:ba:30:32:84:72:7d:c1:e5:4f:02:b3:
                    67:fe:f1:0d:45
                ASN1 OID: prime256v1
                NIST CURVE: P-256
        X509v3 extensions:
            X509v3 Key Usage: critical
                Digital Signature, Key Encipherment
            X509v3 Basic Constraints: critical
                CA:FALSE, pathlen:3
    Signature Algorithm: ecdsa-with-SHA256
         30:46:02:21:00:fc:6d:55:48:38:be:3a:bd:07:37:2d:3d:74:
         3d:4b:3a:43:22:a4:d1:ac:e5:dd:db:0b:dd:39:37:14:9c:26:
         b1:02:21:00:c7:95:13:54:68:a0:02:ff:12:1a:53:da:df:88:
         d1:0f:5d:83:07:85:87:23:3b:39:1e:01:38:66:9b:85:f6:b4
-----BEGIN CERTIFICATE-----
MIIB+zCCAaCgAwIBAgIBODAKBggqhkjOPQQDAjCBmzEZMBcGA1UEAwwQUmVnaW9u
ZSBDYWxhYnJpYTELMAkGA1UEBhMCSVQxDzANBgNVBAgMBkl0YWxpYTEYMBYGA1UE
CgwPRS1Wb3Rpbmcgc3lzdGVtMSIwIAYDVQQLDBlFLVZvdGluZyBzeXN0ZW0gYXV0
aG9yaXR5MSIwIAYJKoZIhvcNAQkBFhNDYWxhYnJpYUBldm90aW5nLml0MB4XDTIy
MDgwMzEzMjg0NFoXDTIzMDgwMzEzMjg0NFowTDERMA8GA1UEAwwIQmVuamFtaW4x
CzAJBgNVBAYTAklUMQ8wDQYDVQQIDAZJdGFsaWExGTAXBgNVBAoMEFJlZ2lvbmUg
Q2FsYWJyaWEwWTATBgcqhkjOPQIBBggqhkjOPQMBBwNCAATNojc/N/7afo9P0nv/
9LuW/AYr6yZ2SzEh5hTA//ywM8xJLkcgqefxK+Xe+5h9xdm6MDKEcn3B5U8Cs2f+
8Q1FoyMwITAOBgNVHQ8BAf8EBAMCBaAwDwYDVR0TAQH/BAUwAwIBAzAKBggqhkjO
PQQDAgNJADBGAiEA/G1VSDi+Or0HNy09dD1LOkMipNGs5d3bC905NxScJrECIQDH
lRNUaKAC/xIaU9rfiNEPXYMHhYcjOzkeAThmm4X2tA==
-----END CERTIFICATE-----
