Certificate:
    Data:
        Version: 3 (0x2)
        Serial Number: 47 (0x2f)
        Signature Algorithm: ecdsa-with-SHA256
        Issuer: CN=Regione Piemonte, C=IT, ST=Italia, O=E-Voting system, OU=E-Voting system authority/emailAddress=Piemonte@evoting.it
        Validity
            Not Before: Aug 26 15:21:35 2022 GMT
            Not After : Aug 26 15:21:35 2023 GMT
        Subject: CN=Benjamin, C=IT, ST=Italia, O=Regione Piemonte
        Subject Public Key Info:
            Public Key Algorithm: id-ecPublicKey
                Public-Key: (256 bit)
                pub:
                    04:76:6b:c4:8b:9d:b0:75:af:61:0a:4c:5e:6a:fc:
                    f9:0d:67:f0:a3:3a:42:42:fd:63:74:a5:79:6a:b5:
                    a6:b9:5f:c6:85:a5:fd:30:93:c8:f7:d7:a4:f9:e5:
                    f7:8b:56:0f:7b:98:24:d5:5e:d8:14:ce:06:ee:20:
                    37:f2:9b:ae:2e
                ASN1 OID: secp256k1
        X509v3 extensions:
            X509v3 Key Usage: critical
                Digital Signature, Key Encipherment
            X509v3 Basic Constraints: critical
                CA:FALSE, pathlen:3
    Signature Algorithm: ecdsa-with-SHA256
         30:45:02:20:3f:7a:df:3f:6f:1c:ab:cc:5d:1e:24:49:02:30:
         0e:20:0d:fd:0c:35:98:4b:80:63:f5:f4:ea:84:9e:9a:62:cd:
         02:21:00:b7:f4:4d:b1:05:91:a7:1b:d1:db:59:23:07:fa:6b:
         99:16:04:11:82:14:34:06:2c:72:c1:b6:9f:f4:f8:7a:ab
-----BEGIN CERTIFICATE-----
MIIB9zCCAZ2gAwIBAgIBLzAKBggqhkjOPQQDAjCBmzEZMBcGA1UEAwwQUmVnaW9u
ZSBQaWVtb250ZTELMAkGA1UEBhMCSVQxDzANBgNVBAgMBkl0YWxpYTEYMBYGA1UE
CgwPRS1Wb3Rpbmcgc3lzdGVtMSIwIAYDVQQLDBlFLVZvdGluZyBzeXN0ZW0gYXV0
aG9yaXR5MSIwIAYJKoZIhvcNAQkBFhNQaWVtb250ZUBldm90aW5nLml0MB4XDTIy
MDgyNjE1MjEzNVoXDTIzMDgyNjE1MjEzNVowTDERMA8GA1UEAwwIQmVuamFtaW4x
CzAJBgNVBAYTAklUMQ8wDQYDVQQIDAZJdGFsaWExGTAXBgNVBAoMEFJlZ2lvbmUg
UGllbW9udGUwVjAQBgcqhkjOPQIBBgUrgQQACgNCAAR2a8SLnbB1r2EKTF5q/PkN
Z/CjOkJC/WN0pXlqtaa5X8aFpf0wk8j316T55feLVg97mCTVXtgUzgbuIDfym64u
oyMwITAOBgNVHQ8BAf8EBAMCBaAwDwYDVR0TAQH/BAUwAwIBAzAKBggqhkjOPQQD
AgNIADBFAiA/et8/bxyrzF0eJEkCMA4gDf0MNZhLgGP19OqEnppizQIhALf0TbEF
kacb0dtZIwf6a5kWBBGCFDQGLHLBtp/0+Hqr
-----END CERTIFICATE-----
