Certificate:
    Data:
        Version: 3 (0x2)
        Serial Number: 44 (0x2c)
        Signature Algorithm: ecdsa-with-SHA256
        Issuer: CN=Regione Campania, C=IT, ST=Italia, O=E-Voting system, OU=E-Voting system authority/emailAddress=Campania@evoting.it
        Validity
            Not Before: Aug  3 13:27:55 2022 GMT
            Not After : Aug  3 13:27:55 2023 GMT
        Subject: CN=Benny, C=IT, ST=Italia, O=Regione Campania
        Subject Public Key Info:
            Public Key Algorithm: id-ecPublicKey
                Public-Key: (256 bit)
                pub:
                    04:9b:4f:d3:94:79:1b:d6:0e:78:50:02:57:2c:98:
                    04:ff:d1:75:36:c1:6f:02:e1:b8:78:67:b2:d5:a2:
                    44:05:a4:b8:cd:d7:cb:f2:90:ef:12:c8:18:65:db:
                    03:5b:ce:13:8f:d8:0f:44:a5:0f:c6:3c:48:a4:df:
                    e2:97:70:99:a1
                ASN1 OID: prime256v1
                NIST CURVE: P-256
        X509v3 extensions:
            X509v3 Key Usage: critical
                Digital Signature, Key Encipherment
            X509v3 Basic Constraints: critical
                CA:FALSE, pathlen:3
    Signature Algorithm: ecdsa-with-SHA256
         30:46:02:21:00:b0:db:af:e5:b0:96:e0:67:04:e9:19:dd:16:
         2d:27:79:7b:36:b7:d1:70:11:8a:4c:e1:c9:c7:7f:d6:fa:85:
         bd:02:21:00:bc:14:7a:0a:44:1a:01:97:ca:a0:ff:dc:e1:73:
         fc:79:31:1c:be:70:a6:25:f1:b7:2b:50:a9:5e:0e:c2:91:5c
-----BEGIN CERTIFICATE-----
MIIB+DCCAZ2gAwIBAgIBLDAKBggqhkjOPQQDAjCBmzEZMBcGA1UEAwwQUmVnaW9u
ZSBDYW1wYW5pYTELMAkGA1UEBhMCSVQxDzANBgNVBAgMBkl0YWxpYTEYMBYGA1UE
CgwPRS1Wb3Rpbmcgc3lzdGVtMSIwIAYDVQQLDBlFLVZvdGluZyBzeXN0ZW0gYXV0
aG9yaXR5MSIwIAYJKoZIhvcNAQkBFhNDYW1wYW5pYUBldm90aW5nLml0MB4XDTIy
MDgwMzEzMjc1NVoXDTIzMDgwMzEzMjc1NVowSTEOMAwGA1UEAwwFQmVubnkxCzAJ
BgNVBAYTAklUMQ8wDQYDVQQIDAZJdGFsaWExGTAXBgNVBAoMEFJlZ2lvbmUgQ2Ft
cGFuaWEwWTATBgcqhkjOPQIBBggqhkjOPQMBBwNCAASbT9OUeRvWDnhQAlcsmAT/
0XU2wW8C4bh4Z7LVokQFpLjN18vykO8SyBhl2wNbzhOP2A9EpQ/GPEik3+KXcJmh
oyMwITAOBgNVHQ8BAf8EBAMCBaAwDwYDVR0TAQH/BAUwAwIBAzAKBggqhkjOPQQD
AgNJADBGAiEAsNuv5bCW4GcE6RndFi0neXs2t9FwEYpM4cnHf9b6hb0CIQC8FHoK
RBoBl8qg/9zhc/x5MRy+cKYl8bcrUKleDsKRXA==
-----END CERTIFICATE-----
