Certificate:
    Data:
        Version: 3 (0x2)
        Serial Number: 27 (0x1b)
        Signature Algorithm: ecdsa-with-SHA256
        Issuer: CN=Regione Umbria, C=IT, ST=Italia, O=E-Voting system, OU=E-Voting system authority/emailAddress=Umbria@evoting.it
        Validity
            Not Before: Aug  3 13:27:53 2022 GMT
            Not After : Aug  3 13:27:53 2023 GMT
        Subject: CN=Berenice, C=IT, ST=Italia, O=Regione Umbria
        Subject Public Key Info:
            Public Key Algorithm: id-ecPublicKey
                Public-Key: (256 bit)
                pub:
                    04:d1:c6:c9:7b:56:2d:3f:07:b8:8d:9a:57:0d:cc:
                    71:0d:d5:18:00:23:5b:f5:2c:e0:85:71:66:bf:3e:
                    43:ce:75:2c:82:9d:3f:96:84:95:71:f6:0c:49:c0:
                    c3:0e:38:ed:9d:0e:36:76:ee:fe:9f:2b:82:7c:2e:
                    6a:41:4d:b2:42
                ASN1 OID: prime256v1
                NIST CURVE: P-256
        X509v3 extensions:
            X509v3 Key Usage: critical
                Digital Signature, Key Encipherment
            X509v3 Basic Constraints: critical
                CA:FALSE, pathlen:3
    Signature Algorithm: ecdsa-with-SHA256
         30:45:02:21:00:d6:4b:14:09:ad:1a:25:57:78:37:40:c4:83:
         01:0b:74:bb:ea:7f:b3:25:75:33:97:38:15:6a:02:76:91:55:
         e0:02:20:74:c0:35:85:ef:f1:93:2e:83:25:a1:58:0b:0c:a9:
         18:b2:5e:d9:d0:f4:44:84:49:06:35:82:06:9a:21:ec:80
-----BEGIN CERTIFICATE-----
MIIB9DCCAZqgAwIBAgIBGzAKBggqhkjOPQQDAjCBlzEXMBUGA1UEAwwOUmVnaW9u
ZSBVbWJyaWExCzAJBgNVBAYTAklUMQ8wDQYDVQQIDAZJdGFsaWExGDAWBgNVBAoM
D0UtVm90aW5nIHN5c3RlbTEiMCAGA1UECwwZRS1Wb3Rpbmcgc3lzdGVtIGF1dGhv
cml0eTEgMB4GCSqGSIb3DQEJARYRVW1icmlhQGV2b3RpbmcuaXQwHhcNMjIwODAz
MTMyNzUzWhcNMjMwODAzMTMyNzUzWjBKMREwDwYDVQQDDAhCZXJlbmljZTELMAkG
A1UEBhMCSVQxDzANBgNVBAgMBkl0YWxpYTEXMBUGA1UECgwOUmVnaW9uZSBVbWJy
aWEwWTATBgcqhkjOPQIBBggqhkjOPQMBBwNCAATRxsl7Vi0/B7iNmlcNzHEN1RgA
I1v1LOCFcWa/PkPOdSyCnT+WhJVx9gxJwMMOOO2dDjZ27v6fK4J8LmpBTbJCoyMw
ITAOBgNVHQ8BAf8EBAMCBaAwDwYDVR0TAQH/BAUwAwIBAzAKBggqhkjOPQQDAgNI
ADBFAiEA1ksUCa0aJVd4N0DEgwELdLvqf7MldTOXOBVqAnaRVeACIHTANYXv8ZMu
gyWhWAsMqRiyXtnQ9ESESQY1ggaaIeyA
-----END CERTIFICATE-----
