Certificate:
    Data:
        Version: 3 (0x2)
        Serial Number: 30 (0x1e)
        Signature Algorithm: ecdsa-with-SHA256
        Issuer: CN=Regione Sardegna, C=IT, ST=Italia, O=E-Voting system, OU=E-Voting system authority/emailAddress=Sardegna@evoting.it
        Validity
            Not Before: Aug 26 15:20:53 2022 GMT
            Not After : Aug 26 15:20:53 2023 GMT
        Subject: CN=Bernadette, C=IT, ST=Italia, O=Regione Sardegna
        Subject Public Key Info:
            Public Key Algorithm: id-ecPublicKey
                Public-Key: (256 bit)
                pub:
                    04:c8:0b:2d:bc:83:a4:0e:5d:92:c8:cc:eb:1d:59:
                    63:e5:90:dd:22:e9:3e:0a:48:cd:16:2a:d6:5a:4c:
                    49:b3:ec:46:db:84:62:e5:f2:8d:43:f6:35:70:15:
                    46:81:81:d7:54:c9:db:51:62:db:24:3c:ed:0b:e7:
                    42:bc:7d:61:9e
                ASN1 OID: secp256k1
        X509v3 extensions:
            X509v3 Key Usage: critical
                Digital Signature, Key Encipherment
            X509v3 Basic Constraints: critical
                CA:FALSE, pathlen:3
    Signature Algorithm: ecdsa-with-SHA256
         30:46:02:21:00:bc:39:69:90:2c:53:a2:30:89:44:74:3c:0a:
         f6:89:72:17:80:cb:6c:74:a7:12:88:b9:f2:26:d4:2d:34:38:
         8d:02:21:00:9f:b3:8b:59:7e:dd:28:b5:98:e2:9b:1f:45:32:
         33:1c:c3:84:05:d5:53:6f:ac:2a:2d:42:b3:78:56:d3:44:fd
-----BEGIN CERTIFICATE-----
MIIB+jCCAZ+gAwIBAgIBHjAKBggqhkjOPQQDAjCBmzEZMBcGA1UEAwwQUmVnaW9u
ZSBTYXJkZWduYTELMAkGA1UEBhMCSVQxDzANBgNVBAgMBkl0YWxpYTEYMBYGA1UE
CgwPRS1Wb3Rpbmcgc3lzdGVtMSIwIAYDVQQLDBlFLVZvdGluZyBzeXN0ZW0gYXV0
aG9yaXR5MSIwIAYJKoZIhvcNAQkBFhNTYXJkZWduYUBldm90aW5nLml0MB4XDTIy
MDgyNjE1MjA1M1oXDTIzMDgyNjE1MjA1M1owTjETMBEGA1UEAwwKQmVybmFkZXR0
ZTELMAkGA1UEBhMCSVQxDzANBgNVBAgMBkl0YWxpYTEZMBcGA1UECgwQUmVnaW9u
ZSBTYXJkZWduYTBWMBAGByqGSM49AgEGBSuBBAAKA0IABMgLLbyDpA5dksjM6x1Z
Y+WQ3SLpPgpIzRYq1lpMSbPsRtuEYuXyjUP2NXAVRoGB11TJ21Fi2yQ87QvnQrx9
YZ6jIzAhMA4GA1UdDwEB/wQEAwIFoDAPBgNVHRMBAf8EBTADAgEDMAoGCCqGSM49
BAMCA0kAMEYCIQC8OWmQLFOiMIlEdDwK9olyF4DLbHSnEoi58ibULTQ4jQIhAJ+z
i1l+3Si1mOKbH0UyMxzDhAXVU2+sKi1Cs3hW00T9
-----END CERTIFICATE-----
