Certificate:
    Data:
        Version: 3 (0x2)
        Serial Number: 61 (0x3d)
        Signature Algorithm: ecdsa-with-SHA256
        Issuer: CN=Regione Piemonte, C=IT, ST=Italia, O=E-Voting system, OU=E-Voting system authority/emailAddress=Piemonte@evoting.it
        Validity
            Not Before: Aug  3 13:28:15 2022 GMT
            Not After : Aug  3 13:28:15 2023 GMT
        Subject: CN=Bernarda, C=IT, ST=Italia, O=Regione Piemonte
        Subject Public Key Info:
            Public Key Algorithm: id-ecPublicKey
                Public-Key: (256 bit)
                pub:
                    04:8a:fc:37:1d:25:2f:56:c4:51:25:7e:e5:2c:38:
                    87:cf:5e:98:79:7b:1e:13:ab:a9:d4:4a:70:a5:3d:
                    84:0c:72:21:49:3d:72:a9:14:47:4c:66:44:2c:a4:
                    b5:ff:c0:31:00:2a:f0:11:19:eb:9c:43:ee:d2:40:
                    e5:f1:aa:7f:29
                ASN1 OID: prime256v1
                NIST CURVE: P-256
        X509v3 extensions:
            X509v3 Key Usage: critical
                Digital Signature, Key Encipherment
            X509v3 Basic Constraints: critical
                CA:FALSE, pathlen:3
    Signature Algorithm: ecdsa-with-SHA256
         30:45:02:20:5e:ee:c0:39:c9:11:cb:f2:93:5c:a9:af:cd:21:
         74:5d:fb:52:0f:80:82:2e:f3:76:85:43:7f:5c:e9:a3:68:b8:
         02:21:00:a4:eb:45:8a:3e:08:8a:67:4d:00:ed:9f:a0:02:b7:
         3a:e1:cb:77:d7:c7:cc:83:e3:6d:71:86:89:2c:a5:85:a8
-----BEGIN CERTIFICATE-----
MIIB+jCCAaCgAwIBAgIBPTAKBggqhkjOPQQDAjCBmzEZMBcGA1UEAwwQUmVnaW9u
ZSBQaWVtb250ZTELMAkGA1UEBhMCSVQxDzANBgNVBAgMBkl0YWxpYTEYMBYGA1UE
CgwPRS1Wb3Rpbmcgc3lzdGVtMSIwIAYDVQQLDBlFLVZvdGluZyBzeXN0ZW0gYXV0
aG9yaXR5MSIwIAYJKoZIhvcNAQkBFhNQaWVtb250ZUBldm90aW5nLml0MB4XDTIy
MDgwMzEzMjgxNVoXDTIzMDgwMzEzMjgxNVowTDERMA8GA1UEAwwIQmVybmFyZGEx
CzAJBgNVBAYTAklUMQ8wDQYDVQQIDAZJdGFsaWExGTAXBgNVBAoMEFJlZ2lvbmUg
UGllbW9udGUwWTATBgcqhkjOPQIBBggqhkjOPQMBBwNCAASK/DcdJS9WxFElfuUs
OIfPXph5ex4Tq6nUSnClPYQMciFJPXKpFEdMZkQspLX/wDEAKvARGeucQ+7SQOXx
qn8poyMwITAOBgNVHQ8BAf8EBAMCBaAwDwYDVR0TAQH/BAUwAwIBAzAKBggqhkjO
PQQDAgNIADBFAiBe7sA5yRHL8pNcqa/NIXRd+1IPgIIu83aFQ39c6aNouAIhAKTr
RYo+CIpnTQDtn6ACtzrhy3fXx8yD421xhokspYWo
-----END CERTIFICATE-----
