Certificate:
    Data:
        Version: 3 (0x2)
        Serial Number: 56 (0x38)
        Signature Algorithm: ecdsa-with-SHA256
        Issuer: CN=Regione Emilia_Romagna, C=IT, ST=Italia, O=E-Voting system, OU=E-Voting system authority/emailAddress=Emilia_Romagna@evoting.it
        Validity
            Not Before: Aug 26 15:21:49 2022 GMT
            Not After : Aug 26 15:21:49 2023 GMT
        Subject: CN=Bernice, C=IT, ST=Italia, O=Regione Emilia_Romagna
        Subject Public Key Info:
            Public Key Algorithm: id-ecPublicKey
                Public-Key: (256 bit)
                pub:
                    04:c0:55:1c:04:9e:15:81:9a:f3:05:c7:0f:39:25:
                    28:36:e6:f0:67:bf:10:67:90:9c:ce:32:62:b6:a3:
                    e6:c2:ad:35:00:98:02:f0:dd:5c:64:1f:86:4d:67:
                    47:80:e4:63:f9:64:9c:2a:65:66:b4:18:b7:0a:f9:
                    e6:eb:18:26:98
                ASN1 OID: secp256k1
        X509v3 extensions:
            X509v3 Key Usage: critical
                Digital Signature, Key Encipherment
            X509v3 Basic Constraints: critical
                CA:FALSE, pathlen:3
    Signature Algorithm: ecdsa-with-SHA256
         30:45:02:21:00:a4:67:57:35:7f:95:e1:24:47:af:aa:57:68:
         8d:ed:fe:75:e2:1f:06:64:8f:c1:4d:56:18:44:80:78:62:1a:
         f1:02:20:0a:a6:f4:1c:5a:88:ad:b9:b4:47:4b:40:cc:a7:82:
         96:34:35:74:c2:e6:95:df:22:51:51:5f:53:3e:b0:47:af
-----BEGIN CERTIFICATE-----
MIICCDCCAa6gAwIBAgIBODAKBggqhkjOPQQDAjCBpzEfMB0GA1UEAwwWUmVnaW9u
ZSBFbWlsaWFfUm9tYWduYTELMAkGA1UEBhMCSVQxDzANBgNVBAgMBkl0YWxpYTEY
MBYGA1UECgwPRS1Wb3Rpbmcgc3lzdGVtMSIwIAYDVQQLDBlFLVZvdGluZyBzeXN0
ZW0gYXV0aG9yaXR5MSgwJgYJKoZIhvcNAQkBFhlFbWlsaWFfUm9tYWduYUBldm90
aW5nLml0MB4XDTIyMDgyNjE1MjE0OVoXDTIzMDgyNjE1MjE0OVowUTEQMA4GA1UE
AwwHQmVybmljZTELMAkGA1UEBhMCSVQxDzANBgNVBAgMBkl0YWxpYTEfMB0GA1UE
CgwWUmVnaW9uZSBFbWlsaWFfUm9tYWduYTBWMBAGByqGSM49AgEGBSuBBAAKA0IA
BMBVHASeFYGa8wXHDzklKDbm8Ge/EGeQnM4yYraj5sKtNQCYAvDdXGQfhk1nR4Dk
Y/lknCplZrQYtwr55usYJpijIzAhMA4GA1UdDwEB/wQEAwIFoDAPBgNVHRMBAf8E
BTADAgEDMAoGCCqGSM49BAMCA0gAMEUCIQCkZ1c1f5XhJEevqldoje3+deIfBmSP
wU1WGESAeGIa8QIgCqb0HFqIrbm0R0tAzKeCljQ1dMLmld8iUVFfUz6wR68=
-----END CERTIFICATE-----
