Certificate:
    Data:
        Version: 3 (0x2)
        Serial Number: 21 (0x15)
        Signature Algorithm: ecdsa-with-SHA256
        Issuer: CN=Regione Abruzzo, C=IT, ST=Italia, O=E-Voting system, OU=E-Voting system authority/emailAddress=Abruzzo@evoting.it
        Validity
            Not Before: Aug 26 15:20:25 2022 GMT
            Not After : Aug 26 15:20:25 2023 GMT
        Subject: CN=Bertha, C=IT, ST=Italia, O=Regione Abruzzo
        Subject Public Key Info:
            Public Key Algorithm: id-ecPublicKey
                Public-Key: (256 bit)
                pub:
                    04:f3:58:ef:65:c3:b5:61:3b:bc:8b:90:49:38:05:
                    7f:7d:33:47:8a:a3:8f:27:cd:46:a9:af:de:ae:fc:
                    80:4f:cd:ed:38:07:1b:95:83:8b:4e:a4:57:fd:67:
                    12:a5:a5:a5:21:f2:5d:b6:ab:bc:b8:5f:f0:bc:a5:
                    eb:b4:5f:bb:12
                ASN1 OID: secp256k1
        X509v3 extensions:
            X509v3 Key Usage: critical
                Digital Signature, Key Encipherment
            X509v3 Basic Constraints: critical
                CA:FALSE, pathlen:3
    Signature Algorithm: ecdsa-with-SHA256
         30:45:02:21:00:9e:19:28:74:bf:b4:03:c0:02:00:f3:c2:3c:
         63:58:a2:0c:a6:65:cb:d5:4c:45:9a:6f:ee:3e:44:9b:2a:fc:
         81:02:20:4a:d5:05:dc:28:0c:90:53:e7:c8:d0:b8:00:4e:a1:
         d3:95:1e:fc:61:bf:ec:25:f5:ce:50:6d:0a:86:0c:5a:4b
-----BEGIN CERTIFICATE-----
MIIB8jCCAZigAwIBAgIBFTAKBggqhkjOPQQDAjCBmTEYMBYGA1UEAwwPUmVnaW9u
ZSBBYnJ1enpvMQswCQYDVQQGEwJJVDEPMA0GA1UECAwGSXRhbGlhMRgwFgYDVQQK
DA9FLVZvdGluZyBzeXN0ZW0xIjAgBgNVBAsMGUUtVm90aW5nIHN5c3RlbSBhdXRo
b3JpdHkxITAfBgkqhkiG9w0BCQEWEkFicnV6em9AZXZvdGluZy5pdDAeFw0yMjA4
MjYxNTIwMjVaFw0yMzA4MjYxNTIwMjVaMEkxDzANBgNVBAMMBkJlcnRoYTELMAkG
A1UEBhMCSVQxDzANBgNVBAgMBkl0YWxpYTEYMBYGA1UECgwPUmVnaW9uZSBBYnJ1
enpvMFYwEAYHKoZIzj0CAQYFK4EEAAoDQgAE81jvZcO1YTu8i5BJOAV/fTNHiqOP
J81Gqa/ervyAT83tOAcblYOLTqRX/WcSpaWlIfJdtqu8uF/wvKXrtF+7EqMjMCEw
DgYDVR0PAQH/BAQDAgWgMA8GA1UdEwEB/wQFMAMCAQMwCgYIKoZIzj0EAwIDSAAw
RQIhAJ4ZKHS/tAPAAgDzwjxjWKIMpmXL1UxFmm/uPkSbKvyBAiBK1QXcKAyQU+fI
0LgATqHTlR78Yb/sJfXOUG0KhgxaSw==
-----END CERTIFICATE-----
