Certificate:
    Data:
        Version: 3 (0x2)
        Serial Number: 58 (0x3a)
        Signature Algorithm: ecdsa-with-SHA256
        Issuer: CN=Regione Lombardia, C=IT, ST=Italia, O=E-Voting system, OU=E-Voting system authority/emailAddress=Lombardia@evoting.it
        Validity
            Not Before: Aug 26 15:21:45 2022 GMT
            Not After : Aug 26 15:21:45 2023 GMT
        Subject: CN=Bessie, C=IT, ST=Italia, O=Regione Lombardia
        Subject Public Key Info:
            Public Key Algorithm: id-ecPublicKey
                Public-Key: (256 bit)
                pub:
                    04:8c:37:51:97:87:0f:72:ef:f5:42:f1:be:a2:39:
                    b2:c9:23:3e:7a:1a:31:44:52:b8:3e:a5:df:42:88:
                    8a:51:95:a9:c8:67:1d:98:5b:fd:e5:47:e8:ed:0f:
                    d9:7f:04:97:0f:e1:ce:5d:e3:13:bd:1f:06:4e:93:
                    7d:55:72:12:4d
                ASN1 OID: secp256k1
        X509v3 extensions:
            X509v3 Key Usage: critical
                Digital Signature, Key Encipherment
            X509v3 Basic Constraints: critical
                CA:FALSE, pathlen:3
    Signature Algorithm: ecdsa-with-SHA256
         30:46:02:21:00:d1:c7:a9:35:62:0a:68:73:2f:04:6e:8c:2a:
         6e:c8:e9:e3:0b:04:5b:58:72:16:5d:86:c0:f7:b0:77:dd:f7:
         37:02:21:00:be:6f:62:eb:73:66:17:ba:ca:57:94:42:4f:1d:
         1c:be:71:9f:52:b7:64:72:4f:e7:5e:77:a3:9a:fd:4c:1a:b7
-----BEGIN CERTIFICATE-----
MIIB+TCCAZ6gAwIBAgIBOjAKBggqhkjOPQQDAjCBnTEaMBgGA1UEAwwRUmVnaW9u
ZSBMb21iYXJkaWExCzAJBgNVBAYTAklUMQ8wDQYDVQQIDAZJdGFsaWExGDAWBgNV
BAoMD0UtVm90aW5nIHN5c3RlbTEiMCAGA1UECwwZRS1Wb3Rpbmcgc3lzdGVtIGF1
dGhvcml0eTEjMCEGCSqGSIb3DQEJARYUTG9tYmFyZGlhQGV2b3RpbmcuaXQwHhcN
MjIwODI2MTUyMTQ1WhcNMjMwODI2MTUyMTQ1WjBLMQ8wDQYDVQQDDAZCZXNzaWUx
CzAJBgNVBAYTAklUMQ8wDQYDVQQIDAZJdGFsaWExGjAYBgNVBAoMEVJlZ2lvbmUg
TG9tYmFyZGlhMFYwEAYHKoZIzj0CAQYFK4EEAAoDQgAEjDdRl4cPcu/1QvG+ojmy
ySM+ehoxRFK4PqXfQoiKUZWpyGcdmFv95Ufo7Q/ZfwSXD+HOXeMTvR8GTpN9VXIS
TaMjMCEwDgYDVR0PAQH/BAQDAgWgMA8GA1UdEwEB/wQFMAMCAQMwCgYIKoZIzj0E
AwIDSQAwRgIhANHHqTViCmhzLwRujCpuyOnjCwRbWHIWXYbA97B33fc3AiEAvm9i
63NmF7rKV5RCTx0cvnGfUrdkck/nXnejmv1MGrc=
-----END CERTIFICATE-----
