Certificate:
    Data:
        Version: 3 (0x2)
        Serial Number: 34 (0x22)
        Signature Algorithm: ecdsa-with-SHA256
        Issuer: CN=Regione Toscana, C=IT, ST=Italia, O=E-Voting system, OU=E-Voting system authority/emailAddress=Toscana@evoting.it
        Validity
            Not Before: Aug  3 13:27:42 2022 GMT
            Not After : Aug  3 13:27:42 2023 GMT
        Subject: CN=Betsy, C=IT, ST=Italia, O=Regione Toscana
        Subject Public Key Info:
            Public Key Algorithm: id-ecPublicKey
                Public-Key: (256 bit)
                pub:
                    04:ae:49:7f:e7:2e:fd:cd:67:1b:40:6f:dc:61:91:
                    07:b3:2c:ae:a6:06:ff:5a:a8:8b:cd:91:ba:40:44:
                    b5:b2:a5:0a:2d:32:09:61:88:bf:87:2f:52:90:de:
                    3f:d8:51:74:9f:e2:b4:17:5a:d6:f0:ec:c4:89:18:
                    df:10:ed:45:95
                ASN1 OID: prime256v1
                NIST CURVE: P-256
        X509v3 extensions:
            X509v3 Key Usage: critical
                Digital Signature, Key Encipherment
            X509v3 Basic Constraints: critical
                CA:FALSE, pathlen:3
    Signature Algorithm: ecdsa-with-SHA256
         30:46:02:21:00:9b:38:3d:85:c4:8d:6b:49:76:08:41:47:da:
         31:aa:f0:da:f2:b7:3a:db:bd:f5:fa:cf:76:29:a1:a6:22:03:
         c5:02:21:00:9f:3e:12:56:b0:70:d6:c0:56:b4:09:61:63:c8:
         e1:bf:2d:2d:93:fc:92:6b:61:37:d7:d1:6c:2f:60:0e:97:fa
-----BEGIN CERTIFICATE-----
MIIB9TCCAZqgAwIBAgIBIjAKBggqhkjOPQQDAjCBmTEYMBYGA1UEAwwPUmVnaW9u
ZSBUb3NjYW5hMQswCQYDVQQGEwJJVDEPMA0GA1UECAwGSXRhbGlhMRgwFgYDVQQK
DA9FLVZvdGluZyBzeXN0ZW0xIjAgBgNVBAsMGUUtVm90aW5nIHN5c3RlbSBhdXRo
b3JpdHkxITAfBgkqhkiG9w0BCQEWElRvc2NhbmFAZXZvdGluZy5pdDAeFw0yMjA4
MDMxMzI3NDJaFw0yMzA4MDMxMzI3NDJaMEgxDjAMBgNVBAMMBUJldHN5MQswCQYD
VQQGEwJJVDEPMA0GA1UECAwGSXRhbGlhMRgwFgYDVQQKDA9SZWdpb25lIFRvc2Nh
bmEwWTATBgcqhkjOPQIBBggqhkjOPQMBBwNCAASuSX/nLv3NZxtAb9xhkQezLK6m
Bv9aqIvNkbpARLWypQotMglhiL+HL1KQ3j/YUXSf4rQXWtbw7MSJGN8Q7UWVoyMw
ITAOBgNVHQ8BAf8EBAMCBaAwDwYDVR0TAQH/BAUwAwIBAzAKBggqhkjOPQQDAgNJ
ADBGAiEAmzg9hcSNa0l2CEFH2jGq8NrytzrbvfX6z3YpoaYiA8UCIQCfPhJWsHDW
wFa0CWFjyOG/LS2T/JJrYTfX0WwvYA6X+g==
-----END CERTIFICATE-----
