Certificate:
    Data:
        Version: 3 (0x2)
        Serial Number: 25 (0x19)
        Signature Algorithm: ecdsa-with-SHA256
        Issuer: CN=Regione Calabria, C=IT, ST=Italia, O=E-Voting system, OU=E-Voting system authority/emailAddress=Calabria@evoting.it
        Validity
            Not Before: Aug  3 13:27:07 2022 GMT
            Not After : Aug  3 13:27:07 2023 GMT
        Subject: CN=Bette, C=IT, ST=Italia, O=Regione Calabria
        Subject Public Key Info:
            Public Key Algorithm: id-ecPublicKey
                Public-Key: (256 bit)
                pub:
                    04:f4:71:4f:b3:a3:34:ea:31:60:83:14:1e:bc:2a:
                    d9:6f:af:4b:94:a0:6d:c2:1c:25:09:cd:49:36:0d:
                    03:91:d3:60:b5:89:aa:b2:c2:cb:53:e0:cb:75:9b:
                    d4:b7:f2:bf:56:ca:ec:d3:d5:38:8c:61:a9:93:d7:
                    62:54:9d:8a:ec
                ASN1 OID: prime256v1
                NIST CURVE: P-256
        X509v3 extensions:
            X509v3 Key Usage: critical
                Digital Signature, Key Encipherment
            X509v3 Basic Constraints: critical
                CA:FALSE, pathlen:3
    Signature Algorithm: ecdsa-with-SHA256
         30:44:02:20:69:d3:ba:04:93:c8:bc:70:b4:6e:28:08:e2:c7:
         d4:9a:c9:01:ba:55:e7:d6:d5:9d:07:4f:2b:9a:05:90:e3:de:
         02:20:59:f1:33:94:fe:e3:fb:18:ad:54:12:98:43:64:07:54:
         98:7c:40:f6:4d:51:02:8a:f3:56:b6:20:67:12:e3:04
-----BEGIN CERTIFICATE-----
MIIB9jCCAZ2gAwIBAgIBGTAKBggqhkjOPQQDAjCBmzEZMBcGA1UEAwwQUmVnaW9u
ZSBDYWxhYnJpYTELMAkGA1UEBhMCSVQxDzANBgNVBAgMBkl0YWxpYTEYMBYGA1UE
CgwPRS1Wb3Rpbmcgc3lzdGVtMSIwIAYDVQQLDBlFLVZvdGluZyBzeXN0ZW0gYXV0
aG9yaXR5MSIwIAYJKoZIhvcNAQkBFhNDYWxhYnJpYUBldm90aW5nLml0MB4XDTIy
MDgwMzEzMjcwN1oXDTIzMDgwMzEzMjcwN1owSTEOMAwGA1UEAwwFQmV0dGUxCzAJ
BgNVBAYTAklUMQ8wDQYDVQQIDAZJdGFsaWExGTAXBgNVBAoMEFJlZ2lvbmUgQ2Fs
YWJyaWEwWTATBgcqhkjOPQIBBggqhkjOPQMBBwNCAAT0cU+zozTqMWCDFB68Ktlv
r0uUoG3CHCUJzUk2DQOR02C1iaqywstT4Mt1m9S38r9WyuzT1TiMYamT12JUnYrs
oyMwITAOBgNVHQ8BAf8EBAMCBaAwDwYDVR0TAQH/BAUwAwIBAzAKBggqhkjOPQQD
AgNHADBEAiBp07oEk8i8cLRuKAjix9SayQG6VefW1Z0HTyuaBZDj3gIgWfEzlP7j
+xitVBKYQ2QHVJh8QPZNUQKK81a2IGcS4wQ=
-----END CERTIFICATE-----
