Certificate:
    Data:
        Version: 3 (0x2)
        Serial Number: 34 (0x22)
        Signature Algorithm: ecdsa-with-SHA256
        Issuer: CN=Regione Puglia, C=IT, ST=Italia, O=E-Voting system, OU=E-Voting system authority/emailAddress=Puglia@evoting.it
        Validity
            Not Before: Aug 26 15:20:50 2022 GMT
            Not After : Aug 26 15:20:50 2023 GMT
        Subject: CN=Betty, C=IT, ST=Italia, O=Regione Puglia
        Subject Public Key Info:
            Public Key Algorithm: id-ecPublicKey
                Public-Key: (256 bit)
                pub:
                    04:d3:08:63:5d:3a:a1:04:44:4c:03:53:d8:94:90:
                    2f:5a:c0:de:24:68:09:98:76:be:13:37:0c:93:42:
                    3c:94:8b:69:90:fa:a1:74:e9:f9:01:5d:b5:21:75:
                    42:53:0f:39:c4:dd:7b:24:a8:0b:ed:c4:8d:a3:b1:
                    73:f6:5a:49:f8
                ASN1 OID: secp256k1
        X509v3 extensions:
            X509v3 Key Usage: critical
                Digital Signature, Key Encipherment
            X509v3 Basic Constraints: critical
                CA:FALSE, pathlen:3
    Signature Algorithm: ecdsa-with-SHA256
         30:44:02:20:08:16:46:98:b0:d6:d7:c9:8a:32:0e:ba:ba:ef:
         5a:4b:d6:fa:71:69:9e:2d:43:f8:a3:b7:c2:4f:68:81:3f:90:
         02:20:24:8d:2c:9e:74:a7:b6:8c:32:ef:e3:c6:ae:39:8d:fe:
         51:3a:e0:41:4d:3c:3c:a8:c8:29:05:94:0a:e7:d4:97
-----BEGIN CERTIFICATE-----
MIIB7TCCAZSgAwIBAgIBIjAKBggqhkjOPQQDAjCBlzEXMBUGA1UEAwwOUmVnaW9u
ZSBQdWdsaWExCzAJBgNVBAYTAklUMQ8wDQYDVQQIDAZJdGFsaWExGDAWBgNVBAoM
D0UtVm90aW5nIHN5c3RlbTEiMCAGA1UECwwZRS1Wb3Rpbmcgc3lzdGVtIGF1dGhv
cml0eTEgMB4GCSqGSIb3DQEJARYRUHVnbGlhQGV2b3RpbmcuaXQwHhcNMjIwODI2
MTUyMDUwWhcNMjMwODI2MTUyMDUwWjBHMQ4wDAYDVQQDDAVCZXR0eTELMAkGA1UE
BhMCSVQxDzANBgNVBAgMBkl0YWxpYTEXMBUGA1UECgwOUmVnaW9uZSBQdWdsaWEw
VjAQBgcqhkjOPQIBBgUrgQQACgNCAATTCGNdOqEEREwDU9iUkC9awN4kaAmYdr4T
NwyTQjyUi2mQ+qF06fkBXbUhdUJTDznE3XskqAvtxI2jsXP2Wkn4oyMwITAOBgNV
HQ8BAf8EBAMCBaAwDwYDVR0TAQH/BAUwAwIBAzAKBggqhkjOPQQDAgNHADBEAiAI
FkaYsNbXyYoyDrq671pL1vpxaZ4tQ/ijt8JPaIE/kAIgJI0snnSntowy7+PGrjmN
/lE64EFNPDyoyCkFlArn1Jc=
-----END CERTIFICATE-----
