Certificate:
    Data:
        Version: 3 (0x2)
        Serial Number: 40 (0x28)
        Signature Algorithm: ecdsa-with-SHA256
        Issuer: CN=Regione Puglia, C=IT, ST=Italia, O=E-Voting system, OU=E-Voting system authority/emailAddress=Puglia@evoting.it
        Validity
            Not Before: Aug  3 13:28:44 2022 GMT
            Not After : Aug  3 13:28:44 2023 GMT
        Subject: CN=Beulah, C=IT, ST=Italia, O=Regione Puglia
        Subject Public Key Info:
            Public Key Algorithm: id-ecPublicKey
                Public-Key: (256 bit)
                pub:
                    04:10:4c:f8:26:38:05:5d:bc:4c:4c:a8:29:f7:bb:
                    4a:9d:88:e5:47:34:99:be:2c:04:86:c7:d8:1b:27:
                    bb:4a:bf:4e:06:2e:fb:e3:53:47:dc:d3:2c:a6:f1:
                    49:ec:f9:b4:7e:e7:7c:61:6e:40:ec:42:a7:bb:70:
                    42:f3:9f:58:f4
                ASN1 OID: prime256v1
                NIST CURVE: P-256
        X509v3 extensions:
            X509v3 Key Usage: critical
                Digital Signature, Key Encipherment
            X509v3 Basic Constraints: critical
                CA:FALSE, pathlen:3
    Signature Algorithm: ecdsa-with-SHA256
         30:46:02:21:00:f8:57:ea:06:94:07:df:6f:1d:2f:a1:ae:0d:
         a0:1b:f9:4e:e2:1d:35:d7:24:aa:d3:93:df:d4:e6:53:93:5a:
         9c:02:21:00:ba:ee:6f:b3:57:da:2e:96:16:ae:e8:e5:a2:b6:
         83:bf:0c:06:f2:2b:8d:49:82:13:a6:cf:e9:c3:34:10:82:93
-----BEGIN CERTIFICATE-----
MIIB8zCCAZigAwIBAgIBKDAKBggqhkjOPQQDAjCBlzEXMBUGA1UEAwwOUmVnaW9u
ZSBQdWdsaWExCzAJBgNVBAYTAklUMQ8wDQYDVQQIDAZJdGFsaWExGDAWBgNVBAoM
D0UtVm90aW5nIHN5c3RlbTEiMCAGA1UECwwZRS1Wb3Rpbmcgc3lzdGVtIGF1dGhv
cml0eTEgMB4GCSqGSIb3DQEJARYRUHVnbGlhQGV2b3RpbmcuaXQwHhcNMjIwODAz
MTMyODQ0WhcNMjMwODAzMTMyODQ0WjBIMQ8wDQYDVQQDDAZCZXVsYWgxCzAJBgNV
BAYTAklUMQ8wDQYDVQQIDAZJdGFsaWExFzAVBgNVBAoMDlJlZ2lvbmUgUHVnbGlh
MFkwEwYHKoZIzj0CAQYIKoZIzj0DAQcDQgAEEEz4JjgFXbxMTKgp97tKnYjlRzSZ
viwEhsfYGye7Sr9OBi7741NH3NMspvFJ7Pm0fud8YW5A7EKnu3BC859Y9KMjMCEw
DgYDVR0PAQH/BAQDAgWgMA8GA1UdEwEB/wQFMAMCAQMwCgYIKoZIzj0EAwIDSQAw
RgIhAPhX6gaUB99vHS+hrg2gG/lO4h011ySq05Pf1OZTk1qcAiEAuu5vs1faLpYW
rujloraDvwwG8iuNSYITps/pwzQQgpM=
-----END CERTIFICATE-----
