Certificate:
    Data:
        Version: 3 (0x2)
        Serial Number: 12 (0xc)
        Signature Algorithm: ecdsa-with-SHA256
        Issuer: CN=Regione Marche, C=IT, ST=Italia, O=E-Voting system, OU=E-Voting system authority/emailAddress=Marche@evoting.it
        Validity
            Not Before: Aug 26 15:19:37 2022 GMT
            Not After : Aug 26 15:19:37 2023 GMT
        Subject: CN=Beverly, C=IT, ST=Italia, O=Regione Marche
        Subject Public Key Info:
            Public Key Algorithm: id-ecPublicKey
                Public-Key: (256 bit)
                pub:
                    04:48:e0:f2:29:92:dc:69:c7:84:b6:ce:0f:4c:42:
                    a3:27:04:05:1a:2e:11:5b:cb:e0:6d:b1:75:ec:10:
                    82:b2:67:f7:18:b3:12:4f:8e:47:60:07:5f:94:4b:
                    2a:66:ba:d8:cb:43:8a:cf:48:e2:31:5d:a3:e1:df:
                    fd:30:28:a7:36
                ASN1 OID: secp256k1
        X509v3 extensions:
            X509v3 Key Usage: critical
                Digital Signature, Key Encipherment
            X509v3 Basic Constraints: critical
                CA:FALSE, pathlen:3
    Signature Algorithm: ecdsa-with-SHA256
         30:45:02:20:5b:2b:84:b5:14:bf:01:b6:85:a9:af:4b:04:3b:
         13:ea:32:a9:65:02:c4:a2:1c:cd:29:47:1d:68:ec:49:55:6f:
         02:21:00:80:9e:7f:55:8a:cf:86:9e:38:e5:e1:0c:04:95:4b:
         ab:1c:b6:04:9e:eb:95:54:ca:48:fd:74:42:a3:9d:d1:f8
-----BEGIN CERTIFICATE-----
MIIB8DCCAZagAwIBAgIBDDAKBggqhkjOPQQDAjCBlzEXMBUGA1UEAwwOUmVnaW9u
ZSBNYXJjaGUxCzAJBgNVBAYTAklUMQ8wDQYDVQQIDAZJdGFsaWExGDAWBgNVBAoM
D0UtVm90aW5nIHN5c3RlbTEiMCAGA1UECwwZRS1Wb3Rpbmcgc3lzdGVtIGF1dGhv
cml0eTEgMB4GCSqGSIb3DQEJARYRTWFyY2hlQGV2b3RpbmcuaXQwHhcNMjIwODI2
MTUxOTM3WhcNMjMwODI2MTUxOTM3WjBJMRAwDgYDVQQDDAdCZXZlcmx5MQswCQYD
VQQGEwJJVDEPMA0GA1UECAwGSXRhbGlhMRcwFQYDVQQKDA5SZWdpb25lIE1hcmNo
ZTBWMBAGByqGSM49AgEGBSuBBAAKA0IABEjg8imS3GnHhLbOD0xCoycEBRouEVvL
4G2xdewQgrJn9xizEk+OR2AHX5RLKma62MtDis9I4jFdo+Hf/TAopzajIzAhMA4G
A1UdDwEB/wQEAwIFoDAPBgNVHRMBAf8EBTADAgEDMAoGCCqGSM49BAMCA0gAMEUC
IFsrhLUUvwG2hamvSwQ7E+oyqWUCxKIczSlHHWjsSVVvAiEAgJ5/VYrPhp445eEM
BJVLqxy2BJ7rlVTKSP10QqOd0fg=
-----END CERTIFICATE-----
