Certificate:
    Data:
        Version: 3 (0x2)
        Serial Number: 13 (0xd)
        Signature Algorithm: ecdsa-with-SHA256
        Issuer: CN=Regione Basilicata, C=IT, ST=Italia, O=E-Voting system, OU=E-Voting system authority/emailAddress=Basilicata@evoting.it
        Validity
            Not Before: Aug 26 15:19:24 2022 GMT
            Not After : Aug 26 15:19:24 2023 GMT
        Subject: CN=Billy, C=IT, ST=Italia, O=Regione Basilicata
        Subject Public Key Info:
            Public Key Algorithm: id-ecPublicKey
                Public-Key: (256 bit)
                pub:
                    04:aa:7a:f0:0e:71:5e:b8:26:8e:72:f6:72:a5:11:
                    65:b7:3c:2c:71:cb:83:6d:6a:f4:0a:cb:4c:3f:1e:
                    e7:08:b4:b5:ee:5b:23:fd:c8:38:09:46:9e:cc:09:
                    ab:05:74:82:45:db:0a:54:de:c7:94:d3:5a:a7:75:
                    6b:26:2e:ea:79
                ASN1 OID: secp256k1
        X509v3 extensions:
            X509v3 Key Usage: critical
                Digital Signature, Key Encipherment
            X509v3 Basic Constraints: critical
                CA:FALSE, pathlen:3
    Signature Algorithm: ecdsa-with-SHA256
         30:46:02:21:00:bc:9d:cc:09:49:ab:95:fb:40:cd:2d:f3:d8:
         18:75:cb:5d:22:c4:bc:10:fd:04:a7:52:1d:26:a3:76:eb:da:
         dd:02:21:00:e0:5a:a9:ea:43:ea:d3:94:6d:a6:c4:96:b5:aa:
         ad:1a:5f:3d:75:75:a8:b0:5c:b9:f3:d7:d9:5b:c5:2d:05:b8
-----BEGIN CERTIFICATE-----
MIIB+zCCAaCgAwIBAgIBDTAKBggqhkjOPQQDAjCBnzEbMBkGA1UEAwwSUmVnaW9u
ZSBCYXNpbGljYXRhMQswCQYDVQQGEwJJVDEPMA0GA1UECAwGSXRhbGlhMRgwFgYD
VQQKDA9FLVZvdGluZyBzeXN0ZW0xIjAgBgNVBAsMGUUtVm90aW5nIHN5c3RlbSBh
dXRob3JpdHkxJDAiBgkqhkiG9w0BCQEWFUJhc2lsaWNhdGFAZXZvdGluZy5pdDAe
Fw0yMjA4MjYxNTE5MjRaFw0yMzA4MjYxNTE5MjRaMEsxDjAMBgNVBAMMBUJpbGx5
MQswCQYDVQQGEwJJVDEPMA0GA1UECAwGSXRhbGlhMRswGQYDVQQKDBJSZWdpb25l
IEJhc2lsaWNhdGEwVjAQBgcqhkjOPQIBBgUrgQQACgNCAASqevAOcV64Jo5y9nKl
EWW3PCxxy4NtavQKy0w/HucItLXuWyP9yDgJRp7MCasFdIJF2wpU3seU01qndWsm
Lup5oyMwITAOBgNVHQ8BAf8EBAMCBaAwDwYDVR0TAQH/BAUwAwIBAzAKBggqhkjO
PQQDAgNJADBGAiEAvJ3MCUmrlftAzS3z2Bh1y10ixLwQ/QSnUh0mo3br2t0CIQDg
WqnqQ+rTlG2mxJa1qq0aXz11daiwXLnz19lbxS0FuA==
-----END CERTIFICATE-----
