Certificate:
    Data:
        Version: 3 (0x2)
        Serial Number: 9 (0x9)
        Signature Algorithm: ecdsa-with-SHA256
        Issuer: CN=Regione Friuli_Venezia_Giulia, C=IT, ST=Italia, O=E-Voting system, OU=E-Voting system authority/emailAddress=Friuli_Venezia_Giulia@evoting.it
        Validity
            Not Before: Aug  3 13:26:25 2022 GMT
            Not After : Aug  3 13:26:25 2023 GMT
        Subject: CN=Billie, C=IT, ST=Italia, O=Regione Friuli_Venezia_Giulia
        Subject Public Key Info:
            Public Key Algorithm: id-ecPublicKey
                Public-Key: (256 bit)
                pub:
                    04:a9:01:0a:d2:f0:e0:9c:6c:63:5a:83:1b:7b:43:
                    61:b6:c6:27:0b:8a:17:5f:23:16:cf:c0:89:41:a0:
                    9b:37:a1:65:9b:17:b2:0e:fd:b0:16:af:72:bb:fa:
                    46:97:81:19:e8:07:83:a3:8c:de:c0:f9:94:57:6b:
                    ae:92:a8:cc:60
                ASN1 OID: prime256v1
                NIST CURVE: P-256
        X509v3 extensions:
            X509v3 Key Usage: critical
                Digital Signature, Key Encipherment
            X509v3 Basic Constraints: critical
                CA:FALSE, pathlen:3
    Signature Algorithm: ecdsa-with-SHA256
         30:44:02:20:0d:fc:42:90:fe:2e:c2:de:55:0c:ad:b8:3a:a4:
         5f:fd:5b:ce:56:8e:e0:85:3d:de:b8:52:6d:6c:1f:0e:80:b6:
         02:20:67:e4:b4:4f:6f:f4:7e:94:8f:a4:25:17:72:3f:6d:f3:
         97:ee:91:02:63:68:ae:ef:02:88:08:8e:39:4d:da:34
-----BEGIN CERTIFICATE-----
MIICHjCCAcWgAwIBAgIBCTAKBggqhkjOPQQDAjCBtTEmMCQGA1UEAwwdUmVnaW9u
ZSBGcml1bGlfVmVuZXppYV9HaXVsaWExCzAJBgNVBAYTAklUMQ8wDQYDVQQIDAZJ
dGFsaWExGDAWBgNVBAoMD0UtVm90aW5nIHN5c3RlbTEiMCAGA1UECwwZRS1Wb3Rp
bmcgc3lzdGVtIGF1dGhvcml0eTEvMC0GCSqGSIb3DQEJARYgRnJpdWxpX1ZlbmV6
aWFfR2l1bGlhQGV2b3RpbmcuaXQwHhcNMjIwODAzMTMyNjI1WhcNMjMwODAzMTMy
NjI1WjBXMQ8wDQYDVQQDDAZCaWxsaWUxCzAJBgNVBAYTAklUMQ8wDQYDVQQIDAZJ
dGFsaWExJjAkBgNVBAoMHVJlZ2lvbmUgRnJpdWxpX1ZlbmV6aWFfR2l1bGlhMFkw
EwYHKoZIzj0CAQYIKoZIzj0DAQcDQgAEqQEK0vDgnGxjWoMbe0NhtsYnC4oXXyMW
z8CJQaCbN6FlmxeyDv2wFq9yu/pGl4EZ6AeDo4zewPmUV2uukqjMYKMjMCEwDgYD
VR0PAQH/BAQDAgWgMA8GA1UdEwEB/wQFMAMCAQMwCgYIKoZIzj0EAwIDRwAwRAIg
DfxCkP4uwt5VDK24OqRf/VvOVo7ghT3euFJtbB8OgLYCIGfktE9v9H6Uj6QlF3I/
bfOX7pECY2iu7wKICI45Tdo0
-----END CERTIFICATE-----
