Certificate:
    Data:
        Version: 3 (0x2)
        Serial Number: 17 (0x11)
        Signature Algorithm: ecdsa-with-SHA256
        Issuer: CN=Regione Valle_d_Aosta, C=IT, ST=Italia, O=E-Voting system, OU=E-Voting system authority/emailAddress=Valle_d_Aosta@evoting.it
        Validity
            Not Before: Aug 26 15:19:32 2022 GMT
            Not After : Aug 26 15:19:32 2023 GMT
        Subject: CN=Bill, C=IT, ST=Italia, O=Regione Valle_d_Aosta
        Subject Public Key Info:
            Public Key Algorithm: id-ecPublicKey
                Public-Key: (256 bit)
                pub:
                    04:62:47:93:84:ec:61:24:48:9b:7e:27:d9:df:8e:
                    23:cd:65:04:ea:b8:38:c1:36:41:ea:75:5b:fd:cd:
                    0b:d0:5d:64:c9:8d:a1:71:58:f3:bc:7d:5f:39:c5:
                    9c:26:65:91:40:d0:27:09:4f:5f:fb:ff:07:f5:01:
                    82:b8:03:dc:b2
                ASN1 OID: secp256k1
        X509v3 extensions:
            X509v3 Key Usage: critical
                Digital Signature, Key Encipherment
            X509v3 Basic Constraints: critical
                CA:FALSE, pathlen:3
    Signature Algorithm: ecdsa-with-SHA256
         30:45:02:21:00:c6:a1:9e:57:fb:59:f4:60:29:05:32:1e:a1:
         74:b9:9f:6c:8b:b7:f8:62:55:91:49:60:b7:9e:1c:b0:ca:1d:
         4a:02:20:70:b4:45:12:f3:b2:8e:70:57:df:ba:f5:91:9f:fb:
         19:b1:cc:6b:c8:8b:8d:bf:8e:be:ee:de:ee:6e:a1:14:3b
-----BEGIN CERTIFICATE-----
MIICAjCCAaigAwIBAgIBETAKBggqhkjOPQQDAjCBpTEeMBwGA1UEAwwVUmVnaW9u
ZSBWYWxsZV9kX0Fvc3RhMQswCQYDVQQGEwJJVDEPMA0GA1UECAwGSXRhbGlhMRgw
FgYDVQQKDA9FLVZvdGluZyBzeXN0ZW0xIjAgBgNVBAsMGUUtVm90aW5nIHN5c3Rl
bSBhdXRob3JpdHkxJzAlBgkqhkiG9w0BCQEWGFZhbGxlX2RfQW9zdGFAZXZvdGlu
Zy5pdDAeFw0yMjA4MjYxNTE5MzJaFw0yMzA4MjYxNTE5MzJaME0xDTALBgNVBAMM
BEJpbGwxCzAJBgNVBAYTAklUMQ8wDQYDVQQIDAZJdGFsaWExHjAcBgNVBAoMFVJl
Z2lvbmUgVmFsbGVfZF9Bb3N0YTBWMBAGByqGSM49AgEGBSuBBAAKA0IABGJHk4Ts
YSRIm34n2d+OI81lBOq4OME2Qep1W/3NC9BdZMmNoXFY87x9XznFnCZlkUDQJwlP
X/v/B/UBgrgD3LKjIzAhMA4GA1UdDwEB/wQEAwIFoDAPBgNVHRMBAf8EBTADAgED
MAoGCCqGSM49BAMCA0gAMEUCIQDGoZ5X+1n0YCkFMh6hdLmfbIu3+GJVkUlgt54c
sModSgIgcLRFEvOyjnBX37r1kZ/7GbHMa8iLjb+Ovu7e7m6hFDs=
-----END CERTIFICATE-----
