Certificate:
    Data:
        Version: 3 (0x2)
        Serial Number: 21 (0x15)
        Signature Algorithm: ecdsa-with-SHA256
        Issuer: CN=Regione Lombardia, C=IT, ST=Italia, O=E-Voting system, OU=E-Voting system authority/emailAddress=Lombardia@evoting.it
        Validity
            Not Before: Aug 26 15:20:00 2022 GMT
            Not After : Aug 26 15:20:00 2023 GMT
        Subject: CN=Billie, C=IT, ST=Italia, O=Regione Lombardia
        Subject Public Key Info:
            Public Key Algorithm: id-ecPublicKey
                Public-Key: (256 bit)
                pub:
                    04:23:9e:71:9c:bd:b4:4c:1f:11:42:2f:f8:ef:ed:
                    08:75:08:6c:4b:95:ce:40:39:47:e0:4e:98:c5:23:
                    1d:b4:61:5a:43:2d:85:df:ef:d1:13:cc:92:b5:69:
                    7e:45:9e:b2:d2:94:44:1e:20:84:6e:0f:60:2c:09:
                    e0:14:6c:b9:81
                ASN1 OID: secp256k1
        X509v3 extensions:
            X509v3 Key Usage: critical
                Digital Signature, Key Encipherment
            X509v3 Basic Constraints: critical
                CA:FALSE, pathlen:3
    Signature Algorithm: ecdsa-with-SHA256
         30:45:02:21:00:80:bb:0c:88:ad:4d:84:a8:a6:dc:00:85:c8:
         e2:d3:87:de:7a:66:db:7d:b5:a1:e4:c1:cf:69:62:f6:dd:76:
         93:02:20:7a:aa:f4:91:f6:39:7c:f1:9b:5f:8e:ef:35:93:79:
         a5:96:79:d5:fb:de:d0:3c:90:a5:55:02:40:7d:22:a1:ba
-----BEGIN CERTIFICATE-----
MIIB+DCCAZ6gAwIBAgIBFTAKBggqhkjOPQQDAjCBnTEaMBgGA1UEAwwRUmVnaW9u
ZSBMb21iYXJkaWExCzAJBgNVBAYTAklUMQ8wDQYDVQQIDAZJdGFsaWExGDAWBgNV
BAoMD0UtVm90aW5nIHN5c3RlbTEiMCAGA1UECwwZRS1Wb3Rpbmcgc3lzdGVtIGF1
dGhvcml0eTEjMCEGCSqGSIb3DQEJARYUTG9tYmFyZGlhQGV2b3RpbmcuaXQwHhcN
MjIwODI2MTUyMDAwWhcNMjMwODI2MTUyMDAwWjBLMQ8wDQYDVQQDDAZCaWxsaWUx
CzAJBgNVBAYTAklUMQ8wDQYDVQQIDAZJdGFsaWExGjAYBgNVBAoMEVJlZ2lvbmUg
TG9tYmFyZGlhMFYwEAYHKoZIzj0CAQYFK4EEAAoDQgAEI55xnL20TB8RQi/47+0I
dQhsS5XOQDlH4E6YxSMdtGFaQy2F3+/RE8yStWl+RZ6y0pREHiCEbg9gLAngFGy5
gaMjMCEwDgYDVR0PAQH/BAQDAgWgMA8GA1UdEwEB/wQFMAMCAQMwCgYIKoZIzj0E
AwIDSAAwRQIhAIC7DIitTYSoptwAhcji04feembbfbWh5MHPaWL23XaTAiB6qvSR
9jl88Ztfju81k3mllnnV+97QPJClVQJAfSKhug==
-----END CERTIFICATE-----
