Certificate:
    Data:
        Version: 3 (0x2)
        Serial Number: 49 (0x31)
        Signature Algorithm: ecdsa-with-SHA256
        Issuer: CN=Regione Molise, C=IT, ST=Italia, O=E-Voting system, OU=E-Voting system authority/emailAddress=Molise@evoting.it
        Validity
            Not Before: Aug 26 15:21:48 2022 GMT
            Not After : Aug 26 15:21:48 2023 GMT
        Subject: CN=Blake, C=IT, ST=Italia, O=Regione Molise
        Subject Public Key Info:
            Public Key Algorithm: id-ecPublicKey
                Public-Key: (256 bit)
                pub:
                    04:bb:c3:8c:6f:94:6e:c8:d3:50:10:a2:5b:47:25:
                    42:84:5a:48:67:e1:86:71:6d:0d:73:36:2a:ce:70:
                    6f:58:6d:1c:a3:3f:c1:13:09:77:bb:95:c2:15:cf:
                    9d:2f:55:0f:3c:35:ba:46:3b:2e:f8:c9:ef:41:68:
                    08:ee:7f:3a:ae
                ASN1 OID: secp256k1
        X509v3 extensions:
            X509v3 Key Usage: critical
                Digital Signature, Key Encipherment
            X509v3 Basic Constraints: critical
                CA:FALSE, pathlen:3
    Signature Algorithm: ecdsa-with-SHA256
         30:45:02:21:00:d7:9a:62:c2:26:4b:49:58:85:cd:e3:06:39:
         27:29:17:35:cf:4f:c7:d5:42:c0:99:49:b0:10:10:5d:41:44:
         ae:02:20:42:88:4d:21:80:66:44:1f:38:fe:1d:08:64:a1:4a:
         ff:3e:01:d6:fe:22:54:97:94:7f:a3:ca:29:5f:85:62:b1
-----BEGIN CERTIFICATE-----
MIIB7jCCAZSgAwIBAgIBMTAKBggqhkjOPQQDAjCBlzEXMBUGA1UEAwwOUmVnaW9u
ZSBNb2xpc2UxCzAJBgNVBAYTAklUMQ8wDQYDVQQIDAZJdGFsaWExGDAWBgNVBAoM
D0UtVm90aW5nIHN5c3RlbTEiMCAGA1UECwwZRS1Wb3Rpbmcgc3lzdGVtIGF1dGhv
cml0eTEgMB4GCSqGSIb3DQEJARYRTW9saXNlQGV2b3RpbmcuaXQwHhcNMjIwODI2
MTUyMTQ4WhcNMjMwODI2MTUyMTQ4WjBHMQ4wDAYDVQQDDAVCbGFrZTELMAkGA1UE
BhMCSVQxDzANBgNVBAgMBkl0YWxpYTEXMBUGA1UECgwOUmVnaW9uZSBNb2xpc2Uw
VjAQBgcqhkjOPQIBBgUrgQQACgNCAAS7w4xvlG7I01AQoltHJUKEWkhn4YZxbQ1z
NirOcG9YbRyjP8ETCXe7lcIVz50vVQ88NbpGOy74ye9BaAjufzquoyMwITAOBgNV
HQ8BAf8EBAMCBaAwDwYDVR0TAQH/BAUwAwIBAzAKBggqhkjOPQQDAgNIADBFAiEA
15piwiZLSViFzeMGOScpFzXPT8fVQsCZSbAQEF1BRK4CIEKITSGAZkQfOP4dCGSh
Sv8+Adb+IlSXlH+jyilfhWKx
-----END CERTIFICATE-----
