Certificate:
    Data:
        Version: 3 (0x2)
        Serial Number: 12 (0xc)
        Signature Algorithm: ecdsa-with-SHA256
        Issuer: CN=Regione Abruzzo, C=IT, ST=Italia, O=E-Voting system, OU=E-Voting system authority/emailAddress=Abruzzo@evoting.it
        Validity
            Not Before: Aug  3 13:26:21 2022 GMT
            Not After : Aug  3 13:26:21 2023 GMT
        Subject: CN=Bobbie, C=IT, ST=Italia, O=Regione Abruzzo
        Subject Public Key Info:
            Public Key Algorithm: id-ecPublicKey
                Public-Key: (256 bit)
                pub:
                    04:50:13:f6:21:b4:91:c5:89:98:6c:83:82:f4:b2:
                    6f:85:65:1c:f1:07:e1:ff:ce:f7:69:54:45:db:86:
                    02:17:fa:3c:46:8b:78:d6:d6:58:3c:a6:07:0d:2d:
                    aa:c3:2f:b2:52:68:a8:02:2f:c8:1d:c3:73:c3:0b:
                    55:25:a9:98:cc
                ASN1 OID: prime256v1
                NIST CURVE: P-256
        X509v3 extensions:
            X509v3 Key Usage: critical
                Digital Signature, Key Encipherment
            X509v3 Basic Constraints: critical
                CA:FALSE, pathlen:3
    Signature Algorithm: ecdsa-with-SHA256
         30:44:02:20:24:87:82:34:09:d5:c6:3a:31:ff:06:4c:e4:63:
         e7:f7:8b:6e:12:3e:12:9f:7b:eb:45:d3:07:7d:82:48:d5:a1:
         02:20:6c:37:80:e6:6d:48:89:18:f0:ca:46:e1:01:7c:8f:02:
         2b:60:d5:4a:56:d5:cb:40:b8:a6:9b:68:69:cd:a8:93
-----BEGIN CERTIFICATE-----
MIIB9DCCAZugAwIBAgIBDDAKBggqhkjOPQQDAjCBmTEYMBYGA1UEAwwPUmVnaW9u
ZSBBYnJ1enpvMQswCQYDVQQGEwJJVDEPMA0GA1UECAwGSXRhbGlhMRgwFgYDVQQK
DA9FLVZvdGluZyBzeXN0ZW0xIjAgBgNVBAsMGUUtVm90aW5nIHN5c3RlbSBhdXRo
b3JpdHkxITAfBgkqhkiG9w0BCQEWEkFicnV6em9AZXZvdGluZy5pdDAeFw0yMjA4
MDMxMzI2MjFaFw0yMzA4MDMxMzI2MjFaMEkxDzANBgNVBAMMBkJvYmJpZTELMAkG
A1UEBhMCSVQxDzANBgNVBAgMBkl0YWxpYTEYMBYGA1UECgwPUmVnaW9uZSBBYnJ1
enpvMFkwEwYHKoZIzj0CAQYIKoZIzj0DAQcDQgAEUBP2IbSRxYmYbIOC9LJvhWUc
8Qfh/873aVRF24YCF/o8Rot41tZYPKYHDS2qwy+yUmioAi/IHcNzwwtVJamYzKMj
MCEwDgYDVR0PAQH/BAQDAgWgMA8GA1UdEwEB/wQFMAMCAQMwCgYIKoZIzj0EAwID
RwAwRAIgJIeCNAnVxjox/wZM5GPn94tuEj4Sn3vrRdMHfYJI1aECIGw3gOZtSIkY
8MpG4QF8jwIrYNVKVtXLQLimm2hpzaiT
-----END CERTIFICATE-----
