Certificate:
    Data:
        Version: 3 (0x2)
        Serial Number: 42 (0x2a)
        Signature Algorithm: ecdsa-with-SHA256
        Issuer: CN=Regione Lazio, C=IT, ST=Italia, O=E-Voting system, OU=E-Voting system authority/emailAddress=Lazio@evoting.it
        Validity
            Not Before: Aug  3 13:28:04 2022 GMT
            Not After : Aug  3 13:28:04 2023 GMT
        Subject: CN=Bobby, C=IT, ST=Italia, O=Regione Lazio
        Subject Public Key Info:
            Public Key Algorithm: id-ecPublicKey
                Public-Key: (256 bit)
                pub:
                    04:85:71:10:72:2a:67:d1:cc:3d:86:8f:22:58:6a:
                    13:71:8e:28:e9:ae:8a:73:dc:2a:d4:51:c6:9c:ae:
                    32:9f:b7:70:e6:fe:a6:10:ca:da:ac:97:00:9e:95:
                    b2:13:83:a8:55:ef:23:80:28:25:50:14:e2:e9:2c:
                    09:27:e3:99:60
                ASN1 OID: prime256v1
                NIST CURVE: P-256
        X509v3 extensions:
            X509v3 Key Usage: critical
                Digital Signature, Key Encipherment
            X509v3 Basic Constraints: critical
                CA:FALSE, pathlen:3
    Signature Algorithm: ecdsa-with-SHA256
         30:46:02:21:00:f5:40:e5:7a:5d:f2:f6:44:04:7a:04:32:f0:
         35:19:0e:4a:af:18:81:0b:1e:9f:84:70:f2:ff:fe:87:45:90:
         04:02:21:00:b1:74:03:ec:cb:c4:7e:22:3f:79:4c:56:6d:51:
         f4:3a:ab:61:11:a4:2b:ca:ef:c4:ef:82:07:94:c9:a6:2a:fe
-----BEGIN CERTIFICATE-----
MIIB7zCCAZSgAwIBAgIBKjAKBggqhkjOPQQDAjCBlTEWMBQGA1UEAwwNUmVnaW9u
ZSBMYXppbzELMAkGA1UEBhMCSVQxDzANBgNVBAgMBkl0YWxpYTEYMBYGA1UECgwP
RS1Wb3Rpbmcgc3lzdGVtMSIwIAYDVQQLDBlFLVZvdGluZyBzeXN0ZW0gYXV0aG9y
aXR5MR8wHQYJKoZIhvcNAQkBFhBMYXppb0Bldm90aW5nLml0MB4XDTIyMDgwMzEz
MjgwNFoXDTIzMDgwMzEzMjgwNFowRjEOMAwGA1UEAwwFQm9iYnkxCzAJBgNVBAYT
AklUMQ8wDQYDVQQIDAZJdGFsaWExFjAUBgNVBAoMDVJlZ2lvbmUgTGF6aW8wWTAT
BgcqhkjOPQIBBggqhkjOPQMBBwNCAASFcRByKmfRzD2GjyJYahNxjijpropz3CrU
UcacrjKft3Dm/qYQytqslwCelbITg6hV7yOAKCVQFOLpLAkn45lgoyMwITAOBgNV
HQ8BAf8EBAMCBaAwDwYDVR0TAQH/BAUwAwIBAzAKBggqhkjOPQQDAgNJADBGAiEA
9UDlel3y9kQEegQy8DUZDkqvGIELHp+EcPL//odFkAQCIQCxdAPsy8R+Ij95TFZt
UfQ6q2ERpCvK78TvggeUyaYq/g==
-----END CERTIFICATE-----
