Certificate:
    Data:
        Version: 3 (0x2)
        Serial Number: 1 (0x1)
        Signature Algorithm: ecdsa-with-SHA256
        Issuer: CN=Regione Piemonte, C=IT, ST=Italia, O=E-Voting system, OU=E-Voting system authority/emailAddress=Piemonte@evoting.it
        Validity
            Not Before: Aug 26 15:18:24 2022 GMT
            Not After : Aug 26 15:18:24 2023 GMT
        Subject: CN=Bobbie, C=IT, ST=Italia, O=Regione Piemonte
        Subject Public Key Info:
            Public Key Algorithm: id-ecPublicKey
                Public-Key: (256 bit)
                pub:
                    04:b6:e7:95:82:4e:a6:88:67:fe:62:49:44:5e:dc:
                    0c:12:0e:4e:7f:f6:9d:b2:15:f4:33:6e:bd:c9:1b:
                    36:41:46:a1:cb:09:e4:1f:d4:fd:77:f0:10:56:29:
                    97:e8:68:9e:7b:43:74:9a:df:a3:8c:4d:17:b0:1c:
                    12:19:9c:b4:dc
                ASN1 OID: secp256k1
        X509v3 extensions:
            X509v3 Key Usage: critical
                Digital Signature, Key Encipherment
            X509v3 Basic Constraints: critical
                CA:FALSE, pathlen:3
    Signature Algorithm: ecdsa-with-SHA256
         30:45:02:21:00:90:cd:c1:da:7c:0d:ef:43:3f:53:b1:eb:16:
         83:c4:98:b1:c6:15:9d:b4:f8:3a:2c:a2:d4:23:b6:12:61:e7:
         82:02:20:39:fe:6d:3b:83:46:b7:db:4e:bb:07:2d:f6:a9:97:
         5e:ca:7c:d4:cd:88:ba:0f:dd:28:9f:e0:c4:69:f6:d3:19
-----BEGIN CERTIFICATE-----
MIIB9TCCAZugAwIBAgIBATAKBggqhkjOPQQDAjCBmzEZMBcGA1UEAwwQUmVnaW9u
ZSBQaWVtb250ZTELMAkGA1UEBhMCSVQxDzANBgNVBAgMBkl0YWxpYTEYMBYGA1UE
CgwPRS1Wb3Rpbmcgc3lzdGVtMSIwIAYDVQQLDBlFLVZvdGluZyBzeXN0ZW0gYXV0
aG9yaXR5MSIwIAYJKoZIhvcNAQkBFhNQaWVtb250ZUBldm90aW5nLml0MB4XDTIy
MDgyNjE1MTgyNFoXDTIzMDgyNjE1MTgyNFowSjEPMA0GA1UEAwwGQm9iYmllMQsw
CQYDVQQGEwJJVDEPMA0GA1UECAwGSXRhbGlhMRkwFwYDVQQKDBBSZWdpb25lIFBp
ZW1vbnRlMFYwEAYHKoZIzj0CAQYFK4EEAAoDQgAEtueVgk6miGf+YklEXtwMEg5O
f/adshX0M269yRs2QUahywnkH9T9d/AQVimX6Giee0N0mt+jjE0XsBwSGZy03KMj
MCEwDgYDVR0PAQH/BAQDAgWgMA8GA1UdEwEB/wQFMAMCAQMwCgYIKoZIzj0EAwID
SAAwRQIhAJDNwdp8De9DP1Ox6xaDxJixxhWdtPg6LKLUI7YSYeeCAiA5/m07g0a3
2067By32qZdeynzUzYi6D90on+DEafbTGQ==
-----END CERTIFICATE-----
