Certificate:
    Data:
        Version: 3 (0x2)
        Serial Number: 21 (0x15)
        Signature Algorithm: ecdsa-with-SHA256
        Issuer: CN=Regione Calabria, C=IT, ST=Italia, O=E-Voting system, OU=E-Voting system authority/emailAddress=Calabria@evoting.it
        Validity
            Not Before: Aug 26 15:20:01 2022 GMT
            Not After : Aug 26 15:20:01 2023 GMT
        Subject: CN=Bobby, C=IT, ST=Italia, O=Regione Calabria
        Subject Public Key Info:
            Public Key Algorithm: id-ecPublicKey
                Public-Key: (256 bit)
                pub:
                    04:ed:96:9c:2d:57:b7:0f:7c:7b:24:73:d8:be:dd:
                    bd:78:23:6f:e6:cf:3b:42:0c:2b:e1:b9:4c:68:44:
                    56:95:0e:87:ce:1a:9a:87:8c:32:5a:18:9f:6d:b7:
                    bb:48:08:9f:c4:f8:08:fd:3e:7e:62:ff:f8:0c:d1:
                    06:79:ee:12:80
                ASN1 OID: secp256k1
        X509v3 extensions:
            X509v3 Key Usage: critical
                Digital Signature, Key Encipherment
            X509v3 Basic Constraints: critical
                CA:FALSE, pathlen:3
    Signature Algorithm: ecdsa-with-SHA256
         30:44:02:20:76:8a:71:8f:3b:59:19:01:98:98:0a:05:00:00:
         a8:ca:b3:fc:2e:f8:c9:9c:73:90:6a:63:4e:01:9c:f1:63:c4:
         02:20:0e:09:99:cb:ec:ee:8d:44:e1:27:6c:bf:a0:d0:ef:8a:
         34:05:dc:e9:17:8a:4a:9b:2b:c3:a9:a4:c1:af:11:0c
-----BEGIN CERTIFICATE-----
MIIB8zCCAZqgAwIBAgIBFTAKBggqhkjOPQQDAjCBmzEZMBcGA1UEAwwQUmVnaW9u
ZSBDYWxhYnJpYTELMAkGA1UEBhMCSVQxDzANBgNVBAgMBkl0YWxpYTEYMBYGA1UE
CgwPRS1Wb3Rpbmcgc3lzdGVtMSIwIAYDVQQLDBlFLVZvdGluZyBzeXN0ZW0gYXV0
aG9yaXR5MSIwIAYJKoZIhvcNAQkBFhNDYWxhYnJpYUBldm90aW5nLml0MB4XDTIy
MDgyNjE1MjAwMVoXDTIzMDgyNjE1MjAwMVowSTEOMAwGA1UEAwwFQm9iYnkxCzAJ
BgNVBAYTAklUMQ8wDQYDVQQIDAZJdGFsaWExGTAXBgNVBAoMEFJlZ2lvbmUgQ2Fs
YWJyaWEwVjAQBgcqhkjOPQIBBgUrgQQACgNCAATtlpwtV7cPfHskc9i+3b14I2/m
zztCDCvhuUxoRFaVDofOGpqHjDJaGJ9tt7tICJ/E+Aj9Pn5i//gM0QZ57hKAoyMw
ITAOBgNVHQ8BAf8EBAMCBaAwDwYDVR0TAQH/BAUwAwIBAzAKBggqhkjOPQQDAgNH
ADBEAiB2inGPO1kZAZiYCgUAAKjKs/wu+Mmcc5BqY04BnPFjxAIgDgmZy+zujUTh
J2y/oNDvijQF3OkXikqbK8OppMGvEQw=
-----END CERTIFICATE-----
