Certificate:
    Data:
        Version: 3 (0x2)
        Serial Number: 48 (0x30)
        Signature Algorithm: ecdsa-with-SHA256
        Issuer: CN=Regione Marche, C=IT, ST=Italia, O=E-Voting system, OU=E-Voting system authority/emailAddress=Marche@evoting.it
        Validity
            Not Before: Aug  3 13:28:41 2022 GMT
            Not After : Aug  3 13:28:41 2023 GMT
        Subject: CN=Bonnie, C=IT, ST=Italia, O=Regione Marche
        Subject Public Key Info:
            Public Key Algorithm: id-ecPublicKey
                Public-Key: (256 bit)
                pub:
                    04:9d:3b:de:7f:c9:02:ba:99:38:6b:75:5d:42:52:
                    99:04:c5:c7:d8:84:56:0b:6e:fb:8e:87:71:b6:ab:
                    06:40:ef:df:bb:c3:47:bb:71:5c:67:f7:df:4b:9e:
                    af:ca:56:69:7d:c7:c5:99:0a:67:62:bd:21:3c:03:
                    7f:4b:1a:2b:89
                ASN1 OID: prime256v1
                NIST CURVE: P-256
        X509v3 extensions:
            X509v3 Key Usage: critical
                Digital Signature, Key Encipherment
            X509v3 Basic Constraints: critical
                CA:FALSE, pathlen:3
    Signature Algorithm: ecdsa-with-SHA256
         30:46:02:21:00:a9:bc:18:30:a0:96:b3:fc:5d:e3:70:7e:b2:
         fe:a8:9d:4b:a2:93:73:15:74:b9:a9:7d:0d:55:07:74:66:b2:
         d8:02:21:00:e0:8d:e4:0f:87:cb:a3:1a:20:fa:10:61:61:fc:
         d8:14:d4:1b:db:6c:62:b2:a3:fd:3e:54:2e:f0:56:01:3e:43
-----BEGIN CERTIFICATE-----
MIIB8zCCAZigAwIBAgIBMDAKBggqhkjOPQQDAjCBlzEXMBUGA1UEAwwOUmVnaW9u
ZSBNYXJjaGUxCzAJBgNVBAYTAklUMQ8wDQYDVQQIDAZJdGFsaWExGDAWBgNVBAoM
D0UtVm90aW5nIHN5c3RlbTEiMCAGA1UECwwZRS1Wb3Rpbmcgc3lzdGVtIGF1dGhv
cml0eTEgMB4GCSqGSIb3DQEJARYRTWFyY2hlQGV2b3RpbmcuaXQwHhcNMjIwODAz
MTMyODQxWhcNMjMwODAzMTMyODQxWjBIMQ8wDQYDVQQDDAZCb25uaWUxCzAJBgNV
BAYTAklUMQ8wDQYDVQQIDAZJdGFsaWExFzAVBgNVBAoMDlJlZ2lvbmUgTWFyY2hl
MFkwEwYHKoZIzj0CAQYIKoZIzj0DAQcDQgAEnTvef8kCupk4a3VdQlKZBMXH2IRW
C277jodxtqsGQO/fu8NHu3FcZ/ffS56vylZpfcfFmQpnYr0hPAN/SxoriaMjMCEw
DgYDVR0PAQH/BAQDAgWgMA8GA1UdEwEB/wQFMAMCAQMwCgYIKoZIzj0EAwIDSQAw
RgIhAKm8GDCglrP8XeNwfrL+qJ1LopNzFXS5qX0NVQd0ZrLYAiEA4I3kD4fLoxog
+hBhYfzYFNQb22xisqP9PlQu8FYBPkM=
-----END CERTIFICATE-----
