Certificate:
    Data:
        Version: 3 (0x2)
        Serial Number: 1 (0x1)
        Signature Algorithm: ecdsa-with-SHA256
        Issuer: CN=Regione Toscana, C=IT, ST=Italia, O=E-Voting system, OU=E-Voting system authority/emailAddress=Toscana@evoting.it
        Validity
            Not Before: Aug 26 15:18:31 2022 GMT
            Not After : Aug 26 15:18:31 2023 GMT
        Subject: CN=Bonnie, C=IT, ST=Italia, O=Regione Toscana
        Subject Public Key Info:
            Public Key Algorithm: id-ecPublicKey
                Public-Key: (256 bit)
                pub:
                    04:4b:f0:86:c3:1b:b3:fb:13:a3:71:06:a8:17:21:
                    e5:bd:a4:72:d1:00:9c:49:2c:97:9b:8f:39:ad:27:
                    a9:0b:ef:e8:08:2c:f9:45:c0:8e:11:43:f9:c7:66:
                    31:2e:08:2e:80:74:f4:f2:9d:20:42:ce:9e:61:cf:
                    88:26:77:65:d5
                ASN1 OID: secp256k1
        X509v3 extensions:
            X509v3 Key Usage: critical
                Digital Signature, Key Encipherment
            X509v3 Basic Constraints: critical
                CA:FALSE, pathlen:3
    Signature Algorithm: ecdsa-with-SHA256
         30:45:02:21:00:eb:8f:1e:3b:8d:c9:71:bc:fa:4c:fe:94:05:
         87:8a:61:38:f4:9a:17:54:6c:15:11:ec:e3:7c:aa:37:31:da:
         26:02:20:2b:c0:17:3d:80:ea:3b:89:46:16:00:6b:ad:32:c2:
         07:d8:b1:75:91:31:9a:6e:10:ad:4b:5d:4b:3f:fa:1d:77
-----BEGIN CERTIFICATE-----
MIIB8jCCAZigAwIBAgIBATAKBggqhkjOPQQDAjCBmTEYMBYGA1UEAwwPUmVnaW9u
ZSBUb3NjYW5hMQswCQYDVQQGEwJJVDEPMA0GA1UECAwGSXRhbGlhMRgwFgYDVQQK
DA9FLVZvdGluZyBzeXN0ZW0xIjAgBgNVBAsMGUUtVm90aW5nIHN5c3RlbSBhdXRo
b3JpdHkxITAfBgkqhkiG9w0BCQEWElRvc2NhbmFAZXZvdGluZy5pdDAeFw0yMjA4
MjYxNTE4MzFaFw0yMzA4MjYxNTE4MzFaMEkxDzANBgNVBAMMBkJvbm5pZTELMAkG
A1UEBhMCSVQxDzANBgNVBAgMBkl0YWxpYTEYMBYGA1UECgwPUmVnaW9uZSBUb3Nj
YW5hMFYwEAYHKoZIzj0CAQYFK4EEAAoDQgAES/CGwxuz+xOjcQaoFyHlvaRy0QCc
SSyXm485rSepC+/oCCz5RcCOEUP5x2YxLggugHT08p0gQs6eYc+IJndl1aMjMCEw
DgYDVR0PAQH/BAQDAgWgMA8GA1UdEwEB/wQFMAMCAQMwCgYIKoZIzj0EAwIDSAAw
RQIhAOuPHjuNyXG8+kz+lAWHimE49JoXVGwVEezjfKo3MdomAiArwBc9gOo7iUYW
AGutMsIH2LF1kTGabhCtS11LP/oddw==
-----END CERTIFICATE-----
