Certificate:
    Data:
        Version: 3 (0x2)
        Serial Number: 47 (0x2f)
        Signature Algorithm: ecdsa-with-SHA256
        Issuer: CN=Regione Valle_d_Aosta, C=IT, ST=Italia, O=E-Voting system, OU=E-Voting system authority/emailAddress=Valle_d_Aosta@evoting.it
        Validity
            Not Before: Aug  3 13:28:19 2022 GMT
            Not After : Aug  3 13:28:19 2023 GMT
        Subject: CN=Boyd, C=IT, ST=Italia, O=Regione Valle_d_Aosta
        Subject Public Key Info:
            Public Key Algorithm: id-ecPublicKey
                Public-Key: (256 bit)
                pub:
                    04:03:8c:35:4f:d0:6a:1e:24:55:a4:6b:01:6b:21:
                    83:8e:86:91:e7:0c:55:48:d9:e3:5e:e7:97:de:b4:
                    47:1d:46:76:cc:bc:2a:53:e7:3b:99:d2:5a:28:6f:
                    26:fe:6f:64:92:27:66:40:3f:48:1a:07:b4:65:4c:
                    d1:eb:19:b5:74
                ASN1 OID: prime256v1
                NIST CURVE: P-256
        X509v3 extensions:
            X509v3 Key Usage: critical
                Digital Signature, Key Encipherment
            X509v3 Basic Constraints: critical
                CA:FALSE, pathlen:3
    Signature Algorithm: ecdsa-with-SHA256
         30:46:02:21:00:be:72:11:93:b7:9c:52:0c:e9:41:08:25:01:
         a6:ef:36:f1:db:17:8c:16:f6:ed:70:21:42:ae:79:68:a2:d6:
         61:02:21:00:b7:11:8c:f1:4d:74:9c:e9:fe:14:b7:32:30:f5:
         be:0f:bc:b8:b2:81:fd:36:0c:32:61:bf:1c:8b:33:16:1f:09
-----BEGIN CERTIFICATE-----
MIICBjCCAaugAwIBAgIBLzAKBggqhkjOPQQDAjCBpTEeMBwGA1UEAwwVUmVnaW9u
ZSBWYWxsZV9kX0Fvc3RhMQswCQYDVQQGEwJJVDEPMA0GA1UECAwGSXRhbGlhMRgw
FgYDVQQKDA9FLVZvdGluZyBzeXN0ZW0xIjAgBgNVBAsMGUUtVm90aW5nIHN5c3Rl
bSBhdXRob3JpdHkxJzAlBgkqhkiG9w0BCQEWGFZhbGxlX2RfQW9zdGFAZXZvdGlu
Zy5pdDAeFw0yMjA4MDMxMzI4MTlaFw0yMzA4MDMxMzI4MTlaME0xDTALBgNVBAMM
BEJveWQxCzAJBgNVBAYTAklUMQ8wDQYDVQQIDAZJdGFsaWExHjAcBgNVBAoMFVJl
Z2lvbmUgVmFsbGVfZF9Bb3N0YTBZMBMGByqGSM49AgEGCCqGSM49AwEHA0IABAOM
NU/Qah4kVaRrAWshg46GkecMVUjZ417nl960Rx1Gdsy8KlPnO5nSWihvJv5vZJIn
ZkA/SBoHtGVM0esZtXSjIzAhMA4GA1UdDwEB/wQEAwIFoDAPBgNVHRMBAf8EBTAD
AgEDMAoGCCqGSM49BAMCA0kAMEYCIQC+chGTt5xSDOlBCCUBpu828dsXjBb27XAh
Qq55aKLWYQIhALcRjPFNdJzp/hS3MjD1vg+8uLKB/TYMMmG/HIszFh8J
-----END CERTIFICATE-----
