Certificate:
    Data:
        Version: 3 (0x2)
        Serial Number: 32 (0x20)
        Signature Algorithm: ecdsa-with-SHA256
        Issuer: CN=Regione Lazio, C=IT, ST=Italia, O=E-Voting system, OU=E-Voting system authority/emailAddress=Lazio@evoting.it
        Validity
            Not Before: Aug 26 15:20:44 2022 GMT
            Not After : Aug 26 15:20:44 2023 GMT
        Subject: CN=Bradley, C=IT, ST=Italia, O=Regione Lazio
        Subject Public Key Info:
            Public Key Algorithm: id-ecPublicKey
                Public-Key: (256 bit)
                pub:
                    04:aa:e0:e3:3f:fd:21:14:1a:aa:20:82:41:40:fb:
                    b1:25:8d:0b:8c:74:49:9b:9a:84:27:5d:ef:aa:2a:
                    04:39:84:74:b3:e4:18:7e:f4:df:bb:fd:64:28:52:
                    69:8b:93:1b:f0:f4:7b:ed:3e:20:89:f4:82:77:52:
                    67:c4:e1:3b:4a
                ASN1 OID: secp256k1
        X509v3 extensions:
            X509v3 Key Usage: critical
                Digital Signature, Key Encipherment
            X509v3 Basic Constraints: critical
                CA:FALSE, pathlen:3
    Signature Algorithm: ecdsa-with-SHA256
         30:45:02:20:0b:e5:56:93:a0:7d:cd:dd:56:f7:b6:66:99:0f:
         21:e6:2f:d1:0d:2a:ec:24:20:0f:37:07:49:a0:df:d4:04:1e:
         02:21:00:e0:a0:70:d3:f5:57:c9:a2:e0:60:2f:73:72:c3:57:
         3b:e8:ff:eb:7f:cc:2c:55:f4:f9:c5:95:e6:48:6c:33:04
-----BEGIN CERTIFICATE-----
MIIB7TCCAZOgAwIBAgIBIDAKBggqhkjOPQQDAjCBlTEWMBQGA1UEAwwNUmVnaW9u
ZSBMYXppbzELMAkGA1UEBhMCSVQxDzANBgNVBAgMBkl0YWxpYTEYMBYGA1UECgwP
RS1Wb3Rpbmcgc3lzdGVtMSIwIAYDVQQLDBlFLVZvdGluZyBzeXN0ZW0gYXV0aG9y
aXR5MR8wHQYJKoZIhvcNAQkBFhBMYXppb0Bldm90aW5nLml0MB4XDTIyMDgyNjE1
MjA0NFoXDTIzMDgyNjE1MjA0NFowSDEQMA4GA1UEAwwHQnJhZGxleTELMAkGA1UE
BhMCSVQxDzANBgNVBAgMBkl0YWxpYTEWMBQGA1UECgwNUmVnaW9uZSBMYXppbzBW
MBAGByqGSM49AgEGBSuBBAAKA0IABKrg4z/9IRQaqiCCQUD7sSWNC4x0SZuahCdd
76oqBDmEdLPkGH7037v9ZChSaYuTG/D0e+0+IIn0gndSZ8ThO0qjIzAhMA4GA1Ud
DwEB/wQEAwIFoDAPBgNVHRMBAf8EBTADAgEDMAoGCCqGSM49BAMCA0gAMEUCIAvl
VpOgfc3dVve2ZpkPIeYv0Q0q7CQgDzcHSaDf1AQeAiEA4KBw0/VXyaLgYC9zcsNX
O+j/63/MLFX0+cWV5khsMwQ=
-----END CERTIFICATE-----
