Certificate:
    Data:
        Version: 3 (0x2)
        Serial Number: 8 (0x8)
        Signature Algorithm: ecdsa-with-SHA256
        Issuer: CN=Regione Sardegna, C=IT, ST=Italia, O=E-Voting system, OU=E-Voting system authority/emailAddress=Sardegna@evoting.it
        Validity
            Not Before: Aug 26 15:19:15 2022 GMT
            Not After : Aug 26 15:19:15 2023 GMT
        Subject: CN=Brad, C=IT, ST=Italia, O=Regione Sardegna
        Subject Public Key Info:
            Public Key Algorithm: id-ecPublicKey
                Public-Key: (256 bit)
                pub:
                    04:8f:17:ba:f7:1c:85:08:a6:56:09:2d:30:1b:c9:
                    60:10:a7:b7:ef:b7:ec:4b:f7:54:fb:9f:4c:95:12:
                    3f:63:3f:07:fb:bd:27:05:f7:3c:ea:12:e0:aa:d8:
                    5c:89:fc:fd:ec:51:c6:19:b2:55:f3:40:22:d1:54:
                    98:7a:fc:55:55
                ASN1 OID: secp256k1
        X509v3 extensions:
            X509v3 Key Usage: critical
                Digital Signature, Key Encipherment
            X509v3 Basic Constraints: critical
                CA:FALSE, pathlen:3
    Signature Algorithm: ecdsa-with-SHA256
         30:45:02:20:45:14:11:d7:ac:67:47:f2:3c:f9:71:c2:88:d8:
         70:d8:8d:da:60:96:52:f4:93:46:d3:15:c1:76:8a:46:54:fc:
         02:21:00:ab:ed:f3:78:5c:d3:4c:5e:9e:3d:83:49:a0:a5:0f:
         d8:1b:55:84:41:cb:36:c0:70:37:af:0e:f6:a4:1d:e5:d6
-----BEGIN CERTIFICATE-----
MIIB8zCCAZmgAwIBAgIBCDAKBggqhkjOPQQDAjCBmzEZMBcGA1UEAwwQUmVnaW9u
ZSBTYXJkZWduYTELMAkGA1UEBhMCSVQxDzANBgNVBAgMBkl0YWxpYTEYMBYGA1UE
CgwPRS1Wb3Rpbmcgc3lzdGVtMSIwIAYDVQQLDBlFLVZvdGluZyBzeXN0ZW0gYXV0
aG9yaXR5MSIwIAYJKoZIhvcNAQkBFhNTYXJkZWduYUBldm90aW5nLml0MB4XDTIy
MDgyNjE1MTkxNVoXDTIzMDgyNjE1MTkxNVowSDENMAsGA1UEAwwEQnJhZDELMAkG
A1UEBhMCSVQxDzANBgNVBAgMBkl0YWxpYTEZMBcGA1UECgwQUmVnaW9uZSBTYXJk
ZWduYTBWMBAGByqGSM49AgEGBSuBBAAKA0IABI8XuvcchQimVgktMBvJYBCnt++3
7Ev3VPufTJUSP2M/B/u9JwX3POoS4KrYXIn8/exRxhmyVfNAItFUmHr8VVWjIzAh
MA4GA1UdDwEB/wQEAwIFoDAPBgNVHRMBAf8EBTADAgEDMAoGCCqGSM49BAMCA0gA
MEUCIEUUEdesZ0fyPPlxwojYcNiN2mCWUvSTRtMVwXaKRlT8AiEAq+3zeFzTTF6e
PYNJoKUP2BtVhEHLNsBwN68O9qQd5dY=
-----END CERTIFICATE-----
