Certificate:
    Data:
        Version: 3 (0x2)
        Serial Number: 24 (0x18)
        Signature Algorithm: ecdsa-with-SHA256
        Issuer: CN=Regione Liguria, C=IT, ST=Italia, O=E-Voting system, OU=E-Voting system authority/emailAddress=Liguria@evoting.it
        Validity
            Not Before: Aug 26 15:19:22 2022 GMT
            Not After : Aug 26 15:19:22 2023 GMT
        Subject: CN=Brandon, C=IT, ST=Italia, O=Regione Liguria
        Subject Public Key Info:
            Public Key Algorithm: id-ecPublicKey
                Public-Key: (256 bit)
                pub:
                    04:bd:61:2e:12:bd:a0:b5:a0:e5:2e:86:b4:6d:e1:
                    26:90:c9:5c:3e:f2:18:8b:f7:64:e5:c2:a2:cb:de:
                    37:89:f7:bd:ff:b0:a5:17:6d:1d:f7:66:0f:74:3e:
                    ef:57:da:6d:1e:55:32:e6:8d:05:75:59:7c:b7:f0:
                    1d:b0:e5:c1:fb
                ASN1 OID: secp256k1
        X509v3 extensions:
            X509v3 Key Usage: critical
                Digital Signature, Key Encipherment
            X509v3 Basic Constraints: critical
                CA:FALSE, pathlen:3
    Signature Algorithm: ecdsa-with-SHA256
         30:45:02:20:4f:d7:a8:e4:ce:8b:a3:d1:e0:35:a9:95:d9:d5:
         aa:d2:ef:a3:d8:21:84:05:c4:5d:3b:b8:f1:d2:5e:ca:82:4e:
         02:21:00:9b:3f:e8:20:4b:2f:7e:2a:9c:94:22:e9:86:3f:bd:
         0e:8d:97:ed:60:e0:ec:50:ce:92:67:c6:8f:4c:6d:98:e1
-----BEGIN CERTIFICATE-----
MIIB8zCCAZmgAwIBAgIBGDAKBggqhkjOPQQDAjCBmTEYMBYGA1UEAwwPUmVnaW9u
ZSBMaWd1cmlhMQswCQYDVQQGEwJJVDEPMA0GA1UECAwGSXRhbGlhMRgwFgYDVQQK
DA9FLVZvdGluZyBzeXN0ZW0xIjAgBgNVBAsMGUUtVm90aW5nIHN5c3RlbSBhdXRo
b3JpdHkxITAfBgkqhkiG9w0BCQEWEkxpZ3VyaWFAZXZvdGluZy5pdDAeFw0yMjA4
MjYxNTE5MjJaFw0yMzA4MjYxNTE5MjJaMEoxEDAOBgNVBAMMB0JyYW5kb24xCzAJ
BgNVBAYTAklUMQ8wDQYDVQQIDAZJdGFsaWExGDAWBgNVBAoMD1JlZ2lvbmUgTGln
dXJpYTBWMBAGByqGSM49AgEGBSuBBAAKA0IABL1hLhK9oLWg5S6GtG3hJpDJXD7y
GIv3ZOXCosveN4n3vf+wpRdtHfdmD3Q+71fabR5VMuaNBXVZfLfwHbDlwfujIzAh
MA4GA1UdDwEB/wQEAwIFoDAPBgNVHRMBAf8EBTADAgEDMAoGCCqGSM49BAMCA0gA
MEUCIE/XqOTOi6PR4DWpldnVqtLvo9ghhAXEXTu48dJeyoJOAiEAmz/oIEsvfiqc
lCLphj+9Do2X7WDg7FDOkmfGj0xtmOE=
-----END CERTIFICATE-----
