Certificate:
    Data:
        Version: 3 (0x2)
        Serial Number: 52 (0x34)
        Signature Algorithm: ecdsa-with-SHA256
        Issuer: CN=Regione Liguria, C=IT, ST=Italia, O=E-Voting system, OU=E-Voting system authority/emailAddress=Liguria@evoting.it
        Validity
            Not Before: Aug 26 15:21:17 2022 GMT
            Not After : Aug 26 15:21:17 2023 GMT
        Subject: CN=Brandy, C=IT, ST=Italia, O=Regione Liguria
        Subject Public Key Info:
            Public Key Algorithm: id-ecPublicKey
                Public-Key: (256 bit)
                pub:
                    04:84:42:89:4e:0a:3d:66:0c:7a:b1:b1:50:99:79:
                    eb:61:97:ac:98:12:10:0d:c8:c8:62:ad:bd:3c:79:
                    5b:29:5d:0b:35:30:e6:fc:69:38:0b:ae:2d:62:ca:
                    8f:63:75:11:6c:e8:a2:b2:79:cc:6e:52:7c:bc:0a:
                    21:9c:57:24:8a
                ASN1 OID: secp256k1
        X509v3 extensions:
            X509v3 Key Usage: critical
                Digital Signature, Key Encipherment
            X509v3 Basic Constraints: critical
                CA:FALSE, pathlen:3
    Signature Algorithm: ecdsa-with-SHA256
         30:45:02:20:7c:b0:b2:ea:f9:d4:7e:6c:f2:84:db:c2:61:37:
         ff:fa:30:c6:54:ee:6d:3e:88:98:f2:70:a7:9d:c0:91:f8:d9:
         02:21:00:95:46:e9:c2:80:3c:87:d6:e1:4a:de:9c:59:4e:89:
         f8:c8:0c:c4:fa:ea:55:b5:f1:29:1c:9a:89:18:b6:bc:08
-----BEGIN CERTIFICATE-----
MIIB8jCCAZigAwIBAgIBNDAKBggqhkjOPQQDAjCBmTEYMBYGA1UEAwwPUmVnaW9u
ZSBMaWd1cmlhMQswCQYDVQQGEwJJVDEPMA0GA1UECAwGSXRhbGlhMRgwFgYDVQQK
DA9FLVZvdGluZyBzeXN0ZW0xIjAgBgNVBAsMGUUtVm90aW5nIHN5c3RlbSBhdXRo
b3JpdHkxITAfBgkqhkiG9w0BCQEWEkxpZ3VyaWFAZXZvdGluZy5pdDAeFw0yMjA4
MjYxNTIxMTdaFw0yMzA4MjYxNTIxMTdaMEkxDzANBgNVBAMMBkJyYW5keTELMAkG
A1UEBhMCSVQxDzANBgNVBAgMBkl0YWxpYTEYMBYGA1UECgwPUmVnaW9uZSBMaWd1
cmlhMFYwEAYHKoZIzj0CAQYFK4EEAAoDQgAEhEKJTgo9Zgx6sbFQmXnrYZesmBIQ
DcjIYq29PHlbKV0LNTDm/Gk4C64tYsqPY3URbOiisnnMblJ8vAohnFckiqMjMCEw
DgYDVR0PAQH/BAQDAgWgMA8GA1UdEwEB/wQFMAMCAQMwCgYIKoZIzj0EAwIDSAAw
RQIgfLCy6vnUfmzyhNvCYTf/+jDGVO5tPoiY8nCnncCR+NkCIQCVRunCgDyH1uFK
3pxZTon4yAzE+upVtfEpHJqJGLa8CA==
-----END CERTIFICATE-----
