Certificate:
    Data:
        Version: 3 (0x2)
        Serial Number: 22 (0x16)
        Signature Algorithm: ecdsa-with-SHA256
        Issuer: CN=Regione Abruzzo, C=IT, ST=Italia, O=E-Voting system, OU=E-Voting system authority/emailAddress=Abruzzo@evoting.it
        Validity
            Not Before: Aug  3 13:26:44 2022 GMT
            Not After : Aug  3 13:26:44 2023 GMT
        Subject: CN=Brandy, C=IT, ST=Italia, O=Regione Abruzzo
        Subject Public Key Info:
            Public Key Algorithm: id-ecPublicKey
                Public-Key: (256 bit)
                pub:
                    04:e1:63:91:58:c8:5a:af:86:c7:38:50:3c:f1:e3:
                    76:3f:5a:aa:79:6c:e5:f7:c6:45:6f:de:25:0e:d6:
                    cd:80:cd:42:c4:da:4b:b6:a0:92:70:f3:cc:cd:07:
                    6f:ec:cf:52:a5:52:21:bd:da:74:3e:58:86:b5:93:
                    2a:b2:a0:20:cb
                ASN1 OID: prime256v1
                NIST CURVE: P-256
        X509v3 extensions:
            X509v3 Key Usage: critical
                Digital Signature, Key Encipherment
            X509v3 Basic Constraints: critical
                CA:FALSE, pathlen:3
    Signature Algorithm: ecdsa-with-SHA256
         30:46:02:21:00:dc:a8:5b:60:15:c2:02:10:e7:54:71:3e:59:
         9e:16:e0:ff:08:57:47:ca:33:be:44:83:e2:7e:a1:24:1d:8a:
         21:02:21:00:f1:b8:c4:43:c5:5e:d1:ff:32:eb:0d:48:9f:a5:
         46:33:bc:4b:9d:1b:a5:80:50:e1:d8:fc:6e:99:d5:c5:2e:70
-----BEGIN CERTIFICATE-----
MIIB9jCCAZugAwIBAgIBFjAKBggqhkjOPQQDAjCBmTEYMBYGA1UEAwwPUmVnaW9u
ZSBBYnJ1enpvMQswCQYDVQQGEwJJVDEPMA0GA1UECAwGSXRhbGlhMRgwFgYDVQQK
DA9FLVZvdGluZyBzeXN0ZW0xIjAgBgNVBAsMGUUtVm90aW5nIHN5c3RlbSBhdXRo
b3JpdHkxITAfBgkqhkiG9w0BCQEWEkFicnV6em9AZXZvdGluZy5pdDAeFw0yMjA4
MDMxMzI2NDRaFw0yMzA4MDMxMzI2NDRaMEkxDzANBgNVBAMMBkJyYW5keTELMAkG
A1UEBhMCSVQxDzANBgNVBAgMBkl0YWxpYTEYMBYGA1UECgwPUmVnaW9uZSBBYnJ1
enpvMFkwEwYHKoZIzj0CAQYIKoZIzj0DAQcDQgAE4WORWMhar4bHOFA88eN2P1qq
eWzl98ZFb94lDtbNgM1CxNpLtqCScPPMzQdv7M9SpVIhvdp0PliGtZMqsqAgy6Mj
MCEwDgYDVR0PAQH/BAQDAgWgMA8GA1UdEwEB/wQFMAMCAQMwCgYIKoZIzj0EAwID
SQAwRgIhANyoW2AVwgIQ51RxPlmeFuD/CFdHyjO+RIPifqEkHYohAiEA8bjEQ8Ve
0f8y6w1In6VGM7xLnRulgFDh2PxumdXFLnA=
-----END CERTIFICATE-----
