Certificate:
    Data:
        Version: 3 (0x2)
        Serial Number: 11 (0xb)
        Signature Algorithm: ecdsa-with-SHA256
        Issuer: CN=Regione Marche, C=IT, ST=Italia, O=E-Voting system, OU=E-Voting system authority/emailAddress=Marche@evoting.it
        Validity
            Not Before: Aug  3 13:26:00 2022 GMT
            Not After : Aug  3 13:26:00 2023 GMT
        Subject: CN=Brendan, C=IT, ST=Italia, O=Regione Marche
        Subject Public Key Info:
            Public Key Algorithm: id-ecPublicKey
                Public-Key: (256 bit)
                pub:
                    04:91:fe:17:88:45:c7:91:cd:c6:a9:23:59:8c:28:
                    36:44:d2:84:bd:f5:d4:0b:fb:ba:d6:70:8e:1d:62:
                    78:b4:2a:08:a3:27:5c:8a:b9:f1:4c:e0:72:da:d0:
                    1e:92:bb:1c:d4:ca:88:8d:8a:14:1c:d1:da:7c:31:
                    cd:87:2e:d2:eb
                ASN1 OID: prime256v1
                NIST CURVE: P-256
        X509v3 extensions:
            X509v3 Key Usage: critical
                Digital Signature, Key Encipherment
            X509v3 Basic Constraints: critical
                CA:FALSE, pathlen:3
    Signature Algorithm: ecdsa-with-SHA256
         30:46:02:21:00:91:db:24:ea:a7:17:10:02:1f:7a:f9:cf:0c:
         6a:c4:56:49:ab:88:e4:d8:c0:d7:38:3e:8c:d6:1e:81:9c:11:
         6c:02:21:00:c8:57:3f:78:1a:93:4c:76:c1:f1:16:36:dc:b4:
         6d:44:e1:90:c7:b0:cb:a5:07:18:a0:cb:76:03:7b:03:1b:20
-----BEGIN CERTIFICATE-----
MIIB9DCCAZmgAwIBAgIBCzAKBggqhkjOPQQDAjCBlzEXMBUGA1UEAwwOUmVnaW9u
ZSBNYXJjaGUxCzAJBgNVBAYTAklUMQ8wDQYDVQQIDAZJdGFsaWExGDAWBgNVBAoM
D0UtVm90aW5nIHN5c3RlbTEiMCAGA1UECwwZRS1Wb3Rpbmcgc3lzdGVtIGF1dGhv
cml0eTEgMB4GCSqGSIb3DQEJARYRTWFyY2hlQGV2b3RpbmcuaXQwHhcNMjIwODAz
MTMyNjAwWhcNMjMwODAzMTMyNjAwWjBJMRAwDgYDVQQDDAdCcmVuZGFuMQswCQYD
VQQGEwJJVDEPMA0GA1UECAwGSXRhbGlhMRcwFQYDVQQKDA5SZWdpb25lIE1hcmNo
ZTBZMBMGByqGSM49AgEGCCqGSM49AwEHA0IABJH+F4hFx5HNxqkjWYwoNkTShL31
1Av7utZwjh1ieLQqCKMnXIq58UzgctrQHpK7HNTKiI2KFBzR2nwxzYcu0uujIzAh
MA4GA1UdDwEB/wQEAwIFoDAPBgNVHRMBAf8EBTADAgEDMAoGCCqGSM49BAMCA0kA
MEYCIQCR2yTqpxcQAh96+c8MasRWSauI5NjA1zg+jNYegZwRbAIhAMhXP3gak0x2
wfEWNty0bUThkMewy6UHGKDLdgN7Axsg
-----END CERTIFICATE-----
