Certificate:
    Data:
        Version: 3 (0x2)
        Serial Number: 14 (0xe)
        Signature Algorithm: ecdsa-with-SHA256
        Issuer: CN=Regione Abruzzo, C=IT, ST=Italia, O=E-Voting system, OU=E-Voting system authority/emailAddress=Abruzzo@evoting.it
        Validity
            Not Before: Aug 26 15:19:43 2022 GMT
            Not After : Aug 26 15:19:43 2023 GMT
        Subject: CN=Brent, C=IT, ST=Italia, O=Regione Abruzzo
        Subject Public Key Info:
            Public Key Algorithm: id-ecPublicKey
                Public-Key: (256 bit)
                pub:
                    04:51:c2:e3:0f:e7:17:e6:26:62:a0:5d:f5:e7:f4:
                    21:49:9e:2d:31:22:7c:2c:1b:52:b2:65:d8:a1:aa:
                    51:ae:e2:c4:15:aa:87:a8:27:87:33:9b:55:87:2f:
                    1d:f0:f4:78:19:9d:34:80:cd:65:b4:90:a9:13:6c:
                    d8:c3:07:e4:63
                ASN1 OID: secp256k1
        X509v3 extensions:
            X509v3 Key Usage: critical
                Digital Signature, Key Encipherment
            X509v3 Basic Constraints: critical
                CA:FALSE, pathlen:3
    Signature Algorithm: ecdsa-with-SHA256
         30:44:02:20:2c:e5:db:0c:5d:1c:9b:35:a4:26:ed:ea:0a:5e:
         db:35:28:2f:3f:e9:25:19:75:ef:dc:87:88:69:c6:ff:23:d9:
         02:20:17:bd:cd:7c:8e:ed:68:f6:5c:57:ee:2d:e0:d5:32:40:
         42:0e:fa:d0:18:bb:ab:17:e5:65:7f:ac:b8:d8:3f:15
-----BEGIN CERTIFICATE-----
MIIB8DCCAZegAwIBAgIBDjAKBggqhkjOPQQDAjCBmTEYMBYGA1UEAwwPUmVnaW9u
ZSBBYnJ1enpvMQswCQYDVQQGEwJJVDEPMA0GA1UECAwGSXRhbGlhMRgwFgYDVQQK
DA9FLVZvdGluZyBzeXN0ZW0xIjAgBgNVBAsMGUUtVm90aW5nIHN5c3RlbSBhdXRo
b3JpdHkxITAfBgkqhkiG9w0BCQEWEkFicnV6em9AZXZvdGluZy5pdDAeFw0yMjA4
MjYxNTE5NDNaFw0yMzA4MjYxNTE5NDNaMEgxDjAMBgNVBAMMBUJyZW50MQswCQYD
VQQGEwJJVDEPMA0GA1UECAwGSXRhbGlhMRgwFgYDVQQKDA9SZWdpb25lIEFicnV6
em8wVjAQBgcqhkjOPQIBBgUrgQQACgNCAARRwuMP5xfmJmKgXfXn9CFJni0xInws
G1KyZdihqlGu4sQVqoeoJ4czm1WHLx3w9HgZnTSAzWW0kKkTbNjDB+RjoyMwITAO
BgNVHQ8BAf8EBAMCBaAwDwYDVR0TAQH/BAUwAwIBAzAKBggqhkjOPQQDAgNHADBE
AiAs5dsMXRybNaQm7eoKXts1KC8/6SUZde/ch4hpxv8j2QIgF73NfI7taPZcV+4t
4NUyQEIO+tAYu6sX5WV/rLjYPxU=
-----END CERTIFICATE-----
