Certificate:
    Data:
        Version: 3 (0x2)
        Serial Number: 45 (0x2d)
        Signature Algorithm: ecdsa-with-SHA256
        Issuer: CN=Regione Liguria, C=IT, ST=Italia, O=E-Voting system, OU=E-Voting system authority/emailAddress=Liguria@evoting.it
        Validity
            Not Before: Aug  3 13:28:14 2022 GMT
            Not After : Aug  3 13:28:14 2023 GMT
        Subject: CN=Brenda, C=IT, ST=Italia, O=Regione Liguria
        Subject Public Key Info:
            Public Key Algorithm: id-ecPublicKey
                Public-Key: (256 bit)
                pub:
                    04:94:d7:43:ae:81:ab:56:83:b2:9a:46:f0:b1:80:
                    25:75:fa:cf:79:d6:c0:ff:39:23:79:82:47:96:44:
                    82:07:88:aa:7f:c4:4f:16:d9:69:17:62:da:ed:f8:
                    53:1c:f4:ae:2e:47:20:6a:61:78:ec:9c:3c:09:45:
                    bf:f8:97:28:df
                ASN1 OID: prime256v1
                NIST CURVE: P-256
        X509v3 extensions:
            X509v3 Key Usage: critical
                Digital Signature, Key Encipherment
            X509v3 Basic Constraints: critical
                CA:FALSE, pathlen:3
    Signature Algorithm: ecdsa-with-SHA256
         30:45:02:20:30:e5:c8:30:7b:08:14:3e:b4:4a:d6:84:25:9d:
         70:8f:48:ea:0b:cf:c3:e9:89:2f:14:a9:f1:e3:9c:c0:ab:c3:
         02:21:00:b3:f5:72:f0:75:5e:51:d3:76:18:14:b7:d8:bc:18:
         b8:f2:c6:ac:95:6a:42:49:fb:75:6c:d1:de:6f:0e:e9:95
-----BEGIN CERTIFICATE-----
MIIB9TCCAZugAwIBAgIBLTAKBggqhkjOPQQDAjCBmTEYMBYGA1UEAwwPUmVnaW9u
ZSBMaWd1cmlhMQswCQYDVQQGEwJJVDEPMA0GA1UECAwGSXRhbGlhMRgwFgYDVQQK
DA9FLVZvdGluZyBzeXN0ZW0xIjAgBgNVBAsMGUUtVm90aW5nIHN5c3RlbSBhdXRo
b3JpdHkxITAfBgkqhkiG9w0BCQEWEkxpZ3VyaWFAZXZvdGluZy5pdDAeFw0yMjA4
MDMxMzI4MTRaFw0yMzA4MDMxMzI4MTRaMEkxDzANBgNVBAMMBkJyZW5kYTELMAkG
A1UEBhMCSVQxDzANBgNVBAgMBkl0YWxpYTEYMBYGA1UECgwPUmVnaW9uZSBMaWd1
cmlhMFkwEwYHKoZIzj0CAQYIKoZIzj0DAQcDQgAElNdDroGrVoOymkbwsYAldfrP
edbA/zkjeYJHlkSCB4iqf8RPFtlpF2La7fhTHPSuLkcgamF47Jw8CUW/+Jco36Mj
MCEwDgYDVR0PAQH/BAQDAgWgMA8GA1UdEwEB/wQFMAMCAQMwCgYIKoZIzj0EAwID
SAAwRQIgMOXIMHsIFD60StaEJZ1wj0jqC8/D6YkvFKnx45zAq8MCIQCz9XLwdV5R
03YYFLfYvBi48saslWpCSft1bNHebw7plQ==
-----END CERTIFICATE-----
