Certificate:
    Data:
        Version: 3 (0x2)
        Serial Number: 5 (0x5)
        Signature Algorithm: ecdsa-with-SHA256
        Issuer: CN=Regione Piemonte, C=IT, ST=Italia, O=E-Voting system, OU=E-Voting system authority/emailAddress=Piemonte@evoting.it
        Validity
            Not Before: Aug 26 15:18:42 2022 GMT
            Not After : Aug 26 15:18:42 2023 GMT
        Subject: CN=Brett, C=IT, ST=Italia, O=Regione Piemonte
        Subject Public Key Info:
            Public Key Algorithm: id-ecPublicKey
                Public-Key: (256 bit)
                pub:
                    04:4e:b7:24:89:36:34:66:95:3e:26:5f:11:26:3e:
                    dd:0c:c4:2a:c4:74:6a:58:bc:d4:24:bb:a7:11:06:
                    04:4a:d4:d6:9f:70:21:a6:b1:65:46:5f:2e:41:59:
                    26:bf:36:dc:cf:2b:f9:74:73:b7:9f:4f:fe:c1:ff:
                    11:29:6d:d5:48
                ASN1 OID: secp256k1
        X509v3 extensions:
            X509v3 Key Usage: critical
                Digital Signature, Key Encipherment
            X509v3 Basic Constraints: critical
                CA:FALSE, pathlen:3
    Signature Algorithm: ecdsa-with-SHA256
         30:45:02:21:00:99:f7:66:f1:ab:3f:53:77:45:b2:f7:2d:db:
         8c:2c:a3:c6:65:76:74:49:4c:bd:d0:4d:e5:49:ba:e3:df:8e:
         b2:02:20:40:cf:bb:55:dc:a6:c5:84:4f:40:74:44:6a:55:da:
         a8:c5:ba:a0:fb:03:4d:96:99:a0:91:c4:89:4a:2b:26:70
-----BEGIN CERTIFICATE-----
MIIB9DCCAZqgAwIBAgIBBTAKBggqhkjOPQQDAjCBmzEZMBcGA1UEAwwQUmVnaW9u
ZSBQaWVtb250ZTELMAkGA1UEBhMCSVQxDzANBgNVBAgMBkl0YWxpYTEYMBYGA1UE
CgwPRS1Wb3Rpbmcgc3lzdGVtMSIwIAYDVQQLDBlFLVZvdGluZyBzeXN0ZW0gYXV0
aG9yaXR5MSIwIAYJKoZIhvcNAQkBFhNQaWVtb250ZUBldm90aW5nLml0MB4XDTIy
MDgyNjE1MTg0MloXDTIzMDgyNjE1MTg0MlowSTEOMAwGA1UEAwwFQnJldHQxCzAJ
BgNVBAYTAklUMQ8wDQYDVQQIDAZJdGFsaWExGTAXBgNVBAoMEFJlZ2lvbmUgUGll
bW9udGUwVjAQBgcqhkjOPQIBBgUrgQQACgNCAAROtySJNjRmlT4mXxEmPt0MxCrE
dGpYvNQku6cRBgRK1NafcCGmsWVGXy5BWSa/NtzPK/l0c7efT/7B/xEpbdVIoyMw
ITAOBgNVHQ8BAf8EBAMCBaAwDwYDVR0TAQH/BAUwAwIBAzAKBggqhkjOPQQDAgNI
ADBFAiEAmfdm8as/U3dFsvct24wso8ZldnRJTL3QTeVJuuPfjrICIEDPu1XcpsWE
T0B0RGpV2qjFuqD7A02WmaCRxIlKKyZw
-----END CERTIFICATE-----
