Certificate:
    Data:
        Version: 3 (0x2)
        Serial Number: 22 (0x16)
        Signature Algorithm: ecdsa-with-SHA256
        Issuer: CN=Regione Piemonte, C=IT, ST=Italia, O=E-Voting system, OU=E-Voting system authority/emailAddress=Piemonte@evoting.it
        Validity
            Not Before: Aug 26 15:20:19 2022 GMT
            Not After : Aug 26 15:20:19 2023 GMT
        Subject: CN=Brian, C=IT, ST=Italia, O=Regione Piemonte
        Subject Public Key Info:
            Public Key Algorithm: id-ecPublicKey
                Public-Key: (256 bit)
                pub:
                    04:ce:cc:77:7a:a3:c0:09:22:87:a1:77:02:69:e7:
                    77:77:bf:6d:c6:75:6e:1a:45:1c:ca:17:a1:9c:ae:
                    99:a8:4d:b7:06:bf:a0:ac:84:48:a7:b3:e2:a1:54:
                    34:58:e4:0b:e7:6b:2e:23:0d:2e:54:62:14:91:aa:
                    1a:a4:8e:24:cd
                ASN1 OID: secp256k1
        X509v3 extensions:
            X509v3 Key Usage: critical
                Digital Signature, Key Encipherment
            X509v3 Basic Constraints: critical
                CA:FALSE, pathlen:3
    Signature Algorithm: ecdsa-with-SHA256
         30:45:02:20:69:20:78:59:01:98:3c:af:3c:aa:42:fa:01:0e:
         ff:3f:ee:d5:33:da:51:4e:ff:62:0d:0b:c8:08:cb:3d:62:64:
         02:21:00:b4:3e:18:10:6c:b1:95:b8:c7:e1:25:5f:a2:ff:9c:
         a0:dd:69:2b:30:76:cf:ca:e3:87:bb:d9:fd:87:e0:e0:62
-----BEGIN CERTIFICATE-----
MIIB9DCCAZqgAwIBAgIBFjAKBggqhkjOPQQDAjCBmzEZMBcGA1UEAwwQUmVnaW9u
ZSBQaWVtb250ZTELMAkGA1UEBhMCSVQxDzANBgNVBAgMBkl0YWxpYTEYMBYGA1UE
CgwPRS1Wb3Rpbmcgc3lzdGVtMSIwIAYDVQQLDBlFLVZvdGluZyBzeXN0ZW0gYXV0
aG9yaXR5MSIwIAYJKoZIhvcNAQkBFhNQaWVtb250ZUBldm90aW5nLml0MB4XDTIy
MDgyNjE1MjAxOVoXDTIzMDgyNjE1MjAxOVowSTEOMAwGA1UEAwwFQnJpYW4xCzAJ
BgNVBAYTAklUMQ8wDQYDVQQIDAZJdGFsaWExGTAXBgNVBAoMEFJlZ2lvbmUgUGll
bW9udGUwVjAQBgcqhkjOPQIBBgUrgQQACgNCAATOzHd6o8AJIoehdwJp53d3v23G
dW4aRRzKF6GcrpmoTbcGv6CshEins+KhVDRY5Avnay4jDS5UYhSRqhqkjiTNoyMw
ITAOBgNVHQ8BAf8EBAMCBaAwDwYDVR0TAQH/BAUwAwIBAzAKBggqhkjOPQQDAgNI
ADBFAiBpIHhZAZg8rzyqQvoBDv8/7tUz2lFO/2INC8gIyz1iZAIhALQ+GBBssZW4
x+ElX6L/nKDdaSswds/K44e72f2H4OBi
-----END CERTIFICATE-----
