Certificate:
    Data:
        Version: 3 (0x2)
        Serial Number: 19 (0x13)
        Signature Algorithm: ecdsa-with-SHA256
        Issuer: CN=Regione Basilicata, C=IT, ST=Italia, O=E-Voting system, OU=E-Voting system authority/emailAddress=Basilicata@evoting.it
        Validity
            Not Before: Aug  3 13:26:20 2022 GMT
            Not After : Aug  3 13:26:20 2023 GMT
        Subject: CN=Brooks, C=IT, ST=Italia, O=Regione Basilicata
        Subject Public Key Info:
            Public Key Algorithm: id-ecPublicKey
                Public-Key: (256 bit)
                pub:
                    04:a6:4c:b6:cb:c7:93:4e:a7:eb:6e:32:d4:c9:81:
                    92:1a:35:09:f1:b8:cd:6c:25:eb:28:58:39:96:38:
                    86:fd:53:4f:86:9f:ac:db:f9:8a:79:1e:1b:79:9f:
                    bc:67:16:ee:88:d5:4d:52:82:6d:00:c8:8a:05:9c:
                    ad:c0:1e:bb:da
                ASN1 OID: prime256v1
                NIST CURVE: P-256
        X509v3 extensions:
            X509v3 Key Usage: critical
                Digital Signature, Key Encipherment
            X509v3 Basic Constraints: critical
                CA:FALSE, pathlen:3
    Signature Algorithm: ecdsa-with-SHA256
         30:45:02:20:7c:40:6b:67:fd:20:29:66:c7:c5:c4:3b:d0:dc:
         ed:f9:5c:8e:4c:ec:c1:74:83:a0:8a:e0:df:05:f9:71:35:9a:
         02:21:00:cc:ef:98:a3:18:26:e2:71:34:51:0a:9e:82:f2:32:
         30:5d:5e:28:c2:59:6c:aa:f9:af:49:b6:3f:b8:a2:d1:2c
-----BEGIN CERTIFICATE-----
MIIB/jCCAaSgAwIBAgIBEzAKBggqhkjOPQQDAjCBnzEbMBkGA1UEAwwSUmVnaW9u
ZSBCYXNpbGljYXRhMQswCQYDVQQGEwJJVDEPMA0GA1UECAwGSXRhbGlhMRgwFgYD
VQQKDA9FLVZvdGluZyBzeXN0ZW0xIjAgBgNVBAsMGUUtVm90aW5nIHN5c3RlbSBh
dXRob3JpdHkxJDAiBgkqhkiG9w0BCQEWFUJhc2lsaWNhdGFAZXZvdGluZy5pdDAe
Fw0yMjA4MDMxMzI2MjBaFw0yMzA4MDMxMzI2MjBaMEwxDzANBgNVBAMMBkJyb29r
czELMAkGA1UEBhMCSVQxDzANBgNVBAgMBkl0YWxpYTEbMBkGA1UECgwSUmVnaW9u
ZSBCYXNpbGljYXRhMFkwEwYHKoZIzj0CAQYIKoZIzj0DAQcDQgAEpky2y8eTTqfr
bjLUyYGSGjUJ8bjNbCXrKFg5ljiG/VNPhp+s2/mKeR4beZ+8ZxbuiNVNUoJtAMiK
BZytwB672qMjMCEwDgYDVR0PAQH/BAQDAgWgMA8GA1UdEwEB/wQFMAMCAQMwCgYI
KoZIzj0EAwIDSAAwRQIgfEBrZ/0gKWbHxcQ70Nzt+VyOTOzBdIOgiuDfBflxNZoC
IQDM75ijGCbicTRRCp6C8jIwXV4owllsqvmvSbY/uKLRLA==
-----END CERTIFICATE-----
