Certificate:
    Data:
        Version: 3 (0x2)
        Serial Number: 49 (0x31)
        Signature Algorithm: ecdsa-with-SHA256
        Issuer: CN=Regione Trentino_Alto_Adige, C=IT, ST=Italia, O=E-Voting system, OU=E-Voting system authority/emailAddress=Trentino_Alto_Adige@evoting.it
        Validity
            Not Before: Aug 26 15:21:32 2022 GMT
            Not After : Aug 26 15:21:32 2023 GMT
        Subject: CN=Bruce, C=IT, ST=Italia, O=Regione Trentino_Alto_Adige
        Subject Public Key Info:
            Public Key Algorithm: id-ecPublicKey
                Public-Key: (256 bit)
                pub:
                    04:a8:b1:12:5e:89:97:12:86:8d:01:4f:6f:0f:48:
                    de:a4:2d:06:af:ec:a3:58:0a:a8:96:06:e8:9d:4f:
                    39:1d:08:86:00:82:b3:0d:f1:7a:2e:16:73:dc:ce:
                    5e:1f:c3:a8:bd:1b:2f:56:f7:b6:2a:99:89:54:ac:
                    4c:d2:d6:de:3b
                ASN1 OID: secp256k1
        X509v3 extensions:
            X509v3 Key Usage: critical
                Digital Signature, Key Encipherment
            X509v3 Basic Constraints: critical
                CA:FALSE, pathlen:3
    Signature Algorithm: ecdsa-with-SHA256
         30:45:02:21:00:9e:b3:e0:53:9d:06:53:1e:50:f3:80:b5:c7:
         bc:0e:ed:49:4f:bb:73:f9:c9:c9:b2:47:8f:90:d5:f1:6c:7c:
         10:02:20:59:ba:2e:90:d0:5d:0b:29:b3:d3:e2:10:43:6d:5d:
         59:0f:0a:91:b3:52:a9:2a:f7:bd:b9:c9:54:7d:32:27:b6
-----BEGIN CERTIFICATE-----
MIICFTCCAbugAwIBAgIBMTAKBggqhkjOPQQDAjCBsTEkMCIGA1UEAwwbUmVnaW9u
ZSBUcmVudGlub19BbHRvX0FkaWdlMQswCQYDVQQGEwJJVDEPMA0GA1UECAwGSXRh
bGlhMRgwFgYDVQQKDA9FLVZvdGluZyBzeXN0ZW0xIjAgBgNVBAsMGUUtVm90aW5n
IHN5c3RlbSBhdXRob3JpdHkxLTArBgkqhkiG9w0BCQEWHlRyZW50aW5vX0FsdG9f
QWRpZ2VAZXZvdGluZy5pdDAeFw0yMjA4MjYxNTIxMzJaFw0yMzA4MjYxNTIxMzJa
MFQxDjAMBgNVBAMMBUJydWNlMQswCQYDVQQGEwJJVDEPMA0GA1UECAwGSXRhbGlh
MSQwIgYDVQQKDBtSZWdpb25lIFRyZW50aW5vX0FsdG9fQWRpZ2UwVjAQBgcqhkjO
PQIBBgUrgQQACgNCAASosRJeiZcSho0BT28PSN6kLQav7KNYCqiWBuidTzkdCIYA
grMN8XouFnPczl4fw6i9Gy9W97YqmYlUrEzS1t47oyMwITAOBgNVHQ8BAf8EBAMC
BaAwDwYDVR0TAQH/BAUwAwIBAzAKBggqhkjOPQQDAgNIADBFAiEAnrPgU50GUx5Q
84C1x7wO7UlPu3P5ycmyR4+Q1fFsfBACIFm6LpDQXQsps9PiEENtXVkPCpGzUqkq
9725yVR9Mie2
-----END CERTIFICATE-----
