Certificate:
    Data:
        Version: 3 (0x2)
        Serial Number: 25 (0x19)
        Signature Algorithm: ecdsa-with-SHA256
        Issuer: CN=Regione Campania, C=IT, ST=Italia, O=E-Voting system, OU=E-Voting system authority/emailAddress=Campania@evoting.it
        Validity
            Not Before: Aug 26 15:20:06 2022 GMT
            Not After : Aug 26 15:20:06 2023 GMT
        Subject: CN=Bruna, C=IT, ST=Italia, O=Regione Campania
        Subject Public Key Info:
            Public Key Algorithm: id-ecPublicKey
                Public-Key: (256 bit)
                pub:
                    04:90:17:b8:c8:04:69:2b:10:27:a9:10:1a:bb:09:
                    d0:a1:b0:aa:ea:a7:ce:30:99:97:00:90:38:79:86:
                    01:56:b6:dd:94:da:97:61:d7:0a:d6:24:cb:c3:42:
                    0c:b2:2b:7c:43:41:bb:09:69:7f:53:ac:58:bc:8c:
                    5f:74:3f:86:0b
                ASN1 OID: secp256k1
        X509v3 extensions:
            X509v3 Key Usage: critical
                Digital Signature, Key Encipherment
            X509v3 Basic Constraints: critical
                CA:FALSE, pathlen:3
    Signature Algorithm: ecdsa-with-SHA256
         30:44:02:20:68:75:10:66:1e:36:15:cc:7c:c4:38:04:3a:46:
         ab:45:bc:ca:ca:fe:dc:31:f2:5f:6e:8a:e5:ee:47:4f:ed:74:
         02:20:01:1d:fe:34:a0:b7:ec:4a:51:5b:d3:e8:e2:f0:54:87:
         aa:c9:8f:b1:a6:02:38:82:36:52:e8:36:71:a7:67:96
-----BEGIN CERTIFICATE-----
MIIB8zCCAZqgAwIBAgIBGTAKBggqhkjOPQQDAjCBmzEZMBcGA1UEAwwQUmVnaW9u
ZSBDYW1wYW5pYTELMAkGA1UEBhMCSVQxDzANBgNVBAgMBkl0YWxpYTEYMBYGA1UE
CgwPRS1Wb3Rpbmcgc3lzdGVtMSIwIAYDVQQLDBlFLVZvdGluZyBzeXN0ZW0gYXV0
aG9yaXR5MSIwIAYJKoZIhvcNAQkBFhNDYW1wYW5pYUBldm90aW5nLml0MB4XDTIy
MDgyNjE1MjAwNloXDTIzMDgyNjE1MjAwNlowSTEOMAwGA1UEAwwFQnJ1bmExCzAJ
BgNVBAYTAklUMQ8wDQYDVQQIDAZJdGFsaWExGTAXBgNVBAoMEFJlZ2lvbmUgQ2Ft
cGFuaWEwVjAQBgcqhkjOPQIBBgUrgQQACgNCAASQF7jIBGkrECepEBq7CdChsKrq
p84wmZcAkDh5hgFWtt2U2pdh1wrWJMvDQgyyK3xDQbsJaX9TrFi8jF90P4YLoyMw
ITAOBgNVHQ8BAf8EBAMCBaAwDwYDVR0TAQH/BAUwAwIBAzAKBggqhkjOPQQDAgNH
ADBEAiBodRBmHjYVzHzEOAQ6RqtFvMrK/twx8l9uiuXuR0/tdAIgAR3+NKC37EpR
W9Po4vBUh6rJj7GmAjiCNlLoNnGnZ5Y=
-----END CERTIFICATE-----
