Certificate:
    Data:
        Version: 3 (0x2)
        Serial Number: 45 (0x2d)
        Signature Algorithm: ecdsa-with-SHA256
        Issuer: CN=Regione Piemonte, C=IT, ST=Italia, O=E-Voting system, OU=E-Voting system authority/emailAddress=Piemonte@evoting.it
        Validity
            Not Before: Aug 26 15:21:31 2022 GMT
            Not After : Aug 26 15:21:31 2023 GMT
        Subject: CN=Bryan, C=IT, ST=Italia, O=Regione Piemonte
        Subject Public Key Info:
            Public Key Algorithm: id-ecPublicKey
                Public-Key: (256 bit)
                pub:
                    04:60:99:ec:f5:f6:cb:e6:f4:d5:fd:49:fa:89:de:
                    d5:6d:99:d6:ed:84:8e:78:1b:6b:f1:52:2b:3c:db:
                    1d:fe:84:52:3b:60:79:c1:b7:5d:5d:2b:ac:a6:8e:
                    6e:3a:98:c3:dd:6f:74:50:20:05:e2:0d:d5:39:0b:
                    d9:5b:b7:97:17
                ASN1 OID: secp256k1
        X509v3 extensions:
            X509v3 Key Usage: critical
                Digital Signature, Key Encipherment
            X509v3 Basic Constraints: critical
                CA:FALSE, pathlen:3
    Signature Algorithm: ecdsa-with-SHA256
         30:46:02:21:00:e2:29:38:2e:dd:fe:c8:00:47:d8:74:07:4a:
         ec:08:68:15:26:43:bf:0d:48:32:f1:eb:d0:25:ee:0a:5e:d2:
         71:02:21:00:85:8d:32:1a:d5:a9:b4:b5:bd:af:fd:06:85:12:
         66:03:1c:1c:bb:a8:56:7e:2e:69:13:16:cc:a9:89:df:1a:1e
-----BEGIN CERTIFICATE-----
MIIB9TCCAZqgAwIBAgIBLTAKBggqhkjOPQQDAjCBmzEZMBcGA1UEAwwQUmVnaW9u
ZSBQaWVtb250ZTELMAkGA1UEBhMCSVQxDzANBgNVBAgMBkl0YWxpYTEYMBYGA1UE
CgwPRS1Wb3Rpbmcgc3lzdGVtMSIwIAYDVQQLDBlFLVZvdGluZyBzeXN0ZW0gYXV0
aG9yaXR5MSIwIAYJKoZIhvcNAQkBFhNQaWVtb250ZUBldm90aW5nLml0MB4XDTIy
MDgyNjE1MjEzMVoXDTIzMDgyNjE1MjEzMVowSTEOMAwGA1UEAwwFQnJ5YW4xCzAJ
BgNVBAYTAklUMQ8wDQYDVQQIDAZJdGFsaWExGTAXBgNVBAoMEFJlZ2lvbmUgUGll
bW9udGUwVjAQBgcqhkjOPQIBBgUrgQQACgNCAARgmez19svm9NX9SfqJ3tVtmdbt
hI54G2vxUis82x3+hFI7YHnBt11dK6ymjm46mMPdb3RQIAXiDdU5C9lbt5cXoyMw
ITAOBgNVHQ8BAf8EBAMCBaAwDwYDVR0TAQH/BAUwAwIBAzAKBggqhkjOPQQDAgNJ
ADBGAiEA4ik4Lt3+yABH2HQHSuwIaBUmQ78NSDLx69Al7gpe0nECIQCFjTIa1am0
tb2v/QaFEmYDHBy7qFZ+LmkTFsypid8aHg==
-----END CERTIFICATE-----
