Certificate:
    Data:
        Version: 3 (0x2)
        Serial Number: 53 (0x35)
        Signature Algorithm: ecdsa-with-SHA256
        Issuer: CN=Regione Liguria, C=IT, ST=Italia, O=E-Voting system, OU=E-Voting system authority/emailAddress=Liguria@evoting.it
        Validity
            Not Before: Aug 26 15:21:27 2022 GMT
            Not After : Aug 26 15:21:27 2023 GMT
        Subject: CN=Bryant, C=IT, ST=Italia, O=Regione Liguria
        Subject Public Key Info:
            Public Key Algorithm: id-ecPublicKey
                Public-Key: (256 bit)
                pub:
                    04:ef:7e:21:f9:99:57:da:61:e0:ba:25:d5:04:d0:
                    b3:ec:d0:f0:92:80:8e:e0:fb:ec:89:8b:c4:12:40:
                    24:d8:6e:d1:b1:9a:67:65:42:98:5b:bb:05:c8:39:
                    08:b1:7e:c2:e1:93:c9:c6:4e:db:48:a5:c5:4c:af:
                    2c:ca:99:64:f2
                ASN1 OID: secp256k1
        X509v3 extensions:
            X509v3 Key Usage: critical
                Digital Signature, Key Encipherment
            X509v3 Basic Constraints: critical
                CA:FALSE, pathlen:3
    Signature Algorithm: ecdsa-with-SHA256
         30:46:02:21:00:b8:7f:d7:c1:60:f2:16:1b:5c:98:6d:03:11:
         35:c7:c2:b4:b3:fb:42:de:aa:89:99:69:08:78:d2:5f:f5:9d:
         0b:02:21:00:e9:8b:7a:9b:ff:8d:f5:d9:fa:93:bc:69:2b:49:
         c7:5e:ae:ba:2c:81:d2:bc:91:a9:da:b5:c4:95:e8:5f:cb:e0
-----BEGIN CERTIFICATE-----
MIIB8zCCAZigAwIBAgIBNTAKBggqhkjOPQQDAjCBmTEYMBYGA1UEAwwPUmVnaW9u
ZSBMaWd1cmlhMQswCQYDVQQGEwJJVDEPMA0GA1UECAwGSXRhbGlhMRgwFgYDVQQK
DA9FLVZvdGluZyBzeXN0ZW0xIjAgBgNVBAsMGUUtVm90aW5nIHN5c3RlbSBhdXRo
b3JpdHkxITAfBgkqhkiG9w0BCQEWEkxpZ3VyaWFAZXZvdGluZy5pdDAeFw0yMjA4
MjYxNTIxMjdaFw0yMzA4MjYxNTIxMjdaMEkxDzANBgNVBAMMBkJyeWFudDELMAkG
A1UEBhMCSVQxDzANBgNVBAgMBkl0YWxpYTEYMBYGA1UECgwPUmVnaW9uZSBMaWd1
cmlhMFYwEAYHKoZIzj0CAQYFK4EEAAoDQgAE734h+ZlX2mHguiXVBNCz7NDwkoCO
4PvsiYvEEkAk2G7RsZpnZUKYW7sFyDkIsX7C4ZPJxk7bSKXFTK8syplk8qMjMCEw
DgYDVR0PAQH/BAQDAgWgMA8GA1UdEwEB/wQFMAMCAQMwCgYIKoZIzj0EAwIDSQAw
RgIhALh/18Fg8hYbXJhtAxE1x8K0s/tC3qqJmWkIeNJf9Z0LAiEA6Yt6m/+N9dn6
k7xpK0nHXq66LIHSvJGp2rXElehfy+A=
-----END CERTIFICATE-----
