Certificate:
    Data:
        Version: 3 (0x2)
        Serial Number: 17 (0x11)
        Signature Algorithm: ecdsa-with-SHA256
        Issuer: CN=Regione Umbria, C=IT, ST=Italia, O=E-Voting system, OU=E-Voting system authority/emailAddress=Umbria@evoting.it
        Validity
            Not Before: Aug  3 13:26:40 2022 GMT
            Not After : Aug  3 13:26:40 2023 GMT
        Subject: CN=Burton, C=IT, ST=Italia, O=Regione Umbria
        Subject Public Key Info:
            Public Key Algorithm: id-ecPublicKey
                Public-Key: (256 bit)
                pub:
                    04:c6:1d:ab:0b:68:96:58:2b:e1:c9:54:10:92:8e:
                    d8:31:91:84:e7:1a:d4:93:7e:2e:42:ef:91:1d:69:
                    8c:9e:6c:16:08:8e:bc:39:e6:22:9d:ca:a9:f7:cd:
                    04:8c:bd:57:79:e4:15:0e:94:bd:2f:f6:bf:b4:17:
                    5c:9c:1b:d1:b7
                ASN1 OID: prime256v1
                NIST CURVE: P-256
        X509v3 extensions:
            X509v3 Key Usage: critical
                Digital Signature, Key Encipherment
            X509v3 Basic Constraints: critical
                CA:FALSE, pathlen:3
    Signature Algorithm: ecdsa-with-SHA256
         30:44:02:20:63:da:be:cb:a3:0e:42:4c:a6:f7:bc:ff:c9:ea:
         6b:22:c0:e0:d9:47:77:df:61:99:4c:81:5c:6b:8b:6a:8a:61:
         02:20:2f:70:9c:cb:77:ff:90:6e:67:dd:91:a8:5e:42:30:8e:
         6a:47:12:7d:b5:1f:c8:37:a9:79:03:18:79:a0:06:e6
-----BEGIN CERTIFICATE-----
MIIB8TCCAZigAwIBAgIBETAKBggqhkjOPQQDAjCBlzEXMBUGA1UEAwwOUmVnaW9u
ZSBVbWJyaWExCzAJBgNVBAYTAklUMQ8wDQYDVQQIDAZJdGFsaWExGDAWBgNVBAoM
D0UtVm90aW5nIHN5c3RlbTEiMCAGA1UECwwZRS1Wb3Rpbmcgc3lzdGVtIGF1dGhv
cml0eTEgMB4GCSqGSIb3DQEJARYRVW1icmlhQGV2b3RpbmcuaXQwHhcNMjIwODAz
MTMyNjQwWhcNMjMwODAzMTMyNjQwWjBIMQ8wDQYDVQQDDAZCdXJ0b24xCzAJBgNV
BAYTAklUMQ8wDQYDVQQIDAZJdGFsaWExFzAVBgNVBAoMDlJlZ2lvbmUgVW1icmlh
MFkwEwYHKoZIzj0CAQYIKoZIzj0DAQcDQgAExh2rC2iWWCvhyVQQko7YMZGE5xrU
k34uQu+RHWmMnmwWCI68OeYincqp980EjL1XeeQVDpS9L/a/tBdcnBvRt6MjMCEw
DgYDVR0PAQH/BAQDAgWgMA8GA1UdEwEB/wQFMAMCAQMwCgYIKoZIzj0EAwIDRwAw
RAIgY9q+y6MOQkym97z/yeprIsDg2Ud332GZTIFca4tqimECIC9wnMt3/5BuZ92R
qF5CMI5qRxJ9tR/IN6l5Axh5oAbm
-----END CERTIFICATE-----
