Certificate:
    Data:
        Version: 3 (0x2)
        Serial Number: 28 (0x1c)
        Signature Algorithm: ecdsa-with-SHA256
        Issuer: CN=Regione Friuli_Venezia_Giulia, C=IT, ST=Italia, O=E-Voting system, OU=E-Voting system authority/emailAddress=Friuli_Venezia_Giulia@evoting.it
        Validity
            Not Before: Aug  3 13:27:22 2022 GMT
            Not After : Aug  3 13:27:22 2023 GMT
        Subject: CN=Caitlin, C=IT, ST=Italia, O=Regione Friuli_Venezia_Giulia
        Subject Public Key Info:
            Public Key Algorithm: id-ecPublicKey
                Public-Key: (256 bit)
                pub:
                    04:23:19:8e:4b:40:df:9f:66:42:c1:4d:09:92:c6:
                    26:2b:ac:50:a6:24:6e:86:d7:1e:d1:7d:13:ff:43:
                    e1:f8:a1:a2:f9:83:21:02:64:99:56:54:72:43:fd:
                    f1:f2:99:db:33:69:57:dd:d6:fa:ab:55:be:ba:4e:
                    78:6c:32:b6:84
                ASN1 OID: prime256v1
                NIST CURVE: P-256
        X509v3 extensions:
            X509v3 Key Usage: critical
                Digital Signature, Key Encipherment
            X509v3 Basic Constraints: critical
                CA:FALSE, pathlen:3
    Signature Algorithm: ecdsa-with-SHA256
         30:45:02:21:00:85:28:af:02:99:a7:b7:e6:e5:79:83:52:86:
         90:0f:7e:25:74:88:90:f8:51:20:54:4d:b7:51:25:42:37:03:
         57:02:20:5d:ab:4e:09:ab:ae:3c:74:c4:36:bf:3a:f4:1b:36:
         f0:a2:2a:87:86:0c:26:8f:d2:83:b5:6f:1b:80:51:d3:8c
-----BEGIN CERTIFICATE-----
MIICIDCCAcagAwIBAgIBHDAKBggqhkjOPQQDAjCBtTEmMCQGA1UEAwwdUmVnaW9u
ZSBGcml1bGlfVmVuZXppYV9HaXVsaWExCzAJBgNVBAYTAklUMQ8wDQYDVQQIDAZJ
dGFsaWExGDAWBgNVBAoMD0UtVm90aW5nIHN5c3RlbTEiMCAGA1UECwwZRS1Wb3Rp
bmcgc3lzdGVtIGF1dGhvcml0eTEvMC0GCSqGSIb3DQEJARYgRnJpdWxpX1ZlbmV6
aWFfR2l1bGlhQGV2b3RpbmcuaXQwHhcNMjIwODAzMTMyNzIyWhcNMjMwODAzMTMy
NzIyWjBYMRAwDgYDVQQDDAdDYWl0bGluMQswCQYDVQQGEwJJVDEPMA0GA1UECAwG
SXRhbGlhMSYwJAYDVQQKDB1SZWdpb25lIEZyaXVsaV9WZW5lemlhX0dpdWxpYTBZ
MBMGByqGSM49AgEGCCqGSM49AwEHA0IABCMZjktA359mQsFNCZLGJiusUKYkbobX
HtF9E/9D4fihovmDIQJkmVZUckP98fKZ2zNpV93W+qtVvrpOeGwytoSjIzAhMA4G
A1UdDwEB/wQEAwIFoDAPBgNVHRMBAf8EBTADAgEDMAoGCCqGSM49BAMCA0gAMEUC
IQCFKK8Cmae35uV5g1KGkA9+JXSIkPhRIFRNt1ElQjcDVwIgXatOCauuPHTENr86
9Bs28KIqh4YMJo/Sg7VvG4BR04w=
-----END CERTIFICATE-----
