Certificate:
    Data:
        Version: 3 (0x2)
        Serial Number: 41 (0x29)
        Signature Algorithm: ecdsa-with-SHA256
        Issuer: CN=Regione Abruzzo, C=IT, ST=Italia, O=E-Voting system, OU=E-Voting system authority/emailAddress=Abruzzo@evoting.it
        Validity
            Not Before: Aug 26 15:21:14 2022 GMT
            Not After : Aug 26 15:21:14 2023 GMT
        Subject: CN=Caitlin, C=IT, ST=Italia, O=Regione Abruzzo
        Subject Public Key Info:
            Public Key Algorithm: id-ecPublicKey
                Public-Key: (256 bit)
                pub:
                    04:b5:bc:23:a7:18:1b:d6:c5:3f:16:d4:b9:30:b8:
                    83:40:82:2d:75:ae:71:96:65:84:a0:18:ab:06:c7:
                    3f:c7:ae:d4:5b:90:ce:27:35:f0:2e:09:e1:df:fc:
                    8c:32:0a:77:06:ff:18:d0:dd:ef:56:77:9f:34:d7:
                    50:11:29:31:ed
                ASN1 OID: secp256k1
        X509v3 extensions:
            X509v3 Key Usage: critical
                Digital Signature, Key Encipherment
            X509v3 Basic Constraints: critical
                CA:FALSE, pathlen:3
    Signature Algorithm: ecdsa-with-SHA256
         30:45:02:20:3e:c9:9e:93:3f:ff:ce:90:60:5d:b7:0f:26:39:
         8b:b3:83:d6:c4:cd:c7:b6:59:a0:7b:97:24:23:fe:51:46:92:
         02:21:00:db:da:1f:cc:a9:b7:62:ec:3a:83:bd:df:e3:ad:ed:
         38:e8:75:07:41:08:6a:3b:e9:67:6c:9a:d7:36:a1:a5:da
-----BEGIN CERTIFICATE-----
MIIB8zCCAZmgAwIBAgIBKTAKBggqhkjOPQQDAjCBmTEYMBYGA1UEAwwPUmVnaW9u
ZSBBYnJ1enpvMQswCQYDVQQGEwJJVDEPMA0GA1UECAwGSXRhbGlhMRgwFgYDVQQK
DA9FLVZvdGluZyBzeXN0ZW0xIjAgBgNVBAsMGUUtVm90aW5nIHN5c3RlbSBhdXRo
b3JpdHkxITAfBgkqhkiG9w0BCQEWEkFicnV6em9AZXZvdGluZy5pdDAeFw0yMjA4
MjYxNTIxMTRaFw0yMzA4MjYxNTIxMTRaMEoxEDAOBgNVBAMMB0NhaXRsaW4xCzAJ
BgNVBAYTAklUMQ8wDQYDVQQIDAZJdGFsaWExGDAWBgNVBAoMD1JlZ2lvbmUgQWJy
dXp6bzBWMBAGByqGSM49AgEGBSuBBAAKA0IABLW8I6cYG9bFPxbUuTC4g0CCLXWu
cZZlhKAYqwbHP8eu1FuQzic18C4J4d/8jDIKdwb/GNDd71Z3nzTXUBEpMe2jIzAh
MA4GA1UdDwEB/wQEAwIFoDAPBgNVHRMBAf8EBTADAgEDMAoGCCqGSM49BAMCA0gA
MEUCID7JnpM//86QYF23DyY5i7OD1sTNx7ZZoHuXJCP+UUaSAiEA29ofzKm3Yuw6
g73f463tOOh1B0EIajvpZ2ya1zahpdo=
-----END CERTIFICATE-----
