Certificate:
    Data:
        Version: 3 (0x2)
        Serial Number: 10 (0xa)
        Signature Algorithm: ecdsa-with-SHA256
        Issuer: CN=Regione Lazio, C=IT, ST=Italia, O=E-Voting system, OU=E-Voting system authority/emailAddress=Lazio@evoting.it
        Validity
            Not Before: Aug  3 13:26:00 2022 GMT
            Not After : Aug  3 13:26:00 2023 GMT
        Subject: CN=Callie, C=IT, ST=Italia, O=Regione Lazio
        Subject Public Key Info:
            Public Key Algorithm: id-ecPublicKey
                Public-Key: (256 bit)
                pub:
                    04:ea:ed:2e:a0:e0:89:e2:65:97:96:2a:8e:a4:03:
                    7c:ec:8b:5f:a8:31:42:e6:a4:c3:e0:27:8f:65:f6:
                    72:10:29:06:6b:0f:fd:8c:6d:64:4e:6d:ba:37:06:
                    9f:58:27:60:d5:95:d5:6b:b8:d8:07:3e:f3:cf:51:
                    46:15:4f:5d:28
                ASN1 OID: prime256v1
                NIST CURVE: P-256
        X509v3 extensions:
            X509v3 Key Usage: critical
                Digital Signature, Key Encipherment
            X509v3 Basic Constraints: critical
                CA:FALSE, pathlen:3
    Signature Algorithm: ecdsa-with-SHA256
         30:45:02:21:00:9a:6e:fc:9d:90:61:6f:73:a6:81:43:fd:ec:
         24:22:2f:03:46:11:de:e9:86:36:75:28:34:a2:e5:55:7a:ff:
         fe:02:20:1e:a8:5b:fb:86:9a:1c:77:f7:27:0d:96:3b:1d:56:
         10:0e:5e:6c:f2:78:11:e6:2a:1f:e4:63:72:25:45:87:0a
-----BEGIN CERTIFICATE-----
MIIB7zCCAZWgAwIBAgIBCjAKBggqhkjOPQQDAjCBlTEWMBQGA1UEAwwNUmVnaW9u
ZSBMYXppbzELMAkGA1UEBhMCSVQxDzANBgNVBAgMBkl0YWxpYTEYMBYGA1UECgwP
RS1Wb3Rpbmcgc3lzdGVtMSIwIAYDVQQLDBlFLVZvdGluZyBzeXN0ZW0gYXV0aG9y
aXR5MR8wHQYJKoZIhvcNAQkBFhBMYXppb0Bldm90aW5nLml0MB4XDTIyMDgwMzEz
MjYwMFoXDTIzMDgwMzEzMjYwMFowRzEPMA0GA1UEAwwGQ2FsbGllMQswCQYDVQQG
EwJJVDEPMA0GA1UECAwGSXRhbGlhMRYwFAYDVQQKDA1SZWdpb25lIExhemlvMFkw
EwYHKoZIzj0CAQYIKoZIzj0DAQcDQgAE6u0uoOCJ4mWXliqOpAN87ItfqDFC5qTD
4CePZfZyECkGaw/9jG1kTm26NwafWCdg1ZXVa7jYBz7zz1FGFU9dKKMjMCEwDgYD
VR0PAQH/BAQDAgWgMA8GA1UdEwEB/wQFMAMCAQMwCgYIKoZIzj0EAwIDSAAwRQIh
AJpu/J2QYW9zpoFD/ewkIi8DRhHe6YY2dSg0ouVVev/+AiAeqFv7hpocd/cnDZY7
HVYQDl5s8ngR5iof5GNyJUWHCg==
-----END CERTIFICATE-----
