Certificate:
    Data:
        Version: 3 (0x2)
        Serial Number: 10 (0xa)
        Signature Algorithm: ecdsa-with-SHA256
        Issuer: CN=Regione Abruzzo, C=IT, ST=Italia, O=E-Voting system, OU=E-Voting system authority/emailAddress=Abruzzo@evoting.it
        Validity
            Not Before: Aug 26 15:19:20 2022 GMT
            Not After : Aug 26 15:19:20 2023 GMT
        Subject: CN=Calvin, C=IT, ST=Italia, O=Regione Abruzzo
        Subject Public Key Info:
            Public Key Algorithm: id-ecPublicKey
                Public-Key: (256 bit)
                pub:
                    04:68:29:96:82:96:df:3e:d7:1a:fe:a5:d4:84:5c:
                    d5:e7:c9:bc:57:84:b9:fa:9e:88:ff:be:d8:f3:c1:
                    f4:20:7e:7e:ed:05:4e:9d:97:50:59:ef:16:58:7a:
                    9f:a9:0f:40:d0:c7:5c:ce:25:b3:a1:ea:2b:ac:fb:
                    ec:2d:f5:4a:aa
                ASN1 OID: secp256k1
        X509v3 extensions:
            X509v3 Key Usage: critical
                Digital Signature, Key Encipherment
            X509v3 Basic Constraints: critical
                CA:FALSE, pathlen:3
    Signature Algorithm: ecdsa-with-SHA256
         30:45:02:21:00:81:f5:ad:5b:12:cc:4c:29:d8:3f:c1:03:bc:
         21:67:cf:37:6a:5d:d8:6f:9d:8a:65:3b:4a:2b:e6:00:de:ed:
         14:02:20:4e:8d:ed:e3:5b:72:4e:c9:d8:5a:c1:59:98:6f:60:
         65:2f:34:a3:1e:db:fd:88:54:99:81:90:5b:af:b9:29:2c
-----BEGIN CERTIFICATE-----
MIIB8jCCAZigAwIBAgIBCjAKBggqhkjOPQQDAjCBmTEYMBYGA1UEAwwPUmVnaW9u
ZSBBYnJ1enpvMQswCQYDVQQGEwJJVDEPMA0GA1UECAwGSXRhbGlhMRgwFgYDVQQK
DA9FLVZvdGluZyBzeXN0ZW0xIjAgBgNVBAsMGUUtVm90aW5nIHN5c3RlbSBhdXRo
b3JpdHkxITAfBgkqhkiG9w0BCQEWEkFicnV6em9AZXZvdGluZy5pdDAeFw0yMjA4
MjYxNTE5MjBaFw0yMzA4MjYxNTE5MjBaMEkxDzANBgNVBAMMBkNhbHZpbjELMAkG
A1UEBhMCSVQxDzANBgNVBAgMBkl0YWxpYTEYMBYGA1UECgwPUmVnaW9uZSBBYnJ1
enpvMFYwEAYHKoZIzj0CAQYFK4EEAAoDQgAEaCmWgpbfPtca/qXUhFzV58m8V4S5
+p6I/77Y88H0IH5+7QVOnZdQWe8WWHqfqQ9A0MdcziWzoeorrPvsLfVKqqMjMCEw
DgYDVR0PAQH/BAQDAgWgMA8GA1UdEwEB/wQFMAMCAQMwCgYIKoZIzj0EAwIDSAAw
RQIhAIH1rVsSzEwp2D/BA7whZ883al3Yb52KZTtKK+YA3u0UAiBOje3jW3JOydha
wVmYb2BlLzSjHtv9iFSZgZBbr7kpLA==
-----END CERTIFICATE-----
