Certificate:
    Data:
        Version: 3 (0x2)
        Serial Number: 17 (0x11)
        Signature Algorithm: ecdsa-with-SHA256
        Issuer: CN=Regione Veneto, C=IT, ST=Italia, O=E-Voting system, OU=E-Voting system authority/emailAddress=Veneto@evoting.it
        Validity
            Not Before: Aug 26 15:20:27 2022 GMT
            Not After : Aug 26 15:20:27 2023 GMT
        Subject: CN=Cameron, C=IT, ST=Italia, O=Regione Veneto
        Subject Public Key Info:
            Public Key Algorithm: id-ecPublicKey
                Public-Key: (256 bit)
                pub:
                    04:03:10:77:52:74:a4:36:63:80:8a:43:96:2a:98:
                    a4:1c:43:7a:61:d7:89:e2:2e:c5:c2:7e:fd:ca:07:
                    59:27:e6:e0:97:7f:ba:97:1f:72:20:b8:b6:9a:c9:
                    b6:ab:49:f8:18:6c:07:dd:07:ec:78:e0:b1:db:91:
                    ae:12:e8:4b:5e
                ASN1 OID: secp256k1
        X509v3 extensions:
            X509v3 Key Usage: critical
                Digital Signature, Key Encipherment
            X509v3 Basic Constraints: critical
                CA:FALSE, pathlen:3
    Signature Algorithm: ecdsa-with-SHA256
         30:45:02:20:46:47:b0:6c:5f:f8:b1:07:93:bf:ba:f5:e4:11:
         63:78:be:fc:56:8c:0f:e9:f1:52:68:f3:96:38:84:fe:ec:09:
         02:21:00:ce:42:74:d3:cd:3f:9f:60:b1:56:e7:07:4b:71:7b:
         a4:69:44:8e:bc:8c:87:5e:b9:71:23:03:68:b7:4f:c7:3b
-----BEGIN CERTIFICATE-----
MIIB8DCCAZagAwIBAgIBETAKBggqhkjOPQQDAjCBlzEXMBUGA1UEAwwOUmVnaW9u
ZSBWZW5ldG8xCzAJBgNVBAYTAklUMQ8wDQYDVQQIDAZJdGFsaWExGDAWBgNVBAoM
D0UtVm90aW5nIHN5c3RlbTEiMCAGA1UECwwZRS1Wb3Rpbmcgc3lzdGVtIGF1dGhv
cml0eTEgMB4GCSqGSIb3DQEJARYRVmVuZXRvQGV2b3RpbmcuaXQwHhcNMjIwODI2
MTUyMDI3WhcNMjMwODI2MTUyMDI3WjBJMRAwDgYDVQQDDAdDYW1lcm9uMQswCQYD
VQQGEwJJVDEPMA0GA1UECAwGSXRhbGlhMRcwFQYDVQQKDA5SZWdpb25lIFZlbmV0
bzBWMBAGByqGSM49AgEGBSuBBAAKA0IABAMQd1J0pDZjgIpDliqYpBxDemHXieIu
xcJ+/coHWSfm4Jd/upcfciC4tprJtqtJ+BhsB90H7HjgsduRrhLoS16jIzAhMA4G
A1UdDwEB/wQEAwIFoDAPBgNVHRMBAf8EBTADAgEDMAoGCCqGSM49BAMCA0gAMEUC
IEZHsGxf+LEHk7+69eQRY3i+/FaMD+nxUmjzljiE/uwJAiEAzkJ0080/n2CxVucH
S3F7pGlEjryMh165cSMDaLdPxzs=
-----END CERTIFICATE-----
