Certificate:
    Data:
        Version: 3 (0x2)
        Serial Number: 9 (0x9)
        Signature Algorithm: ecdsa-with-SHA256
        Issuer: CN=Regione Sardegna, C=IT, ST=Italia, O=E-Voting system, OU=E-Voting system authority/emailAddress=Sardegna@evoting.it
        Validity
            Not Before: Aug  3 13:26:37 2022 GMT
            Not After : Aug  3 13:26:37 2023 GMT
        Subject: CN=Cameron, C=IT, ST=Italia, O=Regione Sardegna
        Subject Public Key Info:
            Public Key Algorithm: id-ecPublicKey
                Public-Key: (256 bit)
                pub:
                    04:1a:88:c4:00:a0:71:0b:61:9e:da:9c:fa:af:3d:
                    92:25:25:8e:60:5c:81:c6:bc:7f:82:5e:80:a2:0f:
                    cd:c5:40:5e:66:e6:a6:c7:9c:c3:19:f3:17:43:37:
                    f2:fe:1e:09:99:0a:0d:80:cb:bb:26:e3:1d:24:30:
                    54:cd:23:94:e5
                ASN1 OID: prime256v1
                NIST CURVE: P-256
        X509v3 extensions:
            X509v3 Key Usage: critical
                Digital Signature, Key Encipherment
            X509v3 Basic Constraints: critical
                CA:FALSE, pathlen:3
    Signature Algorithm: ecdsa-with-SHA256
         30:45:02:21:00:89:3d:a4:f7:23:34:75:9e:38:ee:4f:24:6e:
         23:59:fe:d5:de:df:3e:3a:35:f7:b2:78:ab:f9:4b:85:19:f1:
         18:02:20:6e:cd:77:23:2e:5e:ab:be:05:d6:91:b1:75:ba:f5:
         74:f9:90:dc:ce:77:b6:17:e8:7c:b3:f1:11:26:72:da:ab
-----BEGIN CERTIFICATE-----
MIIB+TCCAZ+gAwIBAgIBCTAKBggqhkjOPQQDAjCBmzEZMBcGA1UEAwwQUmVnaW9u
ZSBTYXJkZWduYTELMAkGA1UEBhMCSVQxDzANBgNVBAgMBkl0YWxpYTEYMBYGA1UE
CgwPRS1Wb3Rpbmcgc3lzdGVtMSIwIAYDVQQLDBlFLVZvdGluZyBzeXN0ZW0gYXV0
aG9yaXR5MSIwIAYJKoZIhvcNAQkBFhNTYXJkZWduYUBldm90aW5nLml0MB4XDTIy
MDgwMzEzMjYzN1oXDTIzMDgwMzEzMjYzN1owSzEQMA4GA1UEAwwHQ2FtZXJvbjEL
MAkGA1UEBhMCSVQxDzANBgNVBAgMBkl0YWxpYTEZMBcGA1UECgwQUmVnaW9uZSBT
YXJkZWduYTBZMBMGByqGSM49AgEGCCqGSM49AwEHA0IABBqIxACgcQthntqc+q89
kiUljmBcgca8f4JegKIPzcVAXmbmpsecwxnzF0M38v4eCZkKDYDLuybjHSQwVM0j
lOWjIzAhMA4GA1UdDwEB/wQEAwIFoDAPBgNVHRMBAf8EBTADAgEDMAoGCCqGSM49
BAMCA0gAMEUCIQCJPaT3IzR1njjuTyRuI1n+1d7fPjo197J4q/lLhRnxGAIgbs13
Iy5eq74F1pGxdbr1dPmQ3M53thfofLPxESZy2qs=
-----END CERTIFICATE-----
