Certificate:
    Data:
        Version: 3 (0x2)
        Serial Number: 14 (0xe)
        Signature Algorithm: ecdsa-with-SHA256
        Issuer: CN=Regione Lombardia, C=IT, ST=Italia, O=E-Voting system, OU=E-Voting system authority/emailAddress=Lombardia@evoting.it
        Validity
            Not Before: Aug 26 15:19:26 2022 GMT
            Not After : Aug 26 15:19:26 2023 GMT
        Subject: CN=Camilla, C=IT, ST=Italia, O=Regione Lombardia
        Subject Public Key Info:
            Public Key Algorithm: id-ecPublicKey
                Public-Key: (256 bit)
                pub:
                    04:5a:98:a2:ea:b8:1b:f0:31:e5:73:5e:ff:f9:5c:
                    13:c7:9b:63:38:49:c5:4e:1d:27:44:83:77:f6:a4:
                    57:f1:02:6a:11:b8:a9:fa:b7:0b:0e:3a:91:99:74:
                    7a:75:38:83:be:26:41:3d:81:8c:09:a7:c3:6e:0c:
                    da:ab:60:23:39
                ASN1 OID: secp256k1
        X509v3 extensions:
            X509v3 Key Usage: critical
                Digital Signature, Key Encipherment
            X509v3 Basic Constraints: critical
                CA:FALSE, pathlen:3
    Signature Algorithm: ecdsa-with-SHA256
         30:46:02:21:00:e9:73:c7:e7:33:aa:ab:05:46:70:a9:d0:14:
         90:ca:e8:69:16:99:32:db:9b:6e:a2:43:f7:4f:4c:d4:7f:68:
         4d:02:21:00:e6:45:af:8b:91:73:53:99:68:b6:b1:e6:0a:05:
         25:3e:1f:ad:1c:9f:5b:c1:7b:3f:2d:cb:ac:62:e3:58:67:f5
-----BEGIN CERTIFICATE-----
MIIB+jCCAZ+gAwIBAgIBDjAKBggqhkjOPQQDAjCBnTEaMBgGA1UEAwwRUmVnaW9u
ZSBMb21iYXJkaWExCzAJBgNVBAYTAklUMQ8wDQYDVQQIDAZJdGFsaWExGDAWBgNV
BAoMD0UtVm90aW5nIHN5c3RlbTEiMCAGA1UECwwZRS1Wb3Rpbmcgc3lzdGVtIGF1
dGhvcml0eTEjMCEGCSqGSIb3DQEJARYUTG9tYmFyZGlhQGV2b3RpbmcuaXQwHhcN
MjIwODI2MTUxOTI2WhcNMjMwODI2MTUxOTI2WjBMMRAwDgYDVQQDDAdDYW1pbGxh
MQswCQYDVQQGEwJJVDEPMA0GA1UECAwGSXRhbGlhMRowGAYDVQQKDBFSZWdpb25l
IExvbWJhcmRpYTBWMBAGByqGSM49AgEGBSuBBAAKA0IABFqYouq4G/Ax5XNe//lc
E8ebYzhJxU4dJ0SDd/akV/ECahG4qfq3Cw46kZl0enU4g74mQT2BjAmnw24M2qtg
IzmjIzAhMA4GA1UdDwEB/wQEAwIFoDAPBgNVHRMBAf8EBTADAgEDMAoGCCqGSM49
BAMCA0kAMEYCIQDpc8fnM6qrBUZwqdAUkMroaRaZMtubbqJD909M1H9oTQIhAOZF
r4uRc1OZaLax5goFJT4frRyfW8F7Py3LrGLjWGf1
-----END CERTIFICATE-----
