Certificate:
    Data:
        Version: 3 (0x2)
        Serial Number: 12 (0xc)
        Signature Algorithm: ecdsa-with-SHA256
        Issuer: CN=Regione Emilia_Romagna, C=IT, ST=Italia, O=E-Voting system, OU=E-Voting system authority/emailAddress=Emilia_Romagna@evoting.it
        Validity
            Not Before: Aug  3 13:26:18 2022 GMT
            Not After : Aug  3 13:26:18 2023 GMT
        Subject: CN=Camilla, C=IT, ST=Italia, O=Regione Emilia_Romagna
        Subject Public Key Info:
            Public Key Algorithm: id-ecPublicKey
                Public-Key: (256 bit)
                pub:
                    04:de:97:35:1c:48:ec:64:78:a6:b8:98:7a:78:12:
                    64:fd:36:8d:ef:06:85:97:73:8e:8b:dd:2b:b9:0b:
                    aa:ff:c3:e5:30:e4:6b:1e:d0:4e:78:0f:7c:8a:2e:
                    78:c9:d8:b8:cd:67:69:1f:71:3e:0c:21:a3:8b:e2:
                    8e:6b:ed:69:40
                ASN1 OID: prime256v1
                NIST CURVE: P-256
        X509v3 extensions:
            X509v3 Key Usage: critical
                Digital Signature, Key Encipherment
            X509v3 Basic Constraints: critical
                CA:FALSE, pathlen:3
    Signature Algorithm: ecdsa-with-SHA256
         30:44:02:20:52:94:10:0a:4a:16:59:ca:71:6c:ab:1a:ee:99:
         d5:d4:b9:50:0d:5e:b5:a8:a0:9b:4b:4e:83:bd:25:af:64:51:
         02:20:7c:92:3d:13:36:47:fa:67:b3:93:05:8a:27:3b:86:13:
         30:a3:f7:20:79:d6:84:f5:e6:70:89:bc:c3:72:7c:14
-----BEGIN CERTIFICATE-----
MIICCjCCAbGgAwIBAgIBDDAKBggqhkjOPQQDAjCBpzEfMB0GA1UEAwwWUmVnaW9u
ZSBFbWlsaWFfUm9tYWduYTELMAkGA1UEBhMCSVQxDzANBgNVBAgMBkl0YWxpYTEY
MBYGA1UECgwPRS1Wb3Rpbmcgc3lzdGVtMSIwIAYDVQQLDBlFLVZvdGluZyBzeXN0
ZW0gYXV0aG9yaXR5MSgwJgYJKoZIhvcNAQkBFhlFbWlsaWFfUm9tYWduYUBldm90
aW5nLml0MB4XDTIyMDgwMzEzMjYxOFoXDTIzMDgwMzEzMjYxOFowUTEQMA4GA1UE
AwwHQ2FtaWxsYTELMAkGA1UEBhMCSVQxDzANBgNVBAgMBkl0YWxpYTEfMB0GA1UE
CgwWUmVnaW9uZSBFbWlsaWFfUm9tYWduYTBZMBMGByqGSM49AgEGCCqGSM49AwEH
A0IABN6XNRxI7GR4priYengSZP02je8GhZdzjovdK7kLqv/D5TDkax7QTngPfIou
eMnYuM1naR9xPgwho4vijmvtaUCjIzAhMA4GA1UdDwEB/wQEAwIFoDAPBgNVHRMB
Af8EBTADAgEDMAoGCCqGSM49BAMCA0cAMEQCIFKUEApKFlnKcWyrGu6Z1dS5UA1e
taigm0tOg70lr2RRAiB8kj0TNkf6Z7OTBYonO4YTMKP3IHnWhPXmcIm8w3J8FA==
-----END CERTIFICATE-----
