Certificate:
    Data:
        Version: 3 (0x2)
        Serial Number: 35 (0x23)
        Signature Algorithm: ecdsa-with-SHA256
        Issuer: CN=Regione Campania, C=IT, ST=Italia, O=E-Voting system, OU=E-Voting system authority/emailAddress=Campania@evoting.it
        Validity
            Not Before: Aug 26 15:20:45 2022 GMT
            Not After : Aug 26 15:20:45 2023 GMT
        Subject: CN=Candice, C=IT, ST=Italia, O=Regione Campania
        Subject Public Key Info:
            Public Key Algorithm: id-ecPublicKey
                Public-Key: (256 bit)
                pub:
                    04:21:34:5a:ea:1e:ca:90:56:6b:e4:7f:8e:13:6b:
                    61:74:9d:cf:c5:d0:f6:a0:9d:17:63:da:0c:8e:6e:
                    c2:e9:ee:61:5c:30:00:d6:55:2f:2e:40:a3:e9:4e:
                    e1:f3:d2:11:67:9b:ff:86:ce:28:1e:e6:ec:28:0c:
                    7f:63:58:f4:66
                ASN1 OID: secp256k1
        X509v3 extensions:
            X509v3 Key Usage: critical
                Digital Signature, Key Encipherment
            X509v3 Basic Constraints: critical
                CA:FALSE, pathlen:3
    Signature Algorithm: ecdsa-with-SHA256
         30:45:02:21:00:a8:07:10:24:b0:ec:6f:54:21:45:a2:3a:c4:
         5f:ca:72:47:c6:c3:11:36:0e:5f:c7:5e:be:07:01:ad:cc:0e:
         6c:02:20:32:2d:37:da:fa:65:fe:f0:31:82:8f:50:fa:0b:0b:
         c1:98:fc:93:b6:e2:d2:35:22:22:81:20:08:d9:da:ec:e7
-----BEGIN CERTIFICATE-----
MIIB9jCCAZygAwIBAgIBIzAKBggqhkjOPQQDAjCBmzEZMBcGA1UEAwwQUmVnaW9u
ZSBDYW1wYW5pYTELMAkGA1UEBhMCSVQxDzANBgNVBAgMBkl0YWxpYTEYMBYGA1UE
CgwPRS1Wb3Rpbmcgc3lzdGVtMSIwIAYDVQQLDBlFLVZvdGluZyBzeXN0ZW0gYXV0
aG9yaXR5MSIwIAYJKoZIhvcNAQkBFhNDYW1wYW5pYUBldm90aW5nLml0MB4XDTIy
MDgyNjE1MjA0NVoXDTIzMDgyNjE1MjA0NVowSzEQMA4GA1UEAwwHQ2FuZGljZTEL
MAkGA1UEBhMCSVQxDzANBgNVBAgMBkl0YWxpYTEZMBcGA1UECgwQUmVnaW9uZSBD
YW1wYW5pYTBWMBAGByqGSM49AgEGBSuBBAAKA0IABCE0WuoeypBWa+R/jhNrYXSd
z8XQ9qCdF2PaDI5uwunuYVwwANZVLy5Ao+lO4fPSEWeb/4bOKB7m7CgMf2NY9Gaj
IzAhMA4GA1UdDwEB/wQEAwIFoDAPBgNVHRMBAf8EBTADAgEDMAoGCCqGSM49BAMC
A0gAMEUCIQCoBxAksOxvVCFFojrEX8pyR8bDETYOX8devgcBrcwObAIgMi032vpl
/vAxgo9Q+gsLwZj8k7bi0jUiIoEgCNna7Oc=
-----END CERTIFICATE-----
