Certificate:
    Data:
        Version: 3 (0x2)
        Serial Number: 26 (0x1a)
        Signature Algorithm: ecdsa-with-SHA256
        Issuer: CN=Regione Basilicata, C=IT, ST=Italia, O=E-Voting system, OU=E-Voting system authority/emailAddress=Basilicata@evoting.it
        Validity
            Not Before: Aug 26 15:20:28 2022 GMT
            Not After : Aug 26 15:20:28 2023 GMT
        Subject: CN=Candace, C=IT, ST=Italia, O=Regione Basilicata
        Subject Public Key Info:
            Public Key Algorithm: id-ecPublicKey
                Public-Key: (256 bit)
                pub:
                    04:1f:68:b5:6b:a0:f5:dc:7e:10:ff:8c:1e:89:07:
                    1b:80:22:e5:5f:a7:20:df:5b:32:c1:91:e6:b8:d8:
                    37:30:a3:f2:a4:fe:a6:ac:b0:1e:b4:c0:49:ac:00:
                    8a:27:27:6f:f8:ba:58:a2:71:2a:16:46:31:88:c1:
                    c0:17:e1:e9:7d
                ASN1 OID: secp256k1
        X509v3 extensions:
            X509v3 Key Usage: critical
                Digital Signature, Key Encipherment
            X509v3 Basic Constraints: critical
                CA:FALSE, pathlen:3
    Signature Algorithm: ecdsa-with-SHA256
         30:45:02:20:7f:a7:8e:04:b3:5b:ec:34:38:0d:7a:53:be:b7:
         a2:21:7a:ff:bf:b8:7a:8a:7d:75:59:29:8c:f2:ed:fc:5b:c8:
         02:21:00:88:5d:20:65:86:c1:10:7b:af:26:ec:69:3b:bc:f5:
         a4:0c:b1:fc:3e:c7:d3:37:d6:6d:73:db:97:38:16:07:5d
-----BEGIN CERTIFICATE-----
MIIB/DCCAaKgAwIBAgIBGjAKBggqhkjOPQQDAjCBnzEbMBkGA1UEAwwSUmVnaW9u
ZSBCYXNpbGljYXRhMQswCQYDVQQGEwJJVDEPMA0GA1UECAwGSXRhbGlhMRgwFgYD
VQQKDA9FLVZvdGluZyBzeXN0ZW0xIjAgBgNVBAsMGUUtVm90aW5nIHN5c3RlbSBh
dXRob3JpdHkxJDAiBgkqhkiG9w0BCQEWFUJhc2lsaWNhdGFAZXZvdGluZy5pdDAe
Fw0yMjA4MjYxNTIwMjhaFw0yMzA4MjYxNTIwMjhaME0xEDAOBgNVBAMMB0NhbmRh
Y2UxCzAJBgNVBAYTAklUMQ8wDQYDVQQIDAZJdGFsaWExGzAZBgNVBAoMElJlZ2lv
bmUgQmFzaWxpY2F0YTBWMBAGByqGSM49AgEGBSuBBAAKA0IABB9otWug9dx+EP+M
HokHG4Ai5V+nIN9bMsGR5rjYNzCj8qT+pqywHrTASawAiicnb/i6WKJxKhZGMYjB
wBfh6X2jIzAhMA4GA1UdDwEB/wQEAwIFoDAPBgNVHRMBAf8EBTADAgEDMAoGCCqG
SM49BAMCA0gAMEUCIH+njgSzW+w0OA16U763oiF6/7+4eop9dVkpjPLt/FvIAiEA
iF0gZYbBEHuvJuxpO7z1pAyx/D7H0zfWbXPblzgWB10=
-----END CERTIFICATE-----
