Certificate:
    Data:
        Version: 3 (0x2)
        Serial Number: 4 (0x4)
        Signature Algorithm: ecdsa-with-SHA256
        Issuer: CN=Regione Molise, C=IT, ST=Italia, O=E-Voting system, OU=E-Voting system authority/emailAddress=Molise@evoting.it
        Validity
            Not Before: Aug 26 15:19:00 2022 GMT
            Not After : Aug 26 15:19:00 2023 GMT
        Subject: CN=Carin, C=IT, ST=Italia, O=Regione Molise
        Subject Public Key Info:
            Public Key Algorithm: id-ecPublicKey
                Public-Key: (256 bit)
                pub:
                    04:4c:04:75:67:21:d1:9c:23:d1:ed:d0:33:b1:05:
                    a8:95:da:64:0c:b7:3b:24:0e:7c:81:93:b1:00:4d:
                    dc:93:84:95:93:76:51:c2:a5:bc:fe:cc:28:35:8e:
                    57:92:2b:be:fa:1a:60:d6:34:10:6d:7a:6f:c8:11:
                    61:81:66:3a:9d
                ASN1 OID: secp256k1
        X509v3 extensions:
            X509v3 Key Usage: critical
                Digital Signature, Key Encipherment
            X509v3 Basic Constraints: critical
                CA:FALSE, pathlen:3
    Signature Algorithm: ecdsa-with-SHA256
         30:46:02:21:00:f3:a9:e1:b9:38:60:ec:2d:0e:cc:ac:03:ec:
         a8:0d:7a:68:ef:e5:39:a9:4e:b2:40:68:af:fa:8c:65:57:93:
         8b:02:21:00:9d:bc:de:b1:5e:da:1c:ee:e3:a2:35:f6:d3:db:
         b2:47:38:a6:ed:ec:05:4d:b6:d9:aa:aa:1b:db:c7:06:26:f5
-----BEGIN CERTIFICATE-----
MIIB7zCCAZSgAwIBAgIBBDAKBggqhkjOPQQDAjCBlzEXMBUGA1UEAwwOUmVnaW9u
ZSBNb2xpc2UxCzAJBgNVBAYTAklUMQ8wDQYDVQQIDAZJdGFsaWExGDAWBgNVBAoM
D0UtVm90aW5nIHN5c3RlbTEiMCAGA1UECwwZRS1Wb3Rpbmcgc3lzdGVtIGF1dGhv
cml0eTEgMB4GCSqGSIb3DQEJARYRTW9saXNlQGV2b3RpbmcuaXQwHhcNMjIwODI2
MTUxOTAwWhcNMjMwODI2MTUxOTAwWjBHMQ4wDAYDVQQDDAVDYXJpbjELMAkGA1UE
BhMCSVQxDzANBgNVBAgMBkl0YWxpYTEXMBUGA1UECgwOUmVnaW9uZSBNb2xpc2Uw
VjAQBgcqhkjOPQIBBgUrgQQACgNCAARMBHVnIdGcI9Ht0DOxBaiV2mQMtzskDnyB
k7EATdyThJWTdlHCpbz+zCg1jleSK776GmDWNBBtem/IEWGBZjqdoyMwITAOBgNV
HQ8BAf8EBAMCBaAwDwYDVR0TAQH/BAUwAwIBAzAKBggqhkjOPQQDAgNJADBGAiEA
86nhuThg7C0OzKwD7KgNemjv5TmpTrJAaK/6jGVXk4sCIQCdvN6xXtoc7uOiNfbT
27JHOKbt7AVNttmqqhvbxwYm9Q==
-----END CERTIFICATE-----
