Certificate:
    Data:
        Version: 3 (0x2)
        Serial Number: 45 (0x2d)
        Signature Algorithm: ecdsa-with-SHA256
        Issuer: CN=Regione Toscana, C=IT, ST=Italia, O=E-Voting system, OU=E-Voting system authority/emailAddress=Toscana@evoting.it
        Validity
            Not Before: Aug  3 13:28:51 2022 GMT
            Not After : Aug  3 13:28:51 2023 GMT
        Subject: CN=Carita, C=IT, ST=Italia, O=Regione Toscana
        Subject Public Key Info:
            Public Key Algorithm: id-ecPublicKey
                Public-Key: (256 bit)
                pub:
                    04:85:fc:1b:53:9e:f9:9c:6a:8d:ac:51:4d:bc:b3:
                    c3:ae:4d:f2:fb:83:fd:59:ee:d3:f8:db:56:33:4f:
                    28:ba:61:8e:7c:34:c5:d3:ce:48:19:95:10:36:f7:
                    ed:49:d1:64:2d:ca:e1:c9:a8:ba:7d:58:bc:a2:fc:
                    ed:66:10:79:20
                ASN1 OID: prime256v1
                NIST CURVE: P-256
        X509v3 extensions:
            X509v3 Key Usage: critical
                Digital Signature, Key Encipherment
            X509v3 Basic Constraints: critical
                CA:FALSE, pathlen:3
    Signature Algorithm: ecdsa-with-SHA256
         30:46:02:21:00:a6:4d:59:64:24:aa:17:ea:4b:51:9d:4e:5b:
         c9:29:33:ca:ff:f7:cc:25:62:9c:a3:06:06:a0:f5:41:da:7f:
         0f:02:21:00:cd:84:76:2d:53:0f:77:99:df:59:e6:d7:ee:39:
         fa:44:66:11:31:c1:71:05:50:e5:f9:88:c8:4f:9e:12:73:18
-----BEGIN CERTIFICATE-----
MIIB9jCCAZugAwIBAgIBLTAKBggqhkjOPQQDAjCBmTEYMBYGA1UEAwwPUmVnaW9u
ZSBUb3NjYW5hMQswCQYDVQQGEwJJVDEPMA0GA1UECAwGSXRhbGlhMRgwFgYDVQQK
DA9FLVZvdGluZyBzeXN0ZW0xIjAgBgNVBAsMGUUtVm90aW5nIHN5c3RlbSBhdXRo
b3JpdHkxITAfBgkqhkiG9w0BCQEWElRvc2NhbmFAZXZvdGluZy5pdDAeFw0yMjA4
MDMxMzI4NTFaFw0yMzA4MDMxMzI4NTFaMEkxDzANBgNVBAMMBkNhcml0YTELMAkG
A1UEBhMCSVQxDzANBgNVBAgMBkl0YWxpYTEYMBYGA1UECgwPUmVnaW9uZSBUb3Nj
YW5hMFkwEwYHKoZIzj0CAQYIKoZIzj0DAQcDQgAEhfwbU575nGqNrFFNvLPDrk3y
+4P9We7T+NtWM08oumGOfDTF085IGZUQNvftSdFkLcrhyai6fVi8ovztZhB5IKMj
MCEwDgYDVR0PAQH/BAQDAgWgMA8GA1UdEwEB/wQFMAMCAQMwCgYIKoZIzj0EAwID
SQAwRgIhAKZNWWQkqhfqS1GdTlvJKTPK//fMJWKcowYGoPVB2n8PAiEAzYR2LVMP
d5nfWebX7jn6RGYRMcFxBVDl+YjIT54Scxg=
-----END CERTIFICATE-----
