Certificate:
    Data:
        Version: 3 (0x2)
        Serial Number: 8 (0x8)
        Signature Algorithm: ecdsa-with-SHA256
        Issuer: CN=Regione Toscana, C=IT, ST=Italia, O=E-Voting system, OU=E-Voting system authority/emailAddress=Toscana@evoting.it
        Validity
            Not Before: Aug  3 13:26:00 2022 GMT
            Not After : Aug  3 13:26:00 2023 GMT
        Subject: CN=Carla, C=IT, ST=Italia, O=Regione Toscana
        Subject Public Key Info:
            Public Key Algorithm: id-ecPublicKey
                Public-Key: (256 bit)
                pub:
                    04:dd:f5:33:f0:93:04:a9:27:44:d9:9d:1c:b6:e6:
                    24:4b:1c:99:d0:74:27:4d:6a:d6:d7:af:8a:81:1d:
                    63:35:f2:57:68:34:c4:82:1b:18:e7:06:de:23:15:
                    c6:73:80:03:dd:30:e5:d5:b7:be:2c:6f:34:bc:aa:
                    e5:d6:45:d1:c9
                ASN1 OID: prime256v1
                NIST CURVE: P-256
        X509v3 extensions:
            X509v3 Key Usage: critical
                Digital Signature, Key Encipherment
            X509v3 Basic Constraints: critical
                CA:FALSE, pathlen:3
    Signature Algorithm: ecdsa-with-SHA256
         30:45:02:21:00:9d:09:d1:e7:d9:9a:1c:02:2b:54:a3:44:7f:
         23:6d:62:a7:1d:f3:23:cd:d2:c7:05:17:5a:a1:da:b2:da:a0:
         00:02:20:13:cd:72:c9:00:9b:22:55:eb:93:8f:a9:28:c0:83:
         6e:da:e3:9e:62:ba:f5:69:ff:6d:0b:7a:9e:4b:2a:7b:15
-----BEGIN CERTIFICATE-----
MIIB9DCCAZqgAwIBAgIBCDAKBggqhkjOPQQDAjCBmTEYMBYGA1UEAwwPUmVnaW9u
ZSBUb3NjYW5hMQswCQYDVQQGEwJJVDEPMA0GA1UECAwGSXRhbGlhMRgwFgYDVQQK
DA9FLVZvdGluZyBzeXN0ZW0xIjAgBgNVBAsMGUUtVm90aW5nIHN5c3RlbSBhdXRo
b3JpdHkxITAfBgkqhkiG9w0BCQEWElRvc2NhbmFAZXZvdGluZy5pdDAeFw0yMjA4
MDMxMzI2MDBaFw0yMzA4MDMxMzI2MDBaMEgxDjAMBgNVBAMMBUNhcmxhMQswCQYD
VQQGEwJJVDEPMA0GA1UECAwGSXRhbGlhMRgwFgYDVQQKDA9SZWdpb25lIFRvc2Nh
bmEwWTATBgcqhkjOPQIBBggqhkjOPQMBBwNCAATd9TPwkwSpJ0TZnRy25iRLHJnQ
dCdNatbXr4qBHWM18ldoNMSCGxjnBt4jFcZzgAPdMOXVt74sbzS8quXWRdHJoyMw
ITAOBgNVHQ8BAf8EBAMCBaAwDwYDVR0TAQH/BAUwAwIBAzAKBggqhkjOPQQDAgNI
ADBFAiEAnQnR59maHAIrVKNEfyNtYqcd8yPN0scFF1qh2rLaoAACIBPNcskAmyJV
65OPqSjAg27a455iuvVp/20Lep5LKnsV
-----END CERTIFICATE-----
