Certificate:
    Data:
        Version: 3 (0x2)
        Serial Number: 26 (0x1a)
        Signature Algorithm: ecdsa-with-SHA256
        Issuer: CN=Regione Sardegna, C=IT, ST=Italia, O=E-Voting system, OU=E-Voting system authority/emailAddress=Sardegna@evoting.it
        Validity
            Not Before: Aug 26 15:20:39 2022 GMT
            Not After : Aug 26 15:20:39 2023 GMT
        Subject: CN=Carla, C=IT, ST=Italia, O=Regione Sardegna
        Subject Public Key Info:
            Public Key Algorithm: id-ecPublicKey
                Public-Key: (256 bit)
                pub:
                    04:41:73:45:f0:46:0d:54:59:e5:30:ae:62:ee:60:
                    f0:d4:8b:8d:61:8f:33:95:1f:e5:97:f7:99:89:94:
                    42:3a:03:5d:da:f7:db:73:cc:3d:a8:25:8a:92:26:
                    d2:d6:3c:e4:7c:8d:b1:fa:39:86:c1:4e:93:5a:0c:
                    d1:aa:2e:ff:4f
                ASN1 OID: secp256k1
        X509v3 extensions:
            X509v3 Key Usage: critical
                Digital Signature, Key Encipherment
            X509v3 Basic Constraints: critical
                CA:FALSE, pathlen:3
    Signature Algorithm: ecdsa-with-SHA256
         30:45:02:21:00:cb:af:03:ce:e6:52:42:a0:d3:08:0c:7b:2d:
         2b:e2:3b:bb:a0:2b:c3:32:ba:08:bc:f0:46:ab:49:04:e5:4e:
         0a:02:20:3b:4e:d4:9e:b1:5a:31:ab:f4:89:02:6a:f2:b2:d2:
         da:ac:bf:38:da:95:dc:38:d6:59:b2:63:73:30:2a:5b:5f
-----BEGIN CERTIFICATE-----
MIIB9DCCAZqgAwIBAgIBGjAKBggqhkjOPQQDAjCBmzEZMBcGA1UEAwwQUmVnaW9u
ZSBTYXJkZWduYTELMAkGA1UEBhMCSVQxDzANBgNVBAgMBkl0YWxpYTEYMBYGA1UE
CgwPRS1Wb3Rpbmcgc3lzdGVtMSIwIAYDVQQLDBlFLVZvdGluZyBzeXN0ZW0gYXV0
aG9yaXR5MSIwIAYJKoZIhvcNAQkBFhNTYXJkZWduYUBldm90aW5nLml0MB4XDTIy
MDgyNjE1MjAzOVoXDTIzMDgyNjE1MjAzOVowSTEOMAwGA1UEAwwFQ2FybGExCzAJ
BgNVBAYTAklUMQ8wDQYDVQQIDAZJdGFsaWExGTAXBgNVBAoMEFJlZ2lvbmUgU2Fy
ZGVnbmEwVjAQBgcqhkjOPQIBBgUrgQQACgNCAARBc0XwRg1UWeUwrmLuYPDUi41h
jzOVH+WX95mJlEI6A13a99tzzD2oJYqSJtLWPOR8jbH6OYbBTpNaDNGqLv9PoyMw
ITAOBgNVHQ8BAf8EBAMCBaAwDwYDVR0TAQH/BAUwAwIBAzAKBggqhkjOPQQDAgNI
ADBFAiEAy68DzuZSQqDTCAx7LSviO7ugK8Myugi88EarSQTlTgoCIDtO1J6xWjGr
9IkCavKy0tqsvzjaldw41lmyY3MwKltf
-----END CERTIFICATE-----
