Certificate:
    Data:
        Version: 3 (0x2)
        Serial Number: 25 (0x19)
        Signature Algorithm: ecdsa-with-SHA256
        Issuer: CN=Regione Molise, C=IT, ST=Italia, O=E-Voting system, OU=E-Voting system authority/emailAddress=Molise@evoting.it
        Validity
            Not Before: Aug  3 13:26:59 2022 GMT
            Not After : Aug  3 13:26:59 2023 GMT
        Subject: CN=Carl, C=IT, ST=Italia, O=Regione Molise
        Subject Public Key Info:
            Public Key Algorithm: id-ecPublicKey
                Public-Key: (256 bit)
                pub:
                    04:2f:59:96:29:d1:3d:c9:1c:72:c6:9c:e4:9c:11:
                    ad:0b:04:6b:d8:5a:93:9e:0b:47:38:0a:90:83:f7:
                    4b:4b:d7:76:6d:c8:e3:f5:ac:ad:76:10:e4:57:22:
                    77:da:70:c9:7b:0e:49:a4:aa:fd:66:07:42:7c:2d:
                    7e:3c:43:9d:95
                ASN1 OID: prime256v1
                NIST CURVE: P-256
        X509v3 extensions:
            X509v3 Key Usage: critical
                Digital Signature, Key Encipherment
            X509v3 Basic Constraints: critical
                CA:FALSE, pathlen:3
    Signature Algorithm: ecdsa-with-SHA256
         30:45:02:21:00:dd:0c:b4:32:88:c8:8f:20:c5:06:54:c8:56:
         8c:87:bc:68:c0:67:5e:a7:db:1d:9a:c0:b6:36:4d:d0:13:cf:
         69:02:20:3b:54:23:24:d7:82:b9:36:bb:5b:4a:82:5e:f5:e1:
         5a:88:8c:64:dc:f9:61:6a:cc:71:20:6d:db:4c:51:18:43
-----BEGIN CERTIFICATE-----
MIIB8DCCAZagAwIBAgIBGTAKBggqhkjOPQQDAjCBlzEXMBUGA1UEAwwOUmVnaW9u
ZSBNb2xpc2UxCzAJBgNVBAYTAklUMQ8wDQYDVQQIDAZJdGFsaWExGDAWBgNVBAoM
D0UtVm90aW5nIHN5c3RlbTEiMCAGA1UECwwZRS1Wb3Rpbmcgc3lzdGVtIGF1dGhv
cml0eTEgMB4GCSqGSIb3DQEJARYRTW9saXNlQGV2b3RpbmcuaXQwHhcNMjIwODAz
MTMyNjU5WhcNMjMwODAzMTMyNjU5WjBGMQ0wCwYDVQQDDARDYXJsMQswCQYDVQQG
EwJJVDEPMA0GA1UECAwGSXRhbGlhMRcwFQYDVQQKDA5SZWdpb25lIE1vbGlzZTBZ
MBMGByqGSM49AgEGCCqGSM49AwEHA0IABC9ZlinRPckccsac5JwRrQsEa9hak54L
RzgKkIP3S0vXdm3I4/WsrXYQ5Fcid9pwyXsOSaSq/WYHQnwtfjxDnZWjIzAhMA4G
A1UdDwEB/wQEAwIFoDAPBgNVHRMBAf8EBTADAgEDMAoGCCqGSM49BAMCA0gAMEUC
IQDdDLQyiMiPIMUGVMhWjIe8aMBnXqfbHZrAtjZN0BPPaQIgO1QjJNeCuTa7W0qC
XvXhWoiMZNz5YWrMcSBt20xRGEM=
-----END CERTIFICATE-----
