Certificate:
    Data:
        Version: 3 (0x2)
        Serial Number: 25 (0x19)
        Signature Algorithm: ecdsa-with-SHA256
        Issuer: CN=Regione Valle_d_Aosta, C=IT, ST=Italia, O=E-Voting system, OU=E-Voting system authority/emailAddress=Valle_d_Aosta@evoting.it
        Validity
            Not Before: Aug  3 13:26:42 2022 GMT
            Not After : Aug  3 13:26:42 2023 GMT
        Subject: CN=Carlton, C=IT, ST=Italia, O=Regione Valle_d_Aosta
        Subject Public Key Info:
            Public Key Algorithm: id-ecPublicKey
                Public-Key: (256 bit)
                pub:
                    04:92:43:db:ae:ef:5d:7b:99:3e:32:4f:99:25:78:
                    b8:a3:f0:54:07:9c:2c:c9:c3:47:4e:22:fd:04:a5:
                    f3:c2:10:79:4e:c9:1d:ec:c6:28:ae:1b:09:ab:ff:
                    fa:21:a0:40:98:05:d6:d1:af:eb:f6:de:a9:70:73:
                    2f:15:16:df:eb
                ASN1 OID: prime256v1
                NIST CURVE: P-256
        X509v3 extensions:
            X509v3 Key Usage: critical
                Digital Signature, Key Encipherment
            X509v3 Basic Constraints: critical
                CA:FALSE, pathlen:3
    Signature Algorithm: ecdsa-with-SHA256
         30:44:02:20:5b:7e:df:93:44:cf:ca:72:8a:b6:79:b2:09:3e:
         25:2a:af:46:de:b0:04:f2:43:02:a6:ee:4b:d8:93:00:2d:0c:
         02:20:62:7d:ed:37:84:0a:f5:35:9e:f5:66:01:84:93:9f:6a:
         ba:79:5e:32:72:68:23:0a:bb:2d:4a:11:0f:d6:02:e0
-----BEGIN CERTIFICATE-----
MIICBzCCAa6gAwIBAgIBGTAKBggqhkjOPQQDAjCBpTEeMBwGA1UEAwwVUmVnaW9u
ZSBWYWxsZV9kX0Fvc3RhMQswCQYDVQQGEwJJVDEPMA0GA1UECAwGSXRhbGlhMRgw
FgYDVQQKDA9FLVZvdGluZyBzeXN0ZW0xIjAgBgNVBAsMGUUtVm90aW5nIHN5c3Rl
bSBhdXRob3JpdHkxJzAlBgkqhkiG9w0BCQEWGFZhbGxlX2RfQW9zdGFAZXZvdGlu
Zy5pdDAeFw0yMjA4MDMxMzI2NDJaFw0yMzA4MDMxMzI2NDJaMFAxEDAOBgNVBAMM
B0Nhcmx0b24xCzAJBgNVBAYTAklUMQ8wDQYDVQQIDAZJdGFsaWExHjAcBgNVBAoM
FVJlZ2lvbmUgVmFsbGVfZF9Bb3N0YTBZMBMGByqGSM49AgEGCCqGSM49AwEHA0IA
BJJD267vXXuZPjJPmSV4uKPwVAecLMnDR04i/QSl88IQeU7JHezGKK4bCav/+iGg
QJgF1tGv6/beqXBzLxUW3+ujIzAhMA4GA1UdDwEB/wQEAwIFoDAPBgNVHRMBAf8E
BTADAgEDMAoGCCqGSM49BAMCA0cAMEQCIFt+35NEz8pyirZ5sgk+JSqvRt6wBPJD
AqbuS9iTAC0MAiBife03hAr1NZ71ZgGEk59qunleMnJoIwq7LUoRD9YC4A==
-----END CERTIFICATE-----
