Certificate:
    Data:
        Version: 3 (0x2)
        Serial Number: 4 (0x4)
        Signature Algorithm: ecdsa-with-SHA256
        Issuer: CN=Regione Lombardia, C=IT, ST=Italia, O=E-Voting system, OU=E-Voting system authority/emailAddress=Lombardia@evoting.it
        Validity
            Not Before: Aug  3 13:25:49 2022 GMT
            Not After : Aug  3 13:25:49 2023 GMT
        Subject: CN=Carmela, C=IT, ST=Italia, O=Regione Lombardia
        Subject Public Key Info:
            Public Key Algorithm: id-ecPublicKey
                Public-Key: (256 bit)
                pub:
                    04:39:92:7d:32:32:23:7a:99:89:ef:56:53:67:b3:
                    0f:38:53:96:7f:6f:34:61:56:3d:82:eb:72:7c:8b:
                    36:ad:e2:01:48:bf:9b:6a:d4:cc:3a:22:9d:0d:ed:
                    94:ed:58:29:46:0d:9b:7d:a4:f4:f6:2c:8b:11:d2:
                    4c:5c:03:3b:c6
                ASN1 OID: prime256v1
                NIST CURVE: P-256
        X509v3 extensions:
            X509v3 Key Usage: critical
                Digital Signature, Key Encipherment
            X509v3 Basic Constraints: critical
                CA:FALSE, pathlen:3
    Signature Algorithm: ecdsa-with-SHA256
         30:44:02:20:0a:47:22:4e:0f:f3:78:8b:85:9d:91:99:30:02:
         4b:14:07:1e:f8:91:10:8d:6f:05:90:70:ae:b7:d8:ba:ab:dd:
         02:20:6a:79:09:69:65:d2:c5:4a:66:45:d7:8c:8d:98:97:84:
         2b:b3:02:d9:0e:b3:e7:79:3b:08:03:82:de:eb:ef:a5
-----BEGIN CERTIFICATE-----
MIIB+zCCAaKgAwIBAgIBBDAKBggqhkjOPQQDAjCBnTEaMBgGA1UEAwwRUmVnaW9u
ZSBMb21iYXJkaWExCzAJBgNVBAYTAklUMQ8wDQYDVQQIDAZJdGFsaWExGDAWBgNV
BAoMD0UtVm90aW5nIHN5c3RlbTEiMCAGA1UECwwZRS1Wb3Rpbmcgc3lzdGVtIGF1
dGhvcml0eTEjMCEGCSqGSIb3DQEJARYUTG9tYmFyZGlhQGV2b3RpbmcuaXQwHhcN
MjIwODAzMTMyNTQ5WhcNMjMwODAzMTMyNTQ5WjBMMRAwDgYDVQQDDAdDYXJtZWxh
MQswCQYDVQQGEwJJVDEPMA0GA1UECAwGSXRhbGlhMRowGAYDVQQKDBFSZWdpb25l
IExvbWJhcmRpYTBZMBMGByqGSM49AgEGCCqGSM49AwEHA0IABDmSfTIyI3qZie9W
U2ezDzhTln9vNGFWPYLrcnyLNq3iAUi/m2rUzDoinQ3tlO1YKUYNm32k9PYsixHS
TFwDO8ajIzAhMA4GA1UdDwEB/wQEAwIFoDAPBgNVHRMBAf8EBTADAgEDMAoGCCqG
SM49BAMCA0cAMEQCIApHIk4P83iLhZ2RmTACSxQHHviREI1vBZBwrrfYuqvdAiBq
eQlpZdLFSmZF14yNmJeEK7MC2Q6z53k7CAOC3uvvpQ==
-----END CERTIFICATE-----
