Certificate:
    Data:
        Version: 3 (0x2)
        Serial Number: 14 (0xe)
        Signature Algorithm: ecdsa-with-SHA256
        Issuer: CN=Regione Liguria, C=IT, ST=Italia, O=E-Voting system, OU=E-Voting system authority/emailAddress=Liguria@evoting.it
        Validity
            Not Before: Aug 26 15:18:55 2022 GMT
            Not After : Aug 26 15:18:55 2023 GMT
        Subject: CN=Carmen, C=IT, ST=Italia, O=Regione Liguria
        Subject Public Key Info:
            Public Key Algorithm: id-ecPublicKey
                Public-Key: (256 bit)
                pub:
                    04:f9:9e:c5:92:cc:87:3f:82:02:36:9d:1b:6d:0f:
                    dc:27:40:d8:52:88:7a:5b:6c:00:64:1d:8f:7c:d1:
                    36:4c:ef:2e:51:33:2a:39:fa:17:ac:35:1d:11:07:
                    37:55:c3:96:6c:10:3b:58:31:96:57:93:32:11:e2:
                    8c:87:16:3d:6b
                ASN1 OID: secp256k1
        X509v3 extensions:
            X509v3 Key Usage: critical
                Digital Signature, Key Encipherment
            X509v3 Basic Constraints: critical
                CA:FALSE, pathlen:3
    Signature Algorithm: ecdsa-with-SHA256
         30:45:02:21:00:91:94:eb:18:cf:21:68:ae:8f:70:56:c1:2d:
         b7:17:18:fd:cc:e3:8a:08:d3:0f:28:53:1b:b0:86:5b:0d:ab:
         d8:02:20:50:a9:19:af:a5:ff:e8:96:83:fb:68:7e:ff:9b:1b:
         ad:62:e3:45:eb:b7:78:3b:43:61:08:18:94:ab:5d:20:3b
-----BEGIN CERTIFICATE-----
MIIB8jCCAZigAwIBAgIBDjAKBggqhkjOPQQDAjCBmTEYMBYGA1UEAwwPUmVnaW9u
ZSBMaWd1cmlhMQswCQYDVQQGEwJJVDEPMA0GA1UECAwGSXRhbGlhMRgwFgYDVQQK
DA9FLVZvdGluZyBzeXN0ZW0xIjAgBgNVBAsMGUUtVm90aW5nIHN5c3RlbSBhdXRo
b3JpdHkxITAfBgkqhkiG9w0BCQEWEkxpZ3VyaWFAZXZvdGluZy5pdDAeFw0yMjA4
MjYxNTE4NTVaFw0yMzA4MjYxNTE4NTVaMEkxDzANBgNVBAMMBkNhcm1lbjELMAkG
A1UEBhMCSVQxDzANBgNVBAgMBkl0YWxpYTEYMBYGA1UECgwPUmVnaW9uZSBMaWd1
cmlhMFYwEAYHKoZIzj0CAQYFK4EEAAoDQgAE+Z7FksyHP4ICNp0bbQ/cJ0DYUoh6
W2wAZB2PfNE2TO8uUTMqOfoXrDUdEQc3VcOWbBA7WDGWV5MyEeKMhxY9a6MjMCEw
DgYDVR0PAQH/BAQDAgWgMA8GA1UdEwEB/wQFMAMCAQMwCgYIKoZIzj0EAwIDSAAw
RQIhAJGU6xjPIWiuj3BWwS23Fxj9zOOKCNMPKFMbsIZbDavYAiBQqRmvpf/oloP7
aH7/mxutYuNF67d4O0NhCBiUq10gOw==
-----END CERTIFICATE-----
