Certificate:
    Data:
        Version: 3 (0x2)
        Serial Number: 21 (0x15)
        Signature Algorithm: ecdsa-with-SHA256
        Issuer: CN=Regione Puglia, C=IT, ST=Italia, O=E-Voting system, OU=E-Voting system authority/emailAddress=Puglia@evoting.it
        Validity
            Not Before: Aug  3 13:27:01 2022 GMT
            Not After : Aug  3 13:27:01 2023 GMT
        Subject: CN=Carole, C=IT, ST=Italia, O=Regione Puglia
        Subject Public Key Info:
            Public Key Algorithm: id-ecPublicKey
                Public-Key: (256 bit)
                pub:
                    04:19:e3:a5:61:07:bf:a2:24:85:ac:5d:9a:8e:70:
                    12:60:2c:29:b9:48:be:b4:17:0d:6f:70:00:b9:9d:
                    11:55:52:51:56:3d:a9:e6:78:83:0e:45:97:f7:b1:
                    e7:ae:8d:d4:ae:9c:15:eb:bd:e8:7a:3b:f7:69:d0:
                    0c:66:75:40:4d
                ASN1 OID: prime256v1
                NIST CURVE: P-256
        X509v3 extensions:
            X509v3 Key Usage: critical
                Digital Signature, Key Encipherment
            X509v3 Basic Constraints: critical
                CA:FALSE, pathlen:3
    Signature Algorithm: ecdsa-with-SHA256
         30:44:02:20:00:84:62:b6:1e:62:11:85:ff:00:89:a0:58:b6:
         07:2c:c9:3f:51:b3:cd:70:e8:48:19:4d:c2:43:9b:13:7f:23:
         02:20:79:cb:df:98:62:a6:68:c8:c1:98:65:9b:46:95:b4:0c:
         cc:46:b4:9f:73:53:87:62:ee:f1:01:4c:5e:c6:72:68
-----BEGIN CERTIFICATE-----
MIIB8TCCAZigAwIBAgIBFTAKBggqhkjOPQQDAjCBlzEXMBUGA1UEAwwOUmVnaW9u
ZSBQdWdsaWExCzAJBgNVBAYTAklUMQ8wDQYDVQQIDAZJdGFsaWExGDAWBgNVBAoM
D0UtVm90aW5nIHN5c3RlbTEiMCAGA1UECwwZRS1Wb3Rpbmcgc3lzdGVtIGF1dGhv
cml0eTEgMB4GCSqGSIb3DQEJARYRUHVnbGlhQGV2b3RpbmcuaXQwHhcNMjIwODAz
MTMyNzAxWhcNMjMwODAzMTMyNzAxWjBIMQ8wDQYDVQQDDAZDYXJvbGUxCzAJBgNV
BAYTAklUMQ8wDQYDVQQIDAZJdGFsaWExFzAVBgNVBAoMDlJlZ2lvbmUgUHVnbGlh
MFkwEwYHKoZIzj0CAQYIKoZIzj0DAQcDQgAEGeOlYQe/oiSFrF2ajnASYCwpuUi+
tBcNb3AAuZ0RVVJRVj2p5niDDkWX97Hnro3UrpwV673oejv3adAMZnVATaMjMCEw
DgYDVR0PAQH/BAQDAgWgMA8GA1UdEwEB/wQFMAMCAQMwCgYIKoZIzj0EAwIDRwAw
RAIgAIRith5iEYX/AImgWLYHLMk/UbPNcOhIGU3CQ5sTfyMCIHnL35hipmjIwZhl
m0aVtAzMRrSfc1OHYu7xAUxexnJo
-----END CERTIFICATE-----
