Certificate:
    Data:
        Version: 3 (0x2)
        Serial Number: 28 (0x1c)
        Signature Algorithm: ecdsa-with-SHA256
        Issuer: CN=Regione Veneto, C=IT, ST=Italia, O=E-Voting system, OU=E-Voting system authority/emailAddress=Veneto@evoting.it
        Validity
            Not Before: Aug 26 15:21:14 2022 GMT
            Not After : Aug 26 15:21:14 2023 GMT
        Subject: CN=Carolyn, C=IT, ST=Italia, O=Regione Veneto
        Subject Public Key Info:
            Public Key Algorithm: id-ecPublicKey
                Public-Key: (256 bit)
                pub:
                    04:23:49:03:0c:04:fa:e2:eb:71:b0:c9:31:88:e8:
                    59:4f:2e:88:94:15:b1:35:47:f7:f3:91:65:58:70:
                    4c:bb:f5:d7:37:93:bf:47:df:ab:82:f3:c7:70:ec:
                    df:42:f5:46:41:62:e1:8d:b9:3c:09:8e:5b:bc:93:
                    06:e5:52:84:35
                ASN1 OID: secp256k1
        X509v3 extensions:
            X509v3 Key Usage: critical
                Digital Signature, Key Encipherment
            X509v3 Basic Constraints: critical
                CA:FALSE, pathlen:3
    Signature Algorithm: ecdsa-with-SHA256
         30:45:02:20:48:26:4f:66:d9:ae:a4:de:8a:7f:65:61:00:3c:
         cc:78:fc:48:a6:8d:5f:97:54:c2:89:dc:59:76:ae:02:c8:79:
         02:21:00:f1:ec:75:d9:2c:95:34:7c:26:ef:b5:6f:a5:01:21:
         9a:ad:e5:1c:c9:22:a8:25:a1:f6:d2:6e:fe:7d:ee:c5:c8
-----BEGIN CERTIFICATE-----
MIIB8DCCAZagAwIBAgIBHDAKBggqhkjOPQQDAjCBlzEXMBUGA1UEAwwOUmVnaW9u
ZSBWZW5ldG8xCzAJBgNVBAYTAklUMQ8wDQYDVQQIDAZJdGFsaWExGDAWBgNVBAoM
D0UtVm90aW5nIHN5c3RlbTEiMCAGA1UECwwZRS1Wb3Rpbmcgc3lzdGVtIGF1dGhv
cml0eTEgMB4GCSqGSIb3DQEJARYRVmVuZXRvQGV2b3RpbmcuaXQwHhcNMjIwODI2
MTUyMTE0WhcNMjMwODI2MTUyMTE0WjBJMRAwDgYDVQQDDAdDYXJvbHluMQswCQYD
VQQGEwJJVDEPMA0GA1UECAwGSXRhbGlhMRcwFQYDVQQKDA5SZWdpb25lIFZlbmV0
bzBWMBAGByqGSM49AgEGBSuBBAAKA0IABCNJAwwE+uLrcbDJMYjoWU8uiJQVsTVH
9/ORZVhwTLv11zeTv0ffq4Lzx3Ds30L1RkFi4Y25PAmOW7yTBuVShDWjIzAhMA4G
A1UdDwEB/wQEAwIFoDAPBgNVHRMBAf8EBTADAgEDMAoGCCqGSM49BAMCA0gAMEUC
IEgmT2bZrqTein9lYQA8zHj8SKaNX5dUwoncWXauAsh5AiEA8ex12SyVNHwm77Vv
pQEhmq3lHMkiqCWh9tJu/n3uxcg=
-----END CERTIFICATE-----
