Certificate:
    Data:
        Version: 3 (0x2)
        Serial Number: 40 (0x28)
        Signature Algorithm: ecdsa-with-SHA256
        Issuer: CN=Regione Abruzzo, C=IT, ST=Italia, O=E-Voting system, OU=E-Voting system authority/emailAddress=Abruzzo@evoting.it
        Validity
            Not Before: Aug  3 13:27:48 2022 GMT
            Not After : Aug  3 13:27:48 2023 GMT
        Subject: CN=Carolyn, C=IT, ST=Italia, O=Regione Abruzzo
        Subject Public Key Info:
            Public Key Algorithm: id-ecPublicKey
                Public-Key: (256 bit)
                pub:
                    04:6f:d5:91:0f:05:ad:26:19:f4:8f:ac:0d:6a:ec:
                    78:b3:ab:ce:4e:fb:ef:c1:95:48:d2:7e:a0:c5:44:
                    9b:07:2a:e1:0e:9d:2c:b7:3f:26:61:db:f0:d0:ae:
                    ba:72:6f:01:1f:48:10:f6:65:b8:bb:5a:9b:71:f7:
                    6f:27:c5:02:fe
                ASN1 OID: prime256v1
                NIST CURVE: P-256
        X509v3 extensions:
            X509v3 Key Usage: critical
                Digital Signature, Key Encipherment
            X509v3 Basic Constraints: critical
                CA:FALSE, pathlen:3
    Signature Algorithm: ecdsa-with-SHA256
         30:45:02:20:69:96:9f:c4:17:e0:83:bf:47:e9:78:ad:96:2b:
         4c:1e:a1:8e:b8:b7:98:ca:35:f3:fa:a9:32:9c:2f:83:bb:81:
         02:21:00:a2:a0:bf:7b:d6:4b:62:ec:56:c3:c2:ad:25:e2:c8:
         36:22:90:95:3b:3f:24:4d:af:69:b8:39:65:a5:6a:37:be
-----BEGIN CERTIFICATE-----
MIIB9jCCAZygAwIBAgIBKDAKBggqhkjOPQQDAjCBmTEYMBYGA1UEAwwPUmVnaW9u
ZSBBYnJ1enpvMQswCQYDVQQGEwJJVDEPMA0GA1UECAwGSXRhbGlhMRgwFgYDVQQK
DA9FLVZvdGluZyBzeXN0ZW0xIjAgBgNVBAsMGUUtVm90aW5nIHN5c3RlbSBhdXRo
b3JpdHkxITAfBgkqhkiG9w0BCQEWEkFicnV6em9AZXZvdGluZy5pdDAeFw0yMjA4
MDMxMzI3NDhaFw0yMzA4MDMxMzI3NDhaMEoxEDAOBgNVBAMMB0Nhcm9seW4xCzAJ
BgNVBAYTAklUMQ8wDQYDVQQIDAZJdGFsaWExGDAWBgNVBAoMD1JlZ2lvbmUgQWJy
dXp6bzBZMBMGByqGSM49AgEGCCqGSM49AwEHA0IABG/VkQ8FrSYZ9I+sDWrseLOr
zk7778GVSNJ+oMVEmwcq4Q6dLLc/JmHb8NCuunJvAR9IEPZluLtam3H3byfFAv6j
IzAhMA4GA1UdDwEB/wQEAwIFoDAPBgNVHRMBAf8EBTADAgEDMAoGCCqGSM49BAMC
A0gAMEUCIGmWn8QX4IO/R+l4rZYrTB6hjri3mMo18/qpMpwvg7uBAiEAoqC/e9ZL
YuxWw8KtJeLINiKQlTs/JE2vabg5ZaVqN74=
-----END CERTIFICATE-----
