Certificate:
    Data:
        Version: 3 (0x2)
        Serial Number: 42 (0x2a)
        Signature Algorithm: ecdsa-with-SHA256
        Issuer: CN=Regione Abruzzo, C=IT, ST=Italia, O=E-Voting system, OU=E-Voting system authority/emailAddress=Abruzzo@evoting.it
        Validity
            Not Before: Aug 26 15:21:15 2022 GMT
            Not After : Aug 26 15:21:15 2023 GMT
        Subject: CN=Carol, C=IT, ST=Italia, O=Regione Abruzzo
        Subject Public Key Info:
            Public Key Algorithm: id-ecPublicKey
                Public-Key: (256 bit)
                pub:
                    04:84:72:58:76:27:06:a6:84:c6:f2:56:fc:45:ef:
                    64:01:3a:99:6e:64:bf:f8:38:56:38:50:d5:75:ab:
                    72:c3:99:25:fd:e3:37:97:54:41:4a:c0:0c:ec:7b:
                    1e:fe:8b:a5:e0:6c:33:96:8d:6d:d0:3e:cd:d2:d8:
                    ce:9d:30:3d:87
                ASN1 OID: secp256k1
        X509v3 extensions:
            X509v3 Key Usage: critical
                Digital Signature, Key Encipherment
            X509v3 Basic Constraints: critical
                CA:FALSE, pathlen:3
    Signature Algorithm: ecdsa-with-SHA256
         30:45:02:21:00:89:3f:d2:a9:89:bb:58:8a:2a:6f:c1:a7:f4:
         86:ab:a6:89:12:0d:29:f9:d0:73:86:54:e3:69:c1:07:b4:40:
         88:02:20:7b:d1:9b:bb:48:6b:d5:64:1b:b0:8f:35:1b:35:e6:
         52:1e:5e:bb:ea:64:30:d6:8d:e5:09:f6:7a:71:b9:79:1c
-----BEGIN CERTIFICATE-----
MIIB8TCCAZegAwIBAgIBKjAKBggqhkjOPQQDAjCBmTEYMBYGA1UEAwwPUmVnaW9u
ZSBBYnJ1enpvMQswCQYDVQQGEwJJVDEPMA0GA1UECAwGSXRhbGlhMRgwFgYDVQQK
DA9FLVZvdGluZyBzeXN0ZW0xIjAgBgNVBAsMGUUtVm90aW5nIHN5c3RlbSBhdXRo
b3JpdHkxITAfBgkqhkiG9w0BCQEWEkFicnV6em9AZXZvdGluZy5pdDAeFw0yMjA4
MjYxNTIxMTVaFw0yMzA4MjYxNTIxMTVaMEgxDjAMBgNVBAMMBUNhcm9sMQswCQYD
VQQGEwJJVDEPMA0GA1UECAwGSXRhbGlhMRgwFgYDVQQKDA9SZWdpb25lIEFicnV6
em8wVjAQBgcqhkjOPQIBBgUrgQQACgNCAASEclh2JwamhMbyVvxF72QBOpluZL/4
OFY4UNV1q3LDmSX94zeXVEFKwAzsex7+i6XgbDOWjW3QPs3S2M6dMD2HoyMwITAO
BgNVHQ8BAf8EBAMCBaAwDwYDVR0TAQH/BAUwAwIBAzAKBggqhkjOPQQDAgNIADBF
AiEAiT/SqYm7WIoqb8Gn9IarpokSDSn50HOGVONpwQe0QIgCIHvRm7tIa9VkG7CP
NRs15lIeXrvqZDDWjeUJ9npxuXkc
-----END CERTIFICATE-----
