Certificate:
    Data:
        Version: 3 (0x2)
        Serial Number: 13 (0xd)
        Signature Algorithm: ecdsa-with-SHA256
        Issuer: CN=Regione Friuli_Venezia_Giulia, C=IT, ST=Italia, O=E-Voting system, OU=E-Voting system authority/emailAddress=Friuli_Venezia_Giulia@evoting.it
        Validity
            Not Before: Aug 26 15:19:21 2022 GMT
            Not After : Aug 26 15:19:21 2023 GMT
        Subject: CN=Carroll, C=IT, ST=Italia, O=Regione Friuli_Venezia_Giulia
        Subject Public Key Info:
            Public Key Algorithm: id-ecPublicKey
                Public-Key: (256 bit)
                pub:
                    04:47:87:25:93:6a:39:92:f0:5d:7a:50:a7:2b:ac:
                    c6:f0:85:e8:c8:a6:53:31:bc:96:2d:ea:4b:de:a8:
                    f2:bf:67:7b:b4:3b:39:ef:d7:22:85:6d:7b:61:c0:
                    33:2d:bb:42:9c:76:19:4b:b4:57:54:19:98:6f:3f:
                    f4:c1:a1:dc:4e
                ASN1 OID: secp256k1
        X509v3 extensions:
            X509v3 Key Usage: critical
                Digital Signature, Key Encipherment
            X509v3 Basic Constraints: critical
                CA:FALSE, pathlen:3
    Signature Algorithm: ecdsa-with-SHA256
         30:45:02:20:33:5d:5f:89:9a:82:80:b2:ce:2e:40:78:ee:88:
         dd:0a:e6:54:34:25:3c:f3:40:a2:b8:dd:69:ae:43:c3:d8:18:
         02:21:00:a3:03:74:3b:4d:60:a6:21:de:e4:d9:f2:68:fb:6d:
         ab:be:2f:09:aa:e1:86:fd:c7:f1:3e:7d:ce:d2:cc:3c:a5
-----BEGIN CERTIFICATE-----
MIICHTCCAcOgAwIBAgIBDTAKBggqhkjOPQQDAjCBtTEmMCQGA1UEAwwdUmVnaW9u
ZSBGcml1bGlfVmVuZXppYV9HaXVsaWExCzAJBgNVBAYTAklUMQ8wDQYDVQQIDAZJ
dGFsaWExGDAWBgNVBAoMD0UtVm90aW5nIHN5c3RlbTEiMCAGA1UECwwZRS1Wb3Rp
bmcgc3lzdGVtIGF1dGhvcml0eTEvMC0GCSqGSIb3DQEJARYgRnJpdWxpX1ZlbmV6
aWFfR2l1bGlhQGV2b3RpbmcuaXQwHhcNMjIwODI2MTUxOTIxWhcNMjMwODI2MTUx
OTIxWjBYMRAwDgYDVQQDDAdDYXJyb2xsMQswCQYDVQQGEwJJVDEPMA0GA1UECAwG
SXRhbGlhMSYwJAYDVQQKDB1SZWdpb25lIEZyaXVsaV9WZW5lemlhX0dpdWxpYTBW
MBAGByqGSM49AgEGBSuBBAAKA0IABEeHJZNqOZLwXXpQpyusxvCF6MimUzG8li3q
S96o8r9ne7Q7Oe/XIoVte2HAMy27Qpx2GUu0V1QZmG8/9MGh3E6jIzAhMA4GA1Ud
DwEB/wQEAwIFoDAPBgNVHRMBAf8EBTADAgEDMAoGCCqGSM49BAMCA0gAMEUCIDNd
X4magoCyzi5AeO6I3QrmVDQlPPNAorjdaa5Dw9gYAiEAowN0O01gpiHe5NnyaPtt
q74vCarhhv3H8T59ztLMPKU=
-----END CERTIFICATE-----
