Certificate:
    Data:
        Version: 3 (0x2)
        Serial Number: 32 (0x20)
        Signature Algorithm: ecdsa-with-SHA256
        Issuer: CN=Regione Friuli_Venezia_Giulia, C=IT, ST=Italia, O=E-Voting system, OU=E-Voting system authority/emailAddress=Friuli_Venezia_Giulia@evoting.it
        Validity
            Not Before: Aug 26 15:21:03 2022 GMT
            Not After : Aug 26 15:21:03 2023 GMT
        Subject: CN=Carrie, C=IT, ST=Italia, O=Regione Friuli_Venezia_Giulia
        Subject Public Key Info:
            Public Key Algorithm: id-ecPublicKey
                Public-Key: (256 bit)
                pub:
                    04:71:bb:6b:22:8f:08:29:df:6d:bf:81:7b:fd:07:
                    13:ad:2b:52:fd:75:a7:e9:14:a6:db:6c:23:17:8f:
                    fa:aa:07:b5:89:85:c3:a5:e5:9f:a0:90:84:9d:ee:
                    9b:51:3b:20:90:16:0e:e3:6a:f5:da:30:64:52:86:
                    a1:6e:34:9c:9e
                ASN1 OID: secp256k1
        X509v3 extensions:
            X509v3 Key Usage: critical
                Digital Signature, Key Encipherment
            X509v3 Basic Constraints: critical
                CA:FALSE, pathlen:3
    Signature Algorithm: ecdsa-with-SHA256
         30:46:02:21:00:87:69:21:77:6d:6b:4a:be:e1:ef:42:78:ad:
         1f:5a:2a:b6:7e:45:71:68:0c:4a:ff:60:83:af:c2:5b:2e:39:
         4b:02:21:00:a5:ca:28:15:a9:2f:d6:07:4f:54:66:54:66:43:
         2e:c9:56:74:6b:0f:99:71:3e:42:33:cf:e7:3d:ec:a2:e5:43
-----BEGIN CERTIFICATE-----
MIICHTCCAcKgAwIBAgIBIDAKBggqhkjOPQQDAjCBtTEmMCQGA1UEAwwdUmVnaW9u
ZSBGcml1bGlfVmVuZXppYV9HaXVsaWExCzAJBgNVBAYTAklUMQ8wDQYDVQQIDAZJ
dGFsaWExGDAWBgNVBAoMD0UtVm90aW5nIHN5c3RlbTEiMCAGA1UECwwZRS1Wb3Rp
bmcgc3lzdGVtIGF1dGhvcml0eTEvMC0GCSqGSIb3DQEJARYgRnJpdWxpX1ZlbmV6
aWFfR2l1bGlhQGV2b3RpbmcuaXQwHhcNMjIwODI2MTUyMTAzWhcNMjMwODI2MTUy
MTAzWjBXMQ8wDQYDVQQDDAZDYXJyaWUxCzAJBgNVBAYTAklUMQ8wDQYDVQQIDAZJ
dGFsaWExJjAkBgNVBAoMHVJlZ2lvbmUgRnJpdWxpX1ZlbmV6aWFfR2l1bGlhMFYw
EAYHKoZIzj0CAQYFK4EEAAoDQgAEcbtrIo8IKd9tv4F7/QcTrStS/XWn6RSm22wj
F4/6qge1iYXDpeWfoJCEne6bUTsgkBYO42r12jBkUoahbjScnqMjMCEwDgYDVR0P
AQH/BAQDAgWgMA8GA1UdEwEB/wQFMAMCAQMwCgYIKoZIzj0EAwIDSQAwRgIhAIdp
IXdta0q+4e9CeK0fWiq2fkVxaAxK/2CDr8JbLjlLAiEApcooFakv1gdPVGZUZkMu
yVZ0aw+ZcT5CM8/nPeyi5UM=
-----END CERTIFICATE-----
