Certificate:
    Data:
        Version: 3 (0x2)
        Serial Number: 23 (0x17)
        Signature Algorithm: ecdsa-with-SHA256
        Issuer: CN=Regione Friuli_Venezia_Giulia, C=IT, ST=Italia, O=E-Voting system, OU=E-Voting system authority/emailAddress=Friuli_Venezia_Giulia@evoting.it
        Validity
            Not Before: Aug  3 13:26:53 2022 GMT
            Not After : Aug  3 13:26:53 2023 GMT
        Subject: CN=Casey, C=IT, ST=Italia, O=Regione Friuli_Venezia_Giulia
        Subject Public Key Info:
            Public Key Algorithm: id-ecPublicKey
                Public-Key: (256 bit)
                pub:
                    04:72:f4:24:f2:d2:01:cb:b4:28:cf:63:bb:cc:64:
                    92:b8:9f:ed:f1:f4:08:51:43:b8:27:2e:78:a2:58:
                    ed:26:d7:81:55:92:56:dc:fd:16:40:3a:b7:3e:fb:
                    b7:7a:8f:29:94:19:ea:db:1e:57:8d:78:a4:73:7e:
                    e2:bf:a7:60:fe
                ASN1 OID: prime256v1
                NIST CURVE: P-256
        X509v3 extensions:
            X509v3 Key Usage: critical
                Digital Signature, Key Encipherment
            X509v3 Basic Constraints: critical
                CA:FALSE, pathlen:3
    Signature Algorithm: ecdsa-with-SHA256
         30:45:02:21:00:f2:d3:1b:f0:86:df:52:aa:5d:fe:25:02:38:
         62:80:68:55:46:6d:4e:93:5b:6f:ae:bd:6c:e9:3b:8b:7c:2a:
         13:02:20:6d:6f:10:92:65:04:15:6f:7d:a9:8a:7c:82:53:9f:
         1a:1d:00:3e:00:3f:3f:84:6c:bf:6c:bc:98:0b:d1:c3:f3
-----BEGIN CERTIFICATE-----
MIICHjCCAcSgAwIBAgIBFzAKBggqhkjOPQQDAjCBtTEmMCQGA1UEAwwdUmVnaW9u
ZSBGcml1bGlfVmVuZXppYV9HaXVsaWExCzAJBgNVBAYTAklUMQ8wDQYDVQQIDAZJ
dGFsaWExGDAWBgNVBAoMD0UtVm90aW5nIHN5c3RlbTEiMCAGA1UECwwZRS1Wb3Rp
bmcgc3lzdGVtIGF1dGhvcml0eTEvMC0GCSqGSIb3DQEJARYgRnJpdWxpX1ZlbmV6
aWFfR2l1bGlhQGV2b3RpbmcuaXQwHhcNMjIwODAzMTMyNjUzWhcNMjMwODAzMTMy
NjUzWjBWMQ4wDAYDVQQDDAVDYXNleTELMAkGA1UEBhMCSVQxDzANBgNVBAgMBkl0
YWxpYTEmMCQGA1UECgwdUmVnaW9uZSBGcml1bGlfVmVuZXppYV9HaXVsaWEwWTAT
BgcqhkjOPQIBBggqhkjOPQMBBwNCAARy9CTy0gHLtCjPY7vMZJK4n+3x9AhRQ7gn
LniiWO0m14FVklbc/RZAOrc++7d6jymUGerbHleNeKRzfuK/p2D+oyMwITAOBgNV
HQ8BAf8EBAMCBaAwDwYDVR0TAQH/BAUwAwIBAzAKBggqhkjOPQQDAgNIADBFAiEA
8tMb8IbfUqpd/iUCOGKAaFVGbU6TW2+uvWzpO4t8KhMCIG1vEJJlBBVvfamKfIJT
nxodAD4APz+EbL9svJgL0cPz
-----END CERTIFICATE-----
