Certificate:
    Data:
        Version: 3 (0x2)
        Serial Number: 38 (0x26)
        Signature Algorithm: ecdsa-with-SHA256
        Issuer: CN=Regione Veneto, C=IT, ST=Italia, O=E-Voting system, OU=E-Voting system authority/emailAddress=Veneto@evoting.it
        Validity
            Not Before: Aug  3 13:27:53 2022 GMT
            Not After : Aug  3 13:27:53 2023 GMT
        Subject: CN=Cassie, C=IT, ST=Italia, O=Regione Veneto
        Subject Public Key Info:
            Public Key Algorithm: id-ecPublicKey
                Public-Key: (256 bit)
                pub:
                    04:3e:19:0e:35:53:9d:f9:22:e5:e5:d9:02:58:02:
                    5d:83:f2:e4:fc:67:e0:17:c6:8e:d3:51:4f:fa:cd:
                    dc:06:76:73:09:d2:75:81:98:da:a1:73:15:d8:58:
                    ac:8c:79:83:b3:23:c8:c3:e7:2a:cb:6a:1e:93:5c:
                    a0:b9:c4:a9:8d
                ASN1 OID: prime256v1
                NIST CURVE: P-256
        X509v3 extensions:
            X509v3 Key Usage: critical
                Digital Signature, Key Encipherment
            X509v3 Basic Constraints: critical
                CA:FALSE, pathlen:3
    Signature Algorithm: ecdsa-with-SHA256
         30:44:02:20:2b:0a:d5:38:f9:08:7b:76:b5:46:34:a5:b8:58:
         12:a5:f6:06:aa:00:5a:49:91:10:66:03:f5:f1:cc:fc:f7:48:
         02:20:3c:e2:21:1a:87:db:39:d6:a7:c3:26:9b:7d:a8:c9:91:
         12:3c:e9:74:06:75:8b:e7:5c:68:0d:73:16:81:83:8e
-----BEGIN CERTIFICATE-----
MIIB8TCCAZigAwIBAgIBJjAKBggqhkjOPQQDAjCBlzEXMBUGA1UEAwwOUmVnaW9u
ZSBWZW5ldG8xCzAJBgNVBAYTAklUMQ8wDQYDVQQIDAZJdGFsaWExGDAWBgNVBAoM
D0UtVm90aW5nIHN5c3RlbTEiMCAGA1UECwwZRS1Wb3Rpbmcgc3lzdGVtIGF1dGhv
cml0eTEgMB4GCSqGSIb3DQEJARYRVmVuZXRvQGV2b3RpbmcuaXQwHhcNMjIwODAz
MTMyNzUzWhcNMjMwODAzMTMyNzUzWjBIMQ8wDQYDVQQDDAZDYXNzaWUxCzAJBgNV
BAYTAklUMQ8wDQYDVQQIDAZJdGFsaWExFzAVBgNVBAoMDlJlZ2lvbmUgVmVuZXRv
MFkwEwYHKoZIzj0CAQYIKoZIzj0DAQcDQgAEPhkONVOd+SLl5dkCWAJdg/Lk/Gfg
F8aO01FP+s3cBnZzCdJ1gZjaoXMV2FisjHmDsyPIw+cqy2oek1ygucSpjaMjMCEw
DgYDVR0PAQH/BAQDAgWgMA8GA1UdEwEB/wQFMAMCAQMwCgYIKoZIzj0EAwIDRwAw
RAIgKwrVOPkIe3a1RjSluFgSpfYGqgBaSZEQZgP18cz890gCIDziIRqH2znWp8Mm
m32oyZESPOl0BnWL51xoDXMWgYOO
-----END CERTIFICATE-----
