Certificate:
    Data:
        Version: 3 (0x2)
        Serial Number: 34 (0x22)
        Signature Algorithm: ecdsa-with-SHA256
        Issuer: CN=Regione Valle_d_Aosta, C=IT, ST=Italia, O=E-Voting system, OU=E-Voting system authority/emailAddress=Valle_d_Aosta@evoting.it
        Validity
            Not Before: Aug 26 15:20:51 2022 GMT
            Not After : Aug 26 15:20:51 2023 GMT
        Subject: CN=Cathy, C=IT, ST=Italia, O=Regione Valle_d_Aosta
        Subject Public Key Info:
            Public Key Algorithm: id-ecPublicKey
                Public-Key: (256 bit)
                pub:
                    04:31:cb:ac:44:d8:9c:ed:bf:c6:87:ca:1e:34:68:
                    d5:6a:c6:2e:46:16:24:67:fe:b5:e6:27:99:b4:d9:
                    8a:a8:e0:c1:33:ab:47:46:bd:78:a1:7e:53:91:e9:
                    bb:40:a8:bf:fd:13:40:89:dd:3c:3b:2a:dd:df:6d:
                    d7:9b:3a:c6:07
                ASN1 OID: secp256k1
        X509v3 extensions:
            X509v3 Key Usage: critical
                Digital Signature, Key Encipherment
            X509v3 Basic Constraints: critical
                CA:FALSE, pathlen:3
    Signature Algorithm: ecdsa-with-SHA256
         30:45:02:20:5b:9b:a9:25:07:e4:d9:0c:9a:ac:5b:68:f5:5b:
         b0:43:f2:67:0a:e4:a9:a7:96:d5:76:99:13:2c:0d:ed:7b:fd:
         02:21:00:cc:6f:82:15:7b:68:32:33:dd:82:ce:14:78:b2:7e:
         5c:1c:0f:3b:63:de:2c:ff:35:24:f7:59:36:b5:09:fa:5c
-----BEGIN CERTIFICATE-----
MIICAzCCAamgAwIBAgIBIjAKBggqhkjOPQQDAjCBpTEeMBwGA1UEAwwVUmVnaW9u
ZSBWYWxsZV9kX0Fvc3RhMQswCQYDVQQGEwJJVDEPMA0GA1UECAwGSXRhbGlhMRgw
FgYDVQQKDA9FLVZvdGluZyBzeXN0ZW0xIjAgBgNVBAsMGUUtVm90aW5nIHN5c3Rl
bSBhdXRob3JpdHkxJzAlBgkqhkiG9w0BCQEWGFZhbGxlX2RfQW9zdGFAZXZvdGlu
Zy5pdDAeFw0yMjA4MjYxNTIwNTFaFw0yMzA4MjYxNTIwNTFaME4xDjAMBgNVBAMM
BUNhdGh5MQswCQYDVQQGEwJJVDEPMA0GA1UECAwGSXRhbGlhMR4wHAYDVQQKDBVS
ZWdpb25lIFZhbGxlX2RfQW9zdGEwVjAQBgcqhkjOPQIBBgUrgQQACgNCAAQxy6xE
2Jztv8aHyh40aNVqxi5GFiRn/rXmJ5m02Yqo4MEzq0dGvXihflOR6btAqL/9E0CJ
3Tw7Kt3fbdebOsYHoyMwITAOBgNVHQ8BAf8EBAMCBaAwDwYDVR0TAQH/BAUwAwIB
AzAKBggqhkjOPQQDAgNIADBFAiBbm6klB+TZDJqsW2j1W7BD8mcK5KmnltV2mRMs
De17/QIhAMxvghV7aDIz3YLOFHiyflwcDztj3iz/NST3WTa1Cfpc
-----END CERTIFICATE-----
