Certificate:
    Data:
        Version: 3 (0x2)
        Serial Number: 29 (0x1d)
        Signature Algorithm: ecdsa-with-SHA256
        Issuer: CN=Regione Umbria, C=IT, ST=Italia, O=E-Voting system, OU=E-Voting system authority/emailAddress=Umbria@evoting.it
        Validity
            Not Before: Aug 26 15:20:32 2022 GMT
            Not After : Aug 26 15:20:32 2023 GMT
        Subject: CN=Cecelia, C=IT, ST=Italia, O=Regione Umbria
        Subject Public Key Info:
            Public Key Algorithm: id-ecPublicKey
                Public-Key: (256 bit)
                pub:
                    04:db:50:c7:d9:19:db:6c:6c:f9:b1:02:6e:a6:a2:
                    d5:2e:0d:84:7d:16:0c:02:70:ab:6f:4e:69:ef:c8:
                    5f:c1:ee:a4:9a:11:cc:8a:8a:74:b0:be:24:40:54:
                    56:69:2a:0f:e9:fe:80:c9:54:95:af:36:d1:09:35:
                    21:6a:e5:a6:b2
                ASN1 OID: secp256k1
        X509v3 extensions:
            X509v3 Key Usage: critical
                Digital Signature, Key Encipherment
            X509v3 Basic Constraints: critical
                CA:FALSE, pathlen:3
    Signature Algorithm: ecdsa-with-SHA256
         30:45:02:21:00:ee:44:a8:07:c3:86:9f:73:86:d3:3c:20:64:
         29:43:49:82:c6:66:66:69:aa:8c:3a:02:06:22:05:f7:2d:3c:
         06:02:20:0a:2a:ff:2f:99:60:e6:aa:17:16:65:94:e8:f5:f8:
         56:db:b1:c4:6c:21:b4:af:1c:ee:6e:d6:28:8a:5b:8f:ef
-----BEGIN CERTIFICATE-----
MIIB8DCCAZagAwIBAgIBHTAKBggqhkjOPQQDAjCBlzEXMBUGA1UEAwwOUmVnaW9u
ZSBVbWJyaWExCzAJBgNVBAYTAklUMQ8wDQYDVQQIDAZJdGFsaWExGDAWBgNVBAoM
D0UtVm90aW5nIHN5c3RlbTEiMCAGA1UECwwZRS1Wb3Rpbmcgc3lzdGVtIGF1dGhv
cml0eTEgMB4GCSqGSIb3DQEJARYRVW1icmlhQGV2b3RpbmcuaXQwHhcNMjIwODI2
MTUyMDMyWhcNMjMwODI2MTUyMDMyWjBJMRAwDgYDVQQDDAdDZWNlbGlhMQswCQYD
VQQGEwJJVDEPMA0GA1UECAwGSXRhbGlhMRcwFQYDVQQKDA5SZWdpb25lIFVtYnJp
YTBWMBAGByqGSM49AgEGBSuBBAAKA0IABNtQx9kZ22xs+bECbqai1S4NhH0WDAJw
q29Oae/IX8HupJoRzIqKdLC+JEBUVmkqD+n+gMlUla820Qk1IWrlprKjIzAhMA4G
A1UdDwEB/wQEAwIFoDAPBgNVHRMBAf8EBTADAgEDMAoGCCqGSM49BAMCA0gAMEUC
IQDuRKgHw4afc4bTPCBkKUNJgsZmZmmqjDoCBiIF9y08BgIgCir/L5lg5qoXFmWU
6PX4VtuxxGwhtK8c7m7WKIpbj+8=
-----END CERTIFICATE-----
