Certificate:
    Data:
        Version: 3 (0x2)
        Serial Number: 5 (0x5)
        Signature Algorithm: ecdsa-with-SHA256
        Issuer: CN=Regione Campania, C=IT, ST=Italia, O=E-Voting system, OU=E-Voting system authority/emailAddress=Campania@evoting.it
        Validity
            Not Before: Aug  3 13:25:47 2022 GMT
            Not After : Aug  3 13:25:47 2023 GMT
        Subject: CN=Cecil, C=IT, ST=Italia, O=Regione Campania
        Subject Public Key Info:
            Public Key Algorithm: id-ecPublicKey
                Public-Key: (256 bit)
                pub:
                    04:b8:2d:c9:e5:30:8b:c5:6d:3e:99:74:b3:43:a9:
                    60:73:43:b7:44:1e:0c:e8:8e:41:22:f8:e3:95:b9:
                    a1:de:14:17:53:93:a5:d4:5a:a8:6d:62:e8:4e:b3:
                    ef:ff:10:eb:45:0f:77:3c:11:90:2e:5e:08:1c:f5:
                    66:5f:94:6c:43
                ASN1 OID: prime256v1
                NIST CURVE: P-256
        X509v3 extensions:
            X509v3 Key Usage: critical
                Digital Signature, Key Encipherment
            X509v3 Basic Constraints: critical
                CA:FALSE, pathlen:3
    Signature Algorithm: ecdsa-with-SHA256
         30:45:02:21:00:89:87:4d:35:e2:be:b5:06:72:96:db:b2:9f:
         e9:08:e5:ec:93:c3:44:c9:54:b1:37:ac:36:4f:d9:95:66:b6:
         d2:02:20:5a:d8:28:a8:e5:84:77:c3:b6:c6:12:18:b6:3f:04:
         bc:1e:4c:26:9c:72:78:a4:81:1c:36:d6:5c:8c:bb:15:7d
-----BEGIN CERTIFICATE-----
MIIB9zCCAZ2gAwIBAgIBBTAKBggqhkjOPQQDAjCBmzEZMBcGA1UEAwwQUmVnaW9u
ZSBDYW1wYW5pYTELMAkGA1UEBhMCSVQxDzANBgNVBAgMBkl0YWxpYTEYMBYGA1UE
CgwPRS1Wb3Rpbmcgc3lzdGVtMSIwIAYDVQQLDBlFLVZvdGluZyBzeXN0ZW0gYXV0
aG9yaXR5MSIwIAYJKoZIhvcNAQkBFhNDYW1wYW5pYUBldm90aW5nLml0MB4XDTIy
MDgwMzEzMjU0N1oXDTIzMDgwMzEzMjU0N1owSTEOMAwGA1UEAwwFQ2VjaWwxCzAJ
BgNVBAYTAklUMQ8wDQYDVQQIDAZJdGFsaWExGTAXBgNVBAoMEFJlZ2lvbmUgQ2Ft
cGFuaWEwWTATBgcqhkjOPQIBBggqhkjOPQMBBwNCAAS4LcnlMIvFbT6ZdLNDqWBz
Q7dEHgzojkEi+OOVuaHeFBdTk6XUWqhtYuhOs+//EOtFD3c8EZAuXggc9WZflGxD
oyMwITAOBgNVHQ8BAf8EBAMCBaAwDwYDVR0TAQH/BAUwAwIBAzAKBggqhkjOPQQD
AgNIADBFAiEAiYdNNeK+tQZyltuyn+kI5eyTw0TJVLE3rDZP2ZVmttICIFrYKKjl
hHfDtsYSGLY/BLweTCaccnikgRw21lyMuxV9
-----END CERTIFICATE-----
