Certificate:
    Data:
        Version: 3 (0x2)
        Serial Number: 9 (0x9)
        Signature Algorithm: ecdsa-with-SHA256
        Issuer: CN=Regione Piemonte, C=IT, ST=Italia, O=E-Voting system, OU=E-Voting system authority/emailAddress=Piemonte@evoting.it
        Validity
            Not Before: Aug 26 15:18:58 2022 GMT
            Not After : Aug 26 15:18:58 2023 GMT
        Subject: CN=Chanel, C=IT, ST=Italia, O=Regione Piemonte
        Subject Public Key Info:
            Public Key Algorithm: id-ecPublicKey
                Public-Key: (256 bit)
                pub:
                    04:8f:ad:36:36:22:88:14:ab:b0:5d:c0:6e:3e:05:
                    ee:d5:a2:1f:c6:84:62:d5:39:12:1a:1e:42:9e:d3:
                    f1:95:55:8d:89:35:60:76:ce:19:27:21:8d:4c:51:
                    b9:40:91:11:ec:de:9f:b1:b3:0f:9c:86:7d:bd:20:
                    ce:56:9f:5b:76
                ASN1 OID: secp256k1
        X509v3 extensions:
            X509v3 Key Usage: critical
                Digital Signature, Key Encipherment
            X509v3 Basic Constraints: critical
                CA:FALSE, pathlen:3
    Signature Algorithm: ecdsa-with-SHA256
         30:46:02:21:00:96:a3:fc:07:24:7a:d2:de:97:23:3c:9e:38:
         9d:f5:98:d2:01:97:46:01:8a:5f:06:ef:04:72:41:ed:32:b5:
         36:02:21:00:ee:f6:74:65:d6:27:fd:fd:29:9e:42:9d:86:db:
         d2:e1:29:65:b0:c2:1a:55:16:28:e2:8a:f0:6e:c5:bc:78:28
-----BEGIN CERTIFICATE-----
MIIB9jCCAZugAwIBAgIBCTAKBggqhkjOPQQDAjCBmzEZMBcGA1UEAwwQUmVnaW9u
ZSBQaWVtb250ZTELMAkGA1UEBhMCSVQxDzANBgNVBAgMBkl0YWxpYTEYMBYGA1UE
CgwPRS1Wb3Rpbmcgc3lzdGVtMSIwIAYDVQQLDBlFLVZvdGluZyBzeXN0ZW0gYXV0
aG9yaXR5MSIwIAYJKoZIhvcNAQkBFhNQaWVtb250ZUBldm90aW5nLml0MB4XDTIy
MDgyNjE1MTg1OFoXDTIzMDgyNjE1MTg1OFowSjEPMA0GA1UEAwwGQ2hhbmVsMQsw
CQYDVQQGEwJJVDEPMA0GA1UECAwGSXRhbGlhMRkwFwYDVQQKDBBSZWdpb25lIFBp
ZW1vbnRlMFYwEAYHKoZIzj0CAQYFK4EEAAoDQgAEj602NiKIFKuwXcBuPgXu1aIf
xoRi1TkSGh5CntPxlVWNiTVgds4ZJyGNTFG5QJER7N6fsbMPnIZ9vSDOVp9bdqMj
MCEwDgYDVR0PAQH/BAQDAgWgMA8GA1UdEwEB/wQFMAMCAQMwCgYIKoZIzj0EAwID
SQAwRgIhAJaj/AcketLelyM8njid9ZjSAZdGAYpfBu8EckHtMrU2AiEA7vZ0ZdYn
/f0pnkKdhtvS4SllsMIaVRYo4orwbsW8eCg=
-----END CERTIFICATE-----
