Certificate:
    Data:
        Version: 3 (0x2)
        Serial Number: 15 (0xf)
        Signature Algorithm: ecdsa-with-SHA256
        Issuer: CN=Regione Calabria, C=IT, ST=Italia, O=E-Voting system, OU=E-Voting system authority/emailAddress=Calabria@evoting.it
        Validity
            Not Before: Aug  3 13:26:35 2022 GMT
            Not After : Aug  3 13:26:35 2023 GMT
        Subject: CN=Charlie, C=IT, ST=Italia, O=Regione Calabria
        Subject Public Key Info:
            Public Key Algorithm: id-ecPublicKey
                Public-Key: (256 bit)
                pub:
                    04:23:22:08:31:64:97:ef:80:a7:f1:0c:10:25:b5:
                    66:92:ed:69:66:c3:d3:2a:46:16:f6:93:ac:10:77:
                    26:99:f4:3e:77:54:b4:56:2d:c4:03:bc:ae:54:b2:
                    30:56:f1:f4:0c:00:91:61:e2:f5:b6:32:db:8a:65:
                    e8:64:ea:36:79
                ASN1 OID: prime256v1
                NIST CURVE: P-256
        X509v3 extensions:
            X509v3 Key Usage: critical
                Digital Signature, Key Encipherment
            X509v3 Basic Constraints: critical
                CA:FALSE, pathlen:3
    Signature Algorithm: ecdsa-with-SHA256
         30:45:02:21:00:96:fa:78:f0:bd:9f:c2:84:b0:9d:2e:79:aa:
         43:3b:a6:06:31:71:ef:5e:cb:2e:67:27:c8:82:97:28:70:86:
         66:02:20:37:fc:88:53:30:c0:4f:0e:11:de:ce:0b:d5:dc:51:
         e2:65:9b:e5:61:9f:d9:f0:c9:d9:ae:ae:9f:d0:8c:43:64
-----BEGIN CERTIFICATE-----
MIIB+TCCAZ+gAwIBAgIBDzAKBggqhkjOPQQDAjCBmzEZMBcGA1UEAwwQUmVnaW9u
ZSBDYWxhYnJpYTELMAkGA1UEBhMCSVQxDzANBgNVBAgMBkl0YWxpYTEYMBYGA1UE
CgwPRS1Wb3Rpbmcgc3lzdGVtMSIwIAYDVQQLDBlFLVZvdGluZyBzeXN0ZW0gYXV0
aG9yaXR5MSIwIAYJKoZIhvcNAQkBFhNDYWxhYnJpYUBldm90aW5nLml0MB4XDTIy
MDgwMzEzMjYzNVoXDTIzMDgwMzEzMjYzNVowSzEQMA4GA1UEAwwHQ2hhcmxpZTEL
MAkGA1UEBhMCSVQxDzANBgNVBAgMBkl0YWxpYTEZMBcGA1UECgwQUmVnaW9uZSBD
YWxhYnJpYTBZMBMGByqGSM49AgEGCCqGSM49AwEHA0IABCMiCDFkl++Ap/EMECW1
ZpLtaWbD0ypGFvaTrBB3Jpn0PndUtFYtxAO8rlSyMFbx9AwAkWHi9bYy24pl6GTq
NnmjIzAhMA4GA1UdDwEB/wQEAwIFoDAPBgNVHRMBAf8EBTADAgEDMAoGCCqGSM49
BAMCA0gAMEUCIQCW+njwvZ/ChLCdLnmqQzumBjFx717LLmcnyIKXKHCGZgIgN/yI
UzDATw4R3s4L1dxR4mWb5WGf2fDJ2a6un9CMQ2Q=
-----END CERTIFICATE-----
