Certificate:
    Data:
        Version: 3 (0x2)
        Serial Number: 15 (0xf)
        Signature Algorithm: ecdsa-with-SHA256
        Issuer: CN=Regione Lazio, C=IT, ST=Italia, O=E-Voting system, OU=E-Voting system authority/emailAddress=Lazio@evoting.it
        Validity
            Not Before: Aug 26 15:19:21 2022 GMT
            Not After : Aug 26 15:19:21 2023 GMT
        Subject: CN=Charlene, C=IT, ST=Italia, O=Regione Lazio
        Subject Public Key Info:
            Public Key Algorithm: id-ecPublicKey
                Public-Key: (256 bit)
                pub:
                    04:a9:71:2f:91:38:e1:43:57:2a:84:e3:2c:48:25:
                    83:a8:93:70:81:7c:d6:db:44:bc:07:0d:89:df:df:
                    56:9b:59:cf:5b:56:f5:f1:d2:2c:36:e4:e1:15:51:
                    08:87:67:21:8d:54:b8:74:5b:34:72:27:73:ff:ca:
                    4a:ab:19:63:54
                ASN1 OID: secp256k1
        X509v3 extensions:
            X509v3 Key Usage: critical
                Digital Signature, Key Encipherment
            X509v3 Basic Constraints: critical
                CA:FALSE, pathlen:3
    Signature Algorithm: ecdsa-with-SHA256
         30:46:02:21:00:b5:84:70:d0:48:e2:18:d1:a0:e8:d4:76:82:
         3d:39:7e:b8:c1:b5:8b:46:18:bf:5e:fa:f1:27:0b:b5:82:e1:
         70:02:21:00:9d:73:be:0f:92:40:6b:b1:a9:aa:99:db:da:d7:
         7a:7d:51:a3:9e:1b:68:f6:d8:29:4c:aa:c9:55:e7:62:6a:7e
-----BEGIN CERTIFICATE-----
MIIB7zCCAZSgAwIBAgIBDzAKBggqhkjOPQQDAjCBlTEWMBQGA1UEAwwNUmVnaW9u
ZSBMYXppbzELMAkGA1UEBhMCSVQxDzANBgNVBAgMBkl0YWxpYTEYMBYGA1UECgwP
RS1Wb3Rpbmcgc3lzdGVtMSIwIAYDVQQLDBlFLVZvdGluZyBzeXN0ZW0gYXV0aG9y
aXR5MR8wHQYJKoZIhvcNAQkBFhBMYXppb0Bldm90aW5nLml0MB4XDTIyMDgyNjE1
MTkyMVoXDTIzMDgyNjE1MTkyMVowSTERMA8GA1UEAwwIQ2hhcmxlbmUxCzAJBgNV
BAYTAklUMQ8wDQYDVQQIDAZJdGFsaWExFjAUBgNVBAoMDVJlZ2lvbmUgTGF6aW8w
VjAQBgcqhkjOPQIBBgUrgQQACgNCAASpcS+ROOFDVyqE4yxIJYOok3CBfNbbRLwH
DYnf31abWc9bVvXx0iw25OEVUQiHZyGNVLh0WzRyJ3P/ykqrGWNUoyMwITAOBgNV
HQ8BAf8EBAMCBaAwDwYDVR0TAQH/BAUwAwIBAzAKBggqhkjOPQQDAgNJADBGAiEA
tYRw0EjiGNGg6NR2gj05frjBtYtGGL9e+vEnC7WC4XACIQCdc74PkkBrsamqmdva
13p9UaOeG2j22ClMqslV52Jqfg==
-----END CERTIFICATE-----
