Certificate:
    Data:
        Version: 3 (0x2)
        Serial Number: 32 (0x20)
        Signature Algorithm: ecdsa-with-SHA256
        Issuer: CN=Regione Liguria, C=IT, ST=Italia, O=E-Voting system, OU=E-Voting system authority/emailAddress=Liguria@evoting.it
        Validity
            Not Before: Aug 26 15:19:40 2022 GMT
            Not After : Aug 26 15:19:40 2023 GMT
        Subject: CN=Charles, C=IT, ST=Italia, O=Regione Liguria
        Subject Public Key Info:
            Public Key Algorithm: id-ecPublicKey
                Public-Key: (256 bit)
                pub:
                    04:d8:3b:14:f8:a4:0a:e2:5f:f2:77:c3:76:15:8c:
                    15:68:e3:96:77:b9:ff:c8:81:ca:a7:b1:a9:17:33:
                    e3:e3:66:98:d1:42:73:e8:77:08:de:1f:59:e9:e3:
                    ad:64:4f:ab:ec:43:36:db:34:b9:cc:ae:88:8d:b2:
                    cb:0b:c5:21:db
                ASN1 OID: secp256k1
        X509v3 extensions:
            X509v3 Key Usage: critical
                Digital Signature, Key Encipherment
            X509v3 Basic Constraints: critical
                CA:FALSE, pathlen:3
    Signature Algorithm: ecdsa-with-SHA256
         30:45:02:21:00:e3:15:49:24:30:1a:43:e0:4e:d1:da:37:71:
         f9:0c:85:2e:6a:ce:98:18:46:4c:a1:2b:b3:4c:f2:72:40:47:
         7a:02:20:64:38:d4:42:a8:2d:7b:5e:b4:d8:30:48:38:4b:34:
         26:7b:32:8c:72:ef:d3:c9:3c:6a:91:54:64:1d:87:ef:45
-----BEGIN CERTIFICATE-----
MIIB8zCCAZmgAwIBAgIBIDAKBggqhkjOPQQDAjCBmTEYMBYGA1UEAwwPUmVnaW9u
ZSBMaWd1cmlhMQswCQYDVQQGEwJJVDEPMA0GA1UECAwGSXRhbGlhMRgwFgYDVQQK
DA9FLVZvdGluZyBzeXN0ZW0xIjAgBgNVBAsMGUUtVm90aW5nIHN5c3RlbSBhdXRo
b3JpdHkxITAfBgkqhkiG9w0BCQEWEkxpZ3VyaWFAZXZvdGluZy5pdDAeFw0yMjA4
MjYxNTE5NDBaFw0yMzA4MjYxNTE5NDBaMEoxEDAOBgNVBAMMB0NoYXJsZXMxCzAJ
BgNVBAYTAklUMQ8wDQYDVQQIDAZJdGFsaWExGDAWBgNVBAoMD1JlZ2lvbmUgTGln
dXJpYTBWMBAGByqGSM49AgEGBSuBBAAKA0IABNg7FPikCuJf8nfDdhWMFWjjlne5
/8iByqexqRcz4+NmmNFCc+h3CN4fWenjrWRPq+xDNts0ucyuiI2yywvFIdujIzAh
MA4GA1UdDwEB/wQEAwIFoDAPBgNVHRMBAf8EBTADAgEDMAoGCCqGSM49BAMCA0gA
MEUCIQDjFUkkMBpD4E7R2jdx+QyFLmrOmBhGTKErs0zyckBHegIgZDjUQqgte160
2DBIOEs0JnsyjHLv08k8apFUZB2H70U=
-----END CERTIFICATE-----
