Certificate:
    Data:
        Version: 3 (0x2)
        Serial Number: 16 (0x10)
        Signature Algorithm: ecdsa-with-SHA256
        Issuer: CN=Regione Molise, C=IT, ST=Italia, O=E-Voting system, OU=E-Voting system authority/emailAddress=Molise@evoting.it
        Validity
            Not Before: Aug 26 15:19:50 2022 GMT
            Not After : Aug 26 15:19:50 2023 GMT
        Subject: CN=Charlotte, C=IT, ST=Italia, O=Regione Molise
        Subject Public Key Info:
            Public Key Algorithm: id-ecPublicKey
                Public-Key: (256 bit)
                pub:
                    04:54:1a:f4:1e:5a:9d:71:a5:34:54:69:f1:64:0b:
                    bf:4e:5b:37:a8:e6:2e:18:bf:7d:18:c6:e1:60:a5:
                    46:88:7a:3d:3e:b9:eb:1c:b9:fa:78:4f:e4:23:95:
                    9b:bb:40:84:75:4d:c5:d4:68:ad:bb:92:d3:65:08:
                    32:b1:dd:3d:c4
                ASN1 OID: secp256k1
        X509v3 extensions:
            X509v3 Key Usage: critical
                Digital Signature, Key Encipherment
            X509v3 Basic Constraints: critical
                CA:FALSE, pathlen:3
    Signature Algorithm: ecdsa-with-SHA256
         30:46:02:21:00:b6:78:9f:6f:e7:bf:90:80:b5:bd:66:79:30:
         88:a6:5c:34:f1:36:09:42:e7:76:8b:93:04:ab:43:2f:c2:76:
         36:02:21:00:f3:66:b7:87:d5:97:72:d7:9a:aa:01:13:f6:1b:
         8e:e6:03:bf:d3:87:98:24:38:ad:84:9c:c9:75:66:76:6a:be
-----BEGIN CERTIFICATE-----
MIIB8zCCAZigAwIBAgIBEDAKBggqhkjOPQQDAjCBlzEXMBUGA1UEAwwOUmVnaW9u
ZSBNb2xpc2UxCzAJBgNVBAYTAklUMQ8wDQYDVQQIDAZJdGFsaWExGDAWBgNVBAoM
D0UtVm90aW5nIHN5c3RlbTEiMCAGA1UECwwZRS1Wb3Rpbmcgc3lzdGVtIGF1dGhv
cml0eTEgMB4GCSqGSIb3DQEJARYRTW9saXNlQGV2b3RpbmcuaXQwHhcNMjIwODI2
MTUxOTUwWhcNMjMwODI2MTUxOTUwWjBLMRIwEAYDVQQDDAlDaGFybG90dGUxCzAJ
BgNVBAYTAklUMQ8wDQYDVQQIDAZJdGFsaWExFzAVBgNVBAoMDlJlZ2lvbmUgTW9s
aXNlMFYwEAYHKoZIzj0CAQYFK4EEAAoDQgAEVBr0HlqdcaU0VGnxZAu/Tls3qOYu
GL99GMbhYKVGiHo9PrnrHLn6eE/kI5Wbu0CEdU3F1Gitu5LTZQgysd09xKMjMCEw
DgYDVR0PAQH/BAQDAgWgMA8GA1UdEwEB/wQFMAMCAQMwCgYIKoZIzj0EAwIDSQAw
RgIhALZ4n2/nv5CAtb1meTCIplw08TYJQud2i5MEq0MvwnY2AiEA82a3h9WXctea
qgET9huO5gO/04eYJDithJzJdWZ2ar4=
-----END CERTIFICATE-----
