Certificate:
    Data:
        Version: 3 (0x2)
        Serial Number: 49 (0x31)
        Signature Algorithm: ecdsa-with-SHA256
        Issuer: CN=Regione Marche, C=IT, ST=Italia, O=E-Voting system, OU=E-Voting system authority/emailAddress=Marche@evoting.it
        Validity
            Not Before: Aug  3 13:28:45 2022 GMT
            Not After : Aug  3 13:28:45 2023 GMT
        Subject: CN=Charlene, C=IT, ST=Italia, O=Regione Marche
        Subject Public Key Info:
            Public Key Algorithm: id-ecPublicKey
                Public-Key: (256 bit)
                pub:
                    04:5c:36:b4:a0:a5:cb:0f:78:16:76:fc:cc:f3:e6:
                    f7:f2:66:cd:4a:15:31:6b:53:49:ad:40:76:36:0c:
                    00:87:2c:13:14:bb:43:85:dd:0c:55:05:09:3f:f5:
                    d0:c9:a8:c5:ce:24:0e:f6:3e:af:9f:8c:27:b0:72:
                    80:25:5c:c7:6d
                ASN1 OID: prime256v1
                NIST CURVE: P-256
        X509v3 extensions:
            X509v3 Key Usage: critical
                Digital Signature, Key Encipherment
            X509v3 Basic Constraints: critical
                CA:FALSE, pathlen:3
    Signature Algorithm: ecdsa-with-SHA256
         30:45:02:21:00:fa:68:47:ce:58:9c:94:de:12:e0:23:4e:54:
         51:15:dc:ef:e6:59:f8:1f:58:68:9c:01:94:6e:34:c5:24:c7:
         e7:02:20:78:13:f3:54:f2:55:71:ff:58:06:b9:7d:ad:cf:3a:
         d3:b3:c2:0c:63:66:a5:a9:57:3d:02:19:24:5b:27:f7:1c
-----BEGIN CERTIFICATE-----
MIIB9DCCAZqgAwIBAgIBMTAKBggqhkjOPQQDAjCBlzEXMBUGA1UEAwwOUmVnaW9u
ZSBNYXJjaGUxCzAJBgNVBAYTAklUMQ8wDQYDVQQIDAZJdGFsaWExGDAWBgNVBAoM
D0UtVm90aW5nIHN5c3RlbTEiMCAGA1UECwwZRS1Wb3Rpbmcgc3lzdGVtIGF1dGhv
cml0eTEgMB4GCSqGSIb3DQEJARYRTWFyY2hlQGV2b3RpbmcuaXQwHhcNMjIwODAz
MTMyODQ1WhcNMjMwODAzMTMyODQ1WjBKMREwDwYDVQQDDAhDaGFybGVuZTELMAkG
A1UEBhMCSVQxDzANBgNVBAgMBkl0YWxpYTEXMBUGA1UECgwOUmVnaW9uZSBNYXJj
aGUwWTATBgcqhkjOPQIBBggqhkjOPQMBBwNCAARcNrSgpcsPeBZ2/Mzz5vfyZs1K
FTFrU0mtQHY2DACHLBMUu0OF3QxVBQk/9dDJqMXOJA72Pq+fjCewcoAlXMdtoyMw
ITAOBgNVHQ8BAf8EBAMCBaAwDwYDVR0TAQH/BAUwAwIBAzAKBggqhkjOPQQDAgNI
ADBFAiEA+mhHzliclN4S4CNOVFEV3O/mWfgfWGicAZRuNMUkx+cCIHgT81TyVXH/
WAa5fa3POtOzwgxjZqWpVz0CGSRbJ/cc
-----END CERTIFICATE-----
