Certificate:
    Data:
        Version: 3 (0x2)
        Serial Number: 3 (0x3)
        Signature Algorithm: ecdsa-with-SHA256
        Issuer: CN=Regione Molise, C=IT, ST=Italia, O=E-Voting system, OU=E-Voting system authority/emailAddress=Molise@evoting.it
        Validity
            Not Before: Aug 26 15:18:53 2022 GMT
            Not After : Aug 26 15:18:53 2023 GMT
        Subject: CN=Charity, C=IT, ST=Italia, O=Regione Molise
        Subject Public Key Info:
            Public Key Algorithm: id-ecPublicKey
                Public-Key: (256 bit)
                pub:
                    04:58:34:49:e9:3f:5c:7e:a1:58:7e:64:c9:9b:bc:
                    94:97:ef:c4:c9:5b:bd:84:99:a5:28:a5:01:b8:d4:
                    3b:f0:e6:06:95:e7:55:b5:ac:7a:61:cd:98:a2:6b:
                    a4:59:be:d3:d0:66:de:d6:25:22:0e:6e:93:a9:96:
                    aa:e2:d8:38:2c
                ASN1 OID: secp256k1
        X509v3 extensions:
            X509v3 Key Usage: critical
                Digital Signature, Key Encipherment
            X509v3 Basic Constraints: critical
                CA:FALSE, pathlen:3
    Signature Algorithm: ecdsa-with-SHA256
         30:45:02:21:00:85:b9:81:80:d2:12:aa:18:8a:00:24:06:e7:
         1b:9a:06:fc:b7:1c:4d:3d:99:93:9e:3b:cb:6a:f9:39:21:c4:
         e3:02:20:73:b9:a9:06:e0:ac:7b:55:08:69:b2:9e:42:03:bb:
         05:44:70:a6:33:56:84:a3:d9:03:c6:f1:5d:49:20:72:39
-----BEGIN CERTIFICATE-----
MIIB8DCCAZagAwIBAgIBAzAKBggqhkjOPQQDAjCBlzEXMBUGA1UEAwwOUmVnaW9u
ZSBNb2xpc2UxCzAJBgNVBAYTAklUMQ8wDQYDVQQIDAZJdGFsaWExGDAWBgNVBAoM
D0UtVm90aW5nIHN5c3RlbTEiMCAGA1UECwwZRS1Wb3Rpbmcgc3lzdGVtIGF1dGhv
cml0eTEgMB4GCSqGSIb3DQEJARYRTW9saXNlQGV2b3RpbmcuaXQwHhcNMjIwODI2
MTUxODUzWhcNMjMwODI2MTUxODUzWjBJMRAwDgYDVQQDDAdDaGFyaXR5MQswCQYD
VQQGEwJJVDEPMA0GA1UECAwGSXRhbGlhMRcwFQYDVQQKDA5SZWdpb25lIE1vbGlz
ZTBWMBAGByqGSM49AgEGBSuBBAAKA0IABFg0Sek/XH6hWH5kyZu8lJfvxMlbvYSZ
pSilAbjUO/DmBpXnVbWsemHNmKJrpFm+09Bm3tYlIg5uk6mWquLYOCyjIzAhMA4G
A1UdDwEB/wQEAwIFoDAPBgNVHRMBAf8EBTADAgEDMAoGCCqGSM49BAMCA0gAMEUC
IQCFuYGA0hKqGIoAJAbnG5oG/LccTT2Zk547y2r5OSHE4wIgc7mpBuCse1UIabKe
QgO7BURwpjNWhKPZA8bxXUkgcjk=
-----END CERTIFICATE-----
