Certificate:
    Data:
        Version: 3 (0x2)
        Serial Number: 16 (0x10)
        Signature Algorithm: ecdsa-with-SHA256
        Issuer: CN=Regione Calabria, C=IT, ST=Italia, O=E-Voting system, OU=E-Voting system authority/emailAddress=Calabria@evoting.it
        Validity
            Not Before: Aug 26 15:19:31 2022 GMT
            Not After : Aug 26 15:19:31 2023 GMT
        Subject: CN=Charissa, C=IT, ST=Italia, O=Regione Calabria
        Subject Public Key Info:
            Public Key Algorithm: id-ecPublicKey
                Public-Key: (256 bit)
                pub:
                    04:22:d5:ca:20:46:75:45:9c:c5:79:62:70:76:a7:
                    ed:cd:4d:ea:56:b9:78:07:8d:b8:47:c8:5d:cb:3d:
                    c6:38:46:d9:07:7a:f7:94:8e:df:4c:c9:52:91:58:
                    9b:41:92:ec:68:36:d1:2e:ed:93:14:1b:58:a3:5a:
                    bd:9d:d3:24:ed
                ASN1 OID: secp256k1
        X509v3 extensions:
            X509v3 Key Usage: critical
                Digital Signature, Key Encipherment
            X509v3 Basic Constraints: critical
                CA:FALSE, pathlen:3
    Signature Algorithm: ecdsa-with-SHA256
         30:44:02:20:24:eb:63:84:79:29:fc:43:91:78:07:ba:2e:af:
         d9:e5:19:57:97:9b:eb:cd:4b:99:92:dd:5e:2a:08:20:15:09:
         02:20:7f:96:f0:e8:e4:ac:f4:e5:ef:ce:f6:be:1a:6d:9e:5f:
         38:87:83:ca:92:7b:03:02:67:35:e4:43:d9:79:57:16
-----BEGIN CERTIFICATE-----
MIIB9jCCAZ2gAwIBAgIBEDAKBggqhkjOPQQDAjCBmzEZMBcGA1UEAwwQUmVnaW9u
ZSBDYWxhYnJpYTELMAkGA1UEBhMCSVQxDzANBgNVBAgMBkl0YWxpYTEYMBYGA1UE
CgwPRS1Wb3Rpbmcgc3lzdGVtMSIwIAYDVQQLDBlFLVZvdGluZyBzeXN0ZW0gYXV0
aG9yaXR5MSIwIAYJKoZIhvcNAQkBFhNDYWxhYnJpYUBldm90aW5nLml0MB4XDTIy
MDgyNjE1MTkzMVoXDTIzMDgyNjE1MTkzMVowTDERMA8GA1UEAwwIQ2hhcmlzc2Ex
CzAJBgNVBAYTAklUMQ8wDQYDVQQIDAZJdGFsaWExGTAXBgNVBAoMEFJlZ2lvbmUg
Q2FsYWJyaWEwVjAQBgcqhkjOPQIBBgUrgQQACgNCAAQi1cogRnVFnMV5YnB2p+3N
TepWuXgHjbhHyF3LPcY4RtkHeveUjt9MyVKRWJtBkuxoNtEu7ZMUG1ijWr2d0yTt
oyMwITAOBgNVHQ8BAf8EBAMCBaAwDwYDVR0TAQH/BAUwAwIBAzAKBggqhkjOPQQD
AgNHADBEAiAk62OEeSn8Q5F4B7our9nlGVeXm+vNS5mS3V4qCCAVCQIgf5bw6OSs
9OXvzva+Gm2eXziHg8qSewMCZzXkQ9l5VxY=
-----END CERTIFICATE-----
