Certificate:
    Data:
        Version: 3 (0x2)
        Serial Number: 38 (0x26)
        Signature Algorithm: ecdsa-with-SHA256
        Issuer: CN=Regione Liguria, C=IT, ST=Italia, O=E-Voting system, OU=E-Voting system authority/emailAddress=Liguria@evoting.it
        Validity
            Not Before: Aug  3 13:28:01 2022 GMT
            Not After : Aug  3 13:28:01 2023 GMT
        Subject: CN=Charles, C=IT, ST=Italia, O=Regione Liguria
        Subject Public Key Info:
            Public Key Algorithm: id-ecPublicKey
                Public-Key: (256 bit)
                pub:
                    04:38:f4:01:43:94:f0:79:b2:d4:cd:d9:bc:97:dd:
                    f4:f5:b9:4d:05:ed:fc:bc:06:e7:ee:54:95:4b:0e:
                    c8:86:c5:74:fe:ad:a2:85:e9:28:b4:61:16:c5:37:
                    68:2b:63:8b:2c:31:d9:b7:af:0d:c9:d3:fb:3a:06:
                    a3:08:ba:41:dc
                ASN1 OID: prime256v1
                NIST CURVE: P-256
        X509v3 extensions:
            X509v3 Key Usage: critical
                Digital Signature, Key Encipherment
            X509v3 Basic Constraints: critical
                CA:FALSE, pathlen:3
    Signature Algorithm: ecdsa-with-SHA256
         30:45:02:21:00:9b:2a:a0:e0:fb:b5:8f:2d:9f:35:a2:af:f4:
         6d:01:a1:5f:7a:73:b6:f6:7d:b4:42:d8:0a:5f:e1:d0:b6:52:
         0b:02:20:1c:86:8e:77:b1:18:3d:f4:db:3f:7d:d5:43:63:6f:
         01:6d:54:51:c4:9c:cd:dc:79:76:4f:c0:d2:68:d4:f6:aa
-----BEGIN CERTIFICATE-----
MIIB9jCCAZygAwIBAgIBJjAKBggqhkjOPQQDAjCBmTEYMBYGA1UEAwwPUmVnaW9u
ZSBMaWd1cmlhMQswCQYDVQQGEwJJVDEPMA0GA1UECAwGSXRhbGlhMRgwFgYDVQQK
DA9FLVZvdGluZyBzeXN0ZW0xIjAgBgNVBAsMGUUtVm90aW5nIHN5c3RlbSBhdXRo
b3JpdHkxITAfBgkqhkiG9w0BCQEWEkxpZ3VyaWFAZXZvdGluZy5pdDAeFw0yMjA4
MDMxMzI4MDFaFw0yMzA4MDMxMzI4MDFaMEoxEDAOBgNVBAMMB0NoYXJsZXMxCzAJ
BgNVBAYTAklUMQ8wDQYDVQQIDAZJdGFsaWExGDAWBgNVBAoMD1JlZ2lvbmUgTGln
dXJpYTBZMBMGByqGSM49AgEGCCqGSM49AwEHA0IABDj0AUOU8Hmy1M3ZvJfd9PW5
TQXt/LwG5+5UlUsOyIbFdP6tooXpKLRhFsU3aCtjiywx2bevDcnT+zoGowi6Qdyj
IzAhMA4GA1UdDwEB/wQEAwIFoDAPBgNVHRMBAf8EBTADAgEDMAoGCCqGSM49BAMC
A0gAMEUCIQCbKqDg+7WPLZ81oq/0bQGhX3pztvZ9tELYCl/h0LZSCwIgHIaOd7EY
PfTbP33VQ2NvAW1UUcSczdx5dk/A0mjU9qo=
-----END CERTIFICATE-----
