Certificate:
    Data:
        Version: 3 (0x2)
        Serial Number: 41 (0x29)
        Signature Algorithm: ecdsa-with-SHA256
        Issuer: CN=Regione Toscana, C=IT, ST=Italia, O=E-Voting system, OU=E-Voting system authority/emailAddress=Toscana@evoting.it
        Validity
            Not Before: Aug  3 13:28:08 2022 GMT
            Not After : Aug  3 13:28:08 2023 GMT
        Subject: CN=Chasity, C=IT, ST=Italia, O=Regione Toscana
        Subject Public Key Info:
            Public Key Algorithm: id-ecPublicKey
                Public-Key: (256 bit)
                pub:
                    04:15:4b:7d:27:b1:c1:63:61:97:e5:1a:db:81:6c:
                    e5:68:10:62:d3:83:0c:a8:4e:5f:21:72:a9:2f:af:
                    81:07:60:27:05:05:9e:5e:06:1a:57:b9:d7:02:3e:
                    12:f9:cf:3a:41:0a:ba:b9:ed:c2:45:77:c5:50:e4:
                    00:82:ae:7d:39
                ASN1 OID: prime256v1
                NIST CURVE: P-256
        X509v3 extensions:
            X509v3 Key Usage: critical
                Digital Signature, Key Encipherment
            X509v3 Basic Constraints: critical
                CA:FALSE, pathlen:3
    Signature Algorithm: ecdsa-with-SHA256
         30:45:02:20:18:69:ae:df:f0:17:12:a2:48:19:2b:20:d1:7d:
         76:79:84:32:23:b9:b3:66:49:12:12:3d:98:7d:5d:e9:d2:2d:
         02:21:00:e7:3b:18:bc:9e:e2:89:6f:27:ba:d6:1a:9f:b0:90:
         54:e0:8d:f6:09:fd:ac:6b:59:ed:62:f1:1d:67:9c:bb:3f
-----BEGIN CERTIFICATE-----
MIIB9jCCAZygAwIBAgIBKTAKBggqhkjOPQQDAjCBmTEYMBYGA1UEAwwPUmVnaW9u
ZSBUb3NjYW5hMQswCQYDVQQGEwJJVDEPMA0GA1UECAwGSXRhbGlhMRgwFgYDVQQK
DA9FLVZvdGluZyBzeXN0ZW0xIjAgBgNVBAsMGUUtVm90aW5nIHN5c3RlbSBhdXRo
b3JpdHkxITAfBgkqhkiG9w0BCQEWElRvc2NhbmFAZXZvdGluZy5pdDAeFw0yMjA4
MDMxMzI4MDhaFw0yMzA4MDMxMzI4MDhaMEoxEDAOBgNVBAMMB0NoYXNpdHkxCzAJ
BgNVBAYTAklUMQ8wDQYDVQQIDAZJdGFsaWExGDAWBgNVBAoMD1JlZ2lvbmUgVG9z
Y2FuYTBZMBMGByqGSM49AgEGCCqGSM49AwEHA0IABBVLfSexwWNhl+Ua24Fs5WgQ
YtODDKhOXyFyqS+vgQdgJwUFnl4GGle51wI+EvnPOkEKurntwkV3xVDkAIKufTmj
IzAhMA4GA1UdDwEB/wQEAwIFoDAPBgNVHRMBAf8EBTADAgEDMAoGCCqGSM49BAMC
A0gAMEUCIBhprt/wFxKiSBkrINF9dnmEMiO5s2ZJEhI9mH1d6dItAiEA5zsYvJ7i
iW8nutYan7CQVOCN9gn9rGtZ7WLxHWecuz8=
-----END CERTIFICATE-----
