Certificate:
    Data:
        Version: 3 (0x2)
        Serial Number: 32 (0x20)
        Signature Algorithm: ecdsa-with-SHA256
        Issuer: CN=Regione Campania, C=IT, ST=Italia, O=E-Voting system, OU=E-Voting system authority/emailAddress=Campania@evoting.it
        Validity
            Not Before: Aug  3 13:27:12 2022 GMT
            Not After : Aug  3 13:27:12 2023 GMT
        Subject: CN=Chase, C=IT, ST=Italia, O=Regione Campania
        Subject Public Key Info:
            Public Key Algorithm: id-ecPublicKey
                Public-Key: (256 bit)
                pub:
                    04:a9:48:0d:28:ef:0d:c3:5b:50:fb:78:a5:d5:17:
                    94:c7:10:85:35:66:8c:94:17:fd:04:ac:b8:c0:a4:
                    51:3f:c3:59:aa:93:17:23:b8:b5:7c:85:3c:5c:53:
                    77:26:33:ac:00:dc:38:5b:bf:9a:fa:44:5d:d9:93:
                    69:c2:07:e4:0e
                ASN1 OID: prime256v1
                NIST CURVE: P-256
        X509v3 extensions:
            X509v3 Key Usage: critical
                Digital Signature, Key Encipherment
            X509v3 Basic Constraints: critical
                CA:FALSE, pathlen:3
    Signature Algorithm: ecdsa-with-SHA256
         30:45:02:21:00:cf:62:6a:57:9d:68:8c:eb:87:e8:a2:7a:21:
         b3:03:c6:0e:16:41:9e:65:3a:20:40:4e:79:3a:ed:f6:c2:cd:
         ce:02:20:26:37:7b:8a:cd:e5:cf:19:c9:40:42:a6:89:0b:f9:
         88:b3:c8:73:5b:a9:1c:27:73:60:fa:8d:13:37:75:92:f8
-----BEGIN CERTIFICATE-----
MIIB9zCCAZ2gAwIBAgIBIDAKBggqhkjOPQQDAjCBmzEZMBcGA1UEAwwQUmVnaW9u
ZSBDYW1wYW5pYTELMAkGA1UEBhMCSVQxDzANBgNVBAgMBkl0YWxpYTEYMBYGA1UE
CgwPRS1Wb3Rpbmcgc3lzdGVtMSIwIAYDVQQLDBlFLVZvdGluZyBzeXN0ZW0gYXV0
aG9yaXR5MSIwIAYJKoZIhvcNAQkBFhNDYW1wYW5pYUBldm90aW5nLml0MB4XDTIy
MDgwMzEzMjcxMloXDTIzMDgwMzEzMjcxMlowSTEOMAwGA1UEAwwFQ2hhc2UxCzAJ
BgNVBAYTAklUMQ8wDQYDVQQIDAZJdGFsaWExGTAXBgNVBAoMEFJlZ2lvbmUgQ2Ft
cGFuaWEwWTATBgcqhkjOPQIBBggqhkjOPQMBBwNCAASpSA0o7w3DW1D7eKXVF5TH
EIU1ZoyUF/0ErLjApFE/w1mqkxcjuLV8hTxcU3cmM6wA3Dhbv5r6RF3Zk2nCB+QO
oyMwITAOBgNVHQ8BAf8EBAMCBaAwDwYDVR0TAQH/BAUwAwIBAzAKBggqhkjOPQQD
AgNIADBFAiEAz2JqV51ojOuH6KJ6IbMDxg4WQZ5lOiBATnk67fbCzc4CICY3e4rN
5c8ZyUBCpokL+YizyHNbqRwnc2D6jRM3dZL4
-----END CERTIFICATE-----
