Certificate:
    Data:
        Version: 3 (0x2)
        Serial Number: 14 (0xe)
        Signature Algorithm: ecdsa-with-SHA256
        Issuer: CN=Regione Liguria, C=IT, ST=Italia, O=E-Voting system, OU=E-Voting system authority/emailAddress=Liguria@evoting.it
        Validity
            Not Before: Aug  3 13:26:18 2022 GMT
            Not After : Aug  3 13:26:18 2023 GMT
        Subject: CN=Chastity, C=IT, ST=Italia, O=Regione Liguria
        Subject Public Key Info:
            Public Key Algorithm: id-ecPublicKey
                Public-Key: (256 bit)
                pub:
                    04:26:21:ab:80:6c:8b:36:98:47:c9:7b:a8:2b:5e:
                    01:4c:44:01:31:31:9f:38:4c:41:0f:18:6f:d0:f6:
                    dd:78:54:a6:60:32:dd:35:63:13:75:97:f8:27:c9:
                    07:4b:48:fd:c3:de:53:30:f7:21:4b:b5:6b:f6:45:
                    26:67:55:cb:b4
                ASN1 OID: prime256v1
                NIST CURVE: P-256
        X509v3 extensions:
            X509v3 Key Usage: critical
                Digital Signature, Key Encipherment
            X509v3 Basic Constraints: critical
                CA:FALSE, pathlen:3
    Signature Algorithm: ecdsa-with-SHA256
         30:45:02:21:00:ad:8f:8c:da:b1:97:b6:17:38:46:7a:64:0b:
         1c:bf:96:7a:b2:39:2d:df:78:c8:33:32:9b:66:e3:05:5c:e5:
         d0:02:20:1f:f5:21:40:72:8c:49:47:9e:82:10:09:77:ce:55:
         20:48:24:bf:b7:e3:37:35:13:42:de:bb:2a:d5:64:dc:3f
-----BEGIN CERTIFICATE-----
MIIB9zCCAZ2gAwIBAgIBDjAKBggqhkjOPQQDAjCBmTEYMBYGA1UEAwwPUmVnaW9u
ZSBMaWd1cmlhMQswCQYDVQQGEwJJVDEPMA0GA1UECAwGSXRhbGlhMRgwFgYDVQQK
DA9FLVZvdGluZyBzeXN0ZW0xIjAgBgNVBAsMGUUtVm90aW5nIHN5c3RlbSBhdXRo
b3JpdHkxITAfBgkqhkiG9w0BCQEWEkxpZ3VyaWFAZXZvdGluZy5pdDAeFw0yMjA4
MDMxMzI2MThaFw0yMzA4MDMxMzI2MThaMEsxETAPBgNVBAMMCENoYXN0aXR5MQsw
CQYDVQQGEwJJVDEPMA0GA1UECAwGSXRhbGlhMRgwFgYDVQQKDA9SZWdpb25lIExp
Z3VyaWEwWTATBgcqhkjOPQIBBggqhkjOPQMBBwNCAAQmIauAbIs2mEfJe6grXgFM
RAExMZ84TEEPGG/Q9t14VKZgMt01YxN1l/gnyQdLSP3D3lMw9yFLtWv2RSZnVcu0
oyMwITAOBgNVHQ8BAf8EBAMCBaAwDwYDVR0TAQH/BAUwAwIBAzAKBggqhkjOPQQD
AgNIADBFAiEArY+M2rGXthc4RnpkCxy/lnqyOS3feMgzMptm4wVc5dACIB/1IUBy
jElHnoIQCXfOVSBIJL+34zc1E0LeuyrVZNw/
-----END CERTIFICATE-----
