Certificate:
    Data:
        Version: 3 (0x2)
        Serial Number: 33 (0x21)
        Signature Algorithm: ecdsa-with-SHA256
        Issuer: CN=Regione Liguria, C=IT, ST=Italia, O=E-Voting system, OU=E-Voting system authority/emailAddress=Liguria@evoting.it
        Validity
            Not Before: Aug  3 13:27:18 2022 GMT
            Not After : Aug  3 13:27:18 2023 GMT
        Subject: CN=Chelsea, C=IT, ST=Italia, O=Regione Liguria
        Subject Public Key Info:
            Public Key Algorithm: id-ecPublicKey
                Public-Key: (256 bit)
                pub:
                    04:d0:52:ee:07:de:dc:9b:e0:3c:32:25:ad:21:3c:
                    c0:f5:bf:de:ad:e1:3b:fe:a8:4f:b2:b3:3f:c3:11:
                    f0:96:63:e1:94:c6:a7:48:5d:66:96:f4:16:7f:ab:
                    74:33:fb:16:62:dc:9d:12:da:52:4d:22:06:82:70:
                    c7:29:34:55:4e
                ASN1 OID: prime256v1
                NIST CURVE: P-256
        X509v3 extensions:
            X509v3 Key Usage: critical
                Digital Signature, Key Encipherment
            X509v3 Basic Constraints: critical
                CA:FALSE, pathlen:3
    Signature Algorithm: ecdsa-with-SHA256
         30:45:02:21:00:f9:93:a6:ec:70:cc:d2:65:95:53:18:49:f4:
         71:f3:46:a2:9c:c2:d0:65:b3:4b:29:03:81:2f:18:1d:85:f8:
         6e:02:20:59:c0:bb:7b:f7:ed:1d:f9:ed:81:77:f2:be:99:8e:
         6c:f0:10:71:8b:04:47:8d:b9:c2:4c:5f:ae:e8:c1:4b:0c
-----BEGIN CERTIFICATE-----
MIIB9jCCAZygAwIBAgIBITAKBggqhkjOPQQDAjCBmTEYMBYGA1UEAwwPUmVnaW9u
ZSBMaWd1cmlhMQswCQYDVQQGEwJJVDEPMA0GA1UECAwGSXRhbGlhMRgwFgYDVQQK
DA9FLVZvdGluZyBzeXN0ZW0xIjAgBgNVBAsMGUUtVm90aW5nIHN5c3RlbSBhdXRo
b3JpdHkxITAfBgkqhkiG9w0BCQEWEkxpZ3VyaWFAZXZvdGluZy5pdDAeFw0yMjA4
MDMxMzI3MThaFw0yMzA4MDMxMzI3MThaMEoxEDAOBgNVBAMMB0NoZWxzZWExCzAJ
BgNVBAYTAklUMQ8wDQYDVQQIDAZJdGFsaWExGDAWBgNVBAoMD1JlZ2lvbmUgTGln
dXJpYTBZMBMGByqGSM49AgEGCCqGSM49AwEHA0IABNBS7gfe3JvgPDIlrSE8wPW/
3q3hO/6oT7KzP8MR8JZj4ZTGp0hdZpb0Fn+rdDP7FmLcnRLaUk0iBoJwxyk0VU6j
IzAhMA4GA1UdDwEB/wQEAwIFoDAPBgNVHRMBAf8EBTADAgEDMAoGCCqGSM49BAMC
A0gAMEUCIQD5k6bscMzSZZVTGEn0cfNGopzC0GWzSykDgS8YHYX4bgIgWcC7e/ft
HfntgXfyvpmObPAQcYsER425wkxfrujBSww=
-----END CERTIFICATE-----
