Certificate:
    Data:
        Version: 3 (0x2)
        Serial Number: 28 (0x1c)
        Signature Algorithm: ecdsa-with-SHA256
        Issuer: CN=Regione Sardegna, C=IT, ST=Italia, O=E-Voting system, OU=E-Voting system authority/emailAddress=Sardegna@evoting.it
        Validity
            Not Before: Aug 26 15:20:45 2022 GMT
            Not After : Aug 26 15:20:45 2023 GMT
        Subject: CN=Chelsea, C=IT, ST=Italia, O=Regione Sardegna
        Subject Public Key Info:
            Public Key Algorithm: id-ecPublicKey
                Public-Key: (256 bit)
                pub:
                    04:2b:0c:fa:c7:97:f8:fb:c6:67:33:37:6c:ed:44:
                    e5:a6:88:5d:c8:50:89:03:9f:5f:3a:f1:1b:9d:a4:
                    1f:b8:af:1e:07:06:ea:49:a9:29:a4:a6:fa:48:99:
                    08:ac:1c:49:61:02:23:49:f8:fd:74:93:a3:63:13:
                    83:4b:83:c4:dc
                ASN1 OID: secp256k1
        X509v3 extensions:
            X509v3 Key Usage: critical
                Digital Signature, Key Encipherment
            X509v3 Basic Constraints: critical
                CA:FALSE, pathlen:3
    Signature Algorithm: ecdsa-with-SHA256
         30:45:02:20:09:c6:fe:61:02:a5:c9:13:fd:0d:ab:39:b6:cd:
         f6:6a:f4:26:e5:8d:3c:88:65:b8:23:3d:69:15:8b:50:d3:bb:
         02:21:00:f5:2d:c7:ac:fb:32:ea:d8:8e:48:9a:17:b7:1d:76:
         29:fb:68:90:15:df:9a:0f:55:11:09:72:34:a1:d5:2e:0c
-----BEGIN CERTIFICATE-----
MIIB9jCCAZygAwIBAgIBHDAKBggqhkjOPQQDAjCBmzEZMBcGA1UEAwwQUmVnaW9u
ZSBTYXJkZWduYTELMAkGA1UEBhMCSVQxDzANBgNVBAgMBkl0YWxpYTEYMBYGA1UE
CgwPRS1Wb3Rpbmcgc3lzdGVtMSIwIAYDVQQLDBlFLVZvdGluZyBzeXN0ZW0gYXV0
aG9yaXR5MSIwIAYJKoZIhvcNAQkBFhNTYXJkZWduYUBldm90aW5nLml0MB4XDTIy
MDgyNjE1MjA0NVoXDTIzMDgyNjE1MjA0NVowSzEQMA4GA1UEAwwHQ2hlbHNlYTEL
MAkGA1UEBhMCSVQxDzANBgNVBAgMBkl0YWxpYTEZMBcGA1UECgwQUmVnaW9uZSBT
YXJkZWduYTBWMBAGByqGSM49AgEGBSuBBAAKA0IABCsM+seX+PvGZzM3bO1E5aaI
XchQiQOfXzrxG52kH7ivHgcG6kmpKaSm+kiZCKwcSWECI0n4/XSTo2MTg0uDxNyj
IzAhMA4GA1UdDwEB/wQEAwIFoDAPBgNVHRMBAf8EBTADAgEDMAoGCCqGSM49BAMC
A0gAMEUCIAnG/mECpckT/Q2rObbN9mr0JuWNPIhluCM9aRWLUNO7AiEA9S3HrPsy
6tiOSJoXtx12KftokBXfmg9VEQlyNKHVLgw=
-----END CERTIFICATE-----
