Certificate:
    Data:
        Version: 3 (0x2)
        Serial Number: 41 (0x29)
        Signature Algorithm: ecdsa-with-SHA256
        Issuer: CN=Regione Puglia, C=IT, ST=Italia, O=E-Voting system, OU=E-Voting system authority/emailAddress=Puglia@evoting.it
        Validity
            Not Before: Aug  3 13:28:46 2022 GMT
            Not After : Aug  3 13:28:46 2023 GMT
        Subject: CN=Cheri, C=IT, ST=Italia, O=Regione Puglia
        Subject Public Key Info:
            Public Key Algorithm: id-ecPublicKey
                Public-Key: (256 bit)
                pub:
                    04:a6:96:9c:36:e4:b9:05:a3:1d:9c:c6:c3:f5:1e:
                    22:8d:aa:b8:16:87:52:14:91:74:ed:22:0f:bf:a0:
                    83:5a:08:52:52:a1:67:ec:4a:17:63:48:83:e0:65:
                    f6:85:92:2f:e6:ec:a1:ac:33:31:c9:b5:78:2d:db:
                    a7:f6:8b:08:3c
                ASN1 OID: prime256v1
                NIST CURVE: P-256
        X509v3 extensions:
            X509v3 Key Usage: critical
                Digital Signature, Key Encipherment
            X509v3 Basic Constraints: critical
                CA:FALSE, pathlen:3
    Signature Algorithm: ecdsa-with-SHA256
         30:44:02:20:55:91:d8:87:57:9d:31:3d:e7:f9:b9:f1:ee:e3:
         34:eb:19:9d:11:93:25:92:53:06:d0:e1:60:71:25:69:ed:cf:
         02:20:19:47:44:3f:ae:3f:7c:34:02:d7:82:5b:30:9f:55:53:
         38:dc:ff:df:42:e5:57:38:d4:29:2d:bd:25:2c:a9:b5
-----BEGIN CERTIFICATE-----
MIIB8DCCAZegAwIBAgIBKTAKBggqhkjOPQQDAjCBlzEXMBUGA1UEAwwOUmVnaW9u
ZSBQdWdsaWExCzAJBgNVBAYTAklUMQ8wDQYDVQQIDAZJdGFsaWExGDAWBgNVBAoM
D0UtVm90aW5nIHN5c3RlbTEiMCAGA1UECwwZRS1Wb3Rpbmcgc3lzdGVtIGF1dGhv
cml0eTEgMB4GCSqGSIb3DQEJARYRUHVnbGlhQGV2b3RpbmcuaXQwHhcNMjIwODAz
MTMyODQ2WhcNMjMwODAzMTMyODQ2WjBHMQ4wDAYDVQQDDAVDaGVyaTELMAkGA1UE
BhMCSVQxDzANBgNVBAgMBkl0YWxpYTEXMBUGA1UECgwOUmVnaW9uZSBQdWdsaWEw
WTATBgcqhkjOPQIBBggqhkjOPQMBBwNCAASmlpw25LkFox2cxsP1HiKNqrgWh1IU
kXTtIg+/oINaCFJSoWfsShdjSIPgZfaFki/m7KGsMzHJtXgt26f2iwg8oyMwITAO
BgNVHQ8BAf8EBAMCBaAwDwYDVR0TAQH/BAUwAwIBAzAKBggqhkjOPQQDAgNHADBE
AiBVkdiHV50xPef5ufHu4zTrGZ0RkyWSUwbQ4WBxJWntzwIgGUdEP64/fDQC14Jb
MJ9VUzjc/99C5Vc41CktvSUsqbU=
-----END CERTIFICATE-----
