Certificate:
    Data:
        Version: 3 (0x2)
        Serial Number: 5 (0x5)
        Signature Algorithm: ecdsa-with-SHA256
        Issuer: CN=Regione Campania, C=IT, ST=Italia, O=E-Voting system, OU=E-Voting system authority/emailAddress=Campania@evoting.it
        Validity
            Not Before: Aug 26 15:18:44 2022 GMT
            Not After : Aug 26 15:18:44 2023 GMT
        Subject: CN=Cheryl, C=IT, ST=Italia, O=Regione Campania
        Subject Public Key Info:
            Public Key Algorithm: id-ecPublicKey
                Public-Key: (256 bit)
                pub:
                    04:69:70:d8:b6:81:fe:10:1f:34:f6:d0:06:75:f6:
                    24:aa:06:d0:dc:13:aa:ba:c5:61:36:76:82:27:a2:
                    c4:6e:ff:4b:93:28:75:2f:aa:63:36:b9:55:e1:f5:
                    93:65:c9:9a:19:e2:82:bc:a2:4a:69:da:de:aa:4a:
                    0b:0a:82:2a:e2
                ASN1 OID: secp256k1
        X509v3 extensions:
            X509v3 Key Usage: critical
                Digital Signature, Key Encipherment
            X509v3 Basic Constraints: critical
                CA:FALSE, pathlen:3
    Signature Algorithm: ecdsa-with-SHA256
         30:45:02:21:00:b0:59:d3:8b:6b:75:19:87:f2:ea:1e:11:43:
         97:b6:b6:1d:fe:a6:7a:34:2e:df:b0:0a:c4:2a:ff:70:7f:ae:
         18:02:20:03:6d:bd:3b:bf:e1:2d:88:f9:75:cb:db:91:eb:d2:
         03:8f:8f:e0:d8:05:85:0c:96:d5:1f:f6:7c:ff:8d:0e:d1
-----BEGIN CERTIFICATE-----
MIIB9TCCAZugAwIBAgIBBTAKBggqhkjOPQQDAjCBmzEZMBcGA1UEAwwQUmVnaW9u
ZSBDYW1wYW5pYTELMAkGA1UEBhMCSVQxDzANBgNVBAgMBkl0YWxpYTEYMBYGA1UE
CgwPRS1Wb3Rpbmcgc3lzdGVtMSIwIAYDVQQLDBlFLVZvdGluZyBzeXN0ZW0gYXV0
aG9yaXR5MSIwIAYJKoZIhvcNAQkBFhNDYW1wYW5pYUBldm90aW5nLml0MB4XDTIy
MDgyNjE1MTg0NFoXDTIzMDgyNjE1MTg0NFowSjEPMA0GA1UEAwwGQ2hlcnlsMQsw
CQYDVQQGEwJJVDEPMA0GA1UECAwGSXRhbGlhMRkwFwYDVQQKDBBSZWdpb25lIENh
bXBhbmlhMFYwEAYHKoZIzj0CAQYFK4EEAAoDQgAEaXDYtoH+EB809tAGdfYkqgbQ
3BOqusVhNnaCJ6LEbv9Lkyh1L6pjNrlV4fWTZcmaGeKCvKJKadreqkoLCoIq4qMj
MCEwDgYDVR0PAQH/BAQDAgWgMA8GA1UdEwEB/wQFMAMCAQMwCgYIKoZIzj0EAwID
SAAwRQIhALBZ04trdRmH8uoeEUOXtrYd/qZ6NC7fsArEKv9wf64YAiADbb07v+Et
iPl1y9uR69IDj4/g2AWFDJbVH/Z8/40O0Q==
-----END CERTIFICATE-----
