Certificate:
    Data:
        Version: 3 (0x2)
        Serial Number: 44 (0x2c)
        Signature Algorithm: ecdsa-with-SHA256
        Issuer: CN=Regione Lazio, C=IT, ST=Italia, O=E-Voting system, OU=E-Voting system authority/emailAddress=Lazio@evoting.it
        Validity
            Not Before: Aug 26 15:21:33 2022 GMT
            Not After : Aug 26 15:21:33 2023 GMT
        Subject: CN=Chong, C=IT, ST=Italia, O=Regione Lazio
        Subject Public Key Info:
            Public Key Algorithm: id-ecPublicKey
                Public-Key: (256 bit)
                pub:
                    04:4a:23:63:07:13:db:9b:da:16:14:6a:3c:c9:42:
                    b6:18:24:26:61:f1:8e:7b:90:a7:ff:29:8d:89:21:
                    6d:0d:78:d2:84:cd:78:44:2f:00:a7:cf:ca:9d:ce:
                    a4:3d:e0:b9:47:70:db:38:ff:05:c0:72:4e:6e:64:
                    dd:1b:78:09:5b
                ASN1 OID: secp256k1
        X509v3 extensions:
            X509v3 Key Usage: critical
                Digital Signature, Key Encipherment
            X509v3 Basic Constraints: critical
                CA:FALSE, pathlen:3
    Signature Algorithm: ecdsa-with-SHA256
         30:45:02:21:00:f5:78:81:4a:70:a6:ab:9e:f6:12:63:24:b6:
         be:10:d5:6f:a7:6f:73:4c:6a:02:8b:f6:9d:c7:f8:b8:c3:42:
         d7:02:20:3e:cc:ed:ac:a5:46:5f:0e:fc:b1:31:7a:2e:49:ee:
         da:e6:ef:ec:7a:07:8c:18:23:50:e0:74:7c:57:22:6c:84
-----BEGIN CERTIFICATE-----
MIIB6zCCAZGgAwIBAgIBLDAKBggqhkjOPQQDAjCBlTEWMBQGA1UEAwwNUmVnaW9u
ZSBMYXppbzELMAkGA1UEBhMCSVQxDzANBgNVBAgMBkl0YWxpYTEYMBYGA1UECgwP
RS1Wb3Rpbmcgc3lzdGVtMSIwIAYDVQQLDBlFLVZvdGluZyBzeXN0ZW0gYXV0aG9y
aXR5MR8wHQYJKoZIhvcNAQkBFhBMYXppb0Bldm90aW5nLml0MB4XDTIyMDgyNjE1
MjEzM1oXDTIzMDgyNjE1MjEzM1owRjEOMAwGA1UEAwwFQ2hvbmcxCzAJBgNVBAYT
AklUMQ8wDQYDVQQIDAZJdGFsaWExFjAUBgNVBAoMDVJlZ2lvbmUgTGF6aW8wVjAQ
BgcqhkjOPQIBBgUrgQQACgNCAARKI2MHE9ub2hYUajzJQrYYJCZh8Y57kKf/KY2J
IW0NeNKEzXhELwCnz8qdzqQ94LlHcNs4/wXAck5uZN0beAlboyMwITAOBgNVHQ8B
Af8EBAMCBaAwDwYDVR0TAQH/BAUwAwIBAzAKBggqhkjOPQQDAgNIADBFAiEA9XiB
SnCmq572EmMktr4Q1W+nb3NMagKL9p3H+LjDQtcCID7M7aylRl8O/LExei5J7trm
7+x6B4wYI1DgdHxXImyE
-----END CERTIFICATE-----
