Certificate:
    Data:
        Version: 3 (0x2)
        Serial Number: 50 (0x32)
        Signature Algorithm: ecdsa-with-SHA256
        Issuer: CN=Regione Puglia, C=IT, ST=Italia, O=E-Voting system, OU=E-Voting system authority/emailAddress=Puglia@evoting.it
        Validity
            Not Before: Aug 26 15:21:22 2022 GMT
            Not After : Aug 26 15:21:22 2023 GMT
        Subject: CN=Christina, C=IT, ST=Italia, O=Regione Puglia
        Subject Public Key Info:
            Public Key Algorithm: id-ecPublicKey
                Public-Key: (256 bit)
                pub:
                    04:da:8d:80:f8:e0:9b:c8:bd:2d:e3:f7:8e:ad:69:
                    99:34:64:bc:6f:aa:a6:f7:46:ac:21:f5:96:5b:90:
                    92:de:14:35:bf:94:c9:26:78:1a:77:f9:3c:86:7e:
                    07:80:81:eb:1b:75:0e:18:25:4d:02:b5:49:dc:92:
                    3d:fa:44:fe:55
                ASN1 OID: secp256k1
        X509v3 extensions:
            X509v3 Key Usage: critical
                Digital Signature, Key Encipherment
            X509v3 Basic Constraints: critical
                CA:FALSE, pathlen:3
    Signature Algorithm: ecdsa-with-SHA256
         30:46:02:21:00:dd:90:57:ca:2e:74:6a:c3:ad:ea:82:8e:55:
         4d:a3:cf:01:0f:8a:49:77:18:79:22:cf:10:59:ec:78:c7:ff:
         40:02:21:00:c2:64:2d:f2:25:ef:59:10:87:1c:de:50:11:79:
         3f:ab:d6:3e:59:e7:81:88:fe:9f:ac:8b:65:21:6c:72:6e:32
-----BEGIN CERTIFICATE-----
MIIB8zCCAZigAwIBAgIBMjAKBggqhkjOPQQDAjCBlzEXMBUGA1UEAwwOUmVnaW9u
ZSBQdWdsaWExCzAJBgNVBAYTAklUMQ8wDQYDVQQIDAZJdGFsaWExGDAWBgNVBAoM
D0UtVm90aW5nIHN5c3RlbTEiMCAGA1UECwwZRS1Wb3Rpbmcgc3lzdGVtIGF1dGhv
cml0eTEgMB4GCSqGSIb3DQEJARYRUHVnbGlhQGV2b3RpbmcuaXQwHhcNMjIwODI2
MTUyMTIyWhcNMjMwODI2MTUyMTIyWjBLMRIwEAYDVQQDDAlDaHJpc3RpbmExCzAJ
BgNVBAYTAklUMQ8wDQYDVQQIDAZJdGFsaWExFzAVBgNVBAoMDlJlZ2lvbmUgUHVn
bGlhMFYwEAYHKoZIzj0CAQYFK4EEAAoDQgAE2o2A+OCbyL0t4/eOrWmZNGS8b6qm
90asIfWWW5CS3hQ1v5TJJngad/k8hn4HgIHrG3UOGCVNArVJ3JI9+kT+VaMjMCEw
DgYDVR0PAQH/BAQDAgWgMA8GA1UdEwEB/wQFMAMCAQMwCgYIKoZIzj0EAwIDSQAw
RgIhAN2QV8oudGrDreqCjlVNo88BD4pJdxh5Is8QWex4x/9AAiEAwmQt8iXvWRCH
HN5QEXk/q9Y+WeeBiP6frItlIWxybjI=
-----END CERTIFICATE-----
