Certificate:
    Data:
        Version: 3 (0x2)
        Serial Number: 13 (0xd)
        Signature Algorithm: ecdsa-with-SHA256
        Issuer: CN=Regione Trentino_Alto_Adige, C=IT, ST=Italia, O=E-Voting system, OU=E-Voting system authority/emailAddress=Trentino_Alto_Adige@evoting.it
        Validity
            Not Before: Aug 26 15:19:29 2022 GMT
            Not After : Aug 26 15:19:29 2023 GMT
        Subject: CN=Christi, C=IT, ST=Italia, O=Regione Trentino_Alto_Adige
        Subject Public Key Info:
            Public Key Algorithm: id-ecPublicKey
                Public-Key: (256 bit)
                pub:
                    04:96:d3:2f:bf:50:36:9b:96:20:c0:6b:f0:df:d1:
                    ee:50:e2:69:16:49:d4:8d:0a:44:a0:55:7b:7d:a0:
                    ea:22:6f:c9:38:f5:d7:3f:eb:e0:8d:68:07:91:a5:
                    37:4a:cc:24:a6:17:a2:ed:83:64:71:31:2a:3e:82:
                    7d:7c:ab:aa:c1
                ASN1 OID: secp256k1
        X509v3 extensions:
            X509v3 Key Usage: critical
                Digital Signature, Key Encipherment
            X509v3 Basic Constraints: critical
                CA:FALSE, pathlen:3
    Signature Algorithm: ecdsa-with-SHA256
         30:46:02:21:00:ee:e1:84:f6:0e:c1:5c:c7:cc:c8:94:2f:8e:
         e6:9b:8e:b5:17:48:69:cb:6b:a0:07:76:14:fc:ea:2f:8b:c3:
         b9:02:21:00:d7:69:15:14:23:26:cb:10:88:a3:5e:9f:8d:df:
         bd:15:c3:81:6c:22:b2:d2:4a:6d:14:db:86:34:4d:8a:ff:b1
-----BEGIN CERTIFICATE-----
MIICGDCCAb2gAwIBAgIBDTAKBggqhkjOPQQDAjCBsTEkMCIGA1UEAwwbUmVnaW9u
ZSBUcmVudGlub19BbHRvX0FkaWdlMQswCQYDVQQGEwJJVDEPMA0GA1UECAwGSXRh
bGlhMRgwFgYDVQQKDA9FLVZvdGluZyBzeXN0ZW0xIjAgBgNVBAsMGUUtVm90aW5n
IHN5c3RlbSBhdXRob3JpdHkxLTArBgkqhkiG9w0BCQEWHlRyZW50aW5vX0FsdG9f
QWRpZ2VAZXZvdGluZy5pdDAeFw0yMjA4MjYxNTE5MjlaFw0yMzA4MjYxNTE5Mjla
MFYxEDAOBgNVBAMMB0NocmlzdGkxCzAJBgNVBAYTAklUMQ8wDQYDVQQIDAZJdGFs
aWExJDAiBgNVBAoMG1JlZ2lvbmUgVHJlbnRpbm9fQWx0b19BZGlnZTBWMBAGByqG
SM49AgEGBSuBBAAKA0IABJbTL79QNpuWIMBr8N/R7lDiaRZJ1I0KRKBVe32g6iJv
yTj11z/r4I1oB5GlN0rMJKYXou2DZHExKj6CfXyrqsGjIzAhMA4GA1UdDwEB/wQE
AwIFoDAPBgNVHRMBAf8EBTADAgEDMAoGCCqGSM49BAMCA0kAMEYCIQDu4YT2DsFc
x8zIlC+O5puOtRdIactroAd2FPzqL4vDuQIhANdpFRQjJssQiKNen43fvRXDgWwi
stJKbRTbhjRNiv+x
-----END CERTIFICATE-----
