Certificate:
    Data:
        Version: 3 (0x2)
        Serial Number: 27 (0x1b)
        Signature Algorithm: ecdsa-with-SHA256
        Issuer: CN=Regione Calabria, C=IT, ST=Italia, O=E-Voting system, OU=E-Voting system authority/emailAddress=Calabria@evoting.it
        Validity
            Not Before: Aug 26 15:20:41 2022 GMT
            Not After : Aug 26 15:20:41 2023 GMT
        Subject: CN=Christopher, C=IT, ST=Italia, O=Regione Calabria
        Subject Public Key Info:
            Public Key Algorithm: id-ecPublicKey
                Public-Key: (256 bit)
                pub:
                    04:44:4c:fc:4e:b6:c7:88:22:05:af:c4:ca:1c:fa:
                    58:7b:5b:77:f3:0b:f9:ea:5b:ff:cf:9c:53:57:80:
                    8b:b1:cd:5c:4b:f3:c4:00:42:aa:13:36:bc:6c:67:
                    51:b6:5e:c6:53:ff:fd:a4:02:e6:b9:0d:5c:3d:ef:
                    fb:1c:f9:03:66
                ASN1 OID: secp256k1
        X509v3 extensions:
            X509v3 Key Usage: critical
                Digital Signature, Key Encipherment
            X509v3 Basic Constraints: critical
                CA:FALSE, pathlen:3
    Signature Algorithm: ecdsa-with-SHA256
         30:45:02:20:17:ad:42:b5:ec:cd:b4:1b:bb:ec:da:fb:1d:1e:
         08:11:f5:82:60:ed:f0:58:41:d0:ba:31:42:1a:43:34:5e:f1:
         02:21:00:d1:18:82:b6:2e:ad:d7:06:eb:2b:3c:ee:92:20:d6:
         dd:eb:72:ce:32:75:7f:b8:75:6d:2c:e7:da:1e:91:64:36
-----BEGIN CERTIFICATE-----
MIIB+jCCAaCgAwIBAgIBGzAKBggqhkjOPQQDAjCBmzEZMBcGA1UEAwwQUmVnaW9u
ZSBDYWxhYnJpYTELMAkGA1UEBhMCSVQxDzANBgNVBAgMBkl0YWxpYTEYMBYGA1UE
CgwPRS1Wb3Rpbmcgc3lzdGVtMSIwIAYDVQQLDBlFLVZvdGluZyBzeXN0ZW0gYXV0
aG9yaXR5MSIwIAYJKoZIhvcNAQkBFhNDYWxhYnJpYUBldm90aW5nLml0MB4XDTIy
MDgyNjE1MjA0MVoXDTIzMDgyNjE1MjA0MVowTzEUMBIGA1UEAwwLQ2hyaXN0b3Bo
ZXIxCzAJBgNVBAYTAklUMQ8wDQYDVQQIDAZJdGFsaWExGTAXBgNVBAoMEFJlZ2lv
bmUgQ2FsYWJyaWEwVjAQBgcqhkjOPQIBBgUrgQQACgNCAARETPxOtseIIgWvxMoc
+lh7W3fzC/nqW//PnFNXgIuxzVxL88QAQqoTNrxsZ1G2XsZT//2kAua5DVw97/sc
+QNmoyMwITAOBgNVHQ8BAf8EBAMCBaAwDwYDVR0TAQH/BAUwAwIBAzAKBggqhkjO
PQQDAgNIADBFAiAXrUK17M20G7vs2vsdHggR9YJg7fBYQdC6MUIaQzRe8QIhANEY
grYurdcG6ys87pIg1t3rcs4ydX+4dW0s59oekWQ2
-----END CERTIFICATE-----
