Certificate:
    Data:
        Version: 3 (0x2)
        Serial Number: 56 (0x38)
        Signature Algorithm: ecdsa-with-SHA256
        Issuer: CN=Regione Umbria, C=IT, ST=Italia, O=E-Voting system, OU=E-Voting system authority/emailAddress=Umbria@evoting.it
        Validity
            Not Before: Aug 26 15:21:49 2022 GMT
            Not After : Aug 26 15:21:49 2023 GMT
        Subject: CN=Christine, C=IT, ST=Italia, O=Regione Umbria
        Subject Public Key Info:
            Public Key Algorithm: id-ecPublicKey
                Public-Key: (256 bit)
                pub:
                    04:da:7d:9d:c8:c3:58:58:16:fd:8c:64:7a:2d:3a:
                    a5:47:ab:c3:87:f3:dd:7d:53:86:bb:ca:86:1a:fc:
                    d9:08:21:c4:d8:a8:ce:d1:5c:8e:6e:51:42:9f:fd:
                    b6:a1:f2:92:c8:89:f3:75:81:be:20:22:59:39:ca:
                    9c:aa:55:bc:d2
                ASN1 OID: secp256k1
        X509v3 extensions:
            X509v3 Key Usage: critical
                Digital Signature, Key Encipherment
            X509v3 Basic Constraints: critical
                CA:FALSE, pathlen:3
    Signature Algorithm: ecdsa-with-SHA256
         30:45:02:21:00:e9:16:75:3e:04:49:d6:2d:c1:e3:14:81:1a:
         62:0c:b5:03:70:43:26:b6:5b:a1:fd:d1:0c:7a:f1:5c:2b:f2:
         38:02:20:1e:df:64:b5:df:4a:37:e0:82:6c:d3:eb:38:55:de:
         a9:dd:8c:7b:dd:d9:1a:3c:79:70:56:50:a8:2b:9d:b3:1f
-----BEGIN CERTIFICATE-----
MIIB8jCCAZigAwIBAgIBODAKBggqhkjOPQQDAjCBlzEXMBUGA1UEAwwOUmVnaW9u
ZSBVbWJyaWExCzAJBgNVBAYTAklUMQ8wDQYDVQQIDAZJdGFsaWExGDAWBgNVBAoM
D0UtVm90aW5nIHN5c3RlbTEiMCAGA1UECwwZRS1Wb3Rpbmcgc3lzdGVtIGF1dGhv
cml0eTEgMB4GCSqGSIb3DQEJARYRVW1icmlhQGV2b3RpbmcuaXQwHhcNMjIwODI2
MTUyMTQ5WhcNMjMwODI2MTUyMTQ5WjBLMRIwEAYDVQQDDAlDaHJpc3RpbmUxCzAJ
BgNVBAYTAklUMQ8wDQYDVQQIDAZJdGFsaWExFzAVBgNVBAoMDlJlZ2lvbmUgVW1i
cmlhMFYwEAYHKoZIzj0CAQYFK4EEAAoDQgAE2n2dyMNYWBb9jGR6LTqlR6vDh/Pd
fVOGu8qGGvzZCCHE2KjO0VyOblFCn/22ofKSyInzdYG+ICJZOcqcqlW80qMjMCEw
DgYDVR0PAQH/BAQDAgWgMA8GA1UdEwEB/wQFMAMCAQMwCgYIKoZIzj0EAwIDSAAw
RQIhAOkWdT4ESdYtweMUgRpiDLUDcEMmtluh/dEMevFcK/I4AiAe32S130o34IJs
0+s4Vd6p3Yx73dkaPHlwVlCoK52zHw==
-----END CERTIFICATE-----
