Certificate:
    Data:
        Version: 3 (0x2)
        Serial Number: 19 (0x13)
        Signature Algorithm: ecdsa-with-SHA256
        Issuer: CN=Regione Friuli_Venezia_Giulia, C=IT, ST=Italia, O=E-Voting system, OU=E-Voting system authority/emailAddress=Friuli_Venezia_Giulia@evoting.it
        Validity
            Not Before: Aug 26 15:19:52 2022 GMT
            Not After : Aug 26 15:19:52 2023 GMT
        Subject: CN=Chris, C=IT, ST=Italia, O=Regione Friuli_Venezia_Giulia
        Subject Public Key Info:
            Public Key Algorithm: id-ecPublicKey
                Public-Key: (256 bit)
                pub:
                    04:f6:af:64:25:83:1a:61:fd:37:e9:34:bc:f0:86:
                    25:99:34:c3:bf:26:09:d4:20:b9:6a:7b:10:46:b2:
                    24:be:13:2d:69:78:a1:d1:a4:cc:d9:b6:72:31:a6:
                    56:1e:a9:e3:75:d7:36:44:30:0a:7d:1b:13:a0:bd:
                    1a:76:c6:e5:ef
                ASN1 OID: secp256k1
        X509v3 extensions:
            X509v3 Key Usage: critical
                Digital Signature, Key Encipherment
            X509v3 Basic Constraints: critical
                CA:FALSE, pathlen:3
    Signature Algorithm: ecdsa-with-SHA256
         30:45:02:21:00:b9:55:5b:a6:1e:79:6e:6d:8f:1f:f3:c1:89:
         58:04:52:a5:3b:02:b1:01:86:6e:57:83:9d:5a:18:04:65:4d:
         49:02:20:53:c8:fa:6f:81:4f:3f:a3:5c:ae:96:67:2b:c3:56:
         26:67:da:55:56:54:1a:b0:d9:62:4f:9c:88:e4:78:b0:16
-----BEGIN CERTIFICATE-----
MIICGzCCAcGgAwIBAgIBEzAKBggqhkjOPQQDAjCBtTEmMCQGA1UEAwwdUmVnaW9u
ZSBGcml1bGlfVmVuZXppYV9HaXVsaWExCzAJBgNVBAYTAklUMQ8wDQYDVQQIDAZJ
dGFsaWExGDAWBgNVBAoMD0UtVm90aW5nIHN5c3RlbTEiMCAGA1UECwwZRS1Wb3Rp
bmcgc3lzdGVtIGF1dGhvcml0eTEvMC0GCSqGSIb3DQEJARYgRnJpdWxpX1ZlbmV6
aWFfR2l1bGlhQGV2b3RpbmcuaXQwHhcNMjIwODI2MTUxOTUyWhcNMjMwODI2MTUx
OTUyWjBWMQ4wDAYDVQQDDAVDaHJpczELMAkGA1UEBhMCSVQxDzANBgNVBAgMBkl0
YWxpYTEmMCQGA1UECgwdUmVnaW9uZSBGcml1bGlfVmVuZXppYV9HaXVsaWEwVjAQ
BgcqhkjOPQIBBgUrgQQACgNCAAT2r2Qlgxph/TfpNLzwhiWZNMO/JgnUILlqexBG
siS+Ey1peKHRpMzZtnIxplYeqeN11zZEMAp9GxOgvRp2xuXvoyMwITAOBgNVHQ8B
Af8EBAMCBaAwDwYDVR0TAQH/BAUwAwIBAzAKBggqhkjOPQQDAgNIADBFAiEAuVVb
ph55bm2PH/PBiVgEUqU7ArEBhm5Xg51aGARlTUkCIFPI+m+BTz+jXK6WZyvDViZn
2lVWVBqw2WJPnIjkeLAW
-----END CERTIFICATE-----
