Certificate:
    Data:
        Version: 3 (0x2)
        Serial Number: 43 (0x2b)
        Signature Algorithm: ecdsa-with-SHA256
        Issuer: CN=Regione Abruzzo, C=IT, ST=Italia, O=E-Voting system, OU=E-Voting system authority/emailAddress=Abruzzo@evoting.it
        Validity
            Not Before: Aug  3 13:27:54 2022 GMT
            Not After : Aug  3 13:27:54 2023 GMT
        Subject: CN=Christine, C=IT, ST=Italia, O=Regione Abruzzo
        Subject Public Key Info:
            Public Key Algorithm: id-ecPublicKey
                Public-Key: (256 bit)
                pub:
                    04:0a:ce:83:88:d3:bd:89:a0:0c:ec:39:8b:92:ce:
                    e9:72:96:ab:7b:ed:fe:2e:ce:cb:3f:ad:49:60:eb:
                    32:93:95:b4:6a:6b:f9:e4:1c:07:7d:a4:bf:cc:2c:
                    16:36:e0:52:b9:4a:6b:dc:96:07:8e:a3:9a:38:dc:
                    53:b6:36:e1:45
                ASN1 OID: prime256v1
                NIST CURVE: P-256
        X509v3 extensions:
            X509v3 Key Usage: critical
                Digital Signature, Key Encipherment
            X509v3 Basic Constraints: critical
                CA:FALSE, pathlen:3
    Signature Algorithm: ecdsa-with-SHA256
         30:44:02:20:2d:f0:a0:44:69:1c:98:29:11:64:00:0b:9e:70:
         14:96:d1:5f:d3:1b:3c:d9:7b:f9:28:b3:82:f5:e3:c1:b3:1c:
         02:20:5a:32:90:98:fe:f9:02:42:00:0c:36:f2:45:bc:af:bf:
         e6:36:94:b5:af:34:b3:d5:c3:42:a7:7c:4b:13:cc:15
-----BEGIN CERTIFICATE-----
MIIB9zCCAZ6gAwIBAgIBKzAKBggqhkjOPQQDAjCBmTEYMBYGA1UEAwwPUmVnaW9u
ZSBBYnJ1enpvMQswCQYDVQQGEwJJVDEPMA0GA1UECAwGSXRhbGlhMRgwFgYDVQQK
DA9FLVZvdGluZyBzeXN0ZW0xIjAgBgNVBAsMGUUtVm90aW5nIHN5c3RlbSBhdXRo
b3JpdHkxITAfBgkqhkiG9w0BCQEWEkFicnV6em9AZXZvdGluZy5pdDAeFw0yMjA4
MDMxMzI3NTRaFw0yMzA4MDMxMzI3NTRaMEwxEjAQBgNVBAMMCUNocmlzdGluZTEL
MAkGA1UEBhMCSVQxDzANBgNVBAgMBkl0YWxpYTEYMBYGA1UECgwPUmVnaW9uZSBB
YnJ1enpvMFkwEwYHKoZIzj0CAQYIKoZIzj0DAQcDQgAECs6DiNO9iaAM7DmLks7p
cpare+3+Ls7LP61JYOsyk5W0amv55BwHfaS/zCwWNuBSuUpr3JYHjqOaONxTtjbh
RaMjMCEwDgYDVR0PAQH/BAQDAgWgMA8GA1UdEwEB/wQFMAMCAQMwCgYIKoZIzj0E
AwIDRwAwRAIgLfCgRGkcmCkRZAALnnAUltFf0xs82Xv5KLOC9ePBsxwCIFoykJj+
+QJCAAw28kW8r7/mNpS1rzSz1cNCp3xLE8wV
-----END CERTIFICATE-----
