Certificate:
    Data:
        Version: 3 (0x2)
        Serial Number: 28 (0x1c)
        Signature Algorithm: ecdsa-with-SHA256
        Issuer: CN=Regione Campania, C=IT, ST=Italia, O=E-Voting system, OU=E-Voting system authority/emailAddress=Campania@evoting.it
        Validity
            Not Before: Aug  3 13:27:00 2022 GMT
            Not After : Aug  3 13:27:00 2023 GMT
        Subject: CN=Christy, C=IT, ST=Italia, O=Regione Campania
        Subject Public Key Info:
            Public Key Algorithm: id-ecPublicKey
                Public-Key: (256 bit)
                pub:
                    04:68:ac:b1:15:1b:01:18:ef:db:3e:e7:f7:e2:8f:
                    f8:27:3d:60:16:6c:ee:3f:2f:2d:98:2f:7d:6c:6c:
                    a1:95:4f:3b:fb:d5:a4:02:38:0d:b1:9d:6a:ba:ea:
                    e6:64:d3:fa:5d:05:5b:b0:d2:20:74:87:f6:37:0c:
                    56:cf:14:c8:c1
                ASN1 OID: prime256v1
                NIST CURVE: P-256
        X509v3 extensions:
            X509v3 Key Usage: critical
                Digital Signature, Key Encipherment
            X509v3 Basic Constraints: critical
                CA:FALSE, pathlen:3
    Signature Algorithm: ecdsa-with-SHA256
         30:46:02:21:00:9f:10:72:7d:18:f5:6d:6e:fb:f3:08:f5:8b:
         bf:3f:d5:0a:00:bb:65:44:91:d0:bd:65:a2:ae:90:f6:fc:c7:
         4e:02:21:00:ce:4c:ba:d1:ab:bb:5d:e4:b3:7f:4c:b6:28:cb:
         f5:4a:e9:7c:d7:fb:b4:6b:27:2a:38:5a:12:fc:74:af:4c:3d
-----BEGIN CERTIFICATE-----
MIIB+jCCAZ+gAwIBAgIBHDAKBggqhkjOPQQDAjCBmzEZMBcGA1UEAwwQUmVnaW9u
ZSBDYW1wYW5pYTELMAkGA1UEBhMCSVQxDzANBgNVBAgMBkl0YWxpYTEYMBYGA1UE
CgwPRS1Wb3Rpbmcgc3lzdGVtMSIwIAYDVQQLDBlFLVZvdGluZyBzeXN0ZW0gYXV0
aG9yaXR5MSIwIAYJKoZIhvcNAQkBFhNDYW1wYW5pYUBldm90aW5nLml0MB4XDTIy
MDgwMzEzMjcwMFoXDTIzMDgwMzEzMjcwMFowSzEQMA4GA1UEAwwHQ2hyaXN0eTEL
MAkGA1UEBhMCSVQxDzANBgNVBAgMBkl0YWxpYTEZMBcGA1UECgwQUmVnaW9uZSBD
YW1wYW5pYTBZMBMGByqGSM49AgEGCCqGSM49AwEHA0IABGissRUbARjv2z7n9+KP
+Cc9YBZs7j8vLZgvfWxsoZVPO/vVpAI4DbGdarrq5mTT+l0FW7DSIHSH9jcMVs8U
yMGjIzAhMA4GA1UdDwEB/wQEAwIFoDAPBgNVHRMBAf8EBTADAgEDMAoGCCqGSM49
BAMCA0kAMEYCIQCfEHJ9GPVtbvvzCPWLvz/VCgC7ZUSR0L1loq6Q9vzHTgIhAM5M
utGru13ks39MtijL9UrpfNf7tGsnKjhaEvx0r0w9
-----END CERTIFICATE-----
