Certificate:
    Data:
        Version: 3 (0x2)
        Serial Number: 41 (0x29)
        Signature Algorithm: ecdsa-with-SHA256
        Issuer: CN=Regione Calabria, C=IT, ST=Italia, O=E-Voting system, OU=E-Voting system authority/emailAddress=Calabria@evoting.it
        Validity
            Not Before: Aug 26 15:21:33 2022 GMT
            Not After : Aug 26 15:21:33 2023 GMT
        Subject: CN=Chuck, C=IT, ST=Italia, O=Regione Calabria
        Subject Public Key Info:
            Public Key Algorithm: id-ecPublicKey
                Public-Key: (256 bit)
                pub:
                    04:80:70:d5:b5:0c:10:bf:ff:00:17:fd:cc:8d:ac:
                    c0:6e:a9:2a:ed:a1:40:0e:c3:2c:b1:f2:2d:8c:27:
                    ee:10:3f:9c:8e:e8:04:aa:36:5b:3f:84:8b:2f:78:
                    d6:e8:9e:f0:c8:fd:68:26:cd:f7:0c:0b:d7:4f:ed:
                    58:0e:bc:8e:80
                ASN1 OID: secp256k1
        X509v3 extensions:
            X509v3 Key Usage: critical
                Digital Signature, Key Encipherment
            X509v3 Basic Constraints: critical
                CA:FALSE, pathlen:3
    Signature Algorithm: ecdsa-with-SHA256
         30:45:02:21:00:e6:1d:48:8e:8f:fb:09:cd:d0:ee:41:84:1f:
         9d:18:77:fa:2f:ac:4c:fb:08:38:30:72:5e:47:0c:44:40:d3:
         41:02:20:41:0a:f3:e6:ae:58:ea:8a:c7:9f:99:dd:d7:81:18:
         ff:d5:c7:23:6d:8c:58:49:18:0a:a9:9c:7f:78:c9:d3:0a
-----BEGIN CERTIFICATE-----
MIIB9DCCAZqgAwIBAgIBKTAKBggqhkjOPQQDAjCBmzEZMBcGA1UEAwwQUmVnaW9u
ZSBDYWxhYnJpYTELMAkGA1UEBhMCSVQxDzANBgNVBAgMBkl0YWxpYTEYMBYGA1UE
CgwPRS1Wb3Rpbmcgc3lzdGVtMSIwIAYDVQQLDBlFLVZvdGluZyBzeXN0ZW0gYXV0
aG9yaXR5MSIwIAYJKoZIhvcNAQkBFhNDYWxhYnJpYUBldm90aW5nLml0MB4XDTIy
MDgyNjE1MjEzM1oXDTIzMDgyNjE1MjEzM1owSTEOMAwGA1UEAwwFQ2h1Y2sxCzAJ
BgNVBAYTAklUMQ8wDQYDVQQIDAZJdGFsaWExGTAXBgNVBAoMEFJlZ2lvbmUgQ2Fs
YWJyaWEwVjAQBgcqhkjOPQIBBgUrgQQACgNCAASAcNW1DBC//wAX/cyNrMBuqSrt
oUAOwyyx8i2MJ+4QP5yO6ASqNls/hIsveNbonvDI/WgmzfcMC9dP7VgOvI6AoyMw
ITAOBgNVHQ8BAf8EBAMCBaAwDwYDVR0TAQH/BAUwAwIBAzAKBggqhkjOPQQDAgNI
ADBFAiEA5h1Ijo/7Cc3Q7kGEH50Yd/ovrEz7CDgwcl5HDERA00ECIEEK8+auWOqK
x5+Z3deBGP/VxyNtjFhJGAqpnH94ydMK
-----END CERTIFICATE-----
