Certificate:
    Data:
        Version: 3 (0x2)
        Serial Number: 16 (0x10)
        Signature Algorithm: ecdsa-with-SHA256
        Issuer: CN=Regione Emilia_Romagna, C=IT, ST=Italia, O=E-Voting system, OU=E-Voting system authority/emailAddress=Emilia_Romagna@evoting.it
        Validity
            Not Before: Aug 26 15:19:28 2022 GMT
            Not After : Aug 26 15:19:28 2023 GMT
        Subject: CN=Cindy, C=IT, ST=Italia, O=Regione Emilia_Romagna
        Subject Public Key Info:
            Public Key Algorithm: id-ecPublicKey
                Public-Key: (256 bit)
                pub:
                    04:35:a1:88:77:cb:0c:84:ad:57:5f:9f:85:f1:09:
                    ec:03:78:c1:fc:2e:b9:2e:ca:42:ea:ca:c2:2a:09:
                    32:63:57:da:91:8e:f7:21:c0:3f:c3:52:9c:02:94:
                    97:6e:0b:4d:60:ef:c8:da:c6:79:79:eb:12:ba:6d:
                    cf:ec:52:53:74
                ASN1 OID: secp256k1
        X509v3 extensions:
            X509v3 Key Usage: critical
                Digital Signature, Key Encipherment
            X509v3 Basic Constraints: critical
                CA:FALSE, pathlen:3
    Signature Algorithm: ecdsa-with-SHA256
         30:44:02:20:46:7f:93:cd:d1:06:87:7a:40:c4:d9:35:71:16:
         9b:6f:a2:9a:f6:15:9b:46:20:f8:32:f4:9f:e5:0d:2d:0a:4d:
         02:20:34:ea:fd:ec:26:47:fd:35:31:b8:9f:de:3d:e7:b3:3d:
         a5:85:f1:dc:5d:3e:24:57:dc:c9:5b:c4:96:bd:90:80
-----BEGIN CERTIFICATE-----
MIICBTCCAaygAwIBAgIBEDAKBggqhkjOPQQDAjCBpzEfMB0GA1UEAwwWUmVnaW9u
ZSBFbWlsaWFfUm9tYWduYTELMAkGA1UEBhMCSVQxDzANBgNVBAgMBkl0YWxpYTEY
MBYGA1UECgwPRS1Wb3Rpbmcgc3lzdGVtMSIwIAYDVQQLDBlFLVZvdGluZyBzeXN0
ZW0gYXV0aG9yaXR5MSgwJgYJKoZIhvcNAQkBFhlFbWlsaWFfUm9tYWduYUBldm90
aW5nLml0MB4XDTIyMDgyNjE1MTkyOFoXDTIzMDgyNjE1MTkyOFowTzEOMAwGA1UE
AwwFQ2luZHkxCzAJBgNVBAYTAklUMQ8wDQYDVQQIDAZJdGFsaWExHzAdBgNVBAoM
FlJlZ2lvbmUgRW1pbGlhX1JvbWFnbmEwVjAQBgcqhkjOPQIBBgUrgQQACgNCAAQ1
oYh3ywyErVdfn4XxCewDeMH8LrkuykLqysIqCTJjV9qRjvchwD/DUpwClJduC01g
78jaxnl56xK6bc/sUlN0oyMwITAOBgNVHQ8BAf8EBAMCBaAwDwYDVR0TAQH/BAUw
AwIBAzAKBggqhkjOPQQDAgNHADBEAiBGf5PN0QaHekDE2TVxFptvopr2FZtGIPgy
9J/lDS0KTQIgNOr97CZH/TUxuJ/ePeezPaWF8dxdPiRX3MlbxJa9kIA=
-----END CERTIFICATE-----
