Certificate:
    Data:
        Version: 3 (0x2)
        Serial Number: 50 (0x32)
        Signature Algorithm: ecdsa-with-SHA256
        Issuer: CN=Regione Basilicata, C=IT, ST=Italia, O=E-Voting system, OU=E-Voting system authority/emailAddress=Basilicata@evoting.it
        Validity
            Not Before: Aug  3 13:28:29 2022 GMT
            Not After : Aug  3 13:28:29 2023 GMT
        Subject: CN=Cindi, C=IT, ST=Italia, O=Regione Basilicata
        Subject Public Key Info:
            Public Key Algorithm: id-ecPublicKey
                Public-Key: (256 bit)
                pub:
                    04:c1:09:ae:1f:e9:10:dc:ba:44:c9:83:58:87:6a:
                    32:d5:21:23:58:e0:76:e5:3a:13:48:e9:ba:6f:b4:
                    a4:1e:28:fa:76:4c:a1:db:7d:89:c1:a0:41:b1:1a:
                    5d:e0:68:26:b3:d0:16:54:07:61:03:cf:d3:13:cc:
                    eb:1e:39:08:ee
                ASN1 OID: prime256v1
                NIST CURVE: P-256
        X509v3 extensions:
            X509v3 Key Usage: critical
                Digital Signature, Key Encipherment
            X509v3 Basic Constraints: critical
                CA:FALSE, pathlen:3
    Signature Algorithm: ecdsa-with-SHA256
         30:45:02:20:39:2f:9b:f4:58:c8:a0:a3:09:21:48:ec:80:60:
         57:f9:c4:68:02:46:91:2a:63:0d:0c:9e:17:1d:8b:0a:ae:17:
         02:21:00:a4:70:4a:66:17:fd:4e:a3:0b:3d:87:3b:74:be:f5:
         28:f4:25:34:97:fc:9e:c1:c1:9c:4e:ab:b0:18:c0:99:61
-----BEGIN CERTIFICATE-----
MIIB/TCCAaOgAwIBAgIBMjAKBggqhkjOPQQDAjCBnzEbMBkGA1UEAwwSUmVnaW9u
ZSBCYXNpbGljYXRhMQswCQYDVQQGEwJJVDEPMA0GA1UECAwGSXRhbGlhMRgwFgYD
VQQKDA9FLVZvdGluZyBzeXN0ZW0xIjAgBgNVBAsMGUUtVm90aW5nIHN5c3RlbSBh
dXRob3JpdHkxJDAiBgkqhkiG9w0BCQEWFUJhc2lsaWNhdGFAZXZvdGluZy5pdDAe
Fw0yMjA4MDMxMzI4MjlaFw0yMzA4MDMxMzI4MjlaMEsxDjAMBgNVBAMMBUNpbmRp
MQswCQYDVQQGEwJJVDEPMA0GA1UECAwGSXRhbGlhMRswGQYDVQQKDBJSZWdpb25l
IEJhc2lsaWNhdGEwWTATBgcqhkjOPQIBBggqhkjOPQMBBwNCAATBCa4f6RDcukTJ
g1iHajLVISNY4HblOhNI6bpvtKQeKPp2TKHbfYnBoEGxGl3gaCaz0BZUB2EDz9MT
zOseOQjuoyMwITAOBgNVHQ8BAf8EBAMCBaAwDwYDVR0TAQH/BAUwAwIBAzAKBggq
hkjOPQQDAgNIADBFAiA5L5v0WMigowkhSOyAYFf5xGgCRpEqYw0MnhcdiwquFwIh
AKRwSmYX/U6jCz2HO3S+9Sj0JTSX/J7BwZxOq7AYwJlh
-----END CERTIFICATE-----
