Certificate:
    Data:
        Version: 3 (0x2)
        Serial Number: 43 (0x2b)
        Signature Algorithm: ecdsa-with-SHA256
        Issuer: CN=Regione Valle_d_Aosta, C=IT, ST=Italia, O=E-Voting system, OU=E-Voting system authority/emailAddress=Valle_d_Aosta@evoting.it
        Validity
            Not Before: Aug 26 15:21:06 2022 GMT
            Not After : Aug 26 15:21:06 2023 GMT
        Subject: CN=Clara, C=IT, ST=Italia, O=Regione Valle_d_Aosta
        Subject Public Key Info:
            Public Key Algorithm: id-ecPublicKey
                Public-Key: (256 bit)
                pub:
                    04:97:75:31:9f:a9:bf:a9:50:c5:fe:24:8e:53:8b:
                    c7:75:7d:c7:d2:54:97:bb:4a:ad:ac:3f:5c:fe:53:
                    14:9a:c5:ec:17:60:00:17:35:ec:eb:4c:16:be:99:
                    06:d4:f2:02:7d:17:23:e3:47:6c:9f:86:9c:03:98:
                    9d:1b:45:5d:29
                ASN1 OID: secp256k1
        X509v3 extensions:
            X509v3 Key Usage: critical
                Digital Signature, Key Encipherment
            X509v3 Basic Constraints: critical
                CA:FALSE, pathlen:3
    Signature Algorithm: ecdsa-with-SHA256
         30:45:02:21:00:bc:31:13:68:81:5a:42:f6:45:ed:a3:50:b0:
         30:32:48:8f:e6:90:03:eb:d2:c1:8f:26:0e:64:d4:4e:1f:f8:
         cd:02:20:5c:b1:f3:7e:fb:44:fa:f5:12:82:5b:30:dc:6d:df:
         d6:fe:2c:05:86:73:33:ca:1e:c5:77:d1:23:cb:96:da:43
-----BEGIN CERTIFICATE-----
MIICAzCCAamgAwIBAgIBKzAKBggqhkjOPQQDAjCBpTEeMBwGA1UEAwwVUmVnaW9u
ZSBWYWxsZV9kX0Fvc3RhMQswCQYDVQQGEwJJVDEPMA0GA1UECAwGSXRhbGlhMRgw
FgYDVQQKDA9FLVZvdGluZyBzeXN0ZW0xIjAgBgNVBAsMGUUtVm90aW5nIHN5c3Rl
bSBhdXRob3JpdHkxJzAlBgkqhkiG9w0BCQEWGFZhbGxlX2RfQW9zdGFAZXZvdGlu
Zy5pdDAeFw0yMjA4MjYxNTIxMDZaFw0yMzA4MjYxNTIxMDZaME4xDjAMBgNVBAMM
BUNsYXJhMQswCQYDVQQGEwJJVDEPMA0GA1UECAwGSXRhbGlhMR4wHAYDVQQKDBVS
ZWdpb25lIFZhbGxlX2RfQW9zdGEwVjAQBgcqhkjOPQIBBgUrgQQACgNCAASXdTGf
qb+pUMX+JI5Ti8d1fcfSVJe7Sq2sP1z+UxSaxewXYAAXNezrTBa+mQbU8gJ9FyPj
R2yfhpwDmJ0bRV0poyMwITAOBgNVHQ8BAf8EBAMCBaAwDwYDVR0TAQH/BAUwAwIB
AzAKBggqhkjOPQQDAgNIADBFAiEAvDETaIFaQvZF7aNQsDAySI/mkAPr0sGPJg5k
1E4f+M0CIFyx8377RPr1EoJbMNxt39b+LAWGczPKHsV30SPLltpD
-----END CERTIFICATE-----
