Certificate:
    Data:
        Version: 3 (0x2)
        Serial Number: 27 (0x1b)
        Signature Algorithm: ecdsa-with-SHA256
        Issuer: CN=Regione Liguria, C=IT, ST=Italia, O=E-Voting system, OU=E-Voting system authority/emailAddress=Liguria@evoting.it
        Validity
            Not Before: Aug  3 13:26:53 2022 GMT
            Not After : Aug  3 13:26:53 2023 GMT
        Subject: CN=Clara, C=IT, ST=Italia, O=Regione Liguria
        Subject Public Key Info:
            Public Key Algorithm: id-ecPublicKey
                Public-Key: (256 bit)
                pub:
                    04:47:3e:b3:82:e4:09:71:45:5a:e3:38:66:c4:c0:
                    7e:8d:e2:7a:52:ca:a8:8f:e9:1e:de:53:e8:e1:fc:
                    cb:fd:2b:a8:6d:71:0b:a0:d2:39:cd:d0:2b:dd:75:
                    15:a1:7a:4f:44:7d:c0:07:95:eb:29:58:47:ae:5d:
                    22:8f:49:c9:ac
                ASN1 OID: prime256v1
                NIST CURVE: P-256
        X509v3 extensions:
            X509v3 Key Usage: critical
                Digital Signature, Key Encipherment
            X509v3 Basic Constraints: critical
                CA:FALSE, pathlen:3
    Signature Algorithm: ecdsa-with-SHA256
         30:45:02:20:74:53:aa:7c:68:3a:51:8c:74:e1:b5:91:9d:95:
         64:c6:f2:73:c3:b2:95:d5:8f:b4:c4:06:44:1a:01:9e:c9:ce:
         02:21:00:cc:e6:29:ca:d4:0d:9c:08:d5:ae:70:38:85:53:0f:
         8d:8d:c5:8f:58:d3:00:a6:84:11:c6:6b:67:9b:f3:44:73
-----BEGIN CERTIFICATE-----
MIIB9DCCAZqgAwIBAgIBGzAKBggqhkjOPQQDAjCBmTEYMBYGA1UEAwwPUmVnaW9u
ZSBMaWd1cmlhMQswCQYDVQQGEwJJVDEPMA0GA1UECAwGSXRhbGlhMRgwFgYDVQQK
DA9FLVZvdGluZyBzeXN0ZW0xIjAgBgNVBAsMGUUtVm90aW5nIHN5c3RlbSBhdXRo
b3JpdHkxITAfBgkqhkiG9w0BCQEWEkxpZ3VyaWFAZXZvdGluZy5pdDAeFw0yMjA4
MDMxMzI2NTNaFw0yMzA4MDMxMzI2NTNaMEgxDjAMBgNVBAMMBUNsYXJhMQswCQYD
VQQGEwJJVDEPMA0GA1UECAwGSXRhbGlhMRgwFgYDVQQKDA9SZWdpb25lIExpZ3Vy
aWEwWTATBgcqhkjOPQIBBggqhkjOPQMBBwNCAARHPrOC5AlxRVrjOGbEwH6N4npS
yqiP6R7eU+jh/Mv9K6htcQug0jnN0CvddRWhek9EfcAHlespWEeuXSKPScmsoyMw
ITAOBgNVHQ8BAf8EBAMCBaAwDwYDVR0TAQH/BAUwAwIBAzAKBggqhkjOPQQDAgNI
ADBFAiB0U6p8aDpRjHThtZGdlWTG8nPDspXVj7TEBkQaAZ7JzgIhAMzmKcrUDZwI
1a5wOIVTD42NxY9Y0wCmhBHGa2eb80Rz
-----END CERTIFICATE-----
