Certificate:
    Data:
        Version: 3 (0x2)
        Serial Number: 54 (0x36)
        Signature Algorithm: ecdsa-with-SHA256
        Issuer: CN=Regione Sicilia, C=IT, ST=Italia, O=E-Voting system, OU=E-Voting system authority/emailAddress=Sicilia@evoting.it
        Validity
            Not Before: Aug 26 15:21:35 2022 GMT
            Not After : Aug 26 15:21:35 2023 GMT
        Subject: CN=Clarence, C=IT, ST=Italia, O=Regione Sicilia
        Subject Public Key Info:
            Public Key Algorithm: id-ecPublicKey
                Public-Key: (256 bit)
                pub:
                    04:d9:4e:f7:9e:c7:3d:89:b7:38:22:7c:bd:e8:3d:
                    ba:6c:88:ab:7e:d1:fe:31:f1:70:10:aa:bb:57:0a:
                    c0:5c:39:df:48:c3:f5:79:68:54:44:1a:ef:ac:ed:
                    e9:24:46:0b:1a:fc:88:12:19:c2:b5:94:e5:b8:08:
                    f6:15:5c:ad:21
                ASN1 OID: secp256k1
        X509v3 extensions:
            X509v3 Key Usage: critical
                Digital Signature, Key Encipherment
            X509v3 Basic Constraints: critical
                CA:FALSE, pathlen:3
    Signature Algorithm: ecdsa-with-SHA256
         30:45:02:20:4d:d8:2e:c4:25:8e:02:7f:f9:a5:2a:5f:4b:e8:
         a0:45:c6:a7:a2:31:40:8d:35:a0:f4:e4:7e:a7:bb:f9:56:92:
         02:21:00:fc:64:06:3d:95:4f:1c:08:62:4d:22:0b:ab:85:d6:
         a4:59:ed:59:f4:cd:46:4a:a8:7d:fc:00:0c:9f:0e:47:cb
-----BEGIN CERTIFICATE-----
MIIB9DCCAZqgAwIBAgIBNjAKBggqhkjOPQQDAjCBmTEYMBYGA1UEAwwPUmVnaW9u
ZSBTaWNpbGlhMQswCQYDVQQGEwJJVDEPMA0GA1UECAwGSXRhbGlhMRgwFgYDVQQK
DA9FLVZvdGluZyBzeXN0ZW0xIjAgBgNVBAsMGUUtVm90aW5nIHN5c3RlbSBhdXRo
b3JpdHkxITAfBgkqhkiG9w0BCQEWElNpY2lsaWFAZXZvdGluZy5pdDAeFw0yMjA4
MjYxNTIxMzVaFw0yMzA4MjYxNTIxMzVaMEsxETAPBgNVBAMMCENsYXJlbmNlMQsw
CQYDVQQGEwJJVDEPMA0GA1UECAwGSXRhbGlhMRgwFgYDVQQKDA9SZWdpb25lIFNp
Y2lsaWEwVjAQBgcqhkjOPQIBBgUrgQQACgNCAATZTveexz2JtzgifL3oPbpsiKt+
0f4x8XAQqrtXCsBcOd9Iw/V5aFREGu+s7ekkRgsa/IgSGcK1lOW4CPYVXK0hoyMw
ITAOBgNVHQ8BAf8EBAMCBaAwDwYDVR0TAQH/BAUwAwIBAzAKBggqhkjOPQQDAgNI
ADBFAiBN2C7EJY4Cf/mlKl9L6KBFxqeiMUCNNaD05H6nu/lWkgIhAPxkBj2VTxwI
Yk0iC6uF1qRZ7Vn0zUZKqH38AAyfDkfL
-----END CERTIFICATE-----
