Certificate:
    Data:
        Version: 3 (0x2)
        Serial Number: 33 (0x21)
        Signature Algorithm: ecdsa-with-SHA256
        Issuer: CN=Regione Lazio, C=IT, ST=Italia, O=E-Voting system, OU=E-Voting system authority/emailAddress=Lazio@evoting.it
        Validity
            Not Before: Aug 26 15:20:55 2022 GMT
            Not After : Aug 26 15:20:55 2023 GMT
        Subject: CN=Clarissa, C=IT, ST=Italia, O=Regione Lazio
        Subject Public Key Info:
            Public Key Algorithm: id-ecPublicKey
                Public-Key: (256 bit)
                pub:
                    04:ac:40:c4:a0:8b:d1:04:24:a2:f8:4e:13:c2:40:
                    b9:2d:3d:f3:73:e8:79:1e:c1:f3:93:8c:40:42:df:
                    bf:77:95:06:43:c4:bd:80:00:e3:26:de:9e:b6:19:
                    29:bf:2c:29:b5:29:2a:82:ae:e3:56:2b:6b:c7:c0:
                    c9:85:47:19:d2
                ASN1 OID: secp256k1
        X509v3 extensions:
            X509v3 Key Usage: critical
                Digital Signature, Key Encipherment
            X509v3 Basic Constraints: critical
                CA:FALSE, pathlen:3
    Signature Algorithm: ecdsa-with-SHA256
         30:44:02:20:68:81:5f:b9:1b:a4:77:53:9a:8d:1c:8e:72:de:
         ab:f6:1b:81:70:68:ce:b9:91:8b:c2:2a:46:83:8c:ab:87:9e:
         02:20:74:7e:ef:b7:81:6e:a7:00:43:3e:cd:1a:9e:5f:d8:00:
         24:04:b9:4a:74:c9:68:55:39:b8:24:ff:20:a6:e2:b9
-----BEGIN CERTIFICATE-----
MIIB7TCCAZSgAwIBAgIBITAKBggqhkjOPQQDAjCBlTEWMBQGA1UEAwwNUmVnaW9u
ZSBMYXppbzELMAkGA1UEBhMCSVQxDzANBgNVBAgMBkl0YWxpYTEYMBYGA1UECgwP
RS1Wb3Rpbmcgc3lzdGVtMSIwIAYDVQQLDBlFLVZvdGluZyBzeXN0ZW0gYXV0aG9y
aXR5MR8wHQYJKoZIhvcNAQkBFhBMYXppb0Bldm90aW5nLml0MB4XDTIyMDgyNjE1
MjA1NVoXDTIzMDgyNjE1MjA1NVowSTERMA8GA1UEAwwIQ2xhcmlzc2ExCzAJBgNV
BAYTAklUMQ8wDQYDVQQIDAZJdGFsaWExFjAUBgNVBAoMDVJlZ2lvbmUgTGF6aW8w
VjAQBgcqhkjOPQIBBgUrgQQACgNCAASsQMSgi9EEJKL4ThPCQLktPfNz6HkewfOT
jEBC3793lQZDxL2AAOMm3p62GSm/LCm1KSqCruNWK2vHwMmFRxnSoyMwITAOBgNV
HQ8BAf8EBAMCBaAwDwYDVR0TAQH/BAUwAwIBAzAKBggqhkjOPQQDAgNHADBEAiBo
gV+5G6R3U5qNHI5y3qv2G4FwaM65kYvCKkaDjKuHngIgdH7vt4FupwBDPs0anl/Y
ACQEuUp0yWhVObgk/yCm4rk=
-----END CERTIFICATE-----
