Certificate:
    Data:
        Version: 3 (0x2)
        Serial Number: 20 (0x14)
        Signature Algorithm: ecdsa-with-SHA256
        Issuer: CN=Regione Sardegna, C=IT, ST=Italia, O=E-Voting system, OU=E-Voting system authority/emailAddress=Sardegna@evoting.it
        Validity
            Not Before: Aug 26 15:20:02 2022 GMT
            Not After : Aug 26 15:20:02 2023 GMT
        Subject: CN=Claude, C=IT, ST=Italia, O=Regione Sardegna
        Subject Public Key Info:
            Public Key Algorithm: id-ecPublicKey
                Public-Key: (256 bit)
                pub:
                    04:4d:5e:bd:f0:0c:29:7c:c3:d6:28:23:79:80:68:
                    df:d1:14:40:26:ff:a8:1d:77:d2:8b:15:71:00:ed:
                    2e:65:cc:46:1f:d8:94:ef:89:29:e0:a3:d3:31:67:
                    65:7e:53:c8:02:43:f2:4b:61:b9:07:f0:e9:6e:af:
                    25:72:3f:41:df
                ASN1 OID: secp256k1
        X509v3 extensions:
            X509v3 Key Usage: critical
                Digital Signature, Key Encipherment
            X509v3 Basic Constraints: critical
                CA:FALSE, pathlen:3
    Signature Algorithm: ecdsa-with-SHA256
         30:45:02:20:0d:c8:59:f8:5f:1a:91:5c:d5:f4:ac:66:ab:6d:
         e5:0d:83:92:ca:5f:3e:17:99:7a:fb:9b:0c:8e:ac:83:74:b3:
         02:21:00:92:3d:93:5c:71:99:66:b7:f5:de:5a:7e:57:d9:12:
         9a:7e:c4:65:f0:f2:d6:0c:91:2c:6d:b5:92:53:67:03:20
-----BEGIN CERTIFICATE-----
MIIB9TCCAZugAwIBAgIBFDAKBggqhkjOPQQDAjCBmzEZMBcGA1UEAwwQUmVnaW9u
ZSBTYXJkZWduYTELMAkGA1UEBhMCSVQxDzANBgNVBAgMBkl0YWxpYTEYMBYGA1UE
CgwPRS1Wb3Rpbmcgc3lzdGVtMSIwIAYDVQQLDBlFLVZvdGluZyBzeXN0ZW0gYXV0
aG9yaXR5MSIwIAYJKoZIhvcNAQkBFhNTYXJkZWduYUBldm90aW5nLml0MB4XDTIy
MDgyNjE1MjAwMloXDTIzMDgyNjE1MjAwMlowSjEPMA0GA1UEAwwGQ2xhdWRlMQsw
CQYDVQQGEwJJVDEPMA0GA1UECAwGSXRhbGlhMRkwFwYDVQQKDBBSZWdpb25lIFNh
cmRlZ25hMFYwEAYHKoZIzj0CAQYFK4EEAAoDQgAETV698AwpfMPWKCN5gGjf0RRA
Jv+oHXfSixVxAO0uZcxGH9iU74kp4KPTMWdlflPIAkPyS2G5B/Dpbq8lcj9B36Mj
MCEwDgYDVR0PAQH/BAQDAgWgMA8GA1UdEwEB/wQFMAMCAQMwCgYIKoZIzj0EAwID
SAAwRQIgDchZ+F8akVzV9Kxmq23lDYOSyl8+F5l6+5sMjqyDdLMCIQCSPZNccZlm
t/XeWn5X2RKafsRl8PLWDJEsbbWSU2cDIA==
-----END CERTIFICATE-----
