Certificate:
    Data:
        Version: 3 (0x2)
        Serial Number: 50 (0x32)
        Signature Algorithm: ecdsa-with-SHA256
        Issuer: CN=Regione Emilia_Romagna, C=IT, ST=Italia, O=E-Voting system, OU=E-Voting system authority/emailAddress=Emilia_Romagna@evoting.it
        Validity
            Not Before: Aug 26 15:21:26 2022 GMT
            Not After : Aug 26 15:21:26 2023 GMT
        Subject: CN=Clayton, C=IT, ST=Italia, O=Regione Emilia_Romagna
        Subject Public Key Info:
            Public Key Algorithm: id-ecPublicKey
                Public-Key: (256 bit)
                pub:
                    04:d5:b5:d7:26:c4:fa:49:fd:ca:bd:c7:31:70:84:
                    8f:07:63:b8:f5:bb:0f:0b:2e:07:71:d0:d3:1f:ed:
                    61:07:3b:44:ef:36:e0:8f:a6:8d:5c:33:c7:e1:19:
                    19:1d:2a:23:90:05:71:f0:8d:5e:4a:58:4a:b9:9c:
                    c7:55:0e:7c:1a
                ASN1 OID: secp256k1
        X509v3 extensions:
            X509v3 Key Usage: critical
                Digital Signature, Key Encipherment
            X509v3 Basic Constraints: critical
                CA:FALSE, pathlen:3
    Signature Algorithm: ecdsa-with-SHA256
         30:46:02:21:00:bd:ff:f9:6d:18:0c:b4:e7:ca:dd:70:b4:54:
         36:75:38:08:aa:6c:48:32:fc:85:ef:f2:56:17:02:3b:e3:29:
         75:02:21:00:90:49:aa:e2:cd:06:69:ca:4a:8d:43:2b:6d:21:
         3e:48:d8:75:fa:be:c0:ee:e8:cc:59:8f:a6:45:cd:f1:9b:f7
-----BEGIN CERTIFICATE-----
MIICCTCCAa6gAwIBAgIBMjAKBggqhkjOPQQDAjCBpzEfMB0GA1UEAwwWUmVnaW9u
ZSBFbWlsaWFfUm9tYWduYTELMAkGA1UEBhMCSVQxDzANBgNVBAgMBkl0YWxpYTEY
MBYGA1UECgwPRS1Wb3Rpbmcgc3lzdGVtMSIwIAYDVQQLDBlFLVZvdGluZyBzeXN0
ZW0gYXV0aG9yaXR5MSgwJgYJKoZIhvcNAQkBFhlFbWlsaWFfUm9tYWduYUBldm90
aW5nLml0MB4XDTIyMDgyNjE1MjEyNloXDTIzMDgyNjE1MjEyNlowUTEQMA4GA1UE
AwwHQ2xheXRvbjELMAkGA1UEBhMCSVQxDzANBgNVBAgMBkl0YWxpYTEfMB0GA1UE
CgwWUmVnaW9uZSBFbWlsaWFfUm9tYWduYTBWMBAGByqGSM49AgEGBSuBBAAKA0IA
BNW11ybE+kn9yr3HMXCEjwdjuPW7DwsuB3HQ0x/tYQc7RO824I+mjVwzx+EZGR0q
I5AFcfCNXkpYSrmcx1UOfBqjIzAhMA4GA1UdDwEB/wQEAwIFoDAPBgNVHRMBAf8E
BTADAgEDMAoGCCqGSM49BAMCA0kAMEYCIQC9//ltGAy058rdcLRUNnU4CKpsSDL8
he/yVhcCO+MpdQIhAJBJquLNBmnKSo1DK20hPkjYdfq+wO7ozFmPpkXN8Zv3
-----END CERTIFICATE-----
