Certificate:
    Data:
        Version: 3 (0x2)
        Serial Number: 44 (0x2c)
        Signature Algorithm: ecdsa-with-SHA256
        Issuer: CN=Regione Liguria, C=IT, ST=Italia, O=E-Voting system, OU=E-Voting system authority/emailAddress=Liguria@evoting.it
        Validity
            Not Before: Aug 26 15:20:46 2022 GMT
            Not After : Aug 26 15:20:46 2023 GMT
        Subject: CN=Cleo, C=IT, ST=Italia, O=Regione Liguria
        Subject Public Key Info:
            Public Key Algorithm: id-ecPublicKey
                Public-Key: (256 bit)
                pub:
                    04:e4:26:ff:c7:36:24:4f:e0:74:49:e3:89:56:b1:
                    41:d1:e8:6e:05:d1:4d:5f:60:75:c3:70:a2:78:be:
                    f9:e9:87:b3:0f:40:6c:00:7a:d9:a0:17:6a:6e:2a:
                    d6:64:5b:02:69:b0:4e:0e:bb:92:a1:15:9b:b2:36:
                    f1:55:fc:73:46
                ASN1 OID: secp256k1
        X509v3 extensions:
            X509v3 Key Usage: critical
                Digital Signature, Key Encipherment
            X509v3 Basic Constraints: critical
                CA:FALSE, pathlen:3
    Signature Algorithm: ecdsa-with-SHA256
         30:46:02:21:00:d4:24:82:e6:8f:4b:3f:20:a7:5c:d4:c3:21:
         82:c8:26:57:cd:e2:5e:13:b7:1b:22:81:df:ff:54:ca:07:b7:
         10:02:21:00:ea:32:07:40:ea:42:41:ff:7a:79:d2:5f:e6:0b:
         f7:58:b6:99:2f:25:97:b3:f3:a8:8c:08:21:36:56:a9:87:a8
-----BEGIN CERTIFICATE-----
MIIB8TCCAZagAwIBAgIBLDAKBggqhkjOPQQDAjCBmTEYMBYGA1UEAwwPUmVnaW9u
ZSBMaWd1cmlhMQswCQYDVQQGEwJJVDEPMA0GA1UECAwGSXRhbGlhMRgwFgYDVQQK
DA9FLVZvdGluZyBzeXN0ZW0xIjAgBgNVBAsMGUUtVm90aW5nIHN5c3RlbSBhdXRo
b3JpdHkxITAfBgkqhkiG9w0BCQEWEkxpZ3VyaWFAZXZvdGluZy5pdDAeFw0yMjA4
MjYxNTIwNDZaFw0yMzA4MjYxNTIwNDZaMEcxDTALBgNVBAMMBENsZW8xCzAJBgNV
BAYTAklUMQ8wDQYDVQQIDAZJdGFsaWExGDAWBgNVBAoMD1JlZ2lvbmUgTGlndXJp
YTBWMBAGByqGSM49AgEGBSuBBAAKA0IABOQm/8c2JE/gdEnjiVaxQdHobgXRTV9g
dcNwoni++emHsw9AbAB62aAXam4q1mRbAmmwTg67kqEVm7I28VX8c0ajIzAhMA4G
A1UdDwEB/wQEAwIFoDAPBgNVHRMBAf8EBTADAgEDMAoGCCqGSM49BAMCA0kAMEYC
IQDUJILmj0s/IKdc1MMhgsgmV83iXhO3GyKB3/9Uyge3EAIhAOoyB0DqQkH/ennS
X+YL91i2mS8ll7PzqIwIITZWqYeo
-----END CERTIFICATE-----
