Certificate:
    Data:
        Version: 3 (0x2)
        Serial Number: 40 (0x28)
        Signature Algorithm: ecdsa-with-SHA256
        Issuer: CN=Regione Friuli_Venezia_Giulia, C=IT, ST=Italia, O=E-Voting system, OU=E-Voting system authority/emailAddress=Friuli_Venezia_Giulia@evoting.it
        Validity
            Not Before: Aug  3 13:28:04 2022 GMT
            Not After : Aug  3 13:28:04 2023 GMT
        Subject: CN=Cleotilde, C=IT, ST=Italia, O=Regione Friuli_Venezia_Giulia
        Subject Public Key Info:
            Public Key Algorithm: id-ecPublicKey
                Public-Key: (256 bit)
                pub:
                    04:02:e3:9d:e5:14:39:ad:3d:1c:1a:24:6a:f7:4c:
                    0e:31:7e:7f:34:8c:60:42:38:70:26:6f:6c:59:fa:
                    f7:22:e1:b8:1f:81:be:e6:f6:3e:15:28:94:e6:28:
                    e1:29:0a:52:33:3e:ef:d2:b1:e7:8f:e4:1d:0e:08:
                    c4:92:a6:d7:26
                ASN1 OID: prime256v1
                NIST CURVE: P-256
        X509v3 extensions:
            X509v3 Key Usage: critical
                Digital Signature, Key Encipherment
            X509v3 Basic Constraints: critical
                CA:FALSE, pathlen:3
    Signature Algorithm: ecdsa-with-SHA256
         30:45:02:21:00:ef:f6:95:d8:7a:2a:d6:a2:7f:c7:33:b7:cd:
         18:b8:fd:a7:57:d8:50:39:36:07:3a:f8:c4:1d:03:e1:ac:80:
         9e:02:20:5b:fc:ec:d3:36:63:dc:d2:f3:b7:3c:ca:51:e6:91:
         12:f1:74:8f:c5:27:ff:57:dc:ec:6e:8a:06:e9:0f:a2:b3
-----BEGIN CERTIFICATE-----
MIICIjCCAcigAwIBAgIBKDAKBggqhkjOPQQDAjCBtTEmMCQGA1UEAwwdUmVnaW9u
ZSBGcml1bGlfVmVuZXppYV9HaXVsaWExCzAJBgNVBAYTAklUMQ8wDQYDVQQIDAZJ
dGFsaWExGDAWBgNVBAoMD0UtVm90aW5nIHN5c3RlbTEiMCAGA1UECwwZRS1Wb3Rp
bmcgc3lzdGVtIGF1dGhvcml0eTEvMC0GCSqGSIb3DQEJARYgRnJpdWxpX1ZlbmV6
aWFfR2l1bGlhQGV2b3RpbmcuaXQwHhcNMjIwODAzMTMyODA0WhcNMjMwODAzMTMy
ODA0WjBaMRIwEAYDVQQDDAlDbGVvdGlsZGUxCzAJBgNVBAYTAklUMQ8wDQYDVQQI
DAZJdGFsaWExJjAkBgNVBAoMHVJlZ2lvbmUgRnJpdWxpX1ZlbmV6aWFfR2l1bGlh
MFkwEwYHKoZIzj0CAQYIKoZIzj0DAQcDQgAEAuOd5RQ5rT0cGiRq90wOMX5/NIxg
QjhwJm9sWfr3IuG4H4G+5vY+FSiU5ijhKQpSMz7v0rHnj+QdDgjEkqbXJqMjMCEw
DgYDVR0PAQH/BAQDAgWgMA8GA1UdEwEB/wQFMAMCAQMwCgYIKoZIzj0EAwIDSAAw
RQIhAO/2ldh6Ktaif8czt80YuP2nV9hQOTYHOvjEHQPhrICeAiBb/OzTNmPc0vO3
PMpR5pES8XSPxSf/V9zsbooG6Q+isw==
-----END CERTIFICATE-----
