Certificate:
    Data:
        Version: 3 (0x2)
        Serial Number: 30 (0x1e)
        Signature Algorithm: ecdsa-with-SHA256
        Issuer: CN=Regione Valle_d_Aosta, C=IT, ST=Italia, O=E-Voting system, OU=E-Voting system authority/emailAddress=Valle_d_Aosta@evoting.it
        Validity
            Not Before: Aug 26 15:20:32 2022 GMT
            Not After : Aug 26 15:20:32 2023 GMT
        Subject: CN=Clifford, C=IT, ST=Italia, O=Regione Valle_d_Aosta
        Subject Public Key Info:
            Public Key Algorithm: id-ecPublicKey
                Public-Key: (256 bit)
                pub:
                    04:f4:8c:02:2b:b4:42:15:da:d3:aa:a4:c4:a4:d3:
                    d9:01:20:c8:4e:f9:66:13:2c:88:fd:46:d3:df:e2:
                    94:a1:40:0a:78:27:4c:11:ee:05:cf:9b:a9:d3:4c:
                    46:d1:a7:13:25:14:9c:45:06:36:84:0e:ee:c8:97:
                    21:11:19:49:5a
                ASN1 OID: secp256k1
        X509v3 extensions:
            X509v3 Key Usage: critical
                Digital Signature, Key Encipherment
            X509v3 Basic Constraints: critical
                CA:FALSE, pathlen:3
    Signature Algorithm: ecdsa-with-SHA256
         30:46:02:21:00:8f:63:83:fe:2a:50:75:5d:96:52:b5:ed:00:
         85:b4:b4:a4:10:f8:79:ff:2c:25:2c:45:d2:df:00:77:ce:f3:
         8f:02:21:00:98:72:93:09:df:1a:24:be:33:c1:d2:d3:d3:f4:
         bb:82:86:19:97:11:66:ea:f9:09:f9:54:4e:a4:4c:ea:4d:cd
-----BEGIN CERTIFICATE-----
MIICBzCCAaygAwIBAgIBHjAKBggqhkjOPQQDAjCBpTEeMBwGA1UEAwwVUmVnaW9u
ZSBWYWxsZV9kX0Fvc3RhMQswCQYDVQQGEwJJVDEPMA0GA1UECAwGSXRhbGlhMRgw
FgYDVQQKDA9FLVZvdGluZyBzeXN0ZW0xIjAgBgNVBAsMGUUtVm90aW5nIHN5c3Rl
bSBhdXRob3JpdHkxJzAlBgkqhkiG9w0BCQEWGFZhbGxlX2RfQW9zdGFAZXZvdGlu
Zy5pdDAeFw0yMjA4MjYxNTIwMzJaFw0yMzA4MjYxNTIwMzJaMFExETAPBgNVBAMM
CENsaWZmb3JkMQswCQYDVQQGEwJJVDEPMA0GA1UECAwGSXRhbGlhMR4wHAYDVQQK
DBVSZWdpb25lIFZhbGxlX2RfQW9zdGEwVjAQBgcqhkjOPQIBBgUrgQQACgNCAAT0
jAIrtEIV2tOqpMSk09kBIMhO+WYTLIj9RtPf4pShQAp4J0wR7gXPm6nTTEbRpxMl
FJxFBjaEDu7IlyERGUlaoyMwITAOBgNVHQ8BAf8EBAMCBaAwDwYDVR0TAQH/BAUw
AwIBAzAKBggqhkjOPQQDAgNJADBGAiEAj2OD/ipQdV2WUrXtAIW0tKQQ+Hn/LCUs
RdLfAHfO848CIQCYcpMJ3xokvjPB0tPT9LuChhmXEWbq+Qn5VE6kTOpNzQ==
-----END CERTIFICATE-----
