Certificate:
    Data:
        Version: 3 (0x2)
        Serial Number: 1 (0x1)
        Signature Algorithm: ecdsa-with-SHA256
        Issuer: CN=Regione Valle_d_Aosta, C=IT, ST=Italia, O=E-Voting system, OU=E-Voting system authority/emailAddress=Valle_d_Aosta@evoting.it
        Validity
            Not Before: Aug  3 13:25:45 2022 GMT
            Not After : Aug  3 13:25:45 2023 GMT
        Subject: CN=Clifton, C=IT, ST=Italia, O=Regione Valle_d_Aosta
        Subject Public Key Info:
            Public Key Algorithm: id-ecPublicKey
                Public-Key: (256 bit)
                pub:
                    04:dc:ea:81:d3:2a:af:1b:7f:04:56:28:8b:23:a1:
                    14:8d:30:ad:d1:e0:12:02:90:75:57:15:d6:79:31:
                    bd:55:18:b3:78:58:a3:7d:bd:22:6f:3f:8a:58:46:
                    73:d5:4c:8a:6d:5a:8e:c9:5d:5d:c3:44:1d:12:63:
                    ad:9c:8f:99:39
                ASN1 OID: prime256v1
                NIST CURVE: P-256
        X509v3 extensions:
            X509v3 Key Usage: critical
                Digital Signature, Key Encipherment
            X509v3 Basic Constraints: critical
                CA:FALSE, pathlen:3
    Signature Algorithm: ecdsa-with-SHA256
         30:46:02:21:00:c6:d5:49:44:ed:e5:9a:f7:b2:ba:8d:33:0b:
         b4:9f:20:0a:dd:36:4e:6f:8d:d7:b3:d1:53:a9:03:a3:79:50:
         b7:02:21:00:f1:d3:24:66:d5:88:89:fb:20:e3:00:0b:24:a9:
         ec:68:ae:85:c1:6b:27:bd:b3:31:fa:b0:5e:c9:79:e3:8c:a2
-----BEGIN CERTIFICATE-----
MIICCTCCAa6gAwIBAgIBATAKBggqhkjOPQQDAjCBpTEeMBwGA1UEAwwVUmVnaW9u
ZSBWYWxsZV9kX0Fvc3RhMQswCQYDVQQGEwJJVDEPMA0GA1UECAwGSXRhbGlhMRgw
FgYDVQQKDA9FLVZvdGluZyBzeXN0ZW0xIjAgBgNVBAsMGUUtVm90aW5nIHN5c3Rl
bSBhdXRob3JpdHkxJzAlBgkqhkiG9w0BCQEWGFZhbGxlX2RfQW9zdGFAZXZvdGlu
Zy5pdDAeFw0yMjA4MDMxMzI1NDVaFw0yMzA4MDMxMzI1NDVaMFAxEDAOBgNVBAMM
B0NsaWZ0b24xCzAJBgNVBAYTAklUMQ8wDQYDVQQIDAZJdGFsaWExHjAcBgNVBAoM
FVJlZ2lvbmUgVmFsbGVfZF9Bb3N0YTBZMBMGByqGSM49AgEGCCqGSM49AwEHA0IA
BNzqgdMqrxt/BFYoiyOhFI0wrdHgEgKQdVcV1nkxvVUYs3hYo329Im8/ilhGc9VM
im1ajsldXcNEHRJjrZyPmTmjIzAhMA4GA1UdDwEB/wQEAwIFoDAPBgNVHRMBAf8E
BTADAgEDMAoGCCqGSM49BAMCA0kAMEYCIQDG1UlE7eWa97K6jTMLtJ8gCt02Tm+N
17PRU6kDo3lQtwIhAPHTJGbViIn7IOMACySp7GiuhcFrJ72zMfqwXsl544yi
-----END CERTIFICATE-----
