Certificate:
    Data:
        Version: 3 (0x2)
        Serial Number: 18 (0x12)
        Signature Algorithm: ecdsa-with-SHA256
        Issuer: CN=Regione Trentino_Alto_Adige, C=IT, ST=Italia, O=E-Voting system, OU=E-Voting system authority/emailAddress=Trentino_Alto_Adige@evoting.it
        Validity
            Not Before: Aug 26 15:19:47 2022 GMT
            Not After : Aug 26 15:19:47 2023 GMT
        Subject: CN=Clifton, C=IT, ST=Italia, O=Regione Trentino_Alto_Adige
        Subject Public Key Info:
            Public Key Algorithm: id-ecPublicKey
                Public-Key: (256 bit)
                pub:
                    04:7e:93:11:0d:49:c3:ea:24:0c:2f:59:39:53:b0:
                    c4:12:75:e6:92:0b:3c:71:72:91:ef:9b:d8:d0:08:
                    43:6c:2e:41:79:66:d0:b4:b9:11:1b:72:e1:d8:d2:
                    67:68:3c:92:06:13:7b:da:28:67:97:5a:44:41:f2:
                    cd:aa:67:4d:d9
                ASN1 OID: secp256k1
        X509v3 extensions:
            X509v3 Key Usage: critical
                Digital Signature, Key Encipherment
            X509v3 Basic Constraints: critical
                CA:FALSE, pathlen:3
    Signature Algorithm: ecdsa-with-SHA256
         30:46:02:21:00:e6:43:0a:0b:35:06:48:37:47:fe:47:cc:e3:
         32:88:c5:2b:41:4d:7f:e9:f3:0a:2d:bb:da:6b:31:44:18:2f:
         78:02:21:00:ac:c3:88:2c:53:06:7e:0d:ac:5a:fe:74:c6:22:
         a1:f8:01:68:9e:2b:96:6f:d6:2f:08:f7:06:63:4f:d1:8b:ed
-----BEGIN CERTIFICATE-----
MIICGDCCAb2gAwIBAgIBEjAKBggqhkjOPQQDAjCBsTEkMCIGA1UEAwwbUmVnaW9u
ZSBUcmVudGlub19BbHRvX0FkaWdlMQswCQYDVQQGEwJJVDEPMA0GA1UECAwGSXRh
bGlhMRgwFgYDVQQKDA9FLVZvdGluZyBzeXN0ZW0xIjAgBgNVBAsMGUUtVm90aW5n
IHN5c3RlbSBhdXRob3JpdHkxLTArBgkqhkiG9w0BCQEWHlRyZW50aW5vX0FsdG9f
QWRpZ2VAZXZvdGluZy5pdDAeFw0yMjA4MjYxNTE5NDdaFw0yMzA4MjYxNTE5NDda
MFYxEDAOBgNVBAMMB0NsaWZ0b24xCzAJBgNVBAYTAklUMQ8wDQYDVQQIDAZJdGFs
aWExJDAiBgNVBAoMG1JlZ2lvbmUgVHJlbnRpbm9fQWx0b19BZGlnZTBWMBAGByqG
SM49AgEGBSuBBAAKA0IABH6TEQ1Jw+okDC9ZOVOwxBJ15pILPHFyke+b2NAIQ2wu
QXlm0LS5ERty4djSZ2g8kgYTe9ooZ5daREHyzapnTdmjIzAhMA4GA1UdDwEB/wQE
AwIFoDAPBgNVHRMBAf8EBTADAgEDMAoGCCqGSM49BAMCA0kAMEYCIQDmQwoLNQZI
N0f+R8zjMojFK0FNf+nzCi272msxRBgveAIhAKzDiCxTBn4NrFr+dMYiofgBaJ4r
lm/WLwj3BmNP0Yvt
-----END CERTIFICATE-----
