Certificate:
    Data:
        Version: 3 (0x2)
        Serial Number: 47 (0x2f)
        Signature Algorithm: ecdsa-with-SHA256
        Issuer: CN=Regione Lazio, C=IT, ST=Italia, O=E-Voting system, OU=E-Voting system authority/emailAddress=Lazio@evoting.it
        Validity
            Not Before: Aug  3 13:28:17 2022 GMT
            Not After : Aug  3 13:28:17 2023 GMT
        Subject: CN=Clint, C=IT, ST=Italia, O=Regione Lazio
        Subject Public Key Info:
            Public Key Algorithm: id-ecPublicKey
                Public-Key: (256 bit)
                pub:
                    04:1a:a0:99:6d:cf:9e:47:77:7c:d0:c7:0d:aa:0d:
                    cd:63:2b:34:8d:37:5a:16:fe:24:4a:49:f8:fa:e7:
                    a3:5f:e3:36:09:05:55:db:01:5a:0a:23:a6:5a:05:
                    58:7b:e8:67:06:72:ad:83:20:f0:c5:c3:2e:4b:ac:
                    70:d3:85:d1:4a
                ASN1 OID: prime256v1
                NIST CURVE: P-256
        X509v3 extensions:
            X509v3 Key Usage: critical
                Digital Signature, Key Encipherment
            X509v3 Basic Constraints: critical
                CA:FALSE, pathlen:3
    Signature Algorithm: ecdsa-with-SHA256
         30:44:02:20:0c:25:d9:ff:15:8d:b8:04:dd:c3:11:28:63:00:
         57:a7:b3:bb:e6:b8:57:f0:c5:7c:5b:b2:88:2e:74:a2:39:2a:
         02:20:2c:e5:5d:da:2e:a8:fa:75:4d:29:ff:eb:21:fe:94:62:
         36:40:32:15:8b:21:e7:06:b4:51:9a:54:31:62:97:7a
-----BEGIN CERTIFICATE-----
MIIB7TCCAZSgAwIBAgIBLzAKBggqhkjOPQQDAjCBlTEWMBQGA1UEAwwNUmVnaW9u
ZSBMYXppbzELMAkGA1UEBhMCSVQxDzANBgNVBAgMBkl0YWxpYTEYMBYGA1UECgwP
RS1Wb3Rpbmcgc3lzdGVtMSIwIAYDVQQLDBlFLVZvdGluZyBzeXN0ZW0gYXV0aG9y
aXR5MR8wHQYJKoZIhvcNAQkBFhBMYXppb0Bldm90aW5nLml0MB4XDTIyMDgwMzEz
MjgxN1oXDTIzMDgwMzEzMjgxN1owRjEOMAwGA1UEAwwFQ2xpbnQxCzAJBgNVBAYT
AklUMQ8wDQYDVQQIDAZJdGFsaWExFjAUBgNVBAoMDVJlZ2lvbmUgTGF6aW8wWTAT
BgcqhkjOPQIBBggqhkjOPQMBBwNCAAQaoJltz55Hd3zQxw2qDc1jKzSNN1oW/iRK
Sfj656Nf4zYJBVXbAVoKI6ZaBVh76GcGcq2DIPDFwy5LrHDThdFKoyMwITAOBgNV
HQ8BAf8EBAMCBaAwDwYDVR0TAQH/BAUwAwIBAzAKBggqhkjOPQQDAgNHADBEAiAM
Jdn/FY24BN3DEShjAFens7vmuFfwxXxbsogudKI5KgIgLOVd2i6o+nVNKf/rIf6U
YjZAMhWLIecGtFGaVDFil3o=
-----END CERTIFICATE-----
