Certificate:
    Data:
        Version: 3 (0x2)
        Serial Number: 51 (0x33)
        Signature Algorithm: ecdsa-with-SHA256
        Issuer: CN=Regione Piemonte, C=IT, ST=Italia, O=E-Voting system, OU=E-Voting system authority/emailAddress=Piemonte@evoting.it
        Validity
            Not Before: Aug  3 13:27:36 2022 GMT
            Not After : Aug  3 13:27:36 2023 GMT
        Subject: CN=Cody, C=IT, ST=Italia, O=Regione Piemonte
        Subject Public Key Info:
            Public Key Algorithm: id-ecPublicKey
                Public-Key: (256 bit)
                pub:
                    04:99:4b:69:39:e5:c9:e1:ff:29:39:a3:4b:d0:45:
                    0a:76:8a:87:7f:29:e3:7d:6d:9c:2a:ed:4e:f1:fa:
                    eb:a8:c2:ac:38:bd:39:81:6a:09:4c:80:30:48:99:
                    5f:a2:f3:c7:e1:b7:e0:af:6e:a7:8b:5f:40:7c:4b:
                    41:ac:62:3d:c7
                ASN1 OID: prime256v1
                NIST CURVE: P-256
        X509v3 extensions:
            X509v3 Key Usage: critical
                Digital Signature, Key Encipherment
            X509v3 Basic Constraints: critical
                CA:FALSE, pathlen:3
    Signature Algorithm: ecdsa-with-SHA256
         30:46:02:21:00:cc:70:97:2d:b5:dc:c6:1b:2f:45:68:07:7c:
         04:ea:7b:33:62:a6:b9:33:bb:3c:23:a6:69:bb:4f:b8:7f:eb:
         ac:02:21:00:cf:10:31:78:20:0a:bd:39:11:44:56:7a:9e:84:
         47:17:e6:cc:e5:5d:e3:85:bd:ad:16:c7:43:0d:56:2e:7b:2a
-----BEGIN CERTIFICATE-----
MIIB9zCCAZygAwIBAgIBMzAKBggqhkjOPQQDAjCBmzEZMBcGA1UEAwwQUmVnaW9u
ZSBQaWVtb250ZTELMAkGA1UEBhMCSVQxDzANBgNVBAgMBkl0YWxpYTEYMBYGA1UE
CgwPRS1Wb3Rpbmcgc3lzdGVtMSIwIAYDVQQLDBlFLVZvdGluZyBzeXN0ZW0gYXV0
aG9yaXR5MSIwIAYJKoZIhvcNAQkBFhNQaWVtb250ZUBldm90aW5nLml0MB4XDTIy
MDgwMzEzMjczNloXDTIzMDgwMzEzMjczNlowSDENMAsGA1UEAwwEQ29keTELMAkG
A1UEBhMCSVQxDzANBgNVBAgMBkl0YWxpYTEZMBcGA1UECgwQUmVnaW9uZSBQaWVt
b250ZTBZMBMGByqGSM49AgEGCCqGSM49AwEHA0IABJlLaTnlyeH/KTmjS9BFCnaK
h38p431tnCrtTvH666jCrDi9OYFqCUyAMEiZX6Lzx+G34K9up4tfQHxLQaxiPcej
IzAhMA4GA1UdDwEB/wQEAwIFoDAPBgNVHRMBAf8EBTADAgEDMAoGCCqGSM49BAMC
A0kAMEYCIQDMcJcttdzGGy9FaAd8BOp7M2KmuTO7PCOmabtPuH/rrAIhAM8QMXgg
Cr05EURWep6ERxfmzOVd44W9rRbHQw1WLnsq
-----END CERTIFICATE-----
