Certificate:
    Data:
        Version: 3 (0x2)
        Serial Number: 44 (0x2c)
        Signature Algorithm: ecdsa-with-SHA256
        Issuer: CN=Regione Abruzzo, C=IT, ST=Italia, O=E-Voting system, OU=E-Voting system authority/emailAddress=Abruzzo@evoting.it
        Validity
            Not Before: Aug 26 15:21:26 2022 GMT
            Not After : Aug 26 15:21:26 2023 GMT
        Subject: CN=Colby, C=IT, ST=Italia, O=Regione Abruzzo
        Subject Public Key Info:
            Public Key Algorithm: id-ecPublicKey
                Public-Key: (256 bit)
                pub:
                    04:8f:83:81:7b:79:e3:19:f9:68:f1:ea:d1:05:c8:
                    43:38:fa:40:55:40:8c:9d:ad:ad:50:59:cf:fa:cc:
                    e9:5e:fc:2a:c3:bf:d0:c8:36:d4:49:71:5d:6a:d4:
                    49:7b:a7:f3:4b:ca:85:a7:87:bf:3e:1f:98:af:87:
                    36:e8:95:f9:b4
                ASN1 OID: secp256k1
        X509v3 extensions:
            X509v3 Key Usage: critical
                Digital Signature, Key Encipherment
            X509v3 Basic Constraints: critical
                CA:FALSE, pathlen:3
    Signature Algorithm: ecdsa-with-SHA256
         30:45:02:21:00:9a:98:b5:98:b7:cb:15:4f:59:fd:fb:a2:4e:
         01:e9:cd:54:4d:f1:47:2d:33:c3:f3:c0:5e:42:65:b3:ea:31:
         50:02:20:31:85:f2:5e:b8:c6:21:96:89:b1:4c:8f:4e:8d:f0:
         e3:b9:b7:f6:a1:4e:cb:8f:09:9a:46:7e:35:e8:c5:99:d9
-----BEGIN CERTIFICATE-----
MIIB8TCCAZegAwIBAgIBLDAKBggqhkjOPQQDAjCBmTEYMBYGA1UEAwwPUmVnaW9u
ZSBBYnJ1enpvMQswCQYDVQQGEwJJVDEPMA0GA1UECAwGSXRhbGlhMRgwFgYDVQQK
DA9FLVZvdGluZyBzeXN0ZW0xIjAgBgNVBAsMGUUtVm90aW5nIHN5c3RlbSBhdXRo
b3JpdHkxITAfBgkqhkiG9w0BCQEWEkFicnV6em9AZXZvdGluZy5pdDAeFw0yMjA4
MjYxNTIxMjZaFw0yMzA4MjYxNTIxMjZaMEgxDjAMBgNVBAMMBUNvbGJ5MQswCQYD
VQQGEwJJVDEPMA0GA1UECAwGSXRhbGlhMRgwFgYDVQQKDA9SZWdpb25lIEFicnV6
em8wVjAQBgcqhkjOPQIBBgUrgQQACgNCAASPg4F7eeMZ+Wjx6tEFyEM4+kBVQIyd
ra1QWc/6zOle/CrDv9DINtRJcV1q1El7p/NLyoWnh78+H5ivhzbolfm0oyMwITAO
BgNVHQ8BAf8EBAMCBaAwDwYDVR0TAQH/BAUwAwIBAzAKBggqhkjOPQQDAgNIADBF
AiEAmpi1mLfLFU9Z/fuiTgHpzVRN8UctM8PzwF5CZbPqMVACIDGF8l64xiGWibFM
j06N8OO5t/ahTsuPCZpGfjXoxZnZ
-----END CERTIFICATE-----
