Certificate:
    Data:
        Version: 3 (0x2)
        Serial Number: 2 (0x2)
        Signature Algorithm: ecdsa-with-SHA256
        Issuer: CN=Regione Campania, C=IT, ST=Italia, O=E-Voting system, OU=E-Voting system authority/emailAddress=Campania@evoting.it
        Validity
            Not Before: Aug 26 15:18:25 2022 GMT
            Not After : Aug 26 15:18:25 2023 GMT
        Subject: CN=Colleen, C=IT, ST=Italia, O=Regione Campania
        Subject Public Key Info:
            Public Key Algorithm: id-ecPublicKey
                Public-Key: (256 bit)
                pub:
                    04:5d:92:e3:9b:77:0c:b1:3b:2d:c3:0a:fc:06:64:
                    51:61:b8:98:cb:1d:22:8b:da:27:84:47:de:ce:52:
                    f1:15:c5:51:20:19:a8:47:42:57:7c:fb:10:86:32:
                    22:64:77:aa:da:e6:fb:c8:39:8b:11:29:7a:e2:c1:
                    f5:39:8c:a7:31
                ASN1 OID: secp256k1
        X509v3 extensions:
            X509v3 Key Usage: critical
                Digital Signature, Key Encipherment
            X509v3 Basic Constraints: critical
                CA:FALSE, pathlen:3
    Signature Algorithm: ecdsa-with-SHA256
         30:45:02:20:58:e6:41:9e:a6:eb:80:fe:0c:5b:da:e1:8d:32:
         c4:4a:fa:3f:84:17:4d:b5:54:65:bf:74:1b:79:40:eb:95:48:
         02:21:00:ec:3a:9c:36:e4:cc:7d:fd:2f:14:5d:ae:2e:ff:f5:
         23:95:1f:3a:e7:4c:11:10:5a:ed:0f:32:01:58:87:81:cc
-----BEGIN CERTIFICATE-----
MIIB9jCCAZygAwIBAgIBAjAKBggqhkjOPQQDAjCBmzEZMBcGA1UEAwwQUmVnaW9u
ZSBDYW1wYW5pYTELMAkGA1UEBhMCSVQxDzANBgNVBAgMBkl0YWxpYTEYMBYGA1UE
CgwPRS1Wb3Rpbmcgc3lzdGVtMSIwIAYDVQQLDBlFLVZvdGluZyBzeXN0ZW0gYXV0
aG9yaXR5MSIwIAYJKoZIhvcNAQkBFhNDYW1wYW5pYUBldm90aW5nLml0MB4XDTIy
MDgyNjE1MTgyNVoXDTIzMDgyNjE1MTgyNVowSzEQMA4GA1UEAwwHQ29sbGVlbjEL
MAkGA1UEBhMCSVQxDzANBgNVBAgMBkl0YWxpYTEZMBcGA1UECgwQUmVnaW9uZSBD
YW1wYW5pYTBWMBAGByqGSM49AgEGBSuBBAAKA0IABF2S45t3DLE7LcMK/AZkUWG4
mMsdIovaJ4RH3s5S8RXFUSAZqEdCV3z7EIYyImR3qtrm+8g5ixEpeuLB9TmMpzGj
IzAhMA4GA1UdDwEB/wQEAwIFoDAPBgNVHRMBAf8EBTADAgEDMAoGCCqGSM49BAMC
A0gAMEUCIFjmQZ6m64D+DFva4Y0yxEr6P4QXTbVUZb90G3lA65VIAiEA7DqcNuTM
ff0vFF2uLv/1I5UfOudMERBa7Q8yAViHgcw=
-----END CERTIFICATE-----
