Certificate:
    Data:
        Version: 3 (0x2)
        Serial Number: 42 (0x2a)
        Signature Algorithm: ecdsa-with-SHA256
        Issuer: CN=Regione Sardegna, C=IT, ST=Italia, O=E-Voting system, OU=E-Voting system authority/emailAddress=Sardegna@evoting.it
        Validity
            Not Before: Aug 26 15:21:24 2022 GMT
            Not After : Aug 26 15:21:24 2023 GMT
        Subject: CN=Connie, C=IT, ST=Italia, O=Regione Sardegna
        Subject Public Key Info:
            Public Key Algorithm: id-ecPublicKey
                Public-Key: (256 bit)
                pub:
                    04:74:7a:9d:1f:58:7d:14:32:51:9c:c7:45:fc:ba:
                    87:37:55:f1:83:c4:c7:65:23:30:b0:73:f1:05:65:
                    0b:0d:0a:0b:97:1e:07:30:19:bb:56:b8:71:00:28:
                    6f:8f:a5:c0:75:96:83:24:21:5b:9b:45:00:18:65:
                    a7:1c:84:a4:c4
                ASN1 OID: secp256k1
        X509v3 extensions:
            X509v3 Key Usage: critical
                Digital Signature, Key Encipherment
            X509v3 Basic Constraints: critical
                CA:FALSE, pathlen:3
    Signature Algorithm: ecdsa-with-SHA256
         30:44:02:20:60:b0:55:33:e1:0e:20:93:bb:32:88:cd:9a:30:
         f5:56:3b:4f:52:13:d6:0d:5b:03:11:44:3d:58:21:5c:95:85:
         02:20:1a:3e:30:68:da:1e:da:36:05:9b:d0:97:af:fa:67:1e:
         6b:5e:88:13:cf:91:13:b6:dd:a6:68:f3:53:1c:94:b1
-----BEGIN CERTIFICATE-----
MIIB9DCCAZugAwIBAgIBKjAKBggqhkjOPQQDAjCBmzEZMBcGA1UEAwwQUmVnaW9u
ZSBTYXJkZWduYTELMAkGA1UEBhMCSVQxDzANBgNVBAgMBkl0YWxpYTEYMBYGA1UE
CgwPRS1Wb3Rpbmcgc3lzdGVtMSIwIAYDVQQLDBlFLVZvdGluZyBzeXN0ZW0gYXV0
aG9yaXR5MSIwIAYJKoZIhvcNAQkBFhNTYXJkZWduYUBldm90aW5nLml0MB4XDTIy
MDgyNjE1MjEyNFoXDTIzMDgyNjE1MjEyNFowSjEPMA0GA1UEAwwGQ29ubmllMQsw
CQYDVQQGEwJJVDEPMA0GA1UECAwGSXRhbGlhMRkwFwYDVQQKDBBSZWdpb25lIFNh
cmRlZ25hMFYwEAYHKoZIzj0CAQYFK4EEAAoDQgAEdHqdH1h9FDJRnMdF/LqHN1Xx
g8THZSMwsHPxBWULDQoLlx4HMBm7VrhxAChvj6XAdZaDJCFbm0UAGGWnHISkxKMj
MCEwDgYDVR0PAQH/BAQDAgWgMA8GA1UdEwEB/wQFMAMCAQMwCgYIKoZIzj0EAwID
RwAwRAIgYLBVM+EOIJO7MojNmjD1VjtPUhPWDVsDEUQ9WCFclYUCIBo+MGjaHto2
BZvQl6/6Zx5rXogTz5ETtt2maPNTHJSx
-----END CERTIFICATE-----
