Certificate:
    Data:
        Version: 3 (0x2)
        Serial Number: 36 (0x24)
        Signature Algorithm: ecdsa-with-SHA256
        Issuer: CN=Regione Lombardia, C=IT, ST=Italia, O=E-Voting system, OU=E-Voting system authority/emailAddress=Lombardia@evoting.it
        Validity
            Not Before: Aug  3 13:27:49 2022 GMT
            Not After : Aug  3 13:27:49 2023 GMT
        Subject: CN=Constance, C=IT, ST=Italia, O=Regione Lombardia
        Subject Public Key Info:
            Public Key Algorithm: id-ecPublicKey
                Public-Key: (256 bit)
                pub:
                    04:d3:db:22:a3:d9:52:f2:cf:5c:9b:34:5e:19:2f:
                    d7:02:3e:f5:4b:a3:d8:b0:4f:de:59:9d:f7:8c:0d:
                    88:60:a5:04:bf:b2:c4:3d:3f:e5:68:3e:49:a2:94:
                    65:46:e6:a0:1f:18:c7:29:1b:22:fe:40:45:6d:5f:
                    1e:3b:07:c7:f6
                ASN1 OID: prime256v1
                NIST CURVE: P-256
        X509v3 extensions:
            X509v3 Key Usage: critical
                Digital Signature, Key Encipherment
            X509v3 Basic Constraints: critical
                CA:FALSE, pathlen:3
    Signature Algorithm: ecdsa-with-SHA256
         30:45:02:20:3d:2f:49:07:d6:07:d5:93:44:5f:7a:1c:f4:63:
         30:de:6d:88:9a:0f:57:3b:35:d7:ec:92:dc:38:fd:f9:d2:9b:
         02:21:00:ee:62:cb:dd:e4:97:26:69:91:1e:b2:3b:c6:dc:d2:
         d0:10:a6:ce:02:c3:6d:d7:df:ee:f3:47:26:ce:0f:7e:72
-----BEGIN CERTIFICATE-----
MIIB/jCCAaSgAwIBAgIBJDAKBggqhkjOPQQDAjCBnTEaMBgGA1UEAwwRUmVnaW9u
ZSBMb21iYXJkaWExCzAJBgNVBAYTAklUMQ8wDQYDVQQIDAZJdGFsaWExGDAWBgNV
BAoMD0UtVm90aW5nIHN5c3RlbTEiMCAGA1UECwwZRS1Wb3Rpbmcgc3lzdGVtIGF1
dGhvcml0eTEjMCEGCSqGSIb3DQEJARYUTG9tYmFyZGlhQGV2b3RpbmcuaXQwHhcN
MjIwODAzMTMyNzQ5WhcNMjMwODAzMTMyNzQ5WjBOMRIwEAYDVQQDDAlDb25zdGFu
Y2UxCzAJBgNVBAYTAklUMQ8wDQYDVQQIDAZJdGFsaWExGjAYBgNVBAoMEVJlZ2lv
bmUgTG9tYmFyZGlhMFkwEwYHKoZIzj0CAQYIKoZIzj0DAQcDQgAE09sio9lS8s9c
mzReGS/XAj71S6PYsE/eWZ33jA2IYKUEv7LEPT/laD5JopRlRuagHxjHKRsi/kBF
bV8eOwfH9qMjMCEwDgYDVR0PAQH/BAQDAgWgMA8GA1UdEwEB/wQFMAMCAQMwCgYI
KoZIzj0EAwIDSAAwRQIgPS9JB9YH1ZNEX3oc9GMw3m2Img9XOzXX7JLcOP350psC
IQDuYsvd5JcmaZEesjvG3NLQEKbOAsNt19/u80cmzg9+cg==
-----END CERTIFICATE-----
