Certificate:
    Data:
        Version: 3 (0x2)
        Serial Number: 24 (0x18)
        Signature Algorithm: ecdsa-with-SHA256
        Issuer: CN=Regione Lombardia, C=IT, ST=Italia, O=E-Voting system, OU=E-Voting system authority/emailAddress=Lombardia@evoting.it
        Validity
            Not Before: Aug 26 15:20:22 2022 GMT
            Not After : Aug 26 15:20:22 2023 GMT
        Subject: CN=Constance, C=IT, ST=Italia, O=Regione Lombardia
        Subject Public Key Info:
            Public Key Algorithm: id-ecPublicKey
                Public-Key: (256 bit)
                pub:
                    04:6d:cb:37:0c:08:40:e6:bc:fb:06:7c:48:54:80:
                    2b:ae:4f:a3:90:cd:d0:88:cc:36:31:f2:5d:99:16:
                    ea:9d:b3:8d:2c:6c:3c:26:48:97:9d:18:a6:da:86:
                    b4:e6:9c:b9:d4:dd:8c:35:15:24:1e:00:96:aa:21:
                    cb:48:f4:fc:f4
                ASN1 OID: secp256k1
        X509v3 extensions:
            X509v3 Key Usage: critical
                Digital Signature, Key Encipherment
            X509v3 Basic Constraints: critical
                CA:FALSE, pathlen:3
    Signature Algorithm: ecdsa-with-SHA256
         30:44:02:20:22:af:3d:ef:32:c8:29:72:f4:39:b9:5e:df:3e:
         6c:e5:9e:39:66:c0:62:28:03:2a:ef:ec:0f:3e:91:38:c2:51:
         02:20:65:99:66:10:61:6e:12:0f:a0:62:dc:f9:e4:9c:b0:13:
         33:f9:74:42:05:c9:bb:c1:e0:e6:c2:d7:aa:7e:2e:97
-----BEGIN CERTIFICATE-----
MIIB+jCCAaGgAwIBAgIBGDAKBggqhkjOPQQDAjCBnTEaMBgGA1UEAwwRUmVnaW9u
ZSBMb21iYXJkaWExCzAJBgNVBAYTAklUMQ8wDQYDVQQIDAZJdGFsaWExGDAWBgNV
BAoMD0UtVm90aW5nIHN5c3RlbTEiMCAGA1UECwwZRS1Wb3Rpbmcgc3lzdGVtIGF1
dGhvcml0eTEjMCEGCSqGSIb3DQEJARYUTG9tYmFyZGlhQGV2b3RpbmcuaXQwHhcN
MjIwODI2MTUyMDIyWhcNMjMwODI2MTUyMDIyWjBOMRIwEAYDVQQDDAlDb25zdGFu
Y2UxCzAJBgNVBAYTAklUMQ8wDQYDVQQIDAZJdGFsaWExGjAYBgNVBAoMEVJlZ2lv
bmUgTG9tYmFyZGlhMFYwEAYHKoZIzj0CAQYFK4EEAAoDQgAEbcs3DAhA5rz7BnxI
VIArrk+jkM3QiMw2MfJdmRbqnbONLGw8JkiXnRim2oa05py51N2MNRUkHgCWqiHL
SPT89KMjMCEwDgYDVR0PAQH/BAQDAgWgMA8GA1UdEwEB/wQFMAMCAQMwCgYIKoZI
zj0EAwIDRwAwRAIgIq897zLIKXL0Oble3z5s5Z45ZsBiKAMq7+wPPpE4wlECIGWZ
ZhBhbhIPoGLc+eScsBMz+XRCBcm7weDmwteqfi6X
-----END CERTIFICATE-----
