Certificate:
    Data:
        Version: 3 (0x2)
        Serial Number: 27 (0x1b)
        Signature Algorithm: ecdsa-with-SHA256
        Issuer: CN=Regione Molise, C=IT, ST=Italia, O=E-Voting system, OU=E-Voting system authority/emailAddress=Molise@evoting.it
        Validity
            Not Before: Aug 26 15:20:40 2022 GMT
            Not After : Aug 26 15:20:40 2023 GMT
        Subject: CN=Corey, C=IT, ST=Italia, O=Regione Molise
        Subject Public Key Info:
            Public Key Algorithm: id-ecPublicKey
                Public-Key: (256 bit)
                pub:
                    04:33:7b:fd:67:5f:de:71:13:29:47:b9:c4:5b:81:
                    89:2d:d5:39:be:b3:bf:51:5c:7a:36:56:4b:3d:96:
                    3f:6d:32:75:82:d2:b7:aa:b1:0c:e6:06:c4:c7:23:
                    2a:24:72:51:a1:cb:46:9e:ce:b6:cf:1a:46:97:ab:
                    b8:d3:a5:ce:9d
                ASN1 OID: secp256k1
        X509v3 extensions:
            X509v3 Key Usage: critical
                Digital Signature, Key Encipherment
            X509v3 Basic Constraints: critical
                CA:FALSE, pathlen:3
    Signature Algorithm: ecdsa-with-SHA256
         30:44:02:20:5e:6c:db:23:31:76:64:c4:0e:90:b0:84:59:7a:
         2c:60:57:3a:4c:43:d2:5a:d2:26:b4:65:f1:63:ef:04:27:6f:
         02:20:59:f8:99:5d:65:a8:24:27:1b:db:b2:18:90:98:83:6c:
         66:d9:0b:b6:04:b4:58:d9:6a:a6:d0:ec:ac:1c:87:9f
-----BEGIN CERTIFICATE-----
MIIB7TCCAZSgAwIBAgIBGzAKBggqhkjOPQQDAjCBlzEXMBUGA1UEAwwOUmVnaW9u
ZSBNb2xpc2UxCzAJBgNVBAYTAklUMQ8wDQYDVQQIDAZJdGFsaWExGDAWBgNVBAoM
D0UtVm90aW5nIHN5c3RlbTEiMCAGA1UECwwZRS1Wb3Rpbmcgc3lzdGVtIGF1dGhv
cml0eTEgMB4GCSqGSIb3DQEJARYRTW9saXNlQGV2b3RpbmcuaXQwHhcNMjIwODI2
MTUyMDQwWhcNMjMwODI2MTUyMDQwWjBHMQ4wDAYDVQQDDAVDb3JleTELMAkGA1UE
BhMCSVQxDzANBgNVBAgMBkl0YWxpYTEXMBUGA1UECgwOUmVnaW9uZSBNb2xpc2Uw
VjAQBgcqhkjOPQIBBgUrgQQACgNCAAQze/1nX95xEylHucRbgYkt1Tm+s79RXHo2
Vks9lj9tMnWC0reqsQzmBsTHIyokclGhy0aezrbPGkaXq7jTpc6doyMwITAOBgNV
HQ8BAf8EBAMCBaAwDwYDVR0TAQH/BAUwAwIBAzAKBggqhkjOPQQDAgNHADBEAiBe
bNsjMXZkxA6QsIRZeixgVzpMQ9Ja0ia0ZfFj7wQnbwIgWfiZXWWoJCcb27IYkJiD
bGbZC7YEtFjZaqbQ7Kwch58=
-----END CERTIFICATE-----
