Certificate:
    Data:
        Version: 3 (0x2)
        Serial Number: 16 (0x10)
        Signature Algorithm: ecdsa-with-SHA256
        Issuer: CN=Regione Umbria, C=IT, ST=Italia, O=E-Voting system, OU=E-Voting system authority/emailAddress=Umbria@evoting.it
        Validity
            Not Before: Aug  3 13:26:35 2022 GMT
            Not After : Aug  3 13:26:35 2023 GMT
        Subject: CN=Corinne, C=IT, ST=Italia, O=Regione Umbria
        Subject Public Key Info:
            Public Key Algorithm: id-ecPublicKey
                Public-Key: (256 bit)
                pub:
                    04:b2:3a:ab:fb:85:67:27:2b:bb:60:6b:53:f2:de:
                    28:c7:80:54:1a:97:c6:6f:f9:44:bf:20:19:61:66:
                    06:8b:bb:59:1c:b9:56:b1:17:9d:b3:f4:38:c2:70:
                    0c:e6:80:53:64:f6:8c:24:9a:28:bb:8a:7e:1c:4b:
                    38:0a:ad:1f:de
                ASN1 OID: prime256v1
                NIST CURVE: P-256
        X509v3 extensions:
            X509v3 Key Usage: critical
                Digital Signature, Key Encipherment
            X509v3 Basic Constraints: critical
                CA:FALSE, pathlen:3
    Signature Algorithm: ecdsa-with-SHA256
         30:46:02:21:00:d0:47:e7:ef:5c:f5:bf:b8:eb:c6:19:ea:8f:
         b0:1c:d3:76:58:d5:b1:4a:9f:0d:41:ca:4d:1c:8b:9b:83:f3:
         a5:02:21:00:8b:31:0a:09:f5:29:7e:81:9f:4d:04:01:c2:66:
         65:9f:2a:3b:a1:64:36:97:d7:9d:54:c1:69:ce:7b:da:4a:6d
-----BEGIN CERTIFICATE-----
MIIB9DCCAZmgAwIBAgIBEDAKBggqhkjOPQQDAjCBlzEXMBUGA1UEAwwOUmVnaW9u
ZSBVbWJyaWExCzAJBgNVBAYTAklUMQ8wDQYDVQQIDAZJdGFsaWExGDAWBgNVBAoM
D0UtVm90aW5nIHN5c3RlbTEiMCAGA1UECwwZRS1Wb3Rpbmcgc3lzdGVtIGF1dGhv
cml0eTEgMB4GCSqGSIb3DQEJARYRVW1icmlhQGV2b3RpbmcuaXQwHhcNMjIwODAz
MTMyNjM1WhcNMjMwODAzMTMyNjM1WjBJMRAwDgYDVQQDDAdDb3Jpbm5lMQswCQYD
VQQGEwJJVDEPMA0GA1UECAwGSXRhbGlhMRcwFQYDVQQKDA5SZWdpb25lIFVtYnJp
YTBZMBMGByqGSM49AgEGCCqGSM49AwEHA0IABLI6q/uFZycru2BrU/LeKMeAVBqX
xm/5RL8gGWFmBou7WRy5VrEXnbP0OMJwDOaAU2T2jCSaKLuKfhxLOAqtH96jIzAh
MA4GA1UdDwEB/wQEAwIFoDAPBgNVHRMBAf8EBTADAgEDMAoGCCqGSM49BAMCA0kA
MEYCIQDQR+fvXPW/uOvGGeqPsBzTdljVsUqfDUHKTRyLm4PzpQIhAIsxCgn1KX6B
n00EAcJmZZ8qO6FkNpfXnVTBac572kpt
-----END CERTIFICATE-----
