Certificate:
    Data:
        Version: 3 (0x2)
        Serial Number: 19 (0x13)
        Signature Algorithm: ecdsa-with-SHA256
        Issuer: CN=Regione Liguria, C=IT, ST=Italia, O=E-Voting system, OU=E-Voting system authority/emailAddress=Liguria@evoting.it
        Validity
            Not Before: Aug 26 15:19:10 2022 GMT
            Not After : Aug 26 15:19:10 2023 GMT
        Subject: CN=Cornelia, C=IT, ST=Italia, O=Regione Liguria
        Subject Public Key Info:
            Public Key Algorithm: id-ecPublicKey
                Public-Key: (256 bit)
                pub:
                    04:f6:ac:a7:9a:04:ea:79:8f:af:3e:89:e6:6e:c5:
                    20:9f:29:3d:0f:53:dd:0f:f6:51:82:99:36:16:ee:
                    f3:a8:8c:01:ca:1d:4a:75:95:45:0b:c3:0e:2e:ec:
                    8e:8f:29:67:6d:82:9f:a9:16:94:bc:c4:b5:bd:15:
                    9b:95:7a:cd:b5
                ASN1 OID: secp256k1
        X509v3 extensions:
            X509v3 Key Usage: critical
                Digital Signature, Key Encipherment
            X509v3 Basic Constraints: critical
                CA:FALSE, pathlen:3
    Signature Algorithm: ecdsa-with-SHA256
         30:46:02:21:00:ad:a8:44:9f:bf:22:27:fd:5f:90:5d:3f:4b:
         b7:94:b6:ea:7e:25:fb:9a:27:b0:e7:b4:b9:d3:61:c6:d1:d6:
         a4:02:21:00:d2:62:7f:d1:b7:08:77:57:e6:ce:08:0c:e5:57:
         fc:37:8b:ab:c6:f1:a9:ab:04:3a:fe:f7:53:64:8e:fe:66:23
-----BEGIN CERTIFICATE-----
MIIB9TCCAZqgAwIBAgIBEzAKBggqhkjOPQQDAjCBmTEYMBYGA1UEAwwPUmVnaW9u
ZSBMaWd1cmlhMQswCQYDVQQGEwJJVDEPMA0GA1UECAwGSXRhbGlhMRgwFgYDVQQK
DA9FLVZvdGluZyBzeXN0ZW0xIjAgBgNVBAsMGUUtVm90aW5nIHN5c3RlbSBhdXRo
b3JpdHkxITAfBgkqhkiG9w0BCQEWEkxpZ3VyaWFAZXZvdGluZy5pdDAeFw0yMjA4
MjYxNTE5MTBaFw0yMzA4MjYxNTE5MTBaMEsxETAPBgNVBAMMCENvcm5lbGlhMQsw
CQYDVQQGEwJJVDEPMA0GA1UECAwGSXRhbGlhMRgwFgYDVQQKDA9SZWdpb25lIExp
Z3VyaWEwVjAQBgcqhkjOPQIBBgUrgQQACgNCAAT2rKeaBOp5j68+ieZuxSCfKT0P
U90P9lGCmTYW7vOojAHKHUp1lUULww4u7I6PKWdtgp+pFpS8xLW9FZuVes21oyMw
ITAOBgNVHQ8BAf8EBAMCBaAwDwYDVR0TAQH/BAUwAwIBAzAKBggqhkjOPQQDAgNJ
ADBGAiEArahEn78iJ/1fkF0/S7eUtup+JfuaJ7DntLnTYcbR1qQCIQDSYn/Rtwh3
V+bOCAzlV/w3i6vG8amrBDr+91Nkjv5mIw==
-----END CERTIFICATE-----
