Certificate:
    Data:
        Version: 3 (0x2)
        Serial Number: 32 (0x20)
        Signature Algorithm: ecdsa-with-SHA256
        Issuer: CN=Regione Marche, C=IT, ST=Italia, O=E-Voting system, OU=E-Voting system authority/emailAddress=Marche@evoting.it
        Validity
            Not Before: Aug  3 13:27:27 2022 GMT
            Not After : Aug  3 13:27:27 2023 GMT
        Subject: CN=Cortney, C=IT, ST=Italia, O=Regione Marche
        Subject Public Key Info:
            Public Key Algorithm: id-ecPublicKey
                Public-Key: (256 bit)
                pub:
                    04:cf:68:92:cf:50:ca:e0:f9:a0:67:3d:73:c0:8d:
                    6b:48:7f:8d:a8:cc:f4:04:a9:f1:69:66:b3:99:3e:
                    76:69:45:50:9d:c4:db:6a:af:8f:cf:dc:92:5f:cb:
                    02:db:ee:6b:ee:f4:70:85:14:50:72:42:be:a5:bf:
                    39:17:d3:76:32
                ASN1 OID: prime256v1
                NIST CURVE: P-256
        X509v3 extensions:
            X509v3 Key Usage: critical
                Digital Signature, Key Encipherment
            X509v3 Basic Constraints: critical
                CA:FALSE, pathlen:3
    Signature Algorithm: ecdsa-with-SHA256
         30:45:02:21:00:8c:9f:1b:53:50:a1:53:ab:62:db:dd:f6:dd:
         fb:87:42:7d:b5:cb:34:a0:3a:78:80:1c:72:be:cf:98:f1:29:
         3a:02:20:49:26:29:8c:d7:c5:48:81:b6:02:ff:c8:91:0a:d9:
         c6:18:c7:70:aa:1f:a9:f1:2c:4d:c9:e4:82:58:ba:67:3e
-----BEGIN CERTIFICATE-----
MIIB8zCCAZmgAwIBAgIBIDAKBggqhkjOPQQDAjCBlzEXMBUGA1UEAwwOUmVnaW9u
ZSBNYXJjaGUxCzAJBgNVBAYTAklUMQ8wDQYDVQQIDAZJdGFsaWExGDAWBgNVBAoM
D0UtVm90aW5nIHN5c3RlbTEiMCAGA1UECwwZRS1Wb3Rpbmcgc3lzdGVtIGF1dGhv
cml0eTEgMB4GCSqGSIb3DQEJARYRTWFyY2hlQGV2b3RpbmcuaXQwHhcNMjIwODAz
MTMyNzI3WhcNMjMwODAzMTMyNzI3WjBJMRAwDgYDVQQDDAdDb3J0bmV5MQswCQYD
VQQGEwJJVDEPMA0GA1UECAwGSXRhbGlhMRcwFQYDVQQKDA5SZWdpb25lIE1hcmNo
ZTBZMBMGByqGSM49AgEGCCqGSM49AwEHA0IABM9oks9QyuD5oGc9c8CNa0h/jajM
9ASp8Wlms5k+dmlFUJ3E22qvj8/ckl/LAtvua+70cIUUUHJCvqW/ORfTdjKjIzAh
MA4GA1UdDwEB/wQEAwIFoDAPBgNVHRMBAf8EBTADAgEDMAoGCCqGSM49BAMCA0gA
MEUCIQCMnxtTUKFTq2Lb3fbd+4dCfbXLNKA6eIAccr7PmPEpOgIgSSYpjNfFSIG2
Av/IkQrZxhjHcKofqfEsTcnkgli6Zz4=
-----END CERTIFICATE-----
