Certificate:
    Data:
        Version: 3 (0x2)
        Serial Number: 16 (0x10)
        Signature Algorithm: ecdsa-with-SHA256
        Issuer: CN=Regione Piemonte, C=IT, ST=Italia, O=E-Voting system, OU=E-Voting system authority/emailAddress=Piemonte@evoting.it
        Validity
            Not Before: Aug 26 15:19:49 2022 GMT
            Not After : Aug 26 15:19:49 2023 GMT
        Subject: CN=Cory, C=IT, ST=Italia, O=Regione Piemonte
        Subject Public Key Info:
            Public Key Algorithm: id-ecPublicKey
                Public-Key: (256 bit)
                pub:
                    04:ab:d8:07:ed:e5:c2:b7:14:87:d4:00:2f:74:fe:
                    18:2d:43:11:e9:97:24:e6:4e:c9:fc:80:65:34:f7:
                    b5:de:20:47:6d:ec:71:1f:20:56:d2:cd:d3:02:6c:
                    23:e1:2c:57:6f:d6:89:00:08:74:c5:b4:df:69:1e:
                    16:80:b2:4d:a4
                ASN1 OID: secp256k1
        X509v3 extensions:
            X509v3 Key Usage: critical
                Digital Signature, Key Encipherment
            X509v3 Basic Constraints: critical
                CA:FALSE, pathlen:3
    Signature Algorithm: ecdsa-with-SHA256
         30:44:02:20:2c:98:2a:6a:0b:04:71:9d:25:19:ff:59:ad:d5:
         62:46:b0:d4:a4:14:d4:a1:8a:63:e2:a2:79:d7:47:63:82:96:
         02:20:75:af:c8:24:d6:a0:e3:b1:f1:e1:a1:2e:38:7c:f9:c9:
         9e:67:1e:ed:97:67:e8:b3:d0:c0:da:b5:7d:b8:d9:f8
-----BEGIN CERTIFICATE-----
MIIB8jCCAZmgAwIBAgIBEDAKBggqhkjOPQQDAjCBmzEZMBcGA1UEAwwQUmVnaW9u
ZSBQaWVtb250ZTELMAkGA1UEBhMCSVQxDzANBgNVBAgMBkl0YWxpYTEYMBYGA1UE
CgwPRS1Wb3Rpbmcgc3lzdGVtMSIwIAYDVQQLDBlFLVZvdGluZyBzeXN0ZW0gYXV0
aG9yaXR5MSIwIAYJKoZIhvcNAQkBFhNQaWVtb250ZUBldm90aW5nLml0MB4XDTIy
MDgyNjE1MTk0OVoXDTIzMDgyNjE1MTk0OVowSDENMAsGA1UEAwwEQ29yeTELMAkG
A1UEBhMCSVQxDzANBgNVBAgMBkl0YWxpYTEZMBcGA1UECgwQUmVnaW9uZSBQaWVt
b250ZTBWMBAGByqGSM49AgEGBSuBBAAKA0IABKvYB+3lwrcUh9QAL3T+GC1DEemX
JOZOyfyAZTT3td4gR23scR8gVtLN0wJsI+EsV2/WiQAIdMW032keFoCyTaSjIzAh
MA4GA1UdDwEB/wQEAwIFoDAPBgNVHRMBAf8EBTADAgEDMAoGCCqGSM49BAMCA0cA
MEQCICyYKmoLBHGdJRn/Wa3VYkaw1KQU1KGKY+KieddHY4KWAiB1r8gk1qDjsfHh
oS44fPnJnmce7Zdn6LPQwNq1fbjZ+A==
-----END CERTIFICATE-----
