Certificate:
    Data:
        Version: 3 (0x2)
        Serial Number: 14 (0xe)
        Signature Algorithm: ecdsa-with-SHA256
        Issuer: CN=Regione Umbria, C=IT, ST=Italia, O=E-Voting system, OU=E-Voting system authority/emailAddress=Umbria@evoting.it
        Validity
            Not Before: Aug  3 13:26:26 2022 GMT
            Not After : Aug  3 13:26:26 2023 GMT
        Subject: CN=Craig, C=IT, ST=Italia, O=Regione Umbria
        Subject Public Key Info:
            Public Key Algorithm: id-ecPublicKey
                Public-Key: (256 bit)
                pub:
                    04:26:c8:31:70:33:9a:70:c0:f8:22:49:20:f7:28:
                    94:65:5a:08:5b:10:9b:45:a9:a3:c6:d6:a8:a8:59:
                    0b:1f:cb:e7:6e:d9:59:77:b1:61:a7:14:81:7c:59:
                    44:99:c8:20:da:12:5c:54:b4:50:f5:c7:f1:29:55:
                    4e:20:38:0b:78
                ASN1 OID: prime256v1
                NIST CURVE: P-256
        X509v3 extensions:
            X509v3 Key Usage: critical
                Digital Signature, Key Encipherment
            X509v3 Basic Constraints: critical
                CA:FALSE, pathlen:3
    Signature Algorithm: ecdsa-with-SHA256
         30:44:02:20:20:95:90:7e:f9:c7:12:a8:b1:3d:c2:7b:f7:9d:
         10:23:da:9d:b5:8b:ca:36:8f:31:35:53:6d:42:b2:95:01:83:
         02:20:1b:8b:80:6e:b5:3f:0e:40:3a:c8:f4:07:7d:ad:41:a8:
         fe:e2:92:91:cc:bb:6d:41:f0:ad:82:30:f7:a0:31:eb
-----BEGIN CERTIFICATE-----
MIIB8DCCAZegAwIBAgIBDjAKBggqhkjOPQQDAjCBlzEXMBUGA1UEAwwOUmVnaW9u
ZSBVbWJyaWExCzAJBgNVBAYTAklUMQ8wDQYDVQQIDAZJdGFsaWExGDAWBgNVBAoM
D0UtVm90aW5nIHN5c3RlbTEiMCAGA1UECwwZRS1Wb3Rpbmcgc3lzdGVtIGF1dGhv
cml0eTEgMB4GCSqGSIb3DQEJARYRVW1icmlhQGV2b3RpbmcuaXQwHhcNMjIwODAz
MTMyNjI2WhcNMjMwODAzMTMyNjI2WjBHMQ4wDAYDVQQDDAVDcmFpZzELMAkGA1UE
BhMCSVQxDzANBgNVBAgMBkl0YWxpYTEXMBUGA1UECgwOUmVnaW9uZSBVbWJyaWEw
WTATBgcqhkjOPQIBBggqhkjOPQMBBwNCAAQmyDFwM5pwwPgiSSD3KJRlWghbEJtF
qaPG1qioWQsfy+du2Vl3sWGnFIF8WUSZyCDaElxUtFD1x/EpVU4gOAt4oyMwITAO
BgNVHQ8BAf8EBAMCBaAwDwYDVR0TAQH/BAUwAwIBAzAKBggqhkjOPQQDAgNHADBE
AiAglZB++ccSqLE9wnv3nRAj2p21i8o2jzE1U21CspUBgwIgG4uAbrU/DkA6yPQH
fa1BqP7ikpHMu21B8K2CMPegMes=
-----END CERTIFICATE-----
