Certificate:
    Data:
        Version: 3 (0x2)
        Serial Number: 47 (0x2f)
        Signature Algorithm: ecdsa-with-SHA256
        Issuer: CN=Regione Valle_d_Aosta, C=IT, ST=Italia, O=E-Voting system, OU=E-Voting system authority/emailAddress=Valle_d_Aosta@evoting.it
        Validity
            Not Before: Aug 26 15:21:27 2022 GMT
            Not After : Aug 26 15:21:27 2023 GMT
        Subject: CN=Craig, C=IT, ST=Italia, O=Regione Valle_d_Aosta
        Subject Public Key Info:
            Public Key Algorithm: id-ecPublicKey
                Public-Key: (256 bit)
                pub:
                    04:a9:d2:2c:ea:05:1d:dc:8c:f8:cc:4b:8c:40:4f:
                    16:be:f1:60:2e:0d:fc:05:be:34:9c:36:28:67:53:
                    4a:c4:86:59:3d:95:39:2d:ec:eb:87:9a:03:5e:e8:
                    9d:a3:74:f3:bb:14:cd:c4:a0:ab:3e:92:12:46:65:
                    4d:3a:57:8e:7a
                ASN1 OID: secp256k1
        X509v3 extensions:
            X509v3 Key Usage: critical
                Digital Signature, Key Encipherment
            X509v3 Basic Constraints: critical
                CA:FALSE, pathlen:3
    Signature Algorithm: ecdsa-with-SHA256
         30:45:02:20:35:66:c5:8f:c8:b3:03:f0:56:58:bf:07:b0:8e:
         29:2b:86:e6:d4:85:c4:c7:55:31:92:20:22:28:05:52:25:47:
         02:21:00:8d:c4:c2:85:17:26:23:ca:46:fc:7d:c1:a2:09:1f:
         1d:1e:ae:e5:e7:18:68:56:48:fe:92:12:ed:39:0d:7d:e8
-----BEGIN CERTIFICATE-----
MIICAzCCAamgAwIBAgIBLzAKBggqhkjOPQQDAjCBpTEeMBwGA1UEAwwVUmVnaW9u
ZSBWYWxsZV9kX0Fvc3RhMQswCQYDVQQGEwJJVDEPMA0GA1UECAwGSXRhbGlhMRgw
FgYDVQQKDA9FLVZvdGluZyBzeXN0ZW0xIjAgBgNVBAsMGUUtVm90aW5nIHN5c3Rl
bSBhdXRob3JpdHkxJzAlBgkqhkiG9w0BCQEWGFZhbGxlX2RfQW9zdGFAZXZvdGlu
Zy5pdDAeFw0yMjA4MjYxNTIxMjdaFw0yMzA4MjYxNTIxMjdaME4xDjAMBgNVBAMM
BUNyYWlnMQswCQYDVQQGEwJJVDEPMA0GA1UECAwGSXRhbGlhMR4wHAYDVQQKDBVS
ZWdpb25lIFZhbGxlX2RfQW9zdGEwVjAQBgcqhkjOPQIBBgUrgQQACgNCAASp0izq
BR3cjPjMS4xATxa+8WAuDfwFvjScNihnU0rEhlk9lTkt7OuHmgNe6J2jdPO7FM3E
oKs+khJGZU06V456oyMwITAOBgNVHQ8BAf8EBAMCBaAwDwYDVR0TAQH/BAUwAwIB
AzAKBggqhkjOPQQDAgNIADBFAiA1ZsWPyLMD8FZYvwewjikrhubUhcTHVTGSICIo
BVIlRwIhAI3EwoUXJiPKRvx9waIJHx0eruXnGGhWSP6SEu05DX3o
-----END CERTIFICATE-----
