Certificate:
    Data:
        Version: 3 (0x2)
        Serial Number: 12 (0xc)
        Signature Algorithm: ecdsa-with-SHA256
        Issuer: CN=Regione Calabria, C=IT, ST=Italia, O=E-Voting system, OU=E-Voting system authority/emailAddress=Calabria@evoting.it
        Validity
            Not Before: Aug  3 13:26:15 2022 GMT
            Not After : Aug  3 13:26:15 2023 GMT
        Subject: CN=Cristina, C=IT, ST=Italia, O=Regione Calabria
        Subject Public Key Info:
            Public Key Algorithm: id-ecPublicKey
                Public-Key: (256 bit)
                pub:
                    04:41:2f:ec:3e:a3:32:5b:e0:42:f7:2f:68:84:2f:
                    b2:00:0f:32:90:50:e4:a1:73:ca:90:b6:7c:81:9e:
                    e3:c5:59:dc:7f:35:a7:08:19:04:f9:8c:34:2d:6a:
                    9f:a6:3c:0b:25:4b:f0:36:23:36:d7:1d:80:cb:5c:
                    48:7e:ae:1c:b5
                ASN1 OID: prime256v1
                NIST CURVE: P-256
        X509v3 extensions:
            X509v3 Key Usage: critical
                Digital Signature, Key Encipherment
            X509v3 Basic Constraints: critical
                CA:FALSE, pathlen:3
    Signature Algorithm: ecdsa-with-SHA256
         30:45:02:20:65:a8:d1:6f:75:5c:6d:c9:d3:c0:da:7d:16:34:
         1f:41:68:2d:ee:17:8e:fb:9e:02:52:a0:f8:2e:f2:93:06:d5:
         02:21:00:c0:43:78:78:d8:a7:b0:6e:0a:17:20:48:4a:a7:8d:
         e0:4e:5e:a1:c5:26:a0:32:e7:39:94:b8:12:b6:c5:25:b9
-----BEGIN CERTIFICATE-----
MIIB+jCCAaCgAwIBAgIBDDAKBggqhkjOPQQDAjCBmzEZMBcGA1UEAwwQUmVnaW9u
ZSBDYWxhYnJpYTELMAkGA1UEBhMCSVQxDzANBgNVBAgMBkl0YWxpYTEYMBYGA1UE
CgwPRS1Wb3Rpbmcgc3lzdGVtMSIwIAYDVQQLDBlFLVZvdGluZyBzeXN0ZW0gYXV0
aG9yaXR5MSIwIAYJKoZIhvcNAQkBFhNDYWxhYnJpYUBldm90aW5nLml0MB4XDTIy
MDgwMzEzMjYxNVoXDTIzMDgwMzEzMjYxNVowTDERMA8GA1UEAwwIQ3Jpc3RpbmEx
CzAJBgNVBAYTAklUMQ8wDQYDVQQIDAZJdGFsaWExGTAXBgNVBAoMEFJlZ2lvbmUg
Q2FsYWJyaWEwWTATBgcqhkjOPQIBBggqhkjOPQMBBwNCAARBL+w+ozJb4EL3L2iE
L7IADzKQUOShc8qQtnyBnuPFWdx/NacIGQT5jDQtap+mPAslS/A2IzbXHYDLXEh+
rhy1oyMwITAOBgNVHQ8BAf8EBAMCBaAwDwYDVR0TAQH/BAUwAwIBAzAKBggqhkjO
PQQDAgNIADBFAiBlqNFvdVxtydPA2n0WNB9BaC3uF477ngJSoPgu8pMG1QIhAMBD
eHjYp7BuChcgSEqnjeBOXqHFJqAy5zmUuBK2xSW5
-----END CERTIFICATE-----
