Certificate:
    Data:
        Version: 3 (0x2)
        Serial Number: 33 (0x21)
        Signature Algorithm: ecdsa-with-SHA256
        Issuer: CN=Regione Molise, C=IT, ST=Italia, O=E-Voting system, OU=E-Voting system authority/emailAddress=Molise@evoting.it
        Validity
            Not Before: Aug 26 15:21:00 2022 GMT
            Not After : Aug 26 15:21:00 2023 GMT
        Subject: CN=Crystal, C=IT, ST=Italia, O=Regione Molise
        Subject Public Key Info:
            Public Key Algorithm: id-ecPublicKey
                Public-Key: (256 bit)
                pub:
                    04:91:83:f8:33:90:09:7b:33:de:eb:96:28:d3:38:
                    24:6d:85:e9:de:74:10:ee:26:0e:d3:90:41:c4:17:
                    ae:69:9e:e6:25:e5:a0:fa:77:53:c2:eb:d2:45:3c:
                    c1:45:45:bf:97:a1:84:60:06:19:82:d0:d6:dd:7e:
                    2e:8c:50:51:c4
                ASN1 OID: secp256k1
        X509v3 extensions:
            X509v3 Key Usage: critical
                Digital Signature, Key Encipherment
            X509v3 Basic Constraints: critical
                CA:FALSE, pathlen:3
    Signature Algorithm: ecdsa-with-SHA256
         30:46:02:21:00:c3:25:5c:7d:42:97:25:b4:10:be:24:60:f8:
         2e:3b:d9:46:2c:1b:9c:b6:9a:d5:fc:f7:45:cc:55:fc:e5:d0:
         7c:02:21:00:fe:22:56:9c:27:28:b6:f5:57:8b:27:01:63:bc:
         e6:e0:03:46:d0:d1:c9:fd:85:17:65:07:a9:9c:ff:bc:a3:28
-----BEGIN CERTIFICATE-----
MIIB8TCCAZagAwIBAgIBITAKBggqhkjOPQQDAjCBlzEXMBUGA1UEAwwOUmVnaW9u
ZSBNb2xpc2UxCzAJBgNVBAYTAklUMQ8wDQYDVQQIDAZJdGFsaWExGDAWBgNVBAoM
D0UtVm90aW5nIHN5c3RlbTEiMCAGA1UECwwZRS1Wb3Rpbmcgc3lzdGVtIGF1dGhv
cml0eTEgMB4GCSqGSIb3DQEJARYRTW9saXNlQGV2b3RpbmcuaXQwHhcNMjIwODI2
MTUyMTAwWhcNMjMwODI2MTUyMTAwWjBJMRAwDgYDVQQDDAdDcnlzdGFsMQswCQYD
VQQGEwJJVDEPMA0GA1UECAwGSXRhbGlhMRcwFQYDVQQKDA5SZWdpb25lIE1vbGlz
ZTBWMBAGByqGSM49AgEGBSuBBAAKA0IABJGD+DOQCXsz3uuWKNM4JG2F6d50EO4m
DtOQQcQXrmme5iXloPp3U8Lr0kU8wUVFv5ehhGAGGYLQ1t1+LoxQUcSjIzAhMA4G
A1UdDwEB/wQEAwIFoDAPBgNVHRMBAf8EBTADAgEDMAoGCCqGSM49BAMCA0kAMEYC
IQDDJVx9QpcltBC+JGD4LjvZRiwbnLaa1fz3RcxV/OXQfAIhAP4iVpwnKLb1V4sn
AWO85uADRtDRyf2FF2UHqZz/vKMo
-----END CERTIFICATE-----
