Certificate:
    Data:
        Version: 3 (0x2)
        Serial Number: 36 (0x24)
        Signature Algorithm: ecdsa-with-SHA256
        Issuer: CN=Regione Toscana, C=IT, ST=Italia, O=E-Voting system, OU=E-Voting system authority/emailAddress=Toscana@evoting.it
        Validity
            Not Before: Aug  3 13:27:44 2022 GMT
            Not After : Aug  3 13:27:44 2023 GMT
        Subject: CN=Crystal, C=IT, ST=Italia, O=Regione Toscana
        Subject Public Key Info:
            Public Key Algorithm: id-ecPublicKey
                Public-Key: (256 bit)
                pub:
                    04:7a:01:cd:44:cc:1a:6f:ed:36:b9:a8:1e:56:d6:
                    40:19:ee:f6:19:c8:41:53:00:68:b2:cb:a7:fb:4b:
                    0f:ed:bb:48:3b:77:cf:d6:05:3c:4c:b1:ea:76:3d:
                    bf:89:0e:16:24:0a:56:ce:b8:2c:91:06:44:d3:8a:
                    6e:36:41:1e:cf
                ASN1 OID: prime256v1
                NIST CURVE: P-256
        X509v3 extensions:
            X509v3 Key Usage: critical
                Digital Signature, Key Encipherment
            X509v3 Basic Constraints: critical
                CA:FALSE, pathlen:3
    Signature Algorithm: ecdsa-with-SHA256
         30:44:02:20:32:16:50:65:32:c3:96:28:fe:85:4f:05:aa:f0:
         f9:77:9d:8d:11:ef:4b:73:ef:73:53:a5:00:e4:fb:55:d6:a4:
         02:20:06:ec:29:05:f2:bc:d7:9c:36:43:61:39:c1:15:c9:5d:
         9a:ee:ea:71:27:bb:63:23:c8:e6:fc:28:52:ec:f2:c8
-----BEGIN CERTIFICATE-----
MIIB9TCCAZygAwIBAgIBJDAKBggqhkjOPQQDAjCBmTEYMBYGA1UEAwwPUmVnaW9u
ZSBUb3NjYW5hMQswCQYDVQQGEwJJVDEPMA0GA1UECAwGSXRhbGlhMRgwFgYDVQQK
DA9FLVZvdGluZyBzeXN0ZW0xIjAgBgNVBAsMGUUtVm90aW5nIHN5c3RlbSBhdXRo
b3JpdHkxITAfBgkqhkiG9w0BCQEWElRvc2NhbmFAZXZvdGluZy5pdDAeFw0yMjA4
MDMxMzI3NDRaFw0yMzA4MDMxMzI3NDRaMEoxEDAOBgNVBAMMB0NyeXN0YWwxCzAJ
BgNVBAYTAklUMQ8wDQYDVQQIDAZJdGFsaWExGDAWBgNVBAoMD1JlZ2lvbmUgVG9z
Y2FuYTBZMBMGByqGSM49AgEGCCqGSM49AwEHA0IABHoBzUTMGm/tNrmoHlbWQBnu
9hnIQVMAaLLLp/tLD+27SDt3z9YFPEyx6nY9v4kOFiQKVs64LJEGRNOKbjZBHs+j
IzAhMA4GA1UdDwEB/wQEAwIFoDAPBgNVHRMBAf8EBTADAgEDMAoGCCqGSM49BAMC
A0cAMEQCIDIWUGUyw5Yo/oVPBarw+XedjRHvS3Pvc1OlAOT7VdakAiAG7CkF8rzX
nDZDYTnBFcldmu7qcSe7YyPI5vwoUuzyyA==
-----END CERTIFICATE-----
