Certificate:
    Data:
        Version: 3 (0x2)
        Serial Number: 31 (0x1f)
        Signature Algorithm: ecdsa-with-SHA256
        Issuer: CN=Regione Marche, C=IT, ST=Italia, O=E-Voting system, OU=E-Voting system authority/emailAddress=Marche@evoting.it
        Validity
            Not Before: Aug 26 15:21:42 2022 GMT
            Not After : Aug 26 15:21:42 2023 GMT
        Subject: CN=Curtis, C=IT, ST=Italia, O=Regione Marche
        Subject Public Key Info:
            Public Key Algorithm: id-ecPublicKey
                Public-Key: (256 bit)
                pub:
                    04:8c:6f:ed:fc:9c:3d:5d:62:7d:d5:5d:64:a7:ae:
                    8d:62:7e:af:4c:d9:6c:9c:68:5d:d2:bf:84:e0:d2:
                    6f:48:60:1e:c8:93:f8:11:81:91:b4:1c:a8:11:cd:
                    22:0a:ff:2e:f8:04:c9:97:68:8f:cb:8e:11:1a:a7:
                    ff:3d:91:05:5b
                ASN1 OID: secp256k1
        X509v3 extensions:
            X509v3 Key Usage: critical
                Digital Signature, Key Encipherment
            X509v3 Basic Constraints: critical
                CA:FALSE, pathlen:3
    Signature Algorithm: ecdsa-with-SHA256
         30:45:02:21:00:f6:61:ca:81:e0:02:f4:10:57:15:9e:d4:0c:
         eb:bd:47:2e:9b:72:a7:d8:ca:40:79:5a:ac:f5:ed:8c:c3:41:
         9a:02:20:5f:a2:4e:7f:cc:6f:e2:9d:4a:73:f1:ca:1c:db:7b:
         6b:44:f9:ae:1f:9c:75:ce:11:52:46:a4:73:e1:72:21:06
-----BEGIN CERTIFICATE-----
MIIB7zCCAZWgAwIBAgIBHzAKBggqhkjOPQQDAjCBlzEXMBUGA1UEAwwOUmVnaW9u
ZSBNYXJjaGUxCzAJBgNVBAYTAklUMQ8wDQYDVQQIDAZJdGFsaWExGDAWBgNVBAoM
D0UtVm90aW5nIHN5c3RlbTEiMCAGA1UECwwZRS1Wb3Rpbmcgc3lzdGVtIGF1dGhv
cml0eTEgMB4GCSqGSIb3DQEJARYRTWFyY2hlQGV2b3RpbmcuaXQwHhcNMjIwODI2
MTUyMTQyWhcNMjMwODI2MTUyMTQyWjBIMQ8wDQYDVQQDDAZDdXJ0aXMxCzAJBgNV
BAYTAklUMQ8wDQYDVQQIDAZJdGFsaWExFzAVBgNVBAoMDlJlZ2lvbmUgTWFyY2hl
MFYwEAYHKoZIzj0CAQYFK4EEAAoDQgAEjG/t/Jw9XWJ91V1kp66NYn6vTNlsnGhd
0r+E4NJvSGAeyJP4EYGRtByoEc0iCv8u+ATJl2iPy44RGqf/PZEFW6MjMCEwDgYD
VR0PAQH/BAQDAgWgMA8GA1UdEwEB/wQFMAMCAQMwCgYIKoZIzj0EAwIDSAAwRQIh
APZhyoHgAvQQVxWe1AzrvUcum3Kn2MpAeVqs9e2Mw0GaAiBfok5/zG/inUpz8coc
23trRPmuH5x1zhFSRqRz4XIhBg==
-----END CERTIFICATE-----
