Certificate:
    Data:
        Version: 3 (0x2)
        Serial Number: 1 (0x1)
        Signature Algorithm: ecdsa-with-SHA256
        Issuer: CN=Regione Emilia_Romagna, C=IT, ST=Italia, O=E-Voting system, OU=E-Voting system authority/emailAddress=Emilia_Romagna@evoting.it
        Validity
            Not Before: Aug 26 15:18:25 2022 GMT
            Not After : Aug 26 15:18:25 2023 GMT
        Subject: CN=Cynthia, C=IT, ST=Italia, O=Regione Emilia_Romagna
        Subject Public Key Info:
            Public Key Algorithm: id-ecPublicKey
                Public-Key: (256 bit)
                pub:
                    04:7e:1a:66:38:c6:da:3e:b4:47:b1:9a:11:56:33:
                    ff:bd:2c:e2:b2:e1:90:b6:86:48:b3:2a:74:f0:c9:
                    96:d8:70:fd:69:1c:95:ef:2e:5b:d2:d4:21:d4:37:
                    b0:21:bf:bb:a2:91:87:9c:4f:8c:e5:b3:a2:ce:da:
                    93:f0:96:4d:b3
                ASN1 OID: secp256k1
        X509v3 extensions:
            X509v3 Key Usage: critical
                Digital Signature, Key Encipherment
            X509v3 Basic Constraints: critical
                CA:FALSE, pathlen:3
    Signature Algorithm: ecdsa-with-SHA256
         30:45:02:21:00:ec:6d:82:b7:97:6e:f5:c0:a0:19:9b:8b:c7:
         91:15:53:ba:e8:b9:12:43:b2:c0:5d:a2:88:43:94:81:0a:ee:
         ed:02:20:77:3d:14:ea:da:1a:ec:23:c9:a1:88:1e:46:14:4b:
         0b:43:23:51:01:e4:b7:bb:24:a5:ce:0c:fc:9d:a3:86:3a
-----BEGIN CERTIFICATE-----
MIICCDCCAa6gAwIBAgIBATAKBggqhkjOPQQDAjCBpzEfMB0GA1UEAwwWUmVnaW9u
ZSBFbWlsaWFfUm9tYWduYTELMAkGA1UEBhMCSVQxDzANBgNVBAgMBkl0YWxpYTEY
MBYGA1UECgwPRS1Wb3Rpbmcgc3lzdGVtMSIwIAYDVQQLDBlFLVZvdGluZyBzeXN0
ZW0gYXV0aG9yaXR5MSgwJgYJKoZIhvcNAQkBFhlFbWlsaWFfUm9tYWduYUBldm90
aW5nLml0MB4XDTIyMDgyNjE1MTgyNVoXDTIzMDgyNjE1MTgyNVowUTEQMA4GA1UE
AwwHQ3ludGhpYTELMAkGA1UEBhMCSVQxDzANBgNVBAgMBkl0YWxpYTEfMB0GA1UE
CgwWUmVnaW9uZSBFbWlsaWFfUm9tYWduYTBWMBAGByqGSM49AgEGBSuBBAAKA0IA
BH4aZjjG2j60R7GaEVYz/70s4rLhkLaGSLMqdPDJlthw/Wkcle8uW9LUIdQ3sCG/
u6KRh5xPjOWzos7ak/CWTbOjIzAhMA4GA1UdDwEB/wQEAwIFoDAPBgNVHRMBAf8E
BTADAgEDMAoGCCqGSM49BAMCA0gAMEUCIQDsbYK3l271wKAZm4vHkRVTuui5EkOy
wF2iiEOUgQru7QIgdz0U6toa7CPJoYgeRhRLC0MjUQHkt7skpc4M/J2jhjo=
-----END CERTIFICATE-----
