Certificate:
    Data:
        Version: 3 (0x2)
        Serial Number: 6 (0x6)
        Signature Algorithm: ecdsa-with-SHA256
        Issuer: CN=Regione Piemonte, C=IT, ST=Italia, O=E-Voting system, OU=E-Voting system authority/emailAddress=Piemonte@evoting.it
        Validity
            Not Before: Aug  3 13:25:47 2022 GMT
            Not After : Aug  3 13:25:47 2023 GMT
        Subject: CN=Daisy, C=IT, ST=Italia, O=Regione Piemonte
        Subject Public Key Info:
            Public Key Algorithm: id-ecPublicKey
                Public-Key: (256 bit)
                pub:
                    04:e8:70:d3:86:fc:8e:9b:23:00:77:3e:be:1f:d5:
                    9e:2b:37:bd:30:ba:61:52:79:4c:59:3d:fd:a4:c1:
                    05:7c:5b:67:15:c7:59:af:d8:c5:91:ab:2e:bc:b9:
                    29:8f:84:e1:d6:a2:d2:d5:a0:7c:e2:40:ef:39:94:
                    b5:db:68:38:85
                ASN1 OID: prime256v1
                NIST CURVE: P-256
        X509v3 extensions:
            X509v3 Key Usage: critical
                Digital Signature, Key Encipherment
            X509v3 Basic Constraints: critical
                CA:FALSE, pathlen:3
    Signature Algorithm: ecdsa-with-SHA256
         30:45:02:20:0a:42:21:7d:b5:09:ed:b7:2e:c5:1b:a1:b8:98:
         77:e3:99:1a:53:ce:b7:08:5c:69:87:1f:7e:e0:ee:f8:28:84:
         02:21:00:95:0e:44:a4:de:d8:e8:06:df:f0:96:87:27:46:f7:
         e0:e1:ed:2f:0e:5b:45:d5:46:3f:d8:38:a2:ea:e5:9c:2f
-----BEGIN CERTIFICATE-----
MIIB9zCCAZ2gAwIBAgIBBjAKBggqhkjOPQQDAjCBmzEZMBcGA1UEAwwQUmVnaW9u
ZSBQaWVtb250ZTELMAkGA1UEBhMCSVQxDzANBgNVBAgMBkl0YWxpYTEYMBYGA1UE
CgwPRS1Wb3Rpbmcgc3lzdGVtMSIwIAYDVQQLDBlFLVZvdGluZyBzeXN0ZW0gYXV0
aG9yaXR5MSIwIAYJKoZIhvcNAQkBFhNQaWVtb250ZUBldm90aW5nLml0MB4XDTIy
MDgwMzEzMjU0N1oXDTIzMDgwMzEzMjU0N1owSTEOMAwGA1UEAwwFRGFpc3kxCzAJ
BgNVBAYTAklUMQ8wDQYDVQQIDAZJdGFsaWExGTAXBgNVBAoMEFJlZ2lvbmUgUGll
bW9udGUwWTATBgcqhkjOPQIBBggqhkjOPQMBBwNCAATocNOG/I6bIwB3Pr4f1Z4r
N70wumFSeUxZPf2kwQV8W2cVx1mv2MWRqy68uSmPhOHWotLVoHziQO85lLXbaDiF
oyMwITAOBgNVHQ8BAf8EBAMCBaAwDwYDVR0TAQH/BAUwAwIBAzAKBggqhkjOPQQD
AgNIADBFAiAKQiF9tQntty7FG6G4mHfjmRpTzrcIXGmHH37g7vgohAIhAJUORKTe
2OgG3/CWhydG9+Dh7S8OW0XVRj/YOKLq5Zwv
-----END CERTIFICATE-----
