Certificate:
    Data:
        Version: 3 (0x2)
        Serial Number: 17 (0x11)
        Signature Algorithm: ecdsa-with-SHA256
        Issuer: CN=Regione Sardegna, C=IT, ST=Italia, O=E-Voting system, OU=E-Voting system authority/emailAddress=Sardegna@evoting.it
        Validity
            Not Before: Aug 26 15:19:44 2022 GMT
            Not After : Aug 26 15:19:44 2023 GMT
        Subject: CN=Daisy, C=IT, ST=Italia, O=Regione Sardegna
        Subject Public Key Info:
            Public Key Algorithm: id-ecPublicKey
                Public-Key: (256 bit)
                pub:
                    04:22:01:c4:8a:19:74:b2:46:75:36:1b:2a:ba:2c:
                    e6:3d:ed:12:50:65:68:81:21:68:a7:02:af:3d:74:
                    3e:24:3b:78:10:7f:41:c8:5d:71:72:97:27:66:54:
                    4f:8f:f6:4c:5f:da:16:34:db:f4:d0:08:85:0a:bd:
                    28:12:09:22:83
                ASN1 OID: secp256k1
        X509v3 extensions:
            X509v3 Key Usage: critical
                Digital Signature, Key Encipherment
            X509v3 Basic Constraints: critical
                CA:FALSE, pathlen:3
    Signature Algorithm: ecdsa-with-SHA256
         30:44:02:20:79:2e:92:01:73:ea:0e:1f:d3:f6:a8:88:6b:ba:
         4b:6f:81:d0:b5:ca:90:44:95:e7:af:bd:cd:12:60:ee:d2:1c:
         02:20:47:85:7c:e6:7c:e4:57:4a:e1:f2:29:31:7a:75:8a:0a:
         d8:1a:ec:c6:09:59:17:2d:79:e3:6f:10:32:94:fc:e6
-----BEGIN CERTIFICATE-----
MIIB8zCCAZqgAwIBAgIBETAKBggqhkjOPQQDAjCBmzEZMBcGA1UEAwwQUmVnaW9u
ZSBTYXJkZWduYTELMAkGA1UEBhMCSVQxDzANBgNVBAgMBkl0YWxpYTEYMBYGA1UE
CgwPRS1Wb3Rpbmcgc3lzdGVtMSIwIAYDVQQLDBlFLVZvdGluZyBzeXN0ZW0gYXV0
aG9yaXR5MSIwIAYJKoZIhvcNAQkBFhNTYXJkZWduYUBldm90aW5nLml0MB4XDTIy
MDgyNjE1MTk0NFoXDTIzMDgyNjE1MTk0NFowSTEOMAwGA1UEAwwFRGFpc3kxCzAJ
BgNVBAYTAklUMQ8wDQYDVQQIDAZJdGFsaWExGTAXBgNVBAoMEFJlZ2lvbmUgU2Fy
ZGVnbmEwVjAQBgcqhkjOPQIBBgUrgQQACgNCAAQiAcSKGXSyRnU2Gyq6LOY97RJQ
ZWiBIWinAq89dD4kO3gQf0HIXXFylydmVE+P9kxf2hY02/TQCIUKvSgSCSKDoyMw
ITAOBgNVHQ8BAf8EBAMCBaAwDwYDVR0TAQH/BAUwAwIBAzAKBggqhkjOPQQDAgNH
ADBEAiB5LpIBc+oOH9P2qIhruktvgdC1ypBEleevvc0SYO7SHAIgR4V85nzkV0rh
8ikxenWKCtga7MYJWRcteeNvEDKU/OY=
-----END CERTIFICATE-----
