Certificate:
    Data:
        Version: 3 (0x2)
        Serial Number: 17 (0x11)
        Signature Algorithm: ecdsa-with-SHA256
        Issuer: CN=Regione Puglia, C=IT, ST=Italia, O=E-Voting system, OU=E-Voting system authority/emailAddress=Puglia@evoting.it
        Validity
            Not Before: Aug 26 15:19:38 2022 GMT
            Not After : Aug 26 15:19:38 2023 GMT
        Subject: CN=Dale, C=IT, ST=Italia, O=Regione Puglia
        Subject Public Key Info:
            Public Key Algorithm: id-ecPublicKey
                Public-Key: (256 bit)
                pub:
                    04:77:17:61:4e:e0:4c:8c:a1:f8:26:42:3f:1b:a9:
                    ef:46:07:8f:27:1e:ab:d6:6a:71:6e:4f:2a:4b:4e:
                    fa:e0:e6:1e:00:f9:43:7e:a5:ef:39:fe:b8:1d:cf:
                    06:f9:1f:cc:f3:05:1a:a3:f3:2c:a6:6e:c7:5b:04:
                    1b:be:55:30:9e
                ASN1 OID: secp256k1
        X509v3 extensions:
            X509v3 Key Usage: critical
                Digital Signature, Key Encipherment
            X509v3 Basic Constraints: critical
                CA:FALSE, pathlen:3
    Signature Algorithm: ecdsa-with-SHA256
         30:46:02:21:00:e3:e3:ba:af:0c:8a:3d:b1:34:60:2c:0a:1e:
         4e:98:3c:11:0c:7f:24:0b:7a:ee:df:73:0f:1c:f0:b9:ba:60:
         3d:02:21:00:9a:ec:1b:6e:5c:41:c5:29:2c:43:d4:41:a2:92:
         71:07:4a:dc:a4:41:ba:ab:d0:3b:91:23:e0:03:2f:7b:f6:6d
-----BEGIN CERTIFICATE-----
MIIB7jCCAZOgAwIBAgIBETAKBggqhkjOPQQDAjCBlzEXMBUGA1UEAwwOUmVnaW9u
ZSBQdWdsaWExCzAJBgNVBAYTAklUMQ8wDQYDVQQIDAZJdGFsaWExGDAWBgNVBAoM
D0UtVm90aW5nIHN5c3RlbTEiMCAGA1UECwwZRS1Wb3Rpbmcgc3lzdGVtIGF1dGhv
cml0eTEgMB4GCSqGSIb3DQEJARYRUHVnbGlhQGV2b3RpbmcuaXQwHhcNMjIwODI2
MTUxOTM4WhcNMjMwODI2MTUxOTM4WjBGMQ0wCwYDVQQDDAREYWxlMQswCQYDVQQG
EwJJVDEPMA0GA1UECAwGSXRhbGlhMRcwFQYDVQQKDA5SZWdpb25lIFB1Z2xpYTBW
MBAGByqGSM49AgEGBSuBBAAKA0IABHcXYU7gTIyh+CZCPxup70YHjyceq9ZqcW5P
KktO+uDmHgD5Q36l7zn+uB3PBvkfzPMFGqPzLKZux1sEG75VMJ6jIzAhMA4GA1Ud
DwEB/wQEAwIFoDAPBgNVHRMBAf8EBTADAgEDMAoGCCqGSM49BAMCA0kAMEYCIQDj
47qvDIo9sTRgLAoeTpg8EQx/JAt67t9zDxzwubpgPQIhAJrsG25cQcUpLEPUQaKS
cQdK3KRBuqvQO5Ej4AMve/Zt
-----END CERTIFICATE-----
