Certificate:
    Data:
        Version: 3 (0x2)
        Serial Number: 53 (0x35)
        Signature Algorithm: ecdsa-with-SHA256
        Issuer: CN=Regione Lombardia, C=IT, ST=Italia, O=E-Voting system, OU=E-Voting system authority/emailAddress=Lombardia@evoting.it
        Validity
            Not Before: Aug 26 15:21:40 2022 GMT
            Not After : Aug 26 15:21:40 2023 GMT
        Subject: CN=Damaris, C=IT, ST=Italia, O=Regione Lombardia
        Subject Public Key Info:
            Public Key Algorithm: id-ecPublicKey
                Public-Key: (256 bit)
                pub:
                    04:6b:f3:fc:78:79:0c:a7:90:fb:0a:65:b3:41:01:
                    98:2d:17:82:b6:80:37:0f:03:94:21:99:59:46:b9:
                    a0:d3:dd:0d:68:3b:e1:e0:35:2a:5e:4a:57:84:68:
                    79:36:96:8d:2a:30:57:72:f5:64:77:cd:e1:ae:22:
                    5a:69:f1:a2:40
                ASN1 OID: secp256k1
        X509v3 extensions:
            X509v3 Key Usage: critical
                Digital Signature, Key Encipherment
            X509v3 Basic Constraints: critical
                CA:FALSE, pathlen:3
    Signature Algorithm: ecdsa-with-SHA256
         30:45:02:21:00:cf:86:85:80:6d:a5:c1:9b:c4:31:b3:d3:51:
         8e:da:aa:f1:29:07:4f:0e:bd:58:96:17:aa:17:18:7a:ba:c8:
         2d:02:20:2b:b4:14:48:87:fe:35:a7:ca:7f:38:aa:a1:79:63:
         1d:60:07:c8:dd:07:9d:bd:93:e4:b2:29:b0:4b:07:bd:21
-----BEGIN CERTIFICATE-----
MIIB+TCCAZ+gAwIBAgIBNTAKBggqhkjOPQQDAjCBnTEaMBgGA1UEAwwRUmVnaW9u
ZSBMb21iYXJkaWExCzAJBgNVBAYTAklUMQ8wDQYDVQQIDAZJdGFsaWExGDAWBgNV
BAoMD0UtVm90aW5nIHN5c3RlbTEiMCAGA1UECwwZRS1Wb3Rpbmcgc3lzdGVtIGF1
dGhvcml0eTEjMCEGCSqGSIb3DQEJARYUTG9tYmFyZGlhQGV2b3RpbmcuaXQwHhcN
MjIwODI2MTUyMTQwWhcNMjMwODI2MTUyMTQwWjBMMRAwDgYDVQQDDAdEYW1hcmlz
MQswCQYDVQQGEwJJVDEPMA0GA1UECAwGSXRhbGlhMRowGAYDVQQKDBFSZWdpb25l
IExvbWJhcmRpYTBWMBAGByqGSM49AgEGBSuBBAAKA0IABGvz/Hh5DKeQ+wpls0EB
mC0XgraANw8DlCGZWUa5oNPdDWg74eA1Kl5KV4RoeTaWjSowV3L1ZHfN4a4iWmnx
okCjIzAhMA4GA1UdDwEB/wQEAwIFoDAPBgNVHRMBAf8EBTADAgEDMAoGCCqGSM49
BAMCA0gAMEUCIQDPhoWAbaXBm8Qxs9NRjtqq8SkHTw69WJYXqhcYerrILQIgK7QU
SIf+NafKfziqoXljHWAHyN0Hnb2T5LIpsEsHvSE=
-----END CERTIFICATE-----
