Certificate:
    Data:
        Version: 3 (0x2)
        Serial Number: 13 (0xd)
        Signature Algorithm: ecdsa-with-SHA256
        Issuer: CN=Regione Lazio, C=IT, ST=Italia, O=E-Voting system, OU=E-Voting system authority/emailAddress=Lazio@evoting.it
        Validity
            Not Before: Aug 26 15:19:18 2022 GMT
            Not After : Aug 26 15:19:18 2023 GMT
        Subject: CN=Dan, C=IT, ST=Italia, O=Regione Lazio
        Subject Public Key Info:
            Public Key Algorithm: id-ecPublicKey
                Public-Key: (256 bit)
                pub:
                    04:95:a2:0a:cc:fd:7f:35:51:3d:44:47:ac:d7:fa:
                    38:19:1d:2a:a9:45:b9:3a:c5:79:ea:f3:96:e6:c9:
                    34:8d:91:ee:7d:ef:5e:c8:25:88:99:e3:8e:35:ee:
                    5a:68:8c:e4:d8:02:a3:8f:4b:cc:78:83:2d:99:bc:
                    9d:f1:4b:f3:0c
                ASN1 OID: secp256k1
        X509v3 extensions:
            X509v3 Key Usage: critical
                Digital Signature, Key Encipherment
            X509v3 Basic Constraints: critical
                CA:FALSE, pathlen:3
    Signature Algorithm: ecdsa-with-SHA256
         30:45:02:21:00:bf:85:38:b7:61:15:c8:6a:fc:f7:a7:a8:26:
         70:38:25:42:f0:7e:5a:af:75:3f:e8:50:58:27:b9:67:5d:d3:
         01:02:20:50:ac:66:10:cb:eb:58:82:c5:9f:1e:a0:ba:06:e3:
         4f:b8:dd:14:13:ff:0d:69:41:73:c1:f1:af:be:0b:34:14
-----BEGIN CERTIFICATE-----
MIIB6TCCAY+gAwIBAgIBDTAKBggqhkjOPQQDAjCBlTEWMBQGA1UEAwwNUmVnaW9u
ZSBMYXppbzELMAkGA1UEBhMCSVQxDzANBgNVBAgMBkl0YWxpYTEYMBYGA1UECgwP
RS1Wb3Rpbmcgc3lzdGVtMSIwIAYDVQQLDBlFLVZvdGluZyBzeXN0ZW0gYXV0aG9y
aXR5MR8wHQYJKoZIhvcNAQkBFhBMYXppb0Bldm90aW5nLml0MB4XDTIyMDgyNjE1
MTkxOFoXDTIzMDgyNjE1MTkxOFowRDEMMAoGA1UEAwwDRGFuMQswCQYDVQQGEwJJ
VDEPMA0GA1UECAwGSXRhbGlhMRYwFAYDVQQKDA1SZWdpb25lIExhemlvMFYwEAYH
KoZIzj0CAQYFK4EEAAoDQgAElaIKzP1/NVE9REes1/o4GR0qqUW5OsV56vOW5sk0
jZHufe9eyCWImeOONe5aaIzk2AKjj0vMeIMtmbyd8UvzDKMjMCEwDgYDVR0PAQH/
BAQDAgWgMA8GA1UdEwEB/wQFMAMCAQMwCgYIKoZIzj0EAwIDSAAwRQIhAL+FOLdh
Fchq/PenqCZwOCVC8H5ar3U/6FBYJ7lnXdMBAiBQrGYQy+tYgsWfHqC6BuNPuN0U
E/8NaUFzwfGvvgs0FA==
-----END CERTIFICATE-----
