Certificate:
    Data:
        Version: 3 (0x2)
        Serial Number: 36 (0x24)
        Signature Algorithm: ecdsa-with-SHA256
        Issuer: CN=Regione Lazio, C=IT, ST=Italia, O=E-Voting system, OU=E-Voting system authority/emailAddress=Lazio@evoting.it
        Validity
            Not Before: Aug  3 13:27:54 2022 GMT
            Not After : Aug  3 13:27:54 2023 GMT
        Subject: CN=Dane, C=IT, ST=Italia, O=Regione Lazio
        Subject Public Key Info:
            Public Key Algorithm: id-ecPublicKey
                Public-Key: (256 bit)
                pub:
                    04:a1:8b:56:38:03:51:a1:77:ed:ac:5b:13:93:b1:
                    0f:82:6e:c2:63:4c:03:59:d3:61:71:62:96:e6:e3:
                    1b:71:3d:f0:49:a7:eb:f8:0e:18:28:ed:80:05:57:
                    c2:87:07:a0:79:89:1d:6d:d9:8b:32:aa:c2:cd:3e:
                    24:4f:3b:bd:bb
                ASN1 OID: prime256v1
                NIST CURVE: P-256
        X509v3 extensions:
            X509v3 Key Usage: critical
                Digital Signature, Key Encipherment
            X509v3 Basic Constraints: critical
                CA:FALSE, pathlen:3
    Signature Algorithm: ecdsa-with-SHA256
         30:45:02:21:00:de:13:e0:c2:71:67:bd:f4:65:8b:ba:d8:12:
         98:81:ad:51:41:cb:f0:77:c2:dc:f9:99:d3:c0:78:e0:9d:4b:
         16:02:20:79:54:b2:ce:75:f4:db:c0:90:b6:4b:15:63:d3:6d:
         f7:01:12:56:0b:16:c2:4b:b8:4b:29:29:66:92:a6:9d:85
-----BEGIN CERTIFICATE-----
MIIB7TCCAZOgAwIBAgIBJDAKBggqhkjOPQQDAjCBlTEWMBQGA1UEAwwNUmVnaW9u
ZSBMYXppbzELMAkGA1UEBhMCSVQxDzANBgNVBAgMBkl0YWxpYTEYMBYGA1UECgwP
RS1Wb3Rpbmcgc3lzdGVtMSIwIAYDVQQLDBlFLVZvdGluZyBzeXN0ZW0gYXV0aG9y
aXR5MR8wHQYJKoZIhvcNAQkBFhBMYXppb0Bldm90aW5nLml0MB4XDTIyMDgwMzEz
Mjc1NFoXDTIzMDgwMzEzMjc1NFowRTENMAsGA1UEAwwERGFuZTELMAkGA1UEBhMC
SVQxDzANBgNVBAgMBkl0YWxpYTEWMBQGA1UECgwNUmVnaW9uZSBMYXppbzBZMBMG
ByqGSM49AgEGCCqGSM49AwEHA0IABKGLVjgDUaF37axbE5OxD4JuwmNMA1nTYXFi
lubjG3E98Emn6/gOGCjtgAVXwocHoHmJHW3ZizKqws0+JE87vbujIzAhMA4GA1Ud
DwEB/wQEAwIFoDAPBgNVHRMBAf8EBTADAgEDMAoGCCqGSM49BAMCA0gAMEUCIQDe
E+DCcWe99GWLutgSmIGtUUHL8HfC3PmZ08B44J1LFgIgeVSyznX028CQtksVY9Nt
9wESVgsWwku4SykpZpKmnYU=
-----END CERTIFICATE-----
