Certificate:
    Data:
        Version: 3 (0x2)
        Serial Number: 29 (0x1d)
        Signature Algorithm: ecdsa-with-SHA256
        Issuer: CN=Regione Marche, C=IT, ST=Italia, O=E-Voting system, OU=E-Voting system authority/emailAddress=Marche@evoting.it
        Validity
            Not Before: Aug 26 15:21:33 2022 GMT
            Not After : Aug 26 15:21:33 2023 GMT
        Subject: CN=Daniel, C=IT, ST=Italia, O=Regione Marche
        Subject Public Key Info:
            Public Key Algorithm: id-ecPublicKey
                Public-Key: (256 bit)
                pub:
                    04:a8:85:0f:c5:de:28:be:6c:02:81:49:0f:d8:70:
                    58:e6:7c:b3:74:11:ad:04:28:e2:9a:71:c3:15:a9:
                    4d:a3:67:dc:92:7a:b5:ea:fe:ca:88:b7:9e:18:2e:
                    a7:d1:4e:8d:ad:c6:13:70:57:36:8c:8b:e2:b9:4f:
                    2f:ce:dc:ce:03
                ASN1 OID: secp256k1
        X509v3 extensions:
            X509v3 Key Usage: critical
                Digital Signature, Key Encipherment
            X509v3 Basic Constraints: critical
                CA:FALSE, pathlen:3
    Signature Algorithm: ecdsa-with-SHA256
         30:45:02:20:4d:51:89:65:bb:35:f8:bc:50:d2:b0:0b:f8:e4:
         3d:0d:01:2c:5c:0b:48:32:01:35:8d:6e:58:02:a6:42:46:99:
         02:21:00:c4:37:51:75:93:71:f7:20:83:cf:ac:df:52:2a:6b:
         a9:ce:57:79:ca:65:64:bc:86:2a:59:a1:07:9a:53:93:63
-----BEGIN CERTIFICATE-----
MIIB7zCCAZWgAwIBAgIBHTAKBggqhkjOPQQDAjCBlzEXMBUGA1UEAwwOUmVnaW9u
ZSBNYXJjaGUxCzAJBgNVBAYTAklUMQ8wDQYDVQQIDAZJdGFsaWExGDAWBgNVBAoM
D0UtVm90aW5nIHN5c3RlbTEiMCAGA1UECwwZRS1Wb3Rpbmcgc3lzdGVtIGF1dGhv
cml0eTEgMB4GCSqGSIb3DQEJARYRTWFyY2hlQGV2b3RpbmcuaXQwHhcNMjIwODI2
MTUyMTMzWhcNMjMwODI2MTUyMTMzWjBIMQ8wDQYDVQQDDAZEYW5pZWwxCzAJBgNV
BAYTAklUMQ8wDQYDVQQIDAZJdGFsaWExFzAVBgNVBAoMDlJlZ2lvbmUgTWFyY2hl
MFYwEAYHKoZIzj0CAQYFK4EEAAoDQgAEqIUPxd4ovmwCgUkP2HBY5nyzdBGtBCji
mnHDFalNo2fcknq16v7KiLeeGC6n0U6NrcYTcFc2jIviuU8vztzOA6MjMCEwDgYD
VR0PAQH/BAQDAgWgMA8GA1UdEwEB/wQFMAMCAQMwCgYIKoZIzj0EAwIDSAAwRQIg
TVGJZbs1+LxQ0rAL+OQ9DQEsXAtIMgE1jW5YAqZCRpkCIQDEN1F1k3H3IIPPrN9S
Kmupzld5ymVkvIYqWaEHmlOTYw==
-----END CERTIFICATE-----
