Certificate:
    Data:
        Version: 3 (0x2)
        Serial Number: 32 (0x20)
        Signature Algorithm: ecdsa-with-SHA256
        Issuer: CN=Regione Lombardia, C=IT, ST=Italia, O=E-Voting system, OU=E-Voting system authority/emailAddress=Lombardia@evoting.it
        Validity
            Not Before: Aug 26 15:20:37 2022 GMT
            Not After : Aug 26 15:20:37 2023 GMT
        Subject: CN=Danielle, C=IT, ST=Italia, O=Regione Lombardia
        Subject Public Key Info:
            Public Key Algorithm: id-ecPublicKey
                Public-Key: (256 bit)
                pub:
                    04:6a:66:07:ba:74:b3:75:12:ee:a9:ec:29:5d:e0:
                    e4:79:0c:a7:25:8d:8b:94:75:1e:04:d1:bb:f5:f7:
                    08:93:b4:92:27:b6:13:88:16:53:dc:4e:56:c2:aa:
                    0f:34:84:4a:d4:b6:6f:da:25:85:42:20:ae:3d:dc:
                    26:ed:83:ba:28
                ASN1 OID: secp256k1
        X509v3 extensions:
            X509v3 Key Usage: critical
                Digital Signature, Key Encipherment
            X509v3 Basic Constraints: critical
                CA:FALSE, pathlen:3
    Signature Algorithm: ecdsa-with-SHA256
         30:45:02:21:00:ee:78:2a:17:6d:8c:92:c1:bd:98:4f:b6:86:
         9f:d7:c0:dc:3c:f5:e5:5c:b1:39:6c:99:4a:ed:6e:6c:8f:77:
         d5:02:20:45:81:ce:8e:c7:55:ca:c5:51:05:73:8e:4e:e7:1b:
         35:4b:d8:f0:51:e3:c8:19:3f:12:de:77:35:00:4b:b5:90
-----BEGIN CERTIFICATE-----
MIIB+jCCAaCgAwIBAgIBIDAKBggqhkjOPQQDAjCBnTEaMBgGA1UEAwwRUmVnaW9u
ZSBMb21iYXJkaWExCzAJBgNVBAYTAklUMQ8wDQYDVQQIDAZJdGFsaWExGDAWBgNV
BAoMD0UtVm90aW5nIHN5c3RlbTEiMCAGA1UECwwZRS1Wb3Rpbmcgc3lzdGVtIGF1
dGhvcml0eTEjMCEGCSqGSIb3DQEJARYUTG9tYmFyZGlhQGV2b3RpbmcuaXQwHhcN
MjIwODI2MTUyMDM3WhcNMjMwODI2MTUyMDM3WjBNMREwDwYDVQQDDAhEYW5pZWxs
ZTELMAkGA1UEBhMCSVQxDzANBgNVBAgMBkl0YWxpYTEaMBgGA1UECgwRUmVnaW9u
ZSBMb21iYXJkaWEwVjAQBgcqhkjOPQIBBgUrgQQACgNCAARqZge6dLN1Eu6p7Cld
4OR5DKcljYuUdR4E0bv19wiTtJInthOIFlPcTlbCqg80hErUtm/aJYVCIK493Cbt
g7oooyMwITAOBgNVHQ8BAf8EBAMCBaAwDwYDVR0TAQH/BAUwAwIBAzAKBggqhkjO
PQQDAgNIADBFAiEA7ngqF22MksG9mE+2hp/XwNw89eVcsTlsmUrtbmyPd9UCIEWB
zo7HVcrFUQVzjk7nGzVL2PBR48gZPxLedzUAS7WQ
-----END CERTIFICATE-----
