Certificate:
    Data:
        Version: 3 (0x2)
        Serial Number: 55 (0x37)
        Signature Algorithm: ecdsa-with-SHA256
        Issuer: CN=Regione Lazio, C=IT, ST=Italia, O=E-Voting system, OU=E-Voting system authority/emailAddress=Lazio@evoting.it
        Validity
            Not Before: Aug  3 13:28:46 2022 GMT
            Not After : Aug  3 13:28:46 2023 GMT
        Subject: CN=Daniel, C=IT, ST=Italia, O=Regione Lazio
        Subject Public Key Info:
            Public Key Algorithm: id-ecPublicKey
                Public-Key: (256 bit)
                pub:
                    04:41:c9:31:cd:d5:9d:61:6a:2b:31:de:19:b2:6f:
                    1d:1e:9f:39:7f:06:fa:89:cc:16:6c:7a:11:62:03:
                    76:f2:5d:2d:18:b0:4e:47:99:d9:7c:1a:36:7e:19:
                    c0:58:b9:38:64:41:54:49:c6:2d:21:90:25:13:a0:
                    af:08:2c:e0:2b
                ASN1 OID: prime256v1
                NIST CURVE: P-256
        X509v3 extensions:
            X509v3 Key Usage: critical
                Digital Signature, Key Encipherment
            X509v3 Basic Constraints: critical
                CA:FALSE, pathlen:3
    Signature Algorithm: ecdsa-with-SHA256
         30:45:02:20:2e:82:06:f0:02:01:e6:88:d7:ac:2f:40:ad:0b:
         90:c1:76:96:31:05:3a:74:de:6a:e0:22:d0:2c:a4:4c:9f:32:
         02:21:00:e5:18:a6:1b:18:8f:af:46:4f:cc:2d:ae:c7:f5:b3:
         78:22:de:71:5d:cf:c5:5d:27:03:f9:ec:b8:68:a0:a1:8b
-----BEGIN CERTIFICATE-----
MIIB7zCCAZWgAwIBAgIBNzAKBggqhkjOPQQDAjCBlTEWMBQGA1UEAwwNUmVnaW9u
ZSBMYXppbzELMAkGA1UEBhMCSVQxDzANBgNVBAgMBkl0YWxpYTEYMBYGA1UECgwP
RS1Wb3Rpbmcgc3lzdGVtMSIwIAYDVQQLDBlFLVZvdGluZyBzeXN0ZW0gYXV0aG9y
aXR5MR8wHQYJKoZIhvcNAQkBFhBMYXppb0Bldm90aW5nLml0MB4XDTIyMDgwMzEz
Mjg0NloXDTIzMDgwMzEzMjg0NlowRzEPMA0GA1UEAwwGRGFuaWVsMQswCQYDVQQG
EwJJVDEPMA0GA1UECAwGSXRhbGlhMRYwFAYDVQQKDA1SZWdpb25lIExhemlvMFkw
EwYHKoZIzj0CAQYIKoZIzj0DAQcDQgAEQckxzdWdYWorMd4Zsm8dHp85fwb6icwW
bHoRYgN28l0tGLBOR5nZfBo2fhnAWLk4ZEFUScYtIZAlE6CvCCzgK6MjMCEwDgYD
VR0PAQH/BAQDAgWgMA8GA1UdEwEB/wQFMAMCAQMwCgYIKoZIzj0EAwIDSAAwRQIg
LoIG8AIB5ojXrC9ArQuQwXaWMQU6dN5q4CLQLKRMnzICIQDlGKYbGI+vRk/MLa7H
9bN4It5xXc/FXScD+ey4aKChiw==
-----END CERTIFICATE-----
