Certificate:
    Data:
        Version: 3 (0x2)
        Serial Number: 6 (0x6)
        Signature Algorithm: ecdsa-with-SHA256
        Issuer: CN=Regione Calabria, C=IT, ST=Italia, O=E-Voting system, OU=E-Voting system authority/emailAddress=Calabria@evoting.it
        Validity
            Not Before: Aug  3 13:26:02 2022 GMT
            Not After : Aug  3 13:26:02 2023 GMT
        Subject: CN=Danielle, C=IT, ST=Italia, O=Regione Calabria
        Subject Public Key Info:
            Public Key Algorithm: id-ecPublicKey
                Public-Key: (256 bit)
                pub:
                    04:cc:17:13:6a:02:4e:04:9e:57:d5:0b:98:08:51:
                    6b:91:7d:fb:43:03:8d:96:d8:c3:a0:dd:87:71:10:
                    5f:ac:d1:70:0a:b4:cd:31:5d:03:a4:e2:47:d6:0c:
                    ce:ed:e6:ca:e6:13:a6:2a:eb:c9:77:d8:b8:4b:2f:
                    0a:2a:38:6e:d3
                ASN1 OID: prime256v1
                NIST CURVE: P-256
        X509v3 extensions:
            X509v3 Key Usage: critical
                Digital Signature, Key Encipherment
            X509v3 Basic Constraints: critical
                CA:FALSE, pathlen:3
    Signature Algorithm: ecdsa-with-SHA256
         30:44:02:20:1c:eb:fa:7e:c5:ba:e0:3f:6c:8c:21:45:b3:97:
         0a:82:5c:92:64:5c:a8:61:98:1c:b6:20:7a:68:da:c8:d3:6c:
         02:20:1e:db:7f:d2:c0:da:be:6c:6e:35:17:a8:37:ba:5b:c4:
         9a:c8:fc:10:8a:60:77:56:d7:64:c8:9d:6e:30:be:8a
-----BEGIN CERTIFICATE-----
MIIB+TCCAaCgAwIBAgIBBjAKBggqhkjOPQQDAjCBmzEZMBcGA1UEAwwQUmVnaW9u
ZSBDYWxhYnJpYTELMAkGA1UEBhMCSVQxDzANBgNVBAgMBkl0YWxpYTEYMBYGA1UE
CgwPRS1Wb3Rpbmcgc3lzdGVtMSIwIAYDVQQLDBlFLVZvdGluZyBzeXN0ZW0gYXV0
aG9yaXR5MSIwIAYJKoZIhvcNAQkBFhNDYWxhYnJpYUBldm90aW5nLml0MB4XDTIy
MDgwMzEzMjYwMloXDTIzMDgwMzEzMjYwMlowTDERMA8GA1UEAwwIRGFuaWVsbGUx
CzAJBgNVBAYTAklUMQ8wDQYDVQQIDAZJdGFsaWExGTAXBgNVBAoMEFJlZ2lvbmUg
Q2FsYWJyaWEwWTATBgcqhkjOPQIBBggqhkjOPQMBBwNCAATMFxNqAk4EnlfVC5gI
UWuRfftDA42W2MOg3YdxEF+s0XAKtM0xXQOk4kfWDM7t5srmE6Yq68l32LhLLwoq
OG7ToyMwITAOBgNVHQ8BAf8EBAMCBaAwDwYDVR0TAQH/BAUwAwIBAzAKBggqhkjO
PQQDAgNHADBEAiAc6/p+xbrgP2yMIUWzlwqCXJJkXKhhmBy2IHpo2sjTbAIgHtt/
0sDavmxuNReoN7pbxJrI/BCKYHdW12TInW4wvoo=
-----END CERTIFICATE-----
