Certificate:
    Data:
        Version: 3 (0x2)
        Serial Number: 41 (0x29)
        Signature Algorithm: ecdsa-with-SHA256
        Issuer: CN=Regione Liguria, C=IT, ST=Italia, O=E-Voting system, OU=E-Voting system authority/emailAddress=Liguria@evoting.it
        Validity
            Not Before: Aug 26 15:20:39 2022 GMT
            Not After : Aug 26 15:20:39 2023 GMT
        Subject: CN=Darin, C=IT, ST=Italia, O=Regione Liguria
        Subject Public Key Info:
            Public Key Algorithm: id-ecPublicKey
                Public-Key: (256 bit)
                pub:
                    04:6c:5f:01:fe:22:c0:9a:c0:25:4d:ba:67:d8:03:
                    2b:b3:5e:7c:8e:3c:29:df:71:50:9b:7f:e6:d4:9d:
                    6a:a9:bf:20:0d:c4:84:87:70:80:f8:1d:26:80:8c:
                    7f:d4:44:c1:0e:12:26:5d:95:09:fd:b7:53:29:5e:
                    8d:e2:70:71:0b
                ASN1 OID: secp256k1
        X509v3 extensions:
            X509v3 Key Usage: critical
                Digital Signature, Key Encipherment
            X509v3 Basic Constraints: critical
                CA:FALSE, pathlen:3
    Signature Algorithm: ecdsa-with-SHA256
         30:44:02:20:62:a0:00:12:09:f7:8e:7a:9b:d8:ed:32:85:86:
         e7:0e:e2:b8:d1:f3:1e:f0:54:e7:02:7e:02:e2:c5:ae:7d:10:
         02:20:14:75:96:9d:bc:f5:8c:f2:3f:a8:dc:8a:c3:95:08:6a:
         91:45:3a:9a:a0:4e:78:d1:81:5b:40:5a:27:5a:fe:ec
-----BEGIN CERTIFICATE-----
MIIB8DCCAZegAwIBAgIBKTAKBggqhkjOPQQDAjCBmTEYMBYGA1UEAwwPUmVnaW9u
ZSBMaWd1cmlhMQswCQYDVQQGEwJJVDEPMA0GA1UECAwGSXRhbGlhMRgwFgYDVQQK
DA9FLVZvdGluZyBzeXN0ZW0xIjAgBgNVBAsMGUUtVm90aW5nIHN5c3RlbSBhdXRo
b3JpdHkxITAfBgkqhkiG9w0BCQEWEkxpZ3VyaWFAZXZvdGluZy5pdDAeFw0yMjA4
MjYxNTIwMzlaFw0yMzA4MjYxNTIwMzlaMEgxDjAMBgNVBAMMBURhcmluMQswCQYD
VQQGEwJJVDEPMA0GA1UECAwGSXRhbGlhMRgwFgYDVQQKDA9SZWdpb25lIExpZ3Vy
aWEwVjAQBgcqhkjOPQIBBgUrgQQACgNCAARsXwH+IsCawCVNumfYAyuzXnyOPCnf
cVCbf+bUnWqpvyANxISHcID4HSaAjH/URMEOEiZdlQn9t1MpXo3icHELoyMwITAO
BgNVHQ8BAf8EBAMCBaAwDwYDVR0TAQH/BAUwAwIBAzAKBggqhkjOPQQDAgNHADBE
AiBioAASCfeOepvY7TKFhucO4rjR8x7wVOcCfgLixa59EAIgFHWWnbz1jPI/qNyK
w5UIapFFOpqgTnjRgVtAWida/uw=
-----END CERTIFICATE-----
