Certificate:
    Data:
        Version: 3 (0x2)
        Serial Number: 57 (0x39)
        Signature Algorithm: ecdsa-with-SHA256
        Issuer: CN=Regione Lombardia, C=IT, ST=Italia, O=E-Voting system, OU=E-Voting system authority/emailAddress=Lombardia@evoting.it
        Validity
            Not Before: Aug 26 15:21:45 2022 GMT
            Not After : Aug 26 15:21:45 2023 GMT
        Subject: CN=Darlene, C=IT, ST=Italia, O=Regione Lombardia
        Subject Public Key Info:
            Public Key Algorithm: id-ecPublicKey
                Public-Key: (256 bit)
                pub:
                    04:43:75:4d:a0:aa:0c:e6:38:0f:49:c4:f1:6b:15:
                    a3:74:b8:e7:1c:b1:e0:8f:41:5f:af:20:7c:97:d4:
                    b6:b6:73:62:41:5a:22:32:b6:5e:f4:7b:d8:81:12:
                    ce:c3:cb:c0:80:4a:e6:25:4d:35:35:9d:1f:8a:92:
                    7c:db:96:3d:ad
                ASN1 OID: secp256k1
        X509v3 extensions:
            X509v3 Key Usage: critical
                Digital Signature, Key Encipherment
            X509v3 Basic Constraints: critical
                CA:FALSE, pathlen:3
    Signature Algorithm: ecdsa-with-SHA256
         30:44:02:20:51:03:f5:6e:1f:4f:ce:48:e1:a0:6d:d8:a4:47:
         c4:71:ee:44:c4:e7:9c:a5:1e:c2:ff:1d:1f:e7:aa:9c:e0:3f:
         02:20:3a:84:78:d3:30:2a:2a:7b:4e:41:b5:af:c4:4e:0b:85:
         66:c1:b0:36:2e:bb:d5:3e:b1:0e:40:79:16:29:cd:f1
-----BEGIN CERTIFICATE-----
MIIB+DCCAZ+gAwIBAgIBOTAKBggqhkjOPQQDAjCBnTEaMBgGA1UEAwwRUmVnaW9u
ZSBMb21iYXJkaWExCzAJBgNVBAYTAklUMQ8wDQYDVQQIDAZJdGFsaWExGDAWBgNV
BAoMD0UtVm90aW5nIHN5c3RlbTEiMCAGA1UECwwZRS1Wb3Rpbmcgc3lzdGVtIGF1
dGhvcml0eTEjMCEGCSqGSIb3DQEJARYUTG9tYmFyZGlhQGV2b3RpbmcuaXQwHhcN
MjIwODI2MTUyMTQ1WhcNMjMwODI2MTUyMTQ1WjBMMRAwDgYDVQQDDAdEYXJsZW5l
MQswCQYDVQQGEwJJVDEPMA0GA1UECAwGSXRhbGlhMRowGAYDVQQKDBFSZWdpb25l
IExvbWJhcmRpYTBWMBAGByqGSM49AgEGBSuBBAAKA0IABEN1TaCqDOY4D0nE8WsV
o3S45xyx4I9BX68gfJfUtrZzYkFaIjK2XvR72IESzsPLwIBK5iVNNTWdH4qSfNuW
Pa2jIzAhMA4GA1UdDwEB/wQEAwIFoDAPBgNVHRMBAf8EBTADAgEDMAoGCCqGSM49
BAMCA0cAMEQCIFED9W4fT85I4aBt2KRHxHHuRMTnnKUewv8dH+eqnOA/AiA6hHjT
MCoqe05Bta/ETguFZsGwNi671T6xDkB5FinN8Q==
-----END CERTIFICATE-----
