Certificate:
    Data:
        Version: 3 (0x2)
        Serial Number: 23 (0x17)
        Signature Algorithm: ecdsa-with-SHA256
        Issuer: CN=Regione Friuli_Venezia_Giulia, C=IT, ST=Italia, O=E-Voting system, OU=E-Voting system authority/emailAddress=Friuli_Venezia_Giulia@evoting.it
        Validity
            Not Before: Aug 26 15:20:20 2022 GMT
            Not After : Aug 26 15:20:20 2023 GMT
        Subject: CN=Darren, C=IT, ST=Italia, O=Regione Friuli_Venezia_Giulia
        Subject Public Key Info:
            Public Key Algorithm: id-ecPublicKey
                Public-Key: (256 bit)
                pub:
                    04:92:47:58:bb:f2:1c:8e:e3:d0:0d:e6:1f:e4:5d:
                    95:c1:24:e4:c6:6a:c2:53:71:ed:c0:dc:80:f7:fb:
                    06:fb:e1:a2:1e:55:68:07:04:76:bd:08:29:b9:68:
                    a6:f1:a3:83:c6:c2:25:db:c1:f5:b2:f4:05:12:9b:
                    d4:ba:91:37:a2
                ASN1 OID: secp256k1
        X509v3 extensions:
            X509v3 Key Usage: critical
                Digital Signature, Key Encipherment
            X509v3 Basic Constraints: critical
                CA:FALSE, pathlen:3
    Signature Algorithm: ecdsa-with-SHA256
         30:46:02:21:00:d2:bd:78:f9:dd:3b:27:ee:23:cd:78:3c:b4:
         ee:63:4f:d5:40:34:46:d0:fc:7b:a3:95:11:c4:94:6d:49:63:
         cf:02:21:00:e1:56:2e:62:ce:dc:67:bb:b1:2e:8c:db:e6:0c:
         26:8d:20:36:8b:84:51:84:96:73:44:d5:53:4f:b0:fe:fb:c7
-----BEGIN CERTIFICATE-----
MIICHTCCAcKgAwIBAgIBFzAKBggqhkjOPQQDAjCBtTEmMCQGA1UEAwwdUmVnaW9u
ZSBGcml1bGlfVmVuZXppYV9HaXVsaWExCzAJBgNVBAYTAklUMQ8wDQYDVQQIDAZJ
dGFsaWExGDAWBgNVBAoMD0UtVm90aW5nIHN5c3RlbTEiMCAGA1UECwwZRS1Wb3Rp
bmcgc3lzdGVtIGF1dGhvcml0eTEvMC0GCSqGSIb3DQEJARYgRnJpdWxpX1ZlbmV6
aWFfR2l1bGlhQGV2b3RpbmcuaXQwHhcNMjIwODI2MTUyMDIwWhcNMjMwODI2MTUy
MDIwWjBXMQ8wDQYDVQQDDAZEYXJyZW4xCzAJBgNVBAYTAklUMQ8wDQYDVQQIDAZJ
dGFsaWExJjAkBgNVBAoMHVJlZ2lvbmUgRnJpdWxpX1ZlbmV6aWFfR2l1bGlhMFYw
EAYHKoZIzj0CAQYFK4EEAAoDQgAEkkdYu/IcjuPQDeYf5F2VwSTkxmrCU3HtwNyA
9/sG++GiHlVoBwR2vQgpuWim8aODxsIl28H1svQFEpvUupE3oqMjMCEwDgYDVR0P
AQH/BAQDAgWgMA8GA1UdEwEB/wQFMAMCAQMwCgYIKoZIzj0EAwIDSQAwRgIhANK9
ePndOyfuI814PLTuY0/VQDRG0Px7o5URxJRtSWPPAiEA4VYuYs7cZ7uxLozb5gwm
jSA2i4RRhJZzRNVTT7D++8c=
-----END CERTIFICATE-----
