Certificate:
    Data:
        Version: 3 (0x2)
        Serial Number: 48 (0x30)
        Signature Algorithm: ecdsa-with-SHA256
        Issuer: CN=Regione Calabria, C=IT, ST=Italia, O=E-Voting system, OU=E-Voting system authority/emailAddress=Calabria@evoting.it
        Validity
            Not Before: Aug  3 13:28:20 2022 GMT
            Not After : Aug  3 13:28:20 2023 GMT
        Subject: CN=Darrin, C=IT, ST=Italia, O=Regione Calabria
        Subject Public Key Info:
            Public Key Algorithm: id-ecPublicKey
                Public-Key: (256 bit)
                pub:
                    04:88:6f:91:46:a9:50:43:55:97:56:91:ba:ec:42:
                    19:26:a6:ce:a1:db:9c:5b:a7:59:c7:cb:61:49:98:
                    e0:c9:e9:36:92:a1:d4:9f:5b:28:5e:92:4c:32:f9:
                    8d:ce:96:24:13:73:a1:84:c3:4a:c3:dd:4e:26:32:
                    f7:2b:5c:99:fc
                ASN1 OID: prime256v1
                NIST CURVE: P-256
        X509v3 extensions:
            X509v3 Key Usage: critical
                Digital Signature, Key Encipherment
            X509v3 Basic Constraints: critical
                CA:FALSE, pathlen:3
    Signature Algorithm: ecdsa-with-SHA256
         30:44:02:20:7e:37:cf:dd:9c:a9:08:77:21:24:be:66:a8:03:
         83:41:7c:cb:07:1f:8d:4a:8b:9d:9a:3d:00:23:cc:4e:ba:c1:
         02:20:30:ee:77:36:c9:7b:4c:f1:c7:88:31:f6:47:b3:6f:8e:
         36:50:98:f6:6e:a8:31:02:70:f5:cc:7b:c5:73:38:34
-----BEGIN CERTIFICATE-----
MIIB9zCCAZ6gAwIBAgIBMDAKBggqhkjOPQQDAjCBmzEZMBcGA1UEAwwQUmVnaW9u
ZSBDYWxhYnJpYTELMAkGA1UEBhMCSVQxDzANBgNVBAgMBkl0YWxpYTEYMBYGA1UE
CgwPRS1Wb3Rpbmcgc3lzdGVtMSIwIAYDVQQLDBlFLVZvdGluZyBzeXN0ZW0gYXV0
aG9yaXR5MSIwIAYJKoZIhvcNAQkBFhNDYWxhYnJpYUBldm90aW5nLml0MB4XDTIy
MDgwMzEzMjgyMFoXDTIzMDgwMzEzMjgyMFowSjEPMA0GA1UEAwwGRGFycmluMQsw
CQYDVQQGEwJJVDEPMA0GA1UECAwGSXRhbGlhMRkwFwYDVQQKDBBSZWdpb25lIENh
bGFicmlhMFkwEwYHKoZIzj0CAQYIKoZIzj0DAQcDQgAEiG+RRqlQQ1WXVpG67EIZ
JqbOoducW6dZx8thSZjgyek2kqHUn1soXpJMMvmNzpYkE3OhhMNKw91OJjL3K1yZ
/KMjMCEwDgYDVR0PAQH/BAQDAgWgMA8GA1UdEwEB/wQFMAMCAQMwCgYIKoZIzj0E
AwIDRwAwRAIgfjfP3ZypCHchJL5mqAODQXzLBx+NSoudmj0AI8xOusECIDDudzbJ
e0zxx4gx9kezb442UJj2bqgxAnD1zHvFczg0
-----END CERTIFICATE-----
