Certificate:
    Data:
        Version: 3 (0x2)
        Serial Number: 8 (0x8)
        Signature Algorithm: ecdsa-with-SHA256
        Issuer: CN=Regione Veneto, C=IT, ST=Italia, O=E-Voting system, OU=E-Voting system authority/emailAddress=Veneto@evoting.it
        Validity
            Not Before: Aug 26 15:19:20 2022 GMT
            Not After : Aug 26 15:19:20 2023 GMT
        Subject: CN=Darrell, C=IT, ST=Italia, O=Regione Veneto
        Subject Public Key Info:
            Public Key Algorithm: id-ecPublicKey
                Public-Key: (256 bit)
                pub:
                    04:df:c7:8d:c5:20:55:63:de:fe:c2:3b:97:8d:f8:
                    e4:f9:89:f4:0d:62:ab:a3:33:7c:03:3b:5f:23:bd:
                    fc:2f:81:ec:81:e2:d6:51:3e:df:9e:5a:5b:dd:48:
                    0c:8f:ac:fe:b2:7e:ba:d9:2a:a7:aa:d3:d3:3e:2d:
                    30:a0:42:71:6e
                ASN1 OID: secp256k1
        X509v3 extensions:
            X509v3 Key Usage: critical
                Digital Signature, Key Encipherment
            X509v3 Basic Constraints: critical
                CA:FALSE, pathlen:3
    Signature Algorithm: ecdsa-with-SHA256
         30:44:02:20:5a:2d:e9:76:83:5f:47:c3:f1:5f:e8:b9:f1:1c:
         5e:05:f0:3d:1a:bf:4d:6d:a1:d0:19:43:d9:88:9c:78:38:83:
         02:20:65:2f:b2:b5:55:80:3e:cb:a9:14:2f:05:25:33:29:d2:
         a4:4d:b0:55:55:37:dc:27:07:d2:49:7e:10:7b:b3:dc
-----BEGIN CERTIFICATE-----
MIIB7zCCAZagAwIBAgIBCDAKBggqhkjOPQQDAjCBlzEXMBUGA1UEAwwOUmVnaW9u
ZSBWZW5ldG8xCzAJBgNVBAYTAklUMQ8wDQYDVQQIDAZJdGFsaWExGDAWBgNVBAoM
D0UtVm90aW5nIHN5c3RlbTEiMCAGA1UECwwZRS1Wb3Rpbmcgc3lzdGVtIGF1dGhv
cml0eTEgMB4GCSqGSIb3DQEJARYRVmVuZXRvQGV2b3RpbmcuaXQwHhcNMjIwODI2
MTUxOTIwWhcNMjMwODI2MTUxOTIwWjBJMRAwDgYDVQQDDAdEYXJyZWxsMQswCQYD
VQQGEwJJVDEPMA0GA1UECAwGSXRhbGlhMRcwFQYDVQQKDA5SZWdpb25lIFZlbmV0
bzBWMBAGByqGSM49AgEGBSuBBAAKA0IABN/HjcUgVWPe/sI7l4345PmJ9A1iq6Mz
fAM7XyO9/C+B7IHi1lE+355aW91IDI+s/rJ+utkqp6rT0z4tMKBCcW6jIzAhMA4G
A1UdDwEB/wQEAwIFoDAPBgNVHRMBAf8EBTADAgEDMAoGCCqGSM49BAMCA0cAMEQC
IFot6XaDX0fD8V/oufEcXgXwPRq/TW2h0BlD2YiceDiDAiBlL7K1VYA+y6kULwUl
MynSpE2wVVU33CcH0kl+EHuz3A==
-----END CERTIFICATE-----
