Certificate:
    Data:
        Version: 3 (0x2)
        Serial Number: 16 (0x10)
        Signature Algorithm: ecdsa-with-SHA256
        Issuer: CN=Regione Lazio, C=IT, ST=Italia, O=E-Voting system, OU=E-Voting system authority/emailAddress=Lazio@evoting.it
        Validity
            Not Before: Aug  3 13:26:10 2022 GMT
            Not After : Aug  3 13:26:10 2023 GMT
        Subject: CN=Darrell, C=IT, ST=Italia, O=Regione Lazio
        Subject Public Key Info:
            Public Key Algorithm: id-ecPublicKey
                Public-Key: (256 bit)
                pub:
                    04:05:20:34:82:57:0a:87:87:3a:9a:7d:c3:1a:7d:
                    9c:fd:87:15:b0:bb:ed:45:f8:71:b9:38:cb:8c:16:
                    0e:57:3b:ac:17:a9:ab:86:d5:41:6b:37:77:fb:2a:
                    d2:3a:b3:c3:8f:ff:25:af:39:47:f4:ff:22:20:51:
                    f7:dd:db:07:82
                ASN1 OID: prime256v1
                NIST CURVE: P-256
        X509v3 extensions:
            X509v3 Key Usage: critical
                Digital Signature, Key Encipherment
            X509v3 Basic Constraints: critical
                CA:FALSE, pathlen:3
    Signature Algorithm: ecdsa-with-SHA256
         30:45:02:20:1a:ec:ae:e4:74:ee:37:74:c4:ec:d4:b4:ec:4a:
         9a:31:c8:7e:7b:64:65:d9:a2:a5:62:a3:d1:59:95:1a:cf:7f:
         02:21:00:9b:5d:fd:6d:b6:80:43:fc:a1:e4:8b:b4:c8:69:ca:
         ec:f5:78:7b:8b:60:e9:b3:48:2e:e5:62:5f:b3:b7:93:7e
-----BEGIN CERTIFICATE-----
MIIB8DCCAZagAwIBAgIBEDAKBggqhkjOPQQDAjCBlTEWMBQGA1UEAwwNUmVnaW9u
ZSBMYXppbzELMAkGA1UEBhMCSVQxDzANBgNVBAgMBkl0YWxpYTEYMBYGA1UECgwP
RS1Wb3Rpbmcgc3lzdGVtMSIwIAYDVQQLDBlFLVZvdGluZyBzeXN0ZW0gYXV0aG9y
aXR5MR8wHQYJKoZIhvcNAQkBFhBMYXppb0Bldm90aW5nLml0MB4XDTIyMDgwMzEz
MjYxMFoXDTIzMDgwMzEzMjYxMFowSDEQMA4GA1UEAwwHRGFycmVsbDELMAkGA1UE
BhMCSVQxDzANBgNVBAgMBkl0YWxpYTEWMBQGA1UECgwNUmVnaW9uZSBMYXppbzBZ
MBMGByqGSM49AgEGCCqGSM49AwEHA0IABAUgNIJXCoeHOpp9wxp9nP2HFbC77UX4
cbk4y4wWDlc7rBepq4bVQWs3d/sq0jqzw4//Ja85R/T/IiBR993bB4KjIzAhMA4G
A1UdDwEB/wQEAwIFoDAPBgNVHRMBAf8EBTADAgEDMAoGCCqGSM49BAMCA0gAMEUC
IBrsruR07jd0xOzUtOxKmjHIfntkZdmipWKj0VmVGs9/AiEAm139bbaAQ/yh5Iu0
yGnK7PV4e4tg6bNILuViX7O3k34=
-----END CERTIFICATE-----
