Certificate:
    Data:
        Version: 3 (0x2)
        Serial Number: 2 (0x2)
        Signature Algorithm: ecdsa-with-SHA256
        Issuer: CN=Regione Trentino_Alto_Adige, C=IT, ST=Italia, O=E-Voting system, OU=E-Voting system authority/emailAddress=Trentino_Alto_Adige@evoting.it
        Validity
            Not Before: Aug 26 15:18:26 2022 GMT
            Not After : Aug 26 15:18:26 2023 GMT
        Subject: CN=Dave, C=IT, ST=Italia, O=Regione Trentino_Alto_Adige
        Subject Public Key Info:
            Public Key Algorithm: id-ecPublicKey
                Public-Key: (256 bit)
                pub:
                    04:4a:71:7c:6c:41:17:a7:24:90:e7:ea:cd:90:29:
                    75:99:98:30:ca:e8:53:0c:66:0d:b1:7b:c6:de:06:
                    7b:ab:73:27:fd:54:cd:c0:8c:61:82:ac:90:c1:86:
                    b6:d0:eb:7c:4a:b8:b4:48:d0:5f:6a:52:51:af:8b:
                    02:76:fa:86:3d
                ASN1 OID: secp256k1
        X509v3 extensions:
            X509v3 Key Usage: critical
                Digital Signature, Key Encipherment
            X509v3 Basic Constraints: critical
                CA:FALSE, pathlen:3
    Signature Algorithm: ecdsa-with-SHA256
         30:45:02:20:51:b4:e1:4b:34:33:03:11:2c:d5:48:87:5b:06:
         42:fd:5c:ee:8d:1b:b4:37:72:97:9f:2a:92:3b:aa:b0:ba:bd:
         02:21:00:b7:5f:09:9a:5e:02:0b:15:c5:76:92:14:ec:dc:a3:
         64:73:3d:69:dc:43:ed:ea:b4:11:01:82:f4:11:66:8b:41
-----BEGIN CERTIFICATE-----
MIICFDCCAbqgAwIBAgIBAjAKBggqhkjOPQQDAjCBsTEkMCIGA1UEAwwbUmVnaW9u
ZSBUcmVudGlub19BbHRvX0FkaWdlMQswCQYDVQQGEwJJVDEPMA0GA1UECAwGSXRh
bGlhMRgwFgYDVQQKDA9FLVZvdGluZyBzeXN0ZW0xIjAgBgNVBAsMGUUtVm90aW5n
IHN5c3RlbSBhdXRob3JpdHkxLTArBgkqhkiG9w0BCQEWHlRyZW50aW5vX0FsdG9f
QWRpZ2VAZXZvdGluZy5pdDAeFw0yMjA4MjYxNTE4MjZaFw0yMzA4MjYxNTE4MjZa
MFMxDTALBgNVBAMMBERhdmUxCzAJBgNVBAYTAklUMQ8wDQYDVQQIDAZJdGFsaWEx
JDAiBgNVBAoMG1JlZ2lvbmUgVHJlbnRpbm9fQWx0b19BZGlnZTBWMBAGByqGSM49
AgEGBSuBBAAKA0IABEpxfGxBF6ckkOfqzZApdZmYMMroUwxmDbF7xt4Ge6tzJ/1U
zcCMYYKskMGGttDrfEq4tEjQX2pSUa+LAnb6hj2jIzAhMA4GA1UdDwEB/wQEAwIF
oDAPBgNVHRMBAf8EBTADAgEDMAoGCCqGSM49BAMCA0gAMEUCIFG04Us0MwMRLNVI
h1sGQv1c7o0btDdyl58qkjuqsLq9AiEAt18Jml4CCxXFdpIU7NyjZHM9adxD7eq0
EQGC9BFmi0E=
-----END CERTIFICATE-----
