Certificate:
    Data:
        Version: 3 (0x2)
        Serial Number: 2 (0x2)
        Signature Algorithm: ecdsa-with-SHA256
        Issuer: CN=Regione Piemonte, C=IT, ST=Italia, O=E-Voting system, OU=E-Voting system authority/emailAddress=Piemonte@evoting.it
        Validity
            Not Before: Aug 26 15:18:30 2022 GMT
            Not After : Aug 26 15:18:30 2023 GMT
        Subject: CN=David, C=IT, ST=Italia, O=Regione Piemonte
        Subject Public Key Info:
            Public Key Algorithm: id-ecPublicKey
                Public-Key: (256 bit)
                pub:
                    04:f1:78:74:4b:15:1e:88:99:23:0f:1a:3d:da:f1:
                    e0:d2:9e:82:78:27:fc:2c:7b:97:10:cd:db:7e:26:
                    05:9c:26:fb:8e:8f:d5:ea:bf:71:ec:1f:7b:56:75:
                    38:6f:94:15:70:69:84:bf:11:55:48:29:61:e5:f4:
                    57:73:10:50:dd
                ASN1 OID: secp256k1
        X509v3 extensions:
            X509v3 Key Usage: critical
                Digital Signature, Key Encipherment
            X509v3 Basic Constraints: critical
                CA:FALSE, pathlen:3
    Signature Algorithm: ecdsa-with-SHA256
         30:44:02:20:52:e9:8f:32:db:4e:61:bb:c7:73:91:b7:fa:4b:
         0e:50:a3:02:cf:42:72:eb:5f:eb:62:81:50:7d:1e:86:c4:27:
         02:20:70:af:03:3b:2e:99:57:6f:c6:91:5b:c5:df:70:67:c8:
         74:f2:08:0d:d0:59:22:c9:94:2e:67:f0:c6:13:2d:a8
-----BEGIN CERTIFICATE-----
MIIB8zCCAZqgAwIBAgIBAjAKBggqhkjOPQQDAjCBmzEZMBcGA1UEAwwQUmVnaW9u
ZSBQaWVtb250ZTELMAkGA1UEBhMCSVQxDzANBgNVBAgMBkl0YWxpYTEYMBYGA1UE
CgwPRS1Wb3Rpbmcgc3lzdGVtMSIwIAYDVQQLDBlFLVZvdGluZyBzeXN0ZW0gYXV0
aG9yaXR5MSIwIAYJKoZIhvcNAQkBFhNQaWVtb250ZUBldm90aW5nLml0MB4XDTIy
MDgyNjE1MTgzMFoXDTIzMDgyNjE1MTgzMFowSTEOMAwGA1UEAwwFRGF2aWQxCzAJ
BgNVBAYTAklUMQ8wDQYDVQQIDAZJdGFsaWExGTAXBgNVBAoMEFJlZ2lvbmUgUGll
bW9udGUwVjAQBgcqhkjOPQIBBgUrgQQACgNCAATxeHRLFR6ImSMPGj3a8eDSnoJ4
J/wse5cQzdt+JgWcJvuOj9Xqv3HsH3tWdThvlBVwaYS/EVVIKWHl9FdzEFDdoyMw
ITAOBgNVHQ8BAf8EBAMCBaAwDwYDVR0TAQH/BAUwAwIBAzAKBggqhkjOPQQDAgNH
ADBEAiBS6Y8y205hu8dzkbf6Sw5QowLPQnLrX+tigVB9HobEJwIgcK8DOy6ZV2/G
kVvF33BnyHTyCA3QWSLJlC5n8MYTLag=
-----END CERTIFICATE-----
