Certificate:
    Data:
        Version: 3 (0x2)
        Serial Number: 34 (0x22)
        Signature Algorithm: ecdsa-with-SHA256
        Issuer: CN=Regione Sardegna, C=IT, ST=Italia, O=E-Voting system, OU=E-Voting system authority/emailAddress=Sardegna@evoting.it
        Validity
            Not Before: Aug  3 13:28:04 2022 GMT
            Not After : Aug  3 13:28:04 2023 GMT
        Subject: CN=Dawn, C=IT, ST=Italia, O=Regione Sardegna
        Subject Public Key Info:
            Public Key Algorithm: id-ecPublicKey
                Public-Key: (256 bit)
                pub:
                    04:79:2c:b5:bb:d7:cc:39:27:2f:c0:22:37:2e:d6:
                    b1:28:d0:ac:c1:d0:18:27:b3:a3:59:98:06:e2:66:
                    83:39:37:f0:db:29:e6:5b:ae:fd:f1:eb:13:cc:18:
                    9d:4a:3c:ec:fc:e1:86:a5:44:72:5e:fa:13:03:c9:
                    8b:18:1e:cc:a5
                ASN1 OID: prime256v1
                NIST CURVE: P-256
        X509v3 extensions:
            X509v3 Key Usage: critical
                Digital Signature, Key Encipherment
            X509v3 Basic Constraints: critical
                CA:FALSE, pathlen:3
    Signature Algorithm: ecdsa-with-SHA256
         30:45:02:20:4b:e1:7d:91:2d:f9:b6:3c:62:a2:d1:e2:2c:2f:
         5e:15:84:d3:48:a6:1e:ae:9d:01:0f:4a:34:a9:ce:0f:24:c6:
         02:21:00:f7:41:b2:d0:63:ce:c5:44:e8:0d:e6:14:d2:e1:bb:
         78:39:7a:f8:27:c4:c7:5b:2e:46:fd:8a:73:2e:8c:5e:d4
-----BEGIN CERTIFICATE-----
MIIB9jCCAZygAwIBAgIBIjAKBggqhkjOPQQDAjCBmzEZMBcGA1UEAwwQUmVnaW9u
ZSBTYXJkZWduYTELMAkGA1UEBhMCSVQxDzANBgNVBAgMBkl0YWxpYTEYMBYGA1UE
CgwPRS1Wb3Rpbmcgc3lzdGVtMSIwIAYDVQQLDBlFLVZvdGluZyBzeXN0ZW0gYXV0
aG9yaXR5MSIwIAYJKoZIhvcNAQkBFhNTYXJkZWduYUBldm90aW5nLml0MB4XDTIy
MDgwMzEzMjgwNFoXDTIzMDgwMzEzMjgwNFowSDENMAsGA1UEAwwERGF3bjELMAkG
A1UEBhMCSVQxDzANBgNVBAgMBkl0YWxpYTEZMBcGA1UECgwQUmVnaW9uZSBTYXJk
ZWduYTBZMBMGByqGSM49AgEGCCqGSM49AwEHA0IABHkstbvXzDknL8AiNy7WsSjQ
rMHQGCezo1mYBuJmgzk38Nsp5luu/fHrE8wYnUo87PzhhqVEcl76EwPJixgezKWj
IzAhMA4GA1UdDwEB/wQEAwIFoDAPBgNVHRMBAf8EBTADAgEDMAoGCCqGSM49BAMC
A0gAMEUCIEvhfZEt+bY8YqLR4iwvXhWE00imHq6dAQ9KNKnODyTGAiEA90Gy0GPO
xUToDeYU0uG7eDl6+CfEx1suRv2Kcy6MXtQ=
-----END CERTIFICATE-----
