Certificate:
    Data:
        Version: 3 (0x2)
        Serial Number: 3 (0x3)
        Signature Algorithm: ecdsa-with-SHA256
        Issuer: CN=Regione Calabria, C=IT, ST=Italia, O=E-Voting system, OU=E-Voting system authority/emailAddress=Calabria@evoting.it
        Validity
            Not Before: Aug 26 15:18:32 2022 GMT
            Not After : Aug 26 15:18:32 2023 GMT
        Subject: CN=Dawn, C=IT, ST=Italia, O=Regione Calabria
        Subject Public Key Info:
            Public Key Algorithm: id-ecPublicKey
                Public-Key: (256 bit)
                pub:
                    04:44:31:02:0e:03:f9:1d:de:81:22:0e:3a:5b:9a:
                    3b:40:72:09:49:b4:f2:7c:89:89:4a:36:7f:a2:32:
                    28:0e:8a:0b:31:0e:f2:00:ab:18:0f:d1:5a:17:b6:
                    4d:e6:f5:54:18:31:07:97:06:7a:b2:53:f4:8a:db:
                    d9:8b:9d:58:c9
                ASN1 OID: secp256k1
        X509v3 extensions:
            X509v3 Key Usage: critical
                Digital Signature, Key Encipherment
            X509v3 Basic Constraints: critical
                CA:FALSE, pathlen:3
    Signature Algorithm: ecdsa-with-SHA256
         30:45:02:21:00:a8:1a:7d:fe:05:d7:02:69:45:74:15:f0:48:
         08:04:4d:dd:43:84:8f:5a:b5:ca:89:0e:e7:9d:97:8f:e5:a8:
         19:02:20:5e:ab:26:d2:02:be:0d:64:01:78:be:2f:d9:31:a6:
         72:1c:6f:9e:ae:22:a1:c5:cf:fa:e0:64:db:e7:bd:27:d9
-----BEGIN CERTIFICATE-----
MIIB8zCCAZmgAwIBAgIBAzAKBggqhkjOPQQDAjCBmzEZMBcGA1UEAwwQUmVnaW9u
ZSBDYWxhYnJpYTELMAkGA1UEBhMCSVQxDzANBgNVBAgMBkl0YWxpYTEYMBYGA1UE
CgwPRS1Wb3Rpbmcgc3lzdGVtMSIwIAYDVQQLDBlFLVZvdGluZyBzeXN0ZW0gYXV0
aG9yaXR5MSIwIAYJKoZIhvcNAQkBFhNDYWxhYnJpYUBldm90aW5nLml0MB4XDTIy
MDgyNjE1MTgzMloXDTIzMDgyNjE1MTgzMlowSDENMAsGA1UEAwwERGF3bjELMAkG
A1UEBhMCSVQxDzANBgNVBAgMBkl0YWxpYTEZMBcGA1UECgwQUmVnaW9uZSBDYWxh
YnJpYTBWMBAGByqGSM49AgEGBSuBBAAKA0IABEQxAg4D+R3egSIOOluaO0ByCUm0
8nyJiUo2f6IyKA6KCzEO8gCrGA/RWhe2Teb1VBgxB5cGerJT9Irb2YudWMmjIzAh
MA4GA1UdDwEB/wQEAwIFoDAPBgNVHRMBAf8EBTADAgEDMAoGCCqGSM49BAMCA0gA
MEUCIQCoGn3+BdcCaUV0FfBICARN3UOEj1q1yokO552Xj+WoGQIgXqsm0gK+DWQB
eL4v2TGmchxvnq4iocXP+uBk2+e9J9k=
-----END CERTIFICATE-----
