Certificate:
    Data:
        Version: 3 (0x2)
        Serial Number: 45 (0x2d)
        Signature Algorithm: ecdsa-with-SHA256
        Issuer: CN=Regione Basilicata, C=IT, ST=Italia, O=E-Voting system, OU=E-Voting system authority/emailAddress=Basilicata@evoting.it
        Validity
            Not Before: Aug  3 13:28:05 2022 GMT
            Not After : Aug  3 13:28:05 2023 GMT
        Subject: CN=Deanna, C=IT, ST=Italia, O=Regione Basilicata
        Subject Public Key Info:
            Public Key Algorithm: id-ecPublicKey
                Public-Key: (256 bit)
                pub:
                    04:d5:66:6d:48:e9:a3:d6:8c:b3:9b:b0:ae:1c:5a:
                    1f:14:1a:ee:fa:59:2c:d0:41:71:1c:8a:54:d7:0e:
                    ca:5a:1e:c2:51:1d:e7:2f:48:14:c0:e9:df:4b:8d:
                    e6:3d:ee:d2:33:e2:d2:b3:dd:42:08:68:e0:24:ca:
                    6a:d5:5d:42:59
                ASN1 OID: prime256v1
                NIST CURVE: P-256
        X509v3 extensions:
            X509v3 Key Usage: critical
                Digital Signature, Key Encipherment
            X509v3 Basic Constraints: critical
                CA:FALSE, pathlen:3
    Signature Algorithm: ecdsa-with-SHA256
         30:46:02:21:00:dd:97:a6:d3:2b:88:e6:a3:3c:4e:a2:86:51:
         38:03:97:3a:11:e0:9c:7c:87:44:c2:ba:22:c5:53:a4:12:b9:
         c4:02:21:00:b2:9e:7c:d5:94:b8:14:9d:5a:c7:63:d3:e6:f2:
         0e:c6:7f:59:f0:a0:e5:a8:f6:99:89:ba:03:f0:aa:bb:a6:02
-----BEGIN CERTIFICATE-----
MIIB/zCCAaSgAwIBAgIBLTAKBggqhkjOPQQDAjCBnzEbMBkGA1UEAwwSUmVnaW9u
ZSBCYXNpbGljYXRhMQswCQYDVQQGEwJJVDEPMA0GA1UECAwGSXRhbGlhMRgwFgYD
VQQKDA9FLVZvdGluZyBzeXN0ZW0xIjAgBgNVBAsMGUUtVm90aW5nIHN5c3RlbSBh
dXRob3JpdHkxJDAiBgkqhkiG9w0BCQEWFUJhc2lsaWNhdGFAZXZvdGluZy5pdDAe
Fw0yMjA4MDMxMzI4MDVaFw0yMzA4MDMxMzI4MDVaMEwxDzANBgNVBAMMBkRlYW5u
YTELMAkGA1UEBhMCSVQxDzANBgNVBAgMBkl0YWxpYTEbMBkGA1UECgwSUmVnaW9u
ZSBCYXNpbGljYXRhMFkwEwYHKoZIzj0CAQYIKoZIzj0DAQcDQgAE1WZtSOmj1oyz
m7CuHFofFBru+lks0EFxHIpU1w7KWh7CUR3nL0gUwOnfS43mPe7SM+LSs91CCGjg
JMpq1V1CWaMjMCEwDgYDVR0PAQH/BAQDAgWgMA8GA1UdEwEB/wQFMAMCAQMwCgYI
KoZIzj0EAwIDSQAwRgIhAN2XptMriOajPE6ihlE4A5c6EeCcfIdEwroixVOkErnE
AiEAsp581ZS4FJ1ax2PT5vIOxn9Z8KDlqPaZiboD8Kq7pgI=
-----END CERTIFICATE-----
