Certificate:
    Data:
        Version: 3 (0x2)
        Serial Number: 44 (0x2c)
        Signature Algorithm: ecdsa-with-SHA256
        Issuer: CN=Regione Friuli_Venezia_Giulia, C=IT, ST=Italia, O=E-Voting system, OU=E-Voting system authority/emailAddress=Friuli_Venezia_Giulia@evoting.it
        Validity
            Not Before: Aug 26 15:21:46 2022 GMT
            Not After : Aug 26 15:21:46 2023 GMT
        Subject: CN=Deanna, C=IT, ST=Italia, O=Regione Friuli_Venezia_Giulia
        Subject Public Key Info:
            Public Key Algorithm: id-ecPublicKey
                Public-Key: (256 bit)
                pub:
                    04:9b:34:16:fb:f1:82:41:af:78:35:47:21:eb:51:
                    d8:29:61:66:d8:5f:cc:7c:c3:5e:1e:df:bc:5f:ca:
                    25:98:70:02:4e:99:ed:ad:b4:58:a1:fb:09:3c:ba:
                    4e:59:be:24:54:f7:16:05:93:06:c5:9e:d7:3c:56:
                    03:16:e0:e0:a0
                ASN1 OID: secp256k1
        X509v3 extensions:
            X509v3 Key Usage: critical
                Digital Signature, Key Encipherment
            X509v3 Basic Constraints: critical
                CA:FALSE, pathlen:3
    Signature Algorithm: ecdsa-with-SHA256
         30:45:02:21:00:a9:63:7f:08:f5:6f:88:32:2a:e0:d0:9d:a0:
         2e:99:f4:f3:52:f4:87:9c:99:0e:bf:ca:8d:00:3e:d7:c2:ce:
         a4:02:20:54:2e:9c:72:bf:2a:c5:fa:d1:36:93:57:0f:5a:0a:
         b7:9d:26:80:09:4a:89:99:08:92:df:c3:86:ce:5f:8f:5f
-----BEGIN CERTIFICATE-----
MIICHDCCAcKgAwIBAgIBLDAKBggqhkjOPQQDAjCBtTEmMCQGA1UEAwwdUmVnaW9u
ZSBGcml1bGlfVmVuZXppYV9HaXVsaWExCzAJBgNVBAYTAklUMQ8wDQYDVQQIDAZJ
dGFsaWExGDAWBgNVBAoMD0UtVm90aW5nIHN5c3RlbTEiMCAGA1UECwwZRS1Wb3Rp
bmcgc3lzdGVtIGF1dGhvcml0eTEvMC0GCSqGSIb3DQEJARYgRnJpdWxpX1ZlbmV6
aWFfR2l1bGlhQGV2b3RpbmcuaXQwHhcNMjIwODI2MTUyMTQ2WhcNMjMwODI2MTUy
MTQ2WjBXMQ8wDQYDVQQDDAZEZWFubmExCzAJBgNVBAYTAklUMQ8wDQYDVQQIDAZJ
dGFsaWExJjAkBgNVBAoMHVJlZ2lvbmUgRnJpdWxpX1ZlbmV6aWFfR2l1bGlhMFYw
EAYHKoZIzj0CAQYFK4EEAAoDQgAEmzQW+/GCQa94NUch61HYKWFm2F/MfMNeHt+8
X8olmHACTpntrbRYofsJPLpOWb4kVPcWBZMGxZ7XPFYDFuDgoKMjMCEwDgYDVR0P
AQH/BAQDAgWgMA8GA1UdEwEB/wQFMAMCAQMwCgYIKoZIzj0EAwIDSAAwRQIhAKlj
fwj1b4gyKuDQnaAumfTzUvSHnJkOv8qNAD7Xws6kAiBULpxyvyrF+tE2k1cPWgq3
nSaACUqJmQiS38OGzl+PXw==
-----END CERTIFICATE-----
