Certificate:
    Data:
        Version: 3 (0x2)
        Serial Number: 40 (0x28)
        Signature Algorithm: ecdsa-with-SHA256
        Issuer: CN=Regione Trentino_Alto_Adige, C=IT, ST=Italia, O=E-Voting system, OU=E-Voting system authority/emailAddress=Trentino_Alto_Adige@evoting.it
        Validity
            Not Before: Aug 26 15:20:58 2022 GMT
            Not After : Aug 26 15:20:58 2023 GMT
        Subject: CN=Debbie, C=IT, ST=Italia, O=Regione Trentino_Alto_Adige
        Subject Public Key Info:
            Public Key Algorithm: id-ecPublicKey
                Public-Key: (256 bit)
                pub:
                    04:6d:65:3a:e0:f3:f7:3b:bc:fe:2c:c8:fa:8b:23:
                    51:1b:2b:d8:d3:97:39:c8:93:03:6e:d2:43:30:cd:
                    c1:4e:ad:ee:f3:fc:9a:95:23:58:71:51:3f:77:e5:
                    27:95:0a:53:f3:59:44:32:4f:e1:27:29:a3:27:8f:
                    47:3a:1c:4f:95
                ASN1 OID: secp256k1
        X509v3 extensions:
            X509v3 Key Usage: critical
                Digital Signature, Key Encipherment
            X509v3 Basic Constraints: critical
                CA:FALSE, pathlen:3
    Signature Algorithm: ecdsa-with-SHA256
         30:46:02:21:00:ff:39:26:f2:b9:2f:04:80:42:2b:b9:92:ca:
         c3:8b:a0:76:61:ec:fa:f0:3d:64:f4:b3:42:8e:d8:b7:2e:74:
         70:02:21:00:96:77:d5:8b:37:51:fe:a6:64:ae:af:fc:3f:99:
         f7:af:9d:44:06:dd:dc:5e:72:94:6f:d8:e3:2c:43:9b:ad:47
-----BEGIN CERTIFICATE-----
MIICFzCCAbygAwIBAgIBKDAKBggqhkjOPQQDAjCBsTEkMCIGA1UEAwwbUmVnaW9u
ZSBUcmVudGlub19BbHRvX0FkaWdlMQswCQYDVQQGEwJJVDEPMA0GA1UECAwGSXRh
bGlhMRgwFgYDVQQKDA9FLVZvdGluZyBzeXN0ZW0xIjAgBgNVBAsMGUUtVm90aW5n
IHN5c3RlbSBhdXRob3JpdHkxLTArBgkqhkiG9w0BCQEWHlRyZW50aW5vX0FsdG9f
QWRpZ2VAZXZvdGluZy5pdDAeFw0yMjA4MjYxNTIwNThaFw0yMzA4MjYxNTIwNTha
MFUxDzANBgNVBAMMBkRlYmJpZTELMAkGA1UEBhMCSVQxDzANBgNVBAgMBkl0YWxp
YTEkMCIGA1UECgwbUmVnaW9uZSBUcmVudGlub19BbHRvX0FkaWdlMFYwEAYHKoZI
zj0CAQYFK4EEAAoDQgAEbWU64PP3O7z+LMj6iyNRGyvY05c5yJMDbtJDMM3BTq3u
8/yalSNYcVE/d+UnlQpT81lEMk/hJymjJ49HOhxPlaMjMCEwDgYDVR0PAQH/BAQD
AgWgMA8GA1UdEwEB/wQFMAMCAQMwCgYIKoZIzj0EAwIDSQAwRgIhAP85JvK5LwSA
Qiu5ksrDi6B2Yez68D1k9LNCjti3LnRwAiEAlnfVizdR/qZkrq/8P5n3r51EBt3c
XnKUb9jjLEObrUc=
-----END CERTIFICATE-----
