Certificate:
    Data:
        Version: 3 (0x2)
        Serial Number: 35 (0x23)
        Signature Algorithm: ecdsa-with-SHA256
        Issuer: CN=Regione Piemonte, C=IT, ST=Italia, O=E-Voting system, OU=E-Voting system authority/emailAddress=Piemonte@evoting.it
        Validity
            Not Before: Aug 26 15:20:50 2022 GMT
            Not After : Aug 26 15:20:50 2023 GMT
        Subject: CN=Deborah, C=IT, ST=Italia, O=Regione Piemonte
        Subject Public Key Info:
            Public Key Algorithm: id-ecPublicKey
                Public-Key: (256 bit)
                pub:
                    04:89:56:be:38:69:da:b0:ab:fd:d5:47:4f:0c:f4:
                    43:01:86:91:d9:35:66:59:02:72:62:a2:a1:3a:ca:
                    c5:5b:5f:de:15:72:7d:f5:08:a8:bd:d1:a0:77:14:
                    96:7e:6b:b7:54:cb:d4:80:1e:fa:8d:6b:aa:2d:21:
                    ba:b4:89:d1:de
                ASN1 OID: secp256k1
        X509v3 extensions:
            X509v3 Key Usage: critical
                Digital Signature, Key Encipherment
            X509v3 Basic Constraints: critical
                CA:FALSE, pathlen:3
    Signature Algorithm: ecdsa-with-SHA256
         30:46:02:21:00:fd:23:01:84:9c:84:35:e2:b6:36:85:38:69:
         63:9a:db:f9:b6:1a:7c:6a:38:41:ab:79:1f:47:e5:a8:3e:01:
         cd:02:21:00:da:3f:38:fd:84:19:6a:d8:01:e9:f0:71:2b:28:
         78:a9:75:8e:2b:c2:6c:0a:75:16:cc:cf:60:cf:53:fb:96:ec
-----BEGIN CERTIFICATE-----
MIIB9zCCAZygAwIBAgIBIzAKBggqhkjOPQQDAjCBmzEZMBcGA1UEAwwQUmVnaW9u
ZSBQaWVtb250ZTELMAkGA1UEBhMCSVQxDzANBgNVBAgMBkl0YWxpYTEYMBYGA1UE
CgwPRS1Wb3Rpbmcgc3lzdGVtMSIwIAYDVQQLDBlFLVZvdGluZyBzeXN0ZW0gYXV0
aG9yaXR5MSIwIAYJKoZIhvcNAQkBFhNQaWVtb250ZUBldm90aW5nLml0MB4XDTIy
MDgyNjE1MjA1MFoXDTIzMDgyNjE1MjA1MFowSzEQMA4GA1UEAwwHRGVib3JhaDEL
MAkGA1UEBhMCSVQxDzANBgNVBAgMBkl0YWxpYTEZMBcGA1UECgwQUmVnaW9uZSBQ
aWVtb250ZTBWMBAGByqGSM49AgEGBSuBBAAKA0IABIlWvjhp2rCr/dVHTwz0QwGG
kdk1ZlkCcmKioTrKxVtf3hVyffUIqL3RoHcUln5rt1TL1IAe+o1rqi0hurSJ0d6j
IzAhMA4GA1UdDwEB/wQEAwIFoDAPBgNVHRMBAf8EBTADAgEDMAoGCCqGSM49BAMC
A0kAMEYCIQD9IwGEnIQ14rY2hThpY5rb+bYafGo4Qat5H0flqD4BzQIhANo/OP2E
GWrYAenwcSsoeKl1jivCbAp1FszPYM9T+5bs
-----END CERTIFICATE-----
