Certificate:
    Data:
        Version: 3 (0x2)
        Serial Number: 38 (0x26)
        Signature Algorithm: ecdsa-with-SHA256
        Issuer: CN=Regione Basilicata, C=IT, ST=Italia, O=E-Voting system, OU=E-Voting system authority/emailAddress=Basilicata@evoting.it
        Validity
            Not Before: Aug 26 15:21:26 2022 GMT
            Not After : Aug 26 15:21:26 2023 GMT
        Subject: CN=Delbert, C=IT, ST=Italia, O=Regione Basilicata
        Subject Public Key Info:
            Public Key Algorithm: id-ecPublicKey
                Public-Key: (256 bit)
                pub:
                    04:be:c2:8e:f4:ec:4f:83:50:ef:54:a9:f3:e6:0b:
                    13:1d:0c:ff:92:97:9f:86:d2:dd:eb:07:a1:c1:99:
                    4b:65:4b:78:5f:c4:45:d0:44:08:f9:43:56:3b:bc:
                    a2:49:7a:86:c9:6c:b5:c2:5f:dd:5e:4d:3c:4a:c0:
                    6f:98:1c:51:51
                ASN1 OID: secp256k1
        X509v3 extensions:
            X509v3 Key Usage: critical
                Digital Signature, Key Encipherment
            X509v3 Basic Constraints: critical
                CA:FALSE, pathlen:3
    Signature Algorithm: ecdsa-with-SHA256
         30:45:02:20:5f:44:ed:7c:6f:f2:b8:42:61:bc:40:e0:ef:db:
         5f:c3:e5:66:1d:05:15:b4:6f:a3:a2:00:32:6f:a0:fa:cf:33:
         02:21:00:f9:43:ba:bd:ae:2d:b4:e0:d1:92:e7:34:9f:e9:5c:
         9f:cf:0a:42:b0:9a:77:42:53:92:c7:0b:31:aa:66:e5:63
-----BEGIN CERTIFICATE-----
MIIB/DCCAaKgAwIBAgIBJjAKBggqhkjOPQQDAjCBnzEbMBkGA1UEAwwSUmVnaW9u
ZSBCYXNpbGljYXRhMQswCQYDVQQGEwJJVDEPMA0GA1UECAwGSXRhbGlhMRgwFgYD
VQQKDA9FLVZvdGluZyBzeXN0ZW0xIjAgBgNVBAsMGUUtVm90aW5nIHN5c3RlbSBh
dXRob3JpdHkxJDAiBgkqhkiG9w0BCQEWFUJhc2lsaWNhdGFAZXZvdGluZy5pdDAe
Fw0yMjA4MjYxNTIxMjZaFw0yMzA4MjYxNTIxMjZaME0xEDAOBgNVBAMMB0RlbGJl
cnQxCzAJBgNVBAYTAklUMQ8wDQYDVQQIDAZJdGFsaWExGzAZBgNVBAoMElJlZ2lv
bmUgQmFzaWxpY2F0YTBWMBAGByqGSM49AgEGBSuBBAAKA0IABL7CjvTsT4NQ71Sp
8+YLEx0M/5KXn4bS3esHocGZS2VLeF/ERdBECPlDVju8okl6hslstcJf3V5NPErA
b5gcUVGjIzAhMA4GA1UdDwEB/wQEAwIFoDAPBgNVHRMBAf8EBTADAgEDMAoGCCqG
SM49BAMCA0gAMEUCIF9E7Xxv8rhCYbxA4O/bX8PlZh0FFbRvo6IAMm+g+s8zAiEA
+UO6va4ttODRkuc0n+lcn88KQrCad0JTkscLMapm5WM=
-----END CERTIFICATE-----
