Certificate:
    Data:
        Version: 3 (0x2)
        Serial Number: 3 (0x3)
        Signature Algorithm: ecdsa-with-SHA256
        Issuer: CN=Regione Friuli_Venezia_Giulia, C=IT, ST=Italia, O=E-Voting system, OU=E-Voting system authority/emailAddress=Friuli_Venezia_Giulia@evoting.it
        Validity
            Not Before: Aug 26 15:18:26 2022 GMT
            Not After : Aug 26 15:18:26 2023 GMT
        Subject: CN=Delores, C=IT, ST=Italia, O=Regione Friuli_Venezia_Giulia
        Subject Public Key Info:
            Public Key Algorithm: id-ecPublicKey
                Public-Key: (256 bit)
                pub:
                    04:c6:ff:58:7f:e1:ff:a0:de:ee:ae:d3:96:7e:5f:
                    80:83:94:c7:1a:b3:a6:cc:53:fb:92:eb:cb:f0:df:
                    ca:18:4a:38:e2:49:c9:6b:d6:82:72:2f:ea:b5:07:
                    66:c6:63:97:a9:ce:3c:05:a7:3e:cc:e7:56:17:0e:
                    69:09:be:c1:95
                ASN1 OID: secp256k1
        X509v3 extensions:
            X509v3 Key Usage: critical
                Digital Signature, Key Encipherment
            X509v3 Basic Constraints: critical
                CA:FALSE, pathlen:3
    Signature Algorithm: ecdsa-with-SHA256
         30:44:02:20:57:ed:15:0a:22:d5:a6:8e:b4:4e:c8:0f:e6:ba:
         a6:8c:bb:45:9a:a9:81:af:99:6b:f7:11:3d:e0:2b:85:a4:cf:
         02:20:08:e7:b1:62:58:b3:bd:80:54:d6:b8:16:60:ae:bf:50:
         a4:b4:2f:20:7a:28:1d:c8:89:f9:4b:36:37:b8:0f:74
-----BEGIN CERTIFICATE-----
MIICHDCCAcOgAwIBAgIBAzAKBggqhkjOPQQDAjCBtTEmMCQGA1UEAwwdUmVnaW9u
ZSBGcml1bGlfVmVuZXppYV9HaXVsaWExCzAJBgNVBAYTAklUMQ8wDQYDVQQIDAZJ
dGFsaWExGDAWBgNVBAoMD0UtVm90aW5nIHN5c3RlbTEiMCAGA1UECwwZRS1Wb3Rp
bmcgc3lzdGVtIGF1dGhvcml0eTEvMC0GCSqGSIb3DQEJARYgRnJpdWxpX1ZlbmV6
aWFfR2l1bGlhQGV2b3RpbmcuaXQwHhcNMjIwODI2MTUxODI2WhcNMjMwODI2MTUx
ODI2WjBYMRAwDgYDVQQDDAdEZWxvcmVzMQswCQYDVQQGEwJJVDEPMA0GA1UECAwG
SXRhbGlhMSYwJAYDVQQKDB1SZWdpb25lIEZyaXVsaV9WZW5lemlhX0dpdWxpYTBW
MBAGByqGSM49AgEGBSuBBAAKA0IABMb/WH/h/6De7q7Tln5fgIOUxxqzpsxT+5Lr
y/DfyhhKOOJJyWvWgnIv6rUHZsZjl6nOPAWnPsznVhcOaQm+wZWjIzAhMA4GA1Ud
DwEB/wQEAwIFoDAPBgNVHRMBAf8EBTADAgEDMAoGCCqGSM49BAMCA0cAMEQCIFft
FQoi1aaOtE7ID+a6poy7RZqpga+Za/cRPeArhaTPAiAI57FiWLO9gFTWuBZgrr9Q
pLQvIHooHciJ+Us2N7gPdA==
-----END CERTIFICATE-----
