Certificate:
    Data:
        Version: 3 (0x2)
        Serial Number: 36 (0x24)
        Signature Algorithm: ecdsa-with-SHA256
        Issuer: CN=Regione Friuli_Venezia_Giulia, C=IT, ST=Italia, O=E-Voting system, OU=E-Voting system authority/emailAddress=Friuli_Venezia_Giulia@evoting.it
        Validity
            Not Before: Aug  3 13:27:52 2022 GMT
            Not After : Aug  3 13:27:52 2023 GMT
        Subject: CN=Denise, C=IT, ST=Italia, O=Regione Friuli_Venezia_Giulia
        Subject Public Key Info:
            Public Key Algorithm: id-ecPublicKey
                Public-Key: (256 bit)
                pub:
                    04:ce:f0:bb:1d:c8:ad:1b:8d:e7:e4:0d:01:4b:d3:
                    df:1e:0d:4c:a8:bf:cf:8c:47:12:49:9d:a3:cb:ed:
                    43:ca:0a:1d:0a:6e:35:f3:ff:d4:0b:1f:43:87:78:
                    d0:94:75:9c:c1:e7:7c:49:57:70:9f:88:ca:59:bb:
                    1a:b5:f5:70:a5
                ASN1 OID: prime256v1
                NIST CURVE: P-256
        X509v3 extensions:
            X509v3 Key Usage: critical
                Digital Signature, Key Encipherment
            X509v3 Basic Constraints: critical
                CA:FALSE, pathlen:3
    Signature Algorithm: ecdsa-with-SHA256
         30:44:02:20:6b:eb:cb:6c:47:84:90:ba:e3:4a:ae:bd:c6:4a:
         40:6f:b7:6a:15:a5:15:fa:7d:b1:a7:64:ad:bc:3e:cf:0d:2d:
         02:20:44:7b:27:6b:eb:26:84:97:43:dd:96:85:dc:97:e9:99:
         c7:e3:6f:85:65:b1:07:c0:17:1e:2d:cc:c1:44:4f:70
-----BEGIN CERTIFICATE-----
MIICHjCCAcWgAwIBAgIBJDAKBggqhkjOPQQDAjCBtTEmMCQGA1UEAwwdUmVnaW9u
ZSBGcml1bGlfVmVuZXppYV9HaXVsaWExCzAJBgNVBAYTAklUMQ8wDQYDVQQIDAZJ
dGFsaWExGDAWBgNVBAoMD0UtVm90aW5nIHN5c3RlbTEiMCAGA1UECwwZRS1Wb3Rp
bmcgc3lzdGVtIGF1dGhvcml0eTEvMC0GCSqGSIb3DQEJARYgRnJpdWxpX1ZlbmV6
aWFfR2l1bGlhQGV2b3RpbmcuaXQwHhcNMjIwODAzMTMyNzUyWhcNMjMwODAzMTMy
NzUyWjBXMQ8wDQYDVQQDDAZEZW5pc2UxCzAJBgNVBAYTAklUMQ8wDQYDVQQIDAZJ
dGFsaWExJjAkBgNVBAoMHVJlZ2lvbmUgRnJpdWxpX1ZlbmV6aWFfR2l1bGlhMFkw
EwYHKoZIzj0CAQYIKoZIzj0DAQcDQgAEzvC7HcitG43n5A0BS9PfHg1MqL/PjEcS
SZ2jy+1DygodCm418//UCx9Dh3jQlHWcwed8SVdwn4jKWbsatfVwpaMjMCEwDgYD
VR0PAQH/BAQDAgWgMA8GA1UdEwEB/wQFMAMCAQMwCgYIKoZIzj0EAwIDRwAwRAIg
a+vLbEeEkLrjSq69xkpAb7dqFaUV+n2xp2StvD7PDS0CIER7J2vrJoSXQ92WhdyX
6ZnH42+FZbEHwBceLczBRE9w
-----END CERTIFICATE-----
