Certificate:
    Data:
        Version: 3 (0x2)
        Serial Number: 25 (0x19)
        Signature Algorithm: ecdsa-with-SHA256
        Issuer: CN=Regione Valle_d_Aosta, C=IT, ST=Italia, O=E-Voting system, OU=E-Voting system authority/emailAddress=Valle_d_Aosta@evoting.it
        Validity
            Not Before: Aug 26 15:20:06 2022 GMT
            Not After : Aug 26 15:20:06 2023 GMT
        Subject: CN=Denise, C=IT, ST=Italia, O=Regione Valle_d_Aosta
        Subject Public Key Info:
            Public Key Algorithm: id-ecPublicKey
                Public-Key: (256 bit)
                pub:
                    04:92:d0:5e:21:51:ac:69:3a:9a:3f:4a:8b:92:9f:
                    a3:79:6f:e6:ef:35:33:98:1d:86:30:a6:08:18:5c:
                    0c:d9:5d:59:91:b6:d3:cd:13:84:fb:0d:6e:91:a7:
                    cd:64:fb:35:e6:2a:82:88:9a:18:da:0b:cd:31:e4:
                    c1:9a:4e:c4:0b
                ASN1 OID: secp256k1
        X509v3 extensions:
            X509v3 Key Usage: critical
                Digital Signature, Key Encipherment
            X509v3 Basic Constraints: critical
                CA:FALSE, pathlen:3
    Signature Algorithm: ecdsa-with-SHA256
         30:45:02:21:00:8b:fa:6a:2e:36:b8:10:66:be:0e:d8:ae:7c:
         5b:31:49:18:5d:2b:41:4b:6d:ce:6e:2d:c1:a3:16:00:c5:70:
         5b:02:20:2b:57:dc:53:26:32:14:20:fc:75:95:74:32:7e:71:
         78:72:ea:b6:52:4e:b8:48:5b:64:e3:2f:28:4d:36:c8:e2
-----BEGIN CERTIFICATE-----
MIICBDCCAaqgAwIBAgIBGTAKBggqhkjOPQQDAjCBpTEeMBwGA1UEAwwVUmVnaW9u
ZSBWYWxsZV9kX0Fvc3RhMQswCQYDVQQGEwJJVDEPMA0GA1UECAwGSXRhbGlhMRgw
FgYDVQQKDA9FLVZvdGluZyBzeXN0ZW0xIjAgBgNVBAsMGUUtVm90aW5nIHN5c3Rl
bSBhdXRob3JpdHkxJzAlBgkqhkiG9w0BCQEWGFZhbGxlX2RfQW9zdGFAZXZvdGlu
Zy5pdDAeFw0yMjA4MjYxNTIwMDZaFw0yMzA4MjYxNTIwMDZaME8xDzANBgNVBAMM
BkRlbmlzZTELMAkGA1UEBhMCSVQxDzANBgNVBAgMBkl0YWxpYTEeMBwGA1UECgwV
UmVnaW9uZSBWYWxsZV9kX0Fvc3RhMFYwEAYHKoZIzj0CAQYFK4EEAAoDQgAEktBe
IVGsaTqaP0qLkp+jeW/m7zUzmB2GMKYIGFwM2V1ZkbbTzROE+w1ukafNZPs15iqC
iJoY2gvNMeTBmk7EC6MjMCEwDgYDVR0PAQH/BAQDAgWgMA8GA1UdEwEB/wQFMAMC
AQMwCgYIKoZIzj0EAwIDSAAwRQIhAIv6ai42uBBmvg7YrnxbMUkYXStBS23Obi3B
oxYAxXBbAiArV9xTJjIUIPx1lXQyfnF4cuq2Uk64SFtk4y8oTTbI4g==
-----END CERTIFICATE-----
