Certificate:
    Data:
        Version: 3 (0x2)
        Serial Number: 46 (0x2e)
        Signature Algorithm: ecdsa-with-SHA256
        Issuer: CN=Regione Lazio, C=IT, ST=Italia, O=E-Voting system, OU=E-Voting system authority/emailAddress=Lazio@evoting.it
        Validity
            Not Before: Aug 26 15:21:35 2022 GMT
            Not After : Aug 26 15:21:35 2023 GMT
        Subject: CN=Dennis, C=IT, ST=Italia, O=Regione Lazio
        Subject Public Key Info:
            Public Key Algorithm: id-ecPublicKey
                Public-Key: (256 bit)
                pub:
                    04:50:28:d7:66:cb:03:4a:d4:58:09:ae:fb:77:45:
                    8b:ee:71:10:71:5a:c6:9b:5d:71:60:04:06:ee:ae:
                    82:53:f3:12:a9:5f:40:e2:80:a6:66:6f:19:0a:5f:
                    4c:59:cb:bb:b9:1e:ed:60:df:09:c0:93:f5:7c:04:
                    8f:e0:7c:5d:04
                ASN1 OID: secp256k1
        X509v3 extensions:
            X509v3 Key Usage: critical
                Digital Signature, Key Encipherment
            X509v3 Basic Constraints: critical
                CA:FALSE, pathlen:3
    Signature Algorithm: ecdsa-with-SHA256
         30:46:02:21:00:a8:40:7f:ea:c9:1f:92:7e:48:17:cc:e1:ee:
         8d:a3:37:d0:91:29:ec:88:12:b9:5e:d8:03:7d:8e:fb:2f:6e:
         b3:02:21:00:ef:8a:41:e7:ed:9c:7b:29:61:4e:17:69:7b:97:
         f9:5f:11:0d:83:6d:96:f6:4d:38:a2:b0:73:b4:cc:a9:db:c5
-----BEGIN CERTIFICATE-----
MIIB7TCCAZKgAwIBAgIBLjAKBggqhkjOPQQDAjCBlTEWMBQGA1UEAwwNUmVnaW9u
ZSBMYXppbzELMAkGA1UEBhMCSVQxDzANBgNVBAgMBkl0YWxpYTEYMBYGA1UECgwP
RS1Wb3Rpbmcgc3lzdGVtMSIwIAYDVQQLDBlFLVZvdGluZyBzeXN0ZW0gYXV0aG9y
aXR5MR8wHQYJKoZIhvcNAQkBFhBMYXppb0Bldm90aW5nLml0MB4XDTIyMDgyNjE1
MjEzNVoXDTIzMDgyNjE1MjEzNVowRzEPMA0GA1UEAwwGRGVubmlzMQswCQYDVQQG
EwJJVDEPMA0GA1UECAwGSXRhbGlhMRYwFAYDVQQKDA1SZWdpb25lIExhemlvMFYw
EAYHKoZIzj0CAQYFK4EEAAoDQgAEUCjXZssDStRYCa77d0WL7nEQcVrGm11xYAQG
7q6CU/MSqV9A4oCmZm8ZCl9MWcu7uR7tYN8JwJP1fASP4HxdBKMjMCEwDgYDVR0P
AQH/BAQDAgWgMA8GA1UdEwEB/wQFMAMCAQMwCgYIKoZIzj0EAwIDSQAwRgIhAKhA
f+rJH5J+SBfM4e6NozfQkSnsiBK5XtgDfY77L26zAiEA74pB5+2ceylhThdpe5f5
XxENg22W9k04orBztMyp28U=
-----END CERTIFICATE-----
