Certificate:
    Data:
        Version: 3 (0x2)
        Serial Number: 14 (0xe)
        Signature Algorithm: ecdsa-with-SHA256
        Issuer: CN=Regione Piemonte, C=IT, ST=Italia, O=E-Voting system, OU=E-Voting system authority/emailAddress=Piemonte@evoting.it
        Validity
            Not Before: Aug 26 15:19:36 2022 GMT
            Not After : Aug 26 15:19:36 2023 GMT
        Subject: CN=Derek, C=IT, ST=Italia, O=Regione Piemonte
        Subject Public Key Info:
            Public Key Algorithm: id-ecPublicKey
                Public-Key: (256 bit)
                pub:
                    04:f3:45:f5:7f:ce:c4:93:c8:83:a8:93:65:b4:5e:
                    95:92:2b:e1:3e:f4:07:ac:4f:83:b0:b3:ee:e2:96:
                    f2:ac:59:ad:3d:7e:85:ad:4b:38:eb:bd:61:7e:59:
                    83:70:d2:1d:fd:a8:b4:77:53:08:0c:cc:0d:7f:ff:
                    6c:cb:21:3a:41
                ASN1 OID: secp256k1
        X509v3 extensions:
            X509v3 Key Usage: critical
                Digital Signature, Key Encipherment
            X509v3 Basic Constraints: critical
                CA:FALSE, pathlen:3
    Signature Algorithm: ecdsa-with-SHA256
         30:45:02:21:00:c6:4a:ce:de:47:24:aa:7d:73:31:d1:7e:b2:
         60:46:07:a9:07:4b:b9:5f:43:aa:b2:d0:f9:5b:45:11:27:e9:
         a0:02:20:76:6f:df:4a:c3:9c:d9:ed:20:e1:49:bd:94:e4:3c:
         a3:fa:07:0d:6a:66:e4:fd:97:7f:99:c6:95:f8:e1:82:d3
-----BEGIN CERTIFICATE-----
MIIB9DCCAZqgAwIBAgIBDjAKBggqhkjOPQQDAjCBmzEZMBcGA1UEAwwQUmVnaW9u
ZSBQaWVtb250ZTELMAkGA1UEBhMCSVQxDzANBgNVBAgMBkl0YWxpYTEYMBYGA1UE
CgwPRS1Wb3Rpbmcgc3lzdGVtMSIwIAYDVQQLDBlFLVZvdGluZyBzeXN0ZW0gYXV0
aG9yaXR5MSIwIAYJKoZIhvcNAQkBFhNQaWVtb250ZUBldm90aW5nLml0MB4XDTIy
MDgyNjE1MTkzNloXDTIzMDgyNjE1MTkzNlowSTEOMAwGA1UEAwwFRGVyZWsxCzAJ
BgNVBAYTAklUMQ8wDQYDVQQIDAZJdGFsaWExGTAXBgNVBAoMEFJlZ2lvbmUgUGll
bW9udGUwVjAQBgcqhkjOPQIBBgUrgQQACgNCAATzRfV/zsSTyIOok2W0XpWSK+E+
9AesT4Ows+7ilvKsWa09foWtSzjrvWF+WYNw0h39qLR3UwgMzA1//2zLITpBoyMw
ITAOBgNVHQ8BAf8EBAMCBaAwDwYDVR0TAQH/BAUwAwIBAzAKBggqhkjOPQQDAgNI
ADBFAiEAxkrO3kckqn1zMdF+smBGB6kHS7lfQ6qy0PlbRREn6aACIHZv30rDnNnt
IOFJvZTkPKP6Bw1qZuT9l3+ZxpX44YLT
-----END CERTIFICATE-----
