Certificate:
    Data:
        Version: 3 (0x2)
        Serial Number: 11 (0xb)
        Signature Algorithm: ecdsa-with-SHA256
        Issuer: CN=Regione Molise, C=IT, ST=Italia, O=E-Voting system, OU=E-Voting system authority/emailAddress=Molise@evoting.it
        Validity
            Not Before: Aug 26 15:19:22 2022 GMT
            Not After : Aug 26 15:19:22 2023 GMT
        Subject: CN=Derrick, C=IT, ST=Italia, O=Regione Molise
        Subject Public Key Info:
            Public Key Algorithm: id-ecPublicKey
                Public-Key: (256 bit)
                pub:
                    04:bd:a0:6b:16:44:65:8f:11:5a:22:f6:d4:6c:19:
                    66:7b:6c:b2:ce:6f:bf:61:7d:36:95:e5:c2:59:ed:
                    33:3d:fd:48:91:bb:a6:2f:09:4d:14:81:a5:6c:72:
                    8e:78:1a:5a:99:2b:1e:b6:54:58:c8:56:4e:48:f3:
                    8d:ba:c0:8a:80
                ASN1 OID: secp256k1
        X509v3 extensions:
            X509v3 Key Usage: critical
                Digital Signature, Key Encipherment
            X509v3 Basic Constraints: critical
                CA:FALSE, pathlen:3
    Signature Algorithm: ecdsa-with-SHA256
         30:46:02:21:00:ba:47:27:59:3d:12:5c:2d:85:ff:31:c7:06:
         e4:ea:4a:e8:58:c6:4e:33:aa:8c:9b:a2:10:e4:9f:ab:8b:27:
         4c:02:21:00:da:e1:7f:13:9c:ed:1c:44:40:bb:4a:6f:98:98:
         cf:fe:1b:f4:63:15:76:9b:1b:df:78:9b:f5:78:ee:23:b2:5e
-----BEGIN CERTIFICATE-----
MIIB8TCCAZagAwIBAgIBCzAKBggqhkjOPQQDAjCBlzEXMBUGA1UEAwwOUmVnaW9u
ZSBNb2xpc2UxCzAJBgNVBAYTAklUMQ8wDQYDVQQIDAZJdGFsaWExGDAWBgNVBAoM
D0UtVm90aW5nIHN5c3RlbTEiMCAGA1UECwwZRS1Wb3Rpbmcgc3lzdGVtIGF1dGhv
cml0eTEgMB4GCSqGSIb3DQEJARYRTW9saXNlQGV2b3RpbmcuaXQwHhcNMjIwODI2
MTUxOTIyWhcNMjMwODI2MTUxOTIyWjBJMRAwDgYDVQQDDAdEZXJyaWNrMQswCQYD
VQQGEwJJVDEPMA0GA1UECAwGSXRhbGlhMRcwFQYDVQQKDA5SZWdpb25lIE1vbGlz
ZTBWMBAGByqGSM49AgEGBSuBBAAKA0IABL2gaxZEZY8RWiL21GwZZntsss5vv2F9
NpXlwlntMz39SJG7pi8JTRSBpWxyjngaWpkrHrZUWMhWTkjzjbrAioCjIzAhMA4G
A1UdDwEB/wQEAwIFoDAPBgNVHRMBAf8EBTADAgEDMAoGCCqGSM49BAMCA0kAMEYC
IQC6RydZPRJcLYX/MccG5OpK6FjGTjOqjJuiEOSfq4snTAIhANrhfxOc7RxEQLtK
b5iYz/4b9GMVdpsb33ib9XjuI7Je
-----END CERTIFICATE-----
