Certificate:
    Data:
        Version: 3 (0x2)
        Serial Number: 26 (0x1a)
        Signature Algorithm: ecdsa-with-SHA256
        Issuer: CN=Regione Lazio, C=IT, ST=Italia, O=E-Voting system, OU=E-Voting system authority/emailAddress=Lazio@evoting.it
        Validity
            Not Before: Aug  3 13:27:01 2022 GMT
            Not After : Aug  3 13:27:01 2023 GMT
        Subject: CN=Derrick, C=IT, ST=Italia, O=Regione Lazio
        Subject Public Key Info:
            Public Key Algorithm: id-ecPublicKey
                Public-Key: (256 bit)
                pub:
                    04:d2:7d:2f:6f:d6:ae:44:8d:b2:8e:35:52:79:37:
                    10:6d:3d:24:25:fe:e9:1b:60:76:b0:8d:59:55:4c:
                    06:12:69:c8:37:a2:dc:fa:d7:52:ce:da:ad:0a:09:
                    ae:81:cd:ff:1d:cd:81:98:4e:c0:56:7a:62:27:d1:
                    97:56:93:4d:a6
                ASN1 OID: prime256v1
                NIST CURVE: P-256
        X509v3 extensions:
            X509v3 Key Usage: critical
                Digital Signature, Key Encipherment
            X509v3 Basic Constraints: critical
                CA:FALSE, pathlen:3
    Signature Algorithm: ecdsa-with-SHA256
         30:46:02:21:00:e9:12:eb:a9:0a:f7:b8:b0:29:e0:56:8c:57:
         98:42:74:72:90:06:84:1d:d2:86:8e:72:58:78:6a:61:4f:7c:
         8a:02:21:00:d1:aa:ab:1c:b8:ee:c0:99:a6:ba:1e:7c:57:a4:
         d3:de:6e:37:cf:66:af:01:f6:3c:72:61:bc:18:b1:e9:46:1a
-----BEGIN CERTIFICATE-----
MIIB8TCCAZagAwIBAgIBGjAKBggqhkjOPQQDAjCBlTEWMBQGA1UEAwwNUmVnaW9u
ZSBMYXppbzELMAkGA1UEBhMCSVQxDzANBgNVBAgMBkl0YWxpYTEYMBYGA1UECgwP
RS1Wb3Rpbmcgc3lzdGVtMSIwIAYDVQQLDBlFLVZvdGluZyBzeXN0ZW0gYXV0aG9y
aXR5MR8wHQYJKoZIhvcNAQkBFhBMYXppb0Bldm90aW5nLml0MB4XDTIyMDgwMzEz
MjcwMVoXDTIzMDgwMzEzMjcwMVowSDEQMA4GA1UEAwwHRGVycmljazELMAkGA1UE
BhMCSVQxDzANBgNVBAgMBkl0YWxpYTEWMBQGA1UECgwNUmVnaW9uZSBMYXppbzBZ
MBMGByqGSM49AgEGCCqGSM49AwEHA0IABNJ9L2/WrkSNso41Unk3EG09JCX+6Rtg
drCNWVVMBhJpyDei3PrXUs7arQoJroHN/x3NgZhOwFZ6YifRl1aTTaajIzAhMA4G
A1UdDwEB/wQEAwIFoDAPBgNVHRMBAf8EBTADAgEDMAoGCCqGSM49BAMCA0kAMEYC
IQDpEuupCve4sCngVoxXmEJ0cpAGhB3Sho5yWHhqYU98igIhANGqqxy47sCZproe
fFek095uN89mrwH2PHJhvBix6UYa
-----END CERTIFICATE-----
