Certificate:
    Data:
        Version: 3 (0x2)
        Serial Number: 28 (0x1c)
        Signature Algorithm: ecdsa-with-SHA256
        Issuer: CN=Regione Liguria, C=IT, ST=Italia, O=E-Voting system, OU=E-Voting system authority/emailAddress=Liguria@evoting.it
        Validity
            Not Before: Aug 26 15:19:33 2022 GMT
            Not After : Aug 26 15:19:33 2023 GMT
        Subject: CN=Diane, C=IT, ST=Italia, O=Regione Liguria
        Subject Public Key Info:
            Public Key Algorithm: id-ecPublicKey
                Public-Key: (256 bit)
                pub:
                    04:dd:a8:f8:cd:eb:10:e5:18:ce:9e:20:e9:26:90:
                    82:3d:49:06:14:ec:99:6d:be:1d:8a:35:b3:cf:97:
                    97:f7:03:71:3d:40:91:1d:2c:d8:fb:0f:21:0b:8b:
                    58:d5:3f:32:79:22:0d:4a:55:7e:b4:e2:2d:a4:74:
                    e3:0d:d1:14:c7
                ASN1 OID: secp256k1
        X509v3 extensions:
            X509v3 Key Usage: critical
                Digital Signature, Key Encipherment
            X509v3 Basic Constraints: critical
                CA:FALSE, pathlen:3
    Signature Algorithm: ecdsa-with-SHA256
         30:45:02:21:00:9b:01:9d:65:7f:a5:9e:e5:47:fc:60:96:27:
         97:ef:21:41:5b:52:63:ab:27:86:be:17:b0:55:8d:b8:f9:39:
         a7:02:20:42:40:c3:bf:ef:39:71:dc:7c:10:a1:fc:68:e2:cc:
         c4:53:d5:39:8b:c9:5d:ae:99:7c:f9:73:9f:bb:df:6f:13
-----BEGIN CERTIFICATE-----
MIIB8TCCAZegAwIBAgIBHDAKBggqhkjOPQQDAjCBmTEYMBYGA1UEAwwPUmVnaW9u
ZSBMaWd1cmlhMQswCQYDVQQGEwJJVDEPMA0GA1UECAwGSXRhbGlhMRgwFgYDVQQK
DA9FLVZvdGluZyBzeXN0ZW0xIjAgBgNVBAsMGUUtVm90aW5nIHN5c3RlbSBhdXRo
b3JpdHkxITAfBgkqhkiG9w0BCQEWEkxpZ3VyaWFAZXZvdGluZy5pdDAeFw0yMjA4
MjYxNTE5MzNaFw0yMzA4MjYxNTE5MzNaMEgxDjAMBgNVBAMMBURpYW5lMQswCQYD
VQQGEwJJVDEPMA0GA1UECAwGSXRhbGlhMRgwFgYDVQQKDA9SZWdpb25lIExpZ3Vy
aWEwVjAQBgcqhkjOPQIBBgUrgQQACgNCAATdqPjN6xDlGM6eIOkmkII9SQYU7Jlt
vh2KNbPPl5f3A3E9QJEdLNj7DyELi1jVPzJ5Ig1KVX604i2kdOMN0RTHoyMwITAO
BgNVHQ8BAf8EBAMCBaAwDwYDVR0TAQH/BAUwAwIBAzAKBggqhkjOPQQDAgNIADBF
AiEAmwGdZX+lnuVH/GCWJ5fvIUFbUmOrJ4a+F7BVjbj5OacCIEJAw7/vOXHcfBCh
/GjizMRT1TmLyV2umXz5c5+7328T
-----END CERTIFICATE-----
