Certificate:
    Data:
        Version: 3 (0x2)
        Serial Number: 22 (0x16)
        Signature Algorithm: ecdsa-with-SHA256
        Issuer: CN=Regione Basilicata, C=IT, ST=Italia, O=E-Voting system, OU=E-Voting system authority/emailAddress=Basilicata@evoting.it
        Validity
            Not Before: Aug  3 13:26:31 2022 GMT
            Not After : Aug  3 13:26:31 2023 GMT
        Subject: CN=Dillon, C=IT, ST=Italia, O=Regione Basilicata
        Subject Public Key Info:
            Public Key Algorithm: id-ecPublicKey
                Public-Key: (256 bit)
                pub:
                    04:bf:ac:07:7f:8b:e8:81:76:0f:5b:42:dc:2c:45:
                    34:83:96:89:df:2b:03:3a:e2:a2:4c:25:83:3f:64:
                    ce:0a:7f:db:0b:bc:f0:ae:06:27:d1:6a:52:e0:ff:
                    14:4f:a4:1d:ef:d0:67:d9:7a:44:bc:a3:24:29:c9:
                    fb:89:cc:08:56
                ASN1 OID: prime256v1
                NIST CURVE: P-256
        X509v3 extensions:
            X509v3 Key Usage: critical
                Digital Signature, Key Encipherment
            X509v3 Basic Constraints: critical
                CA:FALSE, pathlen:3
    Signature Algorithm: ecdsa-with-SHA256
         30:45:02:21:00:cf:36:fd:18:b5:69:df:8b:77:bd:b9:1d:0e:
         e4:81:51:08:7b:45:c3:f8:33:70:24:28:13:e3:2b:25:fb:9b:
         42:02:20:24:48:f2:de:6b:a2:98:af:9b:99:34:91:7b:fd:64:
         07:d8:3e:98:19:85:2c:10:5b:83:b3:9c:2a:f2:f1:4f:ff
-----BEGIN CERTIFICATE-----
MIIB/jCCAaSgAwIBAgIBFjAKBggqhkjOPQQDAjCBnzEbMBkGA1UEAwwSUmVnaW9u
ZSBCYXNpbGljYXRhMQswCQYDVQQGEwJJVDEPMA0GA1UECAwGSXRhbGlhMRgwFgYD
VQQKDA9FLVZvdGluZyBzeXN0ZW0xIjAgBgNVBAsMGUUtVm90aW5nIHN5c3RlbSBh
dXRob3JpdHkxJDAiBgkqhkiG9w0BCQEWFUJhc2lsaWNhdGFAZXZvdGluZy5pdDAe
Fw0yMjA4MDMxMzI2MzFaFw0yMzA4MDMxMzI2MzFaMEwxDzANBgNVBAMMBkRpbGxv
bjELMAkGA1UEBhMCSVQxDzANBgNVBAgMBkl0YWxpYTEbMBkGA1UECgwSUmVnaW9u
ZSBCYXNpbGljYXRhMFkwEwYHKoZIzj0CAQYIKoZIzj0DAQcDQgAEv6wHf4vogXYP
W0LcLEU0g5aJ3ysDOuKiTCWDP2TOCn/bC7zwrgYn0WpS4P8UT6Qd79Bn2XpEvKMk
Kcn7icwIVqMjMCEwDgYDVR0PAQH/BAQDAgWgMA8GA1UdEwEB/wQFMAMCAQMwCgYI
KoZIzj0EAwIDSAAwRQIhAM82/Ri1ad+Ld725HQ7kgVEIe0XD+DNwJCgT4ysl+5tC
AiAkSPLea6KYr5uZNJF7/WQH2D6YGYUsEFuDs5wq8vFP/w==
-----END CERTIFICATE-----
