Certificate:
    Data:
        Version: 3 (0x2)
        Serial Number: 20 (0x14)
        Signature Algorithm: ecdsa-with-SHA256
        Issuer: CN=Regione Piemonte, C=IT, ST=Italia, O=E-Voting system, OU=E-Voting system authority/emailAddress=Piemonte@evoting.it
        Validity
            Not Before: Aug 26 15:19:56 2022 GMT
            Not After : Aug 26 15:19:56 2023 GMT
        Subject: CN=Dimple, C=IT, ST=Italia, O=Regione Piemonte
        Subject Public Key Info:
            Public Key Algorithm: id-ecPublicKey
                Public-Key: (256 bit)
                pub:
                    04:b1:d9:3b:45:cc:7b:1e:50:fb:47:65:10:50:b2:
                    4c:9f:3a:1d:9d:da:6d:66:23:f9:3a:ac:b9:c6:b2:
                    2c:2d:7b:5f:14:53:34:dd:4e:4b:b6:34:11:7d:b2:
                    96:f6:a1:75:56:c1:1e:e5:a3:73:0e:99:71:bb:02:
                    d0:24:1b:38:a3
                ASN1 OID: secp256k1
        X509v3 extensions:
            X509v3 Key Usage: critical
                Digital Signature, Key Encipherment
            X509v3 Basic Constraints: critical
                CA:FALSE, pathlen:3
    Signature Algorithm: ecdsa-with-SHA256
         30:44:02:20:21:80:44:95:43:45:a4:c7:02:96:e2:d5:3c:fb:
         10:bf:92:6f:8e:43:33:af:9b:7c:0b:32:2f:9f:ea:bd:6a:9f:
         02:20:24:52:42:b4:5d:2c:a8:37:ae:98:d7:3d:d6:35:c0:cf:
         f8:12:20:86:fb:1f:6d:63:a0:de:fd:be:88:fa:ff:ab
-----BEGIN CERTIFICATE-----
MIIB9DCCAZugAwIBAgIBFDAKBggqhkjOPQQDAjCBmzEZMBcGA1UEAwwQUmVnaW9u
ZSBQaWVtb250ZTELMAkGA1UEBhMCSVQxDzANBgNVBAgMBkl0YWxpYTEYMBYGA1UE
CgwPRS1Wb3Rpbmcgc3lzdGVtMSIwIAYDVQQLDBlFLVZvdGluZyBzeXN0ZW0gYXV0
aG9yaXR5MSIwIAYJKoZIhvcNAQkBFhNQaWVtb250ZUBldm90aW5nLml0MB4XDTIy
MDgyNjE1MTk1NloXDTIzMDgyNjE1MTk1NlowSjEPMA0GA1UEAwwGRGltcGxlMQsw
CQYDVQQGEwJJVDEPMA0GA1UECAwGSXRhbGlhMRkwFwYDVQQKDBBSZWdpb25lIFBp
ZW1vbnRlMFYwEAYHKoZIzj0CAQYFK4EEAAoDQgAEsdk7Rcx7HlD7R2UQULJMnzod
ndptZiP5Oqy5xrIsLXtfFFM03U5LtjQRfbKW9qF1VsEe5aNzDplxuwLQJBs4o6Mj
MCEwDgYDVR0PAQH/BAQDAgWgMA8GA1UdEwEB/wQFMAMCAQMwCgYIKoZIzj0EAwID
RwAwRAIgIYBElUNFpMcCluLVPPsQv5JvjkMzr5t8CzIvn+q9ap8CICRSQrRdLKg3
rpjXPdY1wM/4EiCG+x9tY6De/b6I+v+r
-----END CERTIFICATE-----
