Certificate:
    Data:
        Version: 3 (0x2)
        Serial Number: 46 (0x2e)
        Signature Algorithm: ecdsa-with-SHA256
        Issuer: CN=Regione Sicilia, C=IT, ST=Italia, O=E-Voting system, OU=E-Voting system authority/emailAddress=Sicilia@evoting.it
        Validity
            Not Before: Aug 26 15:21:09 2022 GMT
            Not After : Aug 26 15:21:09 2023 GMT
        Subject: CN=Dina, C=IT, ST=Italia, O=Regione Sicilia
        Subject Public Key Info:
            Public Key Algorithm: id-ecPublicKey
                Public-Key: (256 bit)
                pub:
                    04:f1:3e:77:2c:24:aa:5d:ee:d7:b1:8b:a7:03:d8:
                    41:cf:95:b1:42:55:fa:79:5c:d3:2d:c2:f8:78:b7:
                    6e:b5:63:2c:51:1f:d4:d3:42:97:d5:ab:d6:2f:c3:
                    dd:98:a9:b2:de:e6:78:a0:98:e9:9e:06:24:22:f9:
                    3e:b9:eb:f8:96
                ASN1 OID: secp256k1
        X509v3 extensions:
            X509v3 Key Usage: critical
                Digital Signature, Key Encipherment
            X509v3 Basic Constraints: critical
                CA:FALSE, pathlen:3
    Signature Algorithm: ecdsa-with-SHA256
         30:46:02:21:00:bb:40:e0:a7:f2:f8:b1:4e:f3:50:f9:de:13:
         ff:5f:89:68:1a:7b:e5:31:ce:c2:6c:08:02:c4:59:ad:d4:da:
         78:02:21:00:b8:7f:31:74:97:c1:1a:a1:a6:be:f7:95:70:bd:
         ff:b7:1e:b1:1a:de:2b:d6:7a:7e:89:5a:bf:08:2c:2b:31:08
-----BEGIN CERTIFICATE-----
MIIB8TCCAZagAwIBAgIBLjAKBggqhkjOPQQDAjCBmTEYMBYGA1UEAwwPUmVnaW9u
ZSBTaWNpbGlhMQswCQYDVQQGEwJJVDEPMA0GA1UECAwGSXRhbGlhMRgwFgYDVQQK
DA9FLVZvdGluZyBzeXN0ZW0xIjAgBgNVBAsMGUUtVm90aW5nIHN5c3RlbSBhdXRo
b3JpdHkxITAfBgkqhkiG9w0BCQEWElNpY2lsaWFAZXZvdGluZy5pdDAeFw0yMjA4
MjYxNTIxMDlaFw0yMzA4MjYxNTIxMDlaMEcxDTALBgNVBAMMBERpbmExCzAJBgNV
BAYTAklUMQ8wDQYDVQQIDAZJdGFsaWExGDAWBgNVBAoMD1JlZ2lvbmUgU2ljaWxp
YTBWMBAGByqGSM49AgEGBSuBBAAKA0IABPE+dywkql3u17GLpwPYQc+VsUJV+nlc
0y3C+Hi3brVjLFEf1NNCl9Wr1i/D3Zipst7meKCY6Z4GJCL5Prnr+JajIzAhMA4G
A1UdDwEB/wQEAwIFoDAPBgNVHRMBAf8EBTADAgEDMAoGCCqGSM49BAMCA0kAMEYC
IQC7QOCn8vixTvNQ+d4T/1+JaBp75THOwmwIAsRZrdTaeAIhALh/MXSXwRqhpr73
lXC9/7cesRreK9Z6folavwgsKzEI
-----END CERTIFICATE-----
