Certificate:
    Data:
        Version: 3 (0x2)
        Serial Number: 37 (0x25)
        Signature Algorithm: ecdsa-with-SHA256
        Issuer: CN=Regione Abruzzo, C=IT, ST=Italia, O=E-Voting system, OU=E-Voting system authority/emailAddress=Abruzzo@evoting.it
        Validity
            Not Before: Aug 26 15:21:00 2022 GMT
            Not After : Aug 26 15:21:00 2023 GMT
        Subject: CN=Dolores, C=IT, ST=Italia, O=Regione Abruzzo
        Subject Public Key Info:
            Public Key Algorithm: id-ecPublicKey
                Public-Key: (256 bit)
                pub:
                    04:a3:62:e0:cd:a5:cf:07:f7:4f:59:a4:26:40:db:
                    2b:90:71:b6:de:9e:c7:1c:e7:01:47:dd:f7:a6:78:
                    d5:5d:46:84:24:f5:0e:b4:ab:c0:8d:b0:58:a8:c0:
                    cd:5c:5c:98:df:83:18:74:2f:40:b3:5f:90:5e:aa:
                    65:f0:77:72:c2
                ASN1 OID: secp256k1
        X509v3 extensions:
            X509v3 Key Usage: critical
                Digital Signature, Key Encipherment
            X509v3 Basic Constraints: critical
                CA:FALSE, pathlen:3
    Signature Algorithm: ecdsa-with-SHA256
         30:45:02:20:7d:c6:ff:81:b4:30:e8:ef:c2:63:85:46:70:f9:
         09:45:ee:f2:47:81:f3:fe:44:32:d6:90:18:d3:08:5b:29:c5:
         02:21:00:d1:41:85:7b:9f:b8:5d:d4:fd:eb:66:1f:f4:72:9e:
         e9:a4:33:e5:48:d7:2d:85:a9:06:1a:ac:2e:34:a0:ba:54
-----BEGIN CERTIFICATE-----
MIIB8zCCAZmgAwIBAgIBJTAKBggqhkjOPQQDAjCBmTEYMBYGA1UEAwwPUmVnaW9u
ZSBBYnJ1enpvMQswCQYDVQQGEwJJVDEPMA0GA1UECAwGSXRhbGlhMRgwFgYDVQQK
DA9FLVZvdGluZyBzeXN0ZW0xIjAgBgNVBAsMGUUtVm90aW5nIHN5c3RlbSBhdXRo
b3JpdHkxITAfBgkqhkiG9w0BCQEWEkFicnV6em9AZXZvdGluZy5pdDAeFw0yMjA4
MjYxNTIxMDBaFw0yMzA4MjYxNTIxMDBaMEoxEDAOBgNVBAMMB0RvbG9yZXMxCzAJ
BgNVBAYTAklUMQ8wDQYDVQQIDAZJdGFsaWExGDAWBgNVBAoMD1JlZ2lvbmUgQWJy
dXp6bzBWMBAGByqGSM49AgEGBSuBBAAKA0IABKNi4M2lzwf3T1mkJkDbK5Bxtt6e
xxznAUfd96Z41V1GhCT1DrSrwI2wWKjAzVxcmN+DGHQvQLNfkF6qZfB3csKjIzAh
MA4GA1UdDwEB/wQEAwIFoDAPBgNVHRMBAf8EBTADAgEDMAoGCCqGSM49BAMCA0gA
MEUCIH3G/4G0MOjvwmOFRnD5CUXu8keB8/5EMtaQGNMIWynFAiEA0UGFe5+4XdT9
62Yf9HKe6aQz5UjXLYWpBhqsLjSgulQ=
-----END CERTIFICATE-----
