Certificate:
    Data:
        Version: 3 (0x2)
        Serial Number: 30 (0x1e)
        Signature Algorithm: ecdsa-with-SHA256
        Issuer: CN=Regione Toscana, C=IT, ST=Italia, O=E-Voting system, OU=E-Voting system authority/emailAddress=Toscana@evoting.it
        Validity
            Not Before: Aug 26 15:20:41 2022 GMT
            Not After : Aug 26 15:20:41 2023 GMT
        Subject: CN=Don, C=IT, ST=Italia, O=Regione Toscana
        Subject Public Key Info:
            Public Key Algorithm: id-ecPublicKey
                Public-Key: (256 bit)
                pub:
                    04:f5:0b:4f:b4:08:9b:5e:97:bf:27:3b:f3:11:92:
                    c7:26:45:86:16:b2:cd:10:be:e1:0c:65:fc:f2:1e:
                    8a:b7:f6:e3:96:09:76:92:a1:e9:d0:cf:0e:35:4c:
                    3c:17:b5:57:67:75:76:9d:77:b9:5a:fd:bc:ab:79:
                    46:57:03:9b:e9
                ASN1 OID: secp256k1
        X509v3 extensions:
            X509v3 Key Usage: critical
                Digital Signature, Key Encipherment
            X509v3 Basic Constraints: critical
                CA:FALSE, pathlen:3
    Signature Algorithm: ecdsa-with-SHA256
         30:44:02:20:49:75:dd:a5:2d:13:78:6f:81:14:be:ba:4e:74:
         eb:92:74:bf:5c:ba:3e:61:d1:e3:20:68:7b:a4:d9:da:3c:a2:
         02:20:7e:cc:78:2b:ad:c6:10:76:7c:cc:35:41:fd:2f:db:62:
         31:05:ad:71:49:59:26:4a:f8:3b:48:5c:e0:d4:19:bc
-----BEGIN CERTIFICATE-----
MIIB7jCCAZWgAwIBAgIBHjAKBggqhkjOPQQDAjCBmTEYMBYGA1UEAwwPUmVnaW9u
ZSBUb3NjYW5hMQswCQYDVQQGEwJJVDEPMA0GA1UECAwGSXRhbGlhMRgwFgYDVQQK
DA9FLVZvdGluZyBzeXN0ZW0xIjAgBgNVBAsMGUUtVm90aW5nIHN5c3RlbSBhdXRo
b3JpdHkxITAfBgkqhkiG9w0BCQEWElRvc2NhbmFAZXZvdGluZy5pdDAeFw0yMjA4
MjYxNTIwNDFaFw0yMzA4MjYxNTIwNDFaMEYxDDAKBgNVBAMMA0RvbjELMAkGA1UE
BhMCSVQxDzANBgNVBAgMBkl0YWxpYTEYMBYGA1UECgwPUmVnaW9uZSBUb3NjYW5h
MFYwEAYHKoZIzj0CAQYFK4EEAAoDQgAE9QtPtAibXpe/JzvzEZLHJkWGFrLNEL7h
DGX88h6Kt/bjlgl2kqHp0M8ONUw8F7VXZ3V2nXe5Wv28q3lGVwOb6aMjMCEwDgYD
VR0PAQH/BAQDAgWgMA8GA1UdEwEB/wQFMAMCAQMwCgYIKoZIzj0EAwIDRwAwRAIg
SXXdpS0TeG+BFL66TnTrknS/XLo+YdHjIGh7pNnaPKICIH7MeCutxhB2fMw1Qf0v
22IxBa1xSVkmSvg7SFzg1Bm8
-----END CERTIFICATE-----
