Certificate:
    Data:
        Version: 3 (0x2)
        Serial Number: 10 (0xa)
        Signature Algorithm: ecdsa-with-SHA256
        Issuer: CN=Regione Sardegna, C=IT, ST=Italia, O=E-Voting system, OU=E-Voting system authority/emailAddress=Sardegna@evoting.it
        Validity
            Not Before: Aug  3 13:26:40 2022 GMT
            Not After : Aug  3 13:26:40 2023 GMT
        Subject: CN=Donald, C=IT, ST=Italia, O=Regione Sardegna
        Subject Public Key Info:
            Public Key Algorithm: id-ecPublicKey
                Public-Key: (256 bit)
                pub:
                    04:ba:68:e9:13:07:b0:ec:17:3f:6f:a6:7f:fb:c9:
                    93:74:eb:80:e3:d9:08:49:5a:e5:13:8f:28:18:92:
                    92:df:bc:d2:ce:5f:d6:fc:08:86:50:9c:c3:7a:5e:
                    0a:10:1b:83:86:0a:20:ee:01:4f:d6:34:0d:72:8c:
                    86:09:9b:fc:25
                ASN1 OID: prime256v1
                NIST CURVE: P-256
        X509v3 extensions:
            X509v3 Key Usage: critical
                Digital Signature, Key Encipherment
            X509v3 Basic Constraints: critical
                CA:FALSE, pathlen:3
    Signature Algorithm: ecdsa-with-SHA256
         30:45:02:21:00:cf:96:a8:76:24:ee:74:6b:dc:35:99:89:71:
         bf:d7:cf:7f:c8:69:e5:ed:85:a5:c2:e6:c6:4c:c9:8b:ad:4d:
         b5:02:20:05:7a:ef:64:16:16:ca:23:44:7d:3c:57:cd:fb:ad:
         23:67:ab:56:14:e2:08:ba:20:49:70:2b:55:7a:30:53:56
-----BEGIN CERTIFICATE-----
MIIB+DCCAZ6gAwIBAgIBCjAKBggqhkjOPQQDAjCBmzEZMBcGA1UEAwwQUmVnaW9u
ZSBTYXJkZWduYTELMAkGA1UEBhMCSVQxDzANBgNVBAgMBkl0YWxpYTEYMBYGA1UE
CgwPRS1Wb3Rpbmcgc3lzdGVtMSIwIAYDVQQLDBlFLVZvdGluZyBzeXN0ZW0gYXV0
aG9yaXR5MSIwIAYJKoZIhvcNAQkBFhNTYXJkZWduYUBldm90aW5nLml0MB4XDTIy
MDgwMzEzMjY0MFoXDTIzMDgwMzEzMjY0MFowSjEPMA0GA1UEAwwGRG9uYWxkMQsw
CQYDVQQGEwJJVDEPMA0GA1UECAwGSXRhbGlhMRkwFwYDVQQKDBBSZWdpb25lIFNh
cmRlZ25hMFkwEwYHKoZIzj0CAQYIKoZIzj0DAQcDQgAEumjpEwew7Bc/b6Z/+8mT
dOuA49kISVrlE48oGJKS37zSzl/W/AiGUJzDel4KEBuDhgog7gFP1jQNcoyGCZv8
JaMjMCEwDgYDVR0PAQH/BAQDAgWgMA8GA1UdEwEB/wQFMAMCAQMwCgYIKoZIzj0E
AwIDSAAwRQIhAM+WqHYk7nRr3DWZiXG/189/yGnl7YWlwubGTMmLrU21AiAFeu9k
FhbKI0R9PFfN+60jZ6tWFOIIuiBJcCtVejBTVg==
-----END CERTIFICATE-----
