Certificate:
    Data:
        Version: 3 (0x2)
        Serial Number: 14 (0xe)
        Signature Algorithm: ecdsa-with-SHA256
        Issuer: CN=Regione Sardegna, C=IT, ST=Italia, O=E-Voting system, OU=E-Voting system authority/emailAddress=Sardegna@evoting.it
        Validity
            Not Before: Aug 26 15:19:40 2022 GMT
            Not After : Aug 26 15:19:40 2023 GMT
        Subject: CN=Donald, C=IT, ST=Italia, O=Regione Sardegna
        Subject Public Key Info:
            Public Key Algorithm: id-ecPublicKey
                Public-Key: (256 bit)
                pub:
                    04:6e:7e:d7:c6:f7:53:36:8a:80:56:64:e1:d7:c7:
                    40:61:75:38:37:88:21:f2:09:f9:52:8b:d2:47:02:
                    d7:dd:bf:5f:0e:22:24:29:8c:65:6a:e6:4d:96:ca:
                    ca:4d:29:21:ff:e8:a5:dc:6e:33:47:d3:fd:69:93:
                    59:ea:8e:c7:e4
                ASN1 OID: secp256k1
        X509v3 extensions:
            X509v3 Key Usage: critical
                Digital Signature, Key Encipherment
            X509v3 Basic Constraints: critical
                CA:FALSE, pathlen:3
    Signature Algorithm: ecdsa-with-SHA256
         30:45:02:21:00:91:e2:2a:c7:e8:ab:59:cb:47:ed:67:ee:06:
         e3:e2:0c:98:38:e1:e6:80:4c:63:0d:9c:9f:28:1a:15:3e:42:
         88:02:20:45:1a:4e:b3:6f:6e:b4:f0:00:cf:1a:28:52:d5:06:
         0f:21:b6:52:4b:ca:e5:7c:8a:55:45:f1:33:bf:c3:65:4c
-----BEGIN CERTIFICATE-----
MIIB9TCCAZugAwIBAgIBDjAKBggqhkjOPQQDAjCBmzEZMBcGA1UEAwwQUmVnaW9u
ZSBTYXJkZWduYTELMAkGA1UEBhMCSVQxDzANBgNVBAgMBkl0YWxpYTEYMBYGA1UE
CgwPRS1Wb3Rpbmcgc3lzdGVtMSIwIAYDVQQLDBlFLVZvdGluZyBzeXN0ZW0gYXV0
aG9yaXR5MSIwIAYJKoZIhvcNAQkBFhNTYXJkZWduYUBldm90aW5nLml0MB4XDTIy
MDgyNjE1MTk0MFoXDTIzMDgyNjE1MTk0MFowSjEPMA0GA1UEAwwGRG9uYWxkMQsw
CQYDVQQGEwJJVDEPMA0GA1UECAwGSXRhbGlhMRkwFwYDVQQKDBBSZWdpb25lIFNh
cmRlZ25hMFYwEAYHKoZIzj0CAQYFK4EEAAoDQgAEbn7XxvdTNoqAVmTh18dAYXU4
N4gh8gn5UovSRwLX3b9fDiIkKYxlauZNlsrKTSkh/+il3G4zR9P9aZNZ6o7H5KMj
MCEwDgYDVR0PAQH/BAQDAgWgMA8GA1UdEwEB/wQFMAMCAQMwCgYIKoZIzj0EAwID
SAAwRQIhAJHiKsfoq1nLR+1n7gbj4gyYOOHmgExjDZyfKBoVPkKIAiBFGk6zb260
8ADPGihS1QYPIbZSS8rlfIpVRfEzv8NlTA==
-----END CERTIFICATE-----
