Certificate:
    Data:
        Version: 3 (0x2)
        Serial Number: 14 (0xe)
        Signature Algorithm: ecdsa-with-SHA256
        Issuer: CN=Regione Sicilia, C=IT, ST=Italia, O=E-Voting system, OU=E-Voting system authority/emailAddress=Sicilia@evoting.it
        Validity
            Not Before: Aug 26 15:19:18 2022 GMT
            Not After : Aug 26 15:19:18 2023 GMT
        Subject: CN=Donna, C=IT, ST=Italia, O=Regione Sicilia
        Subject Public Key Info:
            Public Key Algorithm: id-ecPublicKey
                Public-Key: (256 bit)
                pub:
                    04:6a:7e:48:84:57:e2:86:0b:2b:e8:f9:60:91:09:
                    e0:fc:a2:32:24:39:38:26:19:14:42:ef:c2:29:ec:
                    3f:04:8f:41:02:e6:46:f9:d8:5b:1c:ea:40:d9:fb:
                    34:f2:24:33:b6:8d:43:15:a6:07:ff:6e:48:c8:ad:
                    8b:25:d5:7c:1c
                ASN1 OID: secp256k1
        X509v3 extensions:
            X509v3 Key Usage: critical
                Digital Signature, Key Encipherment
            X509v3 Basic Constraints: critical
                CA:FALSE, pathlen:3
    Signature Algorithm: ecdsa-with-SHA256
         30:45:02:21:00:9f:bf:d1:02:3b:39:b2:be:cc:dd:16:a8:c1:
         38:98:2d:bd:17:50:a3:5e:c4:bd:44:b6:8a:9e:0f:29:13:7f:
         8b:02:20:0b:0b:73:f2:b1:a9:10:4b:71:33:bd:d2:34:09:82:
         23:70:b8:ac:25:76:56:3e:b7:96:95:47:47:61:0b:1d:dd
-----BEGIN CERTIFICATE-----
MIIB8TCCAZegAwIBAgIBDjAKBggqhkjOPQQDAjCBmTEYMBYGA1UEAwwPUmVnaW9u
ZSBTaWNpbGlhMQswCQYDVQQGEwJJVDEPMA0GA1UECAwGSXRhbGlhMRgwFgYDVQQK
DA9FLVZvdGluZyBzeXN0ZW0xIjAgBgNVBAsMGUUtVm90aW5nIHN5c3RlbSBhdXRo
b3JpdHkxITAfBgkqhkiG9w0BCQEWElNpY2lsaWFAZXZvdGluZy5pdDAeFw0yMjA4
MjYxNTE5MThaFw0yMzA4MjYxNTE5MThaMEgxDjAMBgNVBAMMBURvbm5hMQswCQYD
VQQGEwJJVDEPMA0GA1UECAwGSXRhbGlhMRgwFgYDVQQKDA9SZWdpb25lIFNpY2ls
aWEwVjAQBgcqhkjOPQIBBgUrgQQACgNCAARqfkiEV+KGCyvo+WCRCeD8ojIkOTgm
GRRC78Ip7D8Ej0EC5kb52Fsc6kDZ+zTyJDO2jUMVpgf/bkjIrYsl1XwcoyMwITAO
BgNVHQ8BAf8EBAMCBaAwDwYDVR0TAQH/BAUwAwIBAzAKBggqhkjOPQQDAgNIADBF
AiEAn7/RAjs5sr7M3RaowTiYLb0XUKNexL1EtoqeDykTf4sCIAsLc/KxqRBLcTO9
0jQJgiNwuKwldlY+t5aVR0dhCx3d
-----END CERTIFICATE-----
