Certificate:
    Data:
        Version: 3 (0x2)
        Serial Number: 33 (0x21)
        Signature Algorithm: ecdsa-with-SHA256
        Issuer: CN=Regione Friuli_Venezia_Giulia, C=IT, ST=Italia, O=E-Voting system, OU=E-Voting system authority/emailAddress=Friuli_Venezia_Giulia@evoting.it
        Validity
            Not Before: Aug  3 13:27:46 2022 GMT
            Not After : Aug  3 13:27:46 2023 GMT
        Subject: CN=Donn, C=IT, ST=Italia, O=Regione Friuli_Venezia_Giulia
        Subject Public Key Info:
            Public Key Algorithm: id-ecPublicKey
                Public-Key: (256 bit)
                pub:
                    04:92:0d:b6:19:38:38:cf:b7:d1:14:af:c6:d7:bb:
                    e2:1b:dc:b8:a9:1a:ec:e8:a6:c2:e2:bf:60:70:64:
                    4f:98:ea:fe:ee:a7:6e:56:2b:93:d0:3c:a6:18:29:
                    93:33:d1:99:a5:6c:fb:67:3a:dc:4b:a3:98:47:4d:
                    76:0f:31:ee:be
                ASN1 OID: prime256v1
                NIST CURVE: P-256
        X509v3 extensions:
            X509v3 Key Usage: critical
                Digital Signature, Key Encipherment
            X509v3 Basic Constraints: critical
                CA:FALSE, pathlen:3
    Signature Algorithm: ecdsa-with-SHA256
         30:46:02:21:00:8a:de:ec:88:cd:f5:79:b4:7c:7c:a6:b7:1c:
         e5:a5:da:1b:c0:0c:7a:99:ad:29:76:33:09:ed:88:fa:23:be:
         44:02:21:00:ed:9b:d7:74:e9:4a:2f:69:3b:97:aa:fa:d3:99:
         0e:19:b1:9a:b5:14:69:f6:43:f7:ca:d0:0c:7c:66:28:04:98
-----BEGIN CERTIFICATE-----
MIICHjCCAcOgAwIBAgIBITAKBggqhkjOPQQDAjCBtTEmMCQGA1UEAwwdUmVnaW9u
ZSBGcml1bGlfVmVuZXppYV9HaXVsaWExCzAJBgNVBAYTAklUMQ8wDQYDVQQIDAZJ
dGFsaWExGDAWBgNVBAoMD0UtVm90aW5nIHN5c3RlbTEiMCAGA1UECwwZRS1Wb3Rp
bmcgc3lzdGVtIGF1dGhvcml0eTEvMC0GCSqGSIb3DQEJARYgRnJpdWxpX1ZlbmV6
aWFfR2l1bGlhQGV2b3RpbmcuaXQwHhcNMjIwODAzMTMyNzQ2WhcNMjMwODAzMTMy
NzQ2WjBVMQ0wCwYDVQQDDAREb25uMQswCQYDVQQGEwJJVDEPMA0GA1UECAwGSXRh
bGlhMSYwJAYDVQQKDB1SZWdpb25lIEZyaXVsaV9WZW5lemlhX0dpdWxpYTBZMBMG
ByqGSM49AgEGCCqGSM49AwEHA0IABJINthk4OM+30RSvxte74hvcuKka7OimwuK/
YHBkT5jq/u6nblYrk9A8phgpkzPRmaVs+2c63EujmEdNdg8x7r6jIzAhMA4GA1Ud
DwEB/wQEAwIFoDAPBgNVHRMBAf8EBTADAgEDMAoGCCqGSM49BAMCA0kAMEYCIQCK
3uyIzfV5tHx8prcc5aXaG8AMepmtKXYzCe2I+iO+RAIhAO2b13TpSi9pO5eq+tOZ
DhmxmrUUafZD98rQDHxmKASY
-----END CERTIFICATE-----
