Certificate:
    Data:
        Version: 3 (0x2)
        Serial Number: 35 (0x23)
        Signature Algorithm: ecdsa-with-SHA256
        Issuer: CN=Regione Marche, C=IT, ST=Italia, O=E-Voting system, OU=E-Voting system authority/emailAddress=Marche@evoting.it
        Validity
            Not Before: Aug 26 15:21:50 2022 GMT
            Not After : Aug 26 15:21:50 2023 GMT
        Subject: CN=Dora, C=IT, ST=Italia, O=Regione Marche
        Subject Public Key Info:
            Public Key Algorithm: id-ecPublicKey
                Public-Key: (256 bit)
                pub:
                    04:7b:18:52:4c:b8:df:86:3c:68:44:30:a1:84:73:
                    8f:98:9c:30:66:a2:69:12:1f:34:74:cb:69:69:47:
                    98:37:3f:67:a8:6d:8d:1d:cb:36:aa:d4:4c:98:e9:
                    e4:34:a9:45:3c:85:1d:60:87:7e:9e:07:cd:ed:b7:
                    94:2c:27:19:98
                ASN1 OID: secp256k1
        X509v3 extensions:
            X509v3 Key Usage: critical
                Digital Signature, Key Encipherment
            X509v3 Basic Constraints: critical
                CA:FALSE, pathlen:3
    Signature Algorithm: ecdsa-with-SHA256
         30:44:02:20:7c:a1:99:a4:84:51:9f:a3:fe:f3:ce:9f:50:0d:
         f4:bb:e7:69:dc:4a:8f:35:a6:b7:c9:6a:38:22:cc:17:8e:70:
         02:20:13:3c:57:de:60:a6:1f:d0:b8:f3:d2:5a:06:14:6d:d9:
         7b:63:c9:96:2e:97:7b:a8:8d:a1:65:72:f1:05:01:79
-----BEGIN CERTIFICATE-----
MIIB7DCCAZOgAwIBAgIBIzAKBggqhkjOPQQDAjCBlzEXMBUGA1UEAwwOUmVnaW9u
ZSBNYXJjaGUxCzAJBgNVBAYTAklUMQ8wDQYDVQQIDAZJdGFsaWExGDAWBgNVBAoM
D0UtVm90aW5nIHN5c3RlbTEiMCAGA1UECwwZRS1Wb3Rpbmcgc3lzdGVtIGF1dGhv
cml0eTEgMB4GCSqGSIb3DQEJARYRTWFyY2hlQGV2b3RpbmcuaXQwHhcNMjIwODI2
MTUyMTUwWhcNMjMwODI2MTUyMTUwWjBGMQ0wCwYDVQQDDAREb3JhMQswCQYDVQQG
EwJJVDEPMA0GA1UECAwGSXRhbGlhMRcwFQYDVQQKDA5SZWdpb25lIE1hcmNoZTBW
MBAGByqGSM49AgEGBSuBBAAKA0IABHsYUky434Y8aEQwoYRzj5icMGaiaRIfNHTL
aWlHmDc/Z6htjR3LNqrUTJjp5DSpRTyFHWCHfp4Hze23lCwnGZijIzAhMA4GA1Ud
DwEB/wQEAwIFoDAPBgNVHRMBAf8EBTADAgEDMAoGCCqGSM49BAMCA0cAMEQCIHyh
maSEUZ+j/vPOn1AN9LvnadxKjzWmt8lqOCLMF45wAiATPFfeYKYf0Ljz0loGFG3Z
e2PJli6Xe6iNoWVy8QUBeQ==
-----END CERTIFICATE-----
