Certificate:
    Data:
        Version: 3 (0x2)
        Serial Number: 23 (0x17)
        Signature Algorithm: ecdsa-with-SHA256
        Issuer: CN=Regione Piemonte, C=IT, ST=Italia, O=E-Voting system, OU=E-Voting system authority/emailAddress=Piemonte@evoting.it
        Validity
            Not Before: Aug  3 13:26:35 2022 GMT
            Not After : Aug  3 13:26:35 2023 GMT
        Subject: CN=Dora, C=IT, ST=Italia, O=Regione Piemonte
        Subject Public Key Info:
            Public Key Algorithm: id-ecPublicKey
                Public-Key: (256 bit)
                pub:
                    04:d5:2c:ec:de:76:64:8d:6a:f2:40:ac:3a:77:3e:
                    3e:41:59:ac:bd:2a:91:e1:28:36:3b:39:33:31:78:
                    f5:52:21:56:49:a4:63:0b:1b:1a:f7:68:2c:f7:a6:
                    0c:2e:3d:04:44:e2:05:7f:9c:f1:84:43:2f:8b:bd:
                    16:78:46:96:2d
                ASN1 OID: prime256v1
                NIST CURVE: P-256
        X509v3 extensions:
            X509v3 Key Usage: critical
                Digital Signature, Key Encipherment
            X509v3 Basic Constraints: critical
                CA:FALSE, pathlen:3
    Signature Algorithm: ecdsa-with-SHA256
         30:45:02:21:00:c3:3f:79:34:3d:2d:6c:16:47:54:cd:38:7b:
         67:9b:97:49:fe:5d:72:4e:3f:a4:86:71:be:fd:cb:d3:83:fe:
         ab:02:20:76:ee:15:db:b1:e4:f9:a1:cc:bc:90:c6:54:92:d5:
         85:8d:d7:a6:b1:63:de:b9:40:29:1a:f9:b6:b2:34:22:5c
-----BEGIN CERTIFICATE-----
MIIB9jCCAZygAwIBAgIBFzAKBggqhkjOPQQDAjCBmzEZMBcGA1UEAwwQUmVnaW9u
ZSBQaWVtb250ZTELMAkGA1UEBhMCSVQxDzANBgNVBAgMBkl0YWxpYTEYMBYGA1UE
CgwPRS1Wb3Rpbmcgc3lzdGVtMSIwIAYDVQQLDBlFLVZvdGluZyBzeXN0ZW0gYXV0
aG9yaXR5MSIwIAYJKoZIhvcNAQkBFhNQaWVtb250ZUBldm90aW5nLml0MB4XDTIy
MDgwMzEzMjYzNVoXDTIzMDgwMzEzMjYzNVowSDENMAsGA1UEAwwERG9yYTELMAkG
A1UEBhMCSVQxDzANBgNVBAgMBkl0YWxpYTEZMBcGA1UECgwQUmVnaW9uZSBQaWVt
b250ZTBZMBMGByqGSM49AgEGCCqGSM49AwEHA0IABNUs7N52ZI1q8kCsOnc+PkFZ
rL0qkeEoNjs5MzF49VIhVkmkYwsbGvdoLPemDC49BETiBX+c8YRDL4u9FnhGli2j
IzAhMA4GA1UdDwEB/wQEAwIFoDAPBgNVHRMBAf8EBTADAgEDMAoGCCqGSM49BAMC
A0gAMEUCIQDDP3k0PS1sFkdUzTh7Z5uXSf5dck4/pIZxvv3L04P+qwIgdu4V27Hk
+aHMvJDGVJLVhY3XprFj3rlAKRr5trI0Ilw=
-----END CERTIFICATE-----
