Certificate:
    Data:
        Version: 3 (0x2)
        Serial Number: 25 (0x19)
        Signature Algorithm: ecdsa-with-SHA256
        Issuer: CN=Regione Campania, C=IT, ST=Italia, O=E-Voting system, OU=E-Voting system authority/emailAddress=Campania@evoting.it
        Validity
            Not Before: Aug  3 13:26:47 2022 GMT
            Not After : Aug  3 13:26:47 2023 GMT
        Subject: CN=Doreen, C=IT, ST=Italia, O=Regione Campania
        Subject Public Key Info:
            Public Key Algorithm: id-ecPublicKey
                Public-Key: (256 bit)
                pub:
                    04:52:2b:70:f8:b6:81:d1:72:25:3d:1c:d1:fc:01:
                    44:eb:3c:1a:eb:7e:5c:e0:39:6b:a8:be:b6:83:b4:
                    b0:7e:33:f0:16:7e:31:32:9f:b2:68:59:40:c5:fb:
                    a4:aa:12:81:83:68:0d:84:18:aa:89:da:66:ea:af:
                    8b:20:66:b7:8e
                ASN1 OID: prime256v1
                NIST CURVE: P-256
        X509v3 extensions:
            X509v3 Key Usage: critical
                Digital Signature, Key Encipherment
            X509v3 Basic Constraints: critical
                CA:FALSE, pathlen:3
    Signature Algorithm: ecdsa-with-SHA256
         30:44:02:20:06:96:99:84:b6:35:0f:ca:7f:7c:2b:5a:5d:b1:
         69:08:3c:8d:8d:09:86:b8:c8:d0:6f:d2:1a:d7:6a:88:06:b7:
         02:20:68:18:78:2e:51:a2:31:57:d1:ef:4d:e6:f7:e1:ed:6d:
         71:ed:75:d9:0d:2d:73:b1:dc:7d:7d:10:74:53:07:4f
-----BEGIN CERTIFICATE-----
MIIB9zCCAZ6gAwIBAgIBGTAKBggqhkjOPQQDAjCBmzEZMBcGA1UEAwwQUmVnaW9u
ZSBDYW1wYW5pYTELMAkGA1UEBhMCSVQxDzANBgNVBAgMBkl0YWxpYTEYMBYGA1UE
CgwPRS1Wb3Rpbmcgc3lzdGVtMSIwIAYDVQQLDBlFLVZvdGluZyBzeXN0ZW0gYXV0
aG9yaXR5MSIwIAYJKoZIhvcNAQkBFhNDYW1wYW5pYUBldm90aW5nLml0MB4XDTIy
MDgwMzEzMjY0N1oXDTIzMDgwMzEzMjY0N1owSjEPMA0GA1UEAwwGRG9yZWVuMQsw
CQYDVQQGEwJJVDEPMA0GA1UECAwGSXRhbGlhMRkwFwYDVQQKDBBSZWdpb25lIENh
bXBhbmlhMFkwEwYHKoZIzj0CAQYIKoZIzj0DAQcDQgAEUitw+LaB0XIlPRzR/AFE
6zwa635c4DlrqL62g7SwfjPwFn4xMp+yaFlAxfukqhKBg2gNhBiqidpm6q+LIGa3
jqMjMCEwDgYDVR0PAQH/BAQDAgWgMA8GA1UdEwEB/wQFMAMCAQMwCgYIKoZIzj0E
AwIDRwAwRAIgBpaZhLY1D8p/fCtaXbFpCDyNjQmGuMjQb9Ia12qIBrcCIGgYeC5R
ojFX0e9N5vfh7W1x7XXZDS1zsdx9fRB0UwdP
-----END CERTIFICATE-----
