Certificate:
    Data:
        Version: 3 (0x2)
        Serial Number: 32 (0x20)
        Signature Algorithm: ecdsa-with-SHA256
        Issuer: CN=Regione Umbria, C=IT, ST=Italia, O=E-Voting system, OU=E-Voting system authority/emailAddress=Umbria@evoting.it
        Validity
            Not Before: Aug 26 15:20:35 2022 GMT
            Not After : Aug 26 15:20:35 2023 GMT
        Subject: CN=Doris, C=IT, ST=Italia, O=Regione Umbria
        Subject Public Key Info:
            Public Key Algorithm: id-ecPublicKey
                Public-Key: (256 bit)
                pub:
                    04:3d:9b:b9:52:8f:84:ad:2c:ef:d4:fd:2b:c6:ab:
                    15:f7:50:4d:9a:16:5a:bd:15:80:fa:41:15:31:5e:
                    fa:f8:1b:08:47:09:fd:eb:78:09:86:96:b3:54:42:
                    41:83:5b:fb:9e:62:05:26:41:76:9c:06:74:72:80:
                    50:61:4b:2e:6f
                ASN1 OID: secp256k1
        X509v3 extensions:
            X509v3 Key Usage: critical
                Digital Signature, Key Encipherment
            X509v3 Basic Constraints: critical
                CA:FALSE, pathlen:3
    Signature Algorithm: ecdsa-with-SHA256
         30:45:02:20:40:06:06:2d:e0:0b:fd:83:b4:19:d3:d6:10:3c:
         0c:33:5f:35:ff:2a:41:2b:40:13:dd:e5:a9:a2:9e:ea:7f:ef:
         02:21:00:cf:48:3e:38:dc:2e:ce:e5:48:22:d5:e6:39:ef:1e:
         2b:db:b4:48:a9:74:0a:c7:ce:65:37:6e:91:d8:21:21:1a
-----BEGIN CERTIFICATE-----
MIIB7jCCAZSgAwIBAgIBIDAKBggqhkjOPQQDAjCBlzEXMBUGA1UEAwwOUmVnaW9u
ZSBVbWJyaWExCzAJBgNVBAYTAklUMQ8wDQYDVQQIDAZJdGFsaWExGDAWBgNVBAoM
D0UtVm90aW5nIHN5c3RlbTEiMCAGA1UECwwZRS1Wb3Rpbmcgc3lzdGVtIGF1dGhv
cml0eTEgMB4GCSqGSIb3DQEJARYRVW1icmlhQGV2b3RpbmcuaXQwHhcNMjIwODI2
MTUyMDM1WhcNMjMwODI2MTUyMDM1WjBHMQ4wDAYDVQQDDAVEb3JpczELMAkGA1UE
BhMCSVQxDzANBgNVBAgMBkl0YWxpYTEXMBUGA1UECgwOUmVnaW9uZSBVbWJyaWEw
VjAQBgcqhkjOPQIBBgUrgQQACgNCAAQ9m7lSj4StLO/U/SvGqxX3UE2aFlq9FYD6
QRUxXvr4GwhHCf3reAmGlrNUQkGDW/ueYgUmQXacBnRygFBhSy5voyMwITAOBgNV
HQ8BAf8EBAMCBaAwDwYDVR0TAQH/BAUwAwIBAzAKBggqhkjOPQQDAgNIADBFAiBA
BgYt4Av9g7QZ09YQPAwzXzX/KkErQBPd5aminup/7wIhAM9IPjjcLs7lSCLV5jnv
HivbtEipdArHzmU3bpHYISEa
-----END CERTIFICATE-----
