Certificate:
    Data:
        Version: 3 (0x2)
        Serial Number: 42 (0x2a)
        Signature Algorithm: ecdsa-with-SHA256
        Issuer: CN=Regione Emilia_Romagna, C=IT, ST=Italia, O=E-Voting system, OU=E-Voting system authority/emailAddress=Emilia_Romagna@evoting.it
        Validity
            Not Before: Aug  3 13:28:23 2022 GMT
            Not After : Aug  3 13:28:23 2023 GMT
        Subject: CN=Doris, C=IT, ST=Italia, O=Regione Emilia_Romagna
        Subject Public Key Info:
            Public Key Algorithm: id-ecPublicKey
                Public-Key: (256 bit)
                pub:
                    04:fa:ff:ed:91:70:2b:57:47:08:c9:fd:06:3b:74:
                    ef:bd:3b:46:89:aa:c2:96:1a:93:3d:c8:f3:03:de:
                    f5:9f:ed:7c:2e:b0:cc:40:63:87:a0:ab:f3:ca:6b:
                    81:7d:0c:aa:ef:e2:38:8f:0b:7b:7e:35:d8:e6:c9:
                    4c:52:2c:1e:ae
                ASN1 OID: prime256v1
                NIST CURVE: P-256
        X509v3 extensions:
            X509v3 Key Usage: critical
                Digital Signature, Key Encipherment
            X509v3 Basic Constraints: critical
                CA:FALSE, pathlen:3
    Signature Algorithm: ecdsa-with-SHA256
         30:44:02:20:12:0d:c7:f3:b8:3e:1e:3a:9e:5e:6e:d9:16:2b:
         99:94:ae:8e:39:46:64:b4:95:33:77:cd:91:6f:86:60:b7:01:
         02:20:62:00:d3:77:b9:5d:8a:b4:60:33:e8:29:eb:61:bd:02:
         7c:08:78:be:0f:67:5e:02:f7:e0:1b:80:4b:39:83:f2
-----BEGIN CERTIFICATE-----
MIICCDCCAa+gAwIBAgIBKjAKBggqhkjOPQQDAjCBpzEfMB0GA1UEAwwWUmVnaW9u
ZSBFbWlsaWFfUm9tYWduYTELMAkGA1UEBhMCSVQxDzANBgNVBAgMBkl0YWxpYTEY
MBYGA1UECgwPRS1Wb3Rpbmcgc3lzdGVtMSIwIAYDVQQLDBlFLVZvdGluZyBzeXN0
ZW0gYXV0aG9yaXR5MSgwJgYJKoZIhvcNAQkBFhlFbWlsaWFfUm9tYWduYUBldm90
aW5nLml0MB4XDTIyMDgwMzEzMjgyM1oXDTIzMDgwMzEzMjgyM1owTzEOMAwGA1UE
AwwFRG9yaXMxCzAJBgNVBAYTAklUMQ8wDQYDVQQIDAZJdGFsaWExHzAdBgNVBAoM
FlJlZ2lvbmUgRW1pbGlhX1JvbWFnbmEwWTATBgcqhkjOPQIBBggqhkjOPQMBBwNC
AAT6/+2RcCtXRwjJ/QY7dO+9O0aJqsKWGpM9yPMD3vWf7XwusMxAY4egq/PKa4F9
DKrv4jiPC3t+NdjmyUxSLB6uoyMwITAOBgNVHQ8BAf8EBAMCBaAwDwYDVR0TAQH/
BAUwAwIBAzAKBggqhkjOPQQDAgNHADBEAiASDcfzuD4eOp5ebtkWK5mUro45RmS0
lTN3zZFvhmC3AQIgYgDTd7ldirRgM+gp62G9AnwIeL4PZ14C9+AbgEs5g/I=
-----END CERTIFICATE-----
