Certificate:
    Data:
        Version: 3 (0x2)
        Serial Number: 46 (0x2e)
        Signature Algorithm: ecdsa-with-SHA256
        Issuer: CN=Regione Sardegna, C=IT, ST=Italia, O=E-Voting system, OU=E-Voting system authority/emailAddress=Sardegna@evoting.it
        Validity
            Not Before: Aug 26 15:21:37 2022 GMT
            Not After : Aug 26 15:21:37 2023 GMT
        Subject: CN=Dorothy, C=IT, ST=Italia, O=Regione Sardegna
        Subject Public Key Info:
            Public Key Algorithm: id-ecPublicKey
                Public-Key: (256 bit)
                pub:
                    04:fe:3b:eb:a5:9c:8d:36:63:c2:66:1e:1b:77:b5:
                    4f:a2:8a:af:71:67:12:37:25:be:1a:83:18:11:04:
                    ac:ad:c3:0e:db:89:34:83:00:60:4d:ce:a3:cb:53:
                    ff:85:10:87:7c:a4:86:fd:22:d0:f9:de:ca:b1:0c:
                    74:7c:c7:cc:ec
                ASN1 OID: secp256k1
        X509v3 extensions:
            X509v3 Key Usage: critical
                Digital Signature, Key Encipherment
            X509v3 Basic Constraints: critical
                CA:FALSE, pathlen:3
    Signature Algorithm: ecdsa-with-SHA256
         30:46:02:21:00:95:80:aa:8f:4e:c8:be:43:ba:91:bd:75:64:
         94:51:c7:7a:ce:f5:53:f7:ec:4a:01:87:ea:fb:54:32:f6:6a:
         eb:02:21:00:88:7b:25:67:7a:a6:9d:31:fe:ab:45:30:78:2f:
         ca:94:f1:0c:33:18:c9:d3:02:31:f9:00:c7:cf:ce:0d:c8:c9
-----BEGIN CERTIFICATE-----
MIIB9zCCAZygAwIBAgIBLjAKBggqhkjOPQQDAjCBmzEZMBcGA1UEAwwQUmVnaW9u
ZSBTYXJkZWduYTELMAkGA1UEBhMCSVQxDzANBgNVBAgMBkl0YWxpYTEYMBYGA1UE
CgwPRS1Wb3Rpbmcgc3lzdGVtMSIwIAYDVQQLDBlFLVZvdGluZyBzeXN0ZW0gYXV0
aG9yaXR5MSIwIAYJKoZIhvcNAQkBFhNTYXJkZWduYUBldm90aW5nLml0MB4XDTIy
MDgyNjE1MjEzN1oXDTIzMDgyNjE1MjEzN1owSzEQMA4GA1UEAwwHRG9yb3RoeTEL
MAkGA1UEBhMCSVQxDzANBgNVBAgMBkl0YWxpYTEZMBcGA1UECgwQUmVnaW9uZSBT
YXJkZWduYTBWMBAGByqGSM49AgEGBSuBBAAKA0IABP4766WcjTZjwmYeG3e1T6KK
r3FnEjclvhqDGBEErK3DDtuJNIMAYE3Oo8tT/4UQh3ykhv0i0PneyrEMdHzHzOyj
IzAhMA4GA1UdDwEB/wQEAwIFoDAPBgNVHRMBAf8EBTADAgEDMAoGCCqGSM49BAMC
A0kAMEYCIQCVgKqPTsi+Q7qRvXVklFHHes71U/fsSgGH6vtUMvZq6wIhAIh7JWd6
pp0x/qtFMHgvypTxDDMYydMCMfkAx8/ODcjJ
-----END CERTIFICATE-----
