Certificate:
    Data:
        Version: 3 (0x2)
        Serial Number: 23 (0x17)
        Signature Algorithm: ecdsa-with-SHA256
        Issuer: CN=Regione Puglia, C=IT, ST=Italia, O=E-Voting system, OU=E-Voting system authority/emailAddress=Puglia@evoting.it
        Validity
            Not Before: Aug  3 13:27:04 2022 GMT
            Not After : Aug  3 13:27:04 2023 GMT
        Subject: CN=Dorothea, C=IT, ST=Italia, O=Regione Puglia
        Subject Public Key Info:
            Public Key Algorithm: id-ecPublicKey
                Public-Key: (256 bit)
                pub:
                    04:ad:45:c9:ec:c4:f3:3f:fd:4d:56:a2:f4:0b:60:
                    62:05:75:12:df:e3:df:71:18:82:26:d0:39:fd:dd:
                    a7:64:23:72:92:03:4e:8f:a3:74:5e:ef:c7:c0:d6:
                    7e:7a:89:e8:b8:ee:7a:31:d9:37:07:06:68:e9:ae:
                    91:df:01:fa:ac
                ASN1 OID: prime256v1
                NIST CURVE: P-256
        X509v3 extensions:
            X509v3 Key Usage: critical
                Digital Signature, Key Encipherment
            X509v3 Basic Constraints: critical
                CA:FALSE, pathlen:3
    Signature Algorithm: ecdsa-with-SHA256
         30:44:02:20:14:ac:8d:03:6f:a3:35:b7:28:1a:0a:21:b1:a0:
         44:f3:1f:8f:b3:69:20:36:8b:d3:ee:09:cf:8d:63:43:2a:04:
         02:20:12:7b:a7:52:d5:ca:75:2d:1b:fd:0d:5b:ce:ba:84:e1:
         7f:ba:7d:bd:5b:0d:b0:09:83:e5:cd:a5:79:cf:bc:15
-----BEGIN CERTIFICATE-----
MIIB8zCCAZqgAwIBAgIBFzAKBggqhkjOPQQDAjCBlzEXMBUGA1UEAwwOUmVnaW9u
ZSBQdWdsaWExCzAJBgNVBAYTAklUMQ8wDQYDVQQIDAZJdGFsaWExGDAWBgNVBAoM
D0UtVm90aW5nIHN5c3RlbTEiMCAGA1UECwwZRS1Wb3Rpbmcgc3lzdGVtIGF1dGhv
cml0eTEgMB4GCSqGSIb3DQEJARYRUHVnbGlhQGV2b3RpbmcuaXQwHhcNMjIwODAz
MTMyNzA0WhcNMjMwODAzMTMyNzA0WjBKMREwDwYDVQQDDAhEb3JvdGhlYTELMAkG
A1UEBhMCSVQxDzANBgNVBAgMBkl0YWxpYTEXMBUGA1UECgwOUmVnaW9uZSBQdWds
aWEwWTATBgcqhkjOPQIBBggqhkjOPQMBBwNCAAStRcnsxPM//U1WovQLYGIFdRLf
499xGIIm0Dn93adkI3KSA06Po3Re78fA1n56iei47nox2TcHBmjprpHfAfqsoyMw
ITAOBgNVHQ8BAf8EBAMCBaAwDwYDVR0TAQH/BAUwAwIBAzAKBggqhkjOPQQDAgNH
ADBEAiAUrI0Db6M1tygaCiGxoETzH4+zaSA2i9PuCc+NY0MqBAIgEnunUtXKdS0b
/Q1bzrqE4X+6fb1bDbAJg+XNpXnPvBU=
-----END CERTIFICATE-----
