Certificate:
    Data:
        Version: 3 (0x2)
        Serial Number: 9 (0x9)
        Signature Algorithm: ecdsa-with-SHA256
        Issuer: CN=Regione Basilicata, C=IT, ST=Italia, O=E-Voting system, OU=E-Voting system authority/emailAddress=Basilicata@evoting.it
        Validity
            Not Before: Aug  3 13:26:05 2022 GMT
            Not After : Aug  3 13:26:05 2023 GMT
        Subject: CN=Doug, C=IT, ST=Italia, O=Regione Basilicata
        Subject Public Key Info:
            Public Key Algorithm: id-ecPublicKey
                Public-Key: (256 bit)
                pub:
                    04:59:de:fc:9b:10:8e:c7:c2:b5:84:54:38:76:59:
                    dc:d6:59:b0:1d:d5:ed:01:a1:cd:bc:0a:df:76:8f:
                    d6:ec:36:4e:d8:92:1e:11:bc:fe:57:8e:bd:84:e3:
                    75:79:c7:1f:69:19:f8:8f:0d:d2:e4:a8:d7:0e:77:
                    da:97:d1:c8:73
                ASN1 OID: prime256v1
                NIST CURVE: P-256
        X509v3 extensions:
            X509v3 Key Usage: critical
                Digital Signature, Key Encipherment
            X509v3 Basic Constraints: critical
                CA:FALSE, pathlen:3
    Signature Algorithm: ecdsa-with-SHA256
         30:44:02:20:15:13:9b:d2:c5:f3:e4:58:4b:c4:84:d2:0e:22:
         c8:8a:79:d5:45:bb:79:e2:c2:57:69:cf:11:0a:ad:b8:1c:a8:
         02:20:02:a1:cf:a3:02:8b:21:6a:f0:91:25:89:ff:d4:9d:69:
         20:4a:6b:ef:21:b0:94:47:0f:ee:d7:52:c0:0a:c9:83
-----BEGIN CERTIFICATE-----
MIIB+zCCAaKgAwIBAgIBCTAKBggqhkjOPQQDAjCBnzEbMBkGA1UEAwwSUmVnaW9u
ZSBCYXNpbGljYXRhMQswCQYDVQQGEwJJVDEPMA0GA1UECAwGSXRhbGlhMRgwFgYD
VQQKDA9FLVZvdGluZyBzeXN0ZW0xIjAgBgNVBAsMGUUtVm90aW5nIHN5c3RlbSBh
dXRob3JpdHkxJDAiBgkqhkiG9w0BCQEWFUJhc2lsaWNhdGFAZXZvdGluZy5pdDAe
Fw0yMjA4MDMxMzI2MDVaFw0yMzA4MDMxMzI2MDVaMEoxDTALBgNVBAMMBERvdWcx
CzAJBgNVBAYTAklUMQ8wDQYDVQQIDAZJdGFsaWExGzAZBgNVBAoMElJlZ2lvbmUg
QmFzaWxpY2F0YTBZMBMGByqGSM49AgEGCCqGSM49AwEHA0IABFne/JsQjsfCtYRU
OHZZ3NZZsB3V7QGhzbwK33aP1uw2TtiSHhG8/leOvYTjdXnHH2kZ+I8N0uSo1w53
2pfRyHOjIzAhMA4GA1UdDwEB/wQEAwIFoDAPBgNVHRMBAf8EBTADAgEDMAoGCCqG
SM49BAMCA0cAMEQCIBUTm9LF8+RYS8SE0g4iyIp51UW7eeLCV2nPEQqtuByoAiAC
oc+jAoshavCRJYn/1J1pIEpr7yGwlEcP7tdSwArJgw==
-----END CERTIFICATE-----
