Certificate:
    Data:
        Version: 3 (0x2)
        Serial Number: 24 (0x18)
        Signature Algorithm: ecdsa-with-SHA256
        Issuer: CN=Regione Sardegna, C=IT, ST=Italia, O=E-Voting system, OU=E-Voting system authority/emailAddress=Sardegna@evoting.it
        Validity
            Not Before: Aug 26 15:20:31 2022 GMT
            Not After : Aug 26 15:20:31 2023 GMT
        Subject: CN=Douglas, C=IT, ST=Italia, O=Regione Sardegna
        Subject Public Key Info:
            Public Key Algorithm: id-ecPublicKey
                Public-Key: (256 bit)
                pub:
                    04:1c:37:65:e2:3c:b5:0e:7c:dc:de:bd:ae:fb:97:
                    8b:ed:42:e4:9a:10:38:8d:29:ef:9f:af:49:f0:33:
                    68:d4:aa:8c:a7:4b:3f:f6:ea:7e:12:73:eb:e8:87:
                    33:29:79:c5:7f:31:6b:8d:27:8d:64:35:7f:d6:2d:
                    25:f8:e6:f7:db
                ASN1 OID: secp256k1
        X509v3 extensions:
            X509v3 Key Usage: critical
                Digital Signature, Key Encipherment
            X509v3 Basic Constraints: critical
                CA:FALSE, pathlen:3
    Signature Algorithm: ecdsa-with-SHA256
         30:45:02:21:00:d3:e2:92:cd:84:c8:44:11:23:65:2b:f0:07:
         25:bf:31:c8:0d:43:cf:e7:cf:ff:48:d4:c7:b6:b5:96:f3:7f:
         a8:02:20:02:0a:d6:0c:1b:df:b5:e4:b2:fb:f6:28:b0:3a:50:
         8c:5d:37:8d:81:77:c1:f7:db:44:4f:98:66:67:fb:85:f2
-----BEGIN CERTIFICATE-----
MIIB9jCCAZygAwIBAgIBGDAKBggqhkjOPQQDAjCBmzEZMBcGA1UEAwwQUmVnaW9u
ZSBTYXJkZWduYTELMAkGA1UEBhMCSVQxDzANBgNVBAgMBkl0YWxpYTEYMBYGA1UE
CgwPRS1Wb3Rpbmcgc3lzdGVtMSIwIAYDVQQLDBlFLVZvdGluZyBzeXN0ZW0gYXV0
aG9yaXR5MSIwIAYJKoZIhvcNAQkBFhNTYXJkZWduYUBldm90aW5nLml0MB4XDTIy
MDgyNjE1MjAzMVoXDTIzMDgyNjE1MjAzMVowSzEQMA4GA1UEAwwHRG91Z2xhczEL
MAkGA1UEBhMCSVQxDzANBgNVBAgMBkl0YWxpYTEZMBcGA1UECgwQUmVnaW9uZSBT
YXJkZWduYTBWMBAGByqGSM49AgEGBSuBBAAKA0IABBw3ZeI8tQ583N69rvuXi+1C
5JoQOI0p75+vSfAzaNSqjKdLP/bqfhJz6+iHMyl5xX8xa40njWQ1f9YtJfjm99uj
IzAhMA4GA1UdDwEB/wQEAwIFoDAPBgNVHRMBAf8EBTADAgEDMAoGCCqGSM49BAMC
A0gAMEUCIQDT4pLNhMhEESNlK/AHJb8xyA1Dz+fP/0jUx7a1lvN/qAIgAgrWDBvf
teSy+/YosDpQjF03jYF3wffbRE+YZmf7hfI=
-----END CERTIFICATE-----
