Certificate:
    Data:
        Version: 3 (0x2)
        Serial Number: 11 (0xb)
        Signature Algorithm: ecdsa-with-SHA256
        Issuer: CN=Regione Piemonte, C=IT, ST=Italia, O=E-Voting system, OU=E-Voting system authority/emailAddress=Piemonte@evoting.it
        Validity
            Not Before: Aug  3 13:26:06 2022 GMT
            Not After : Aug  3 13:26:06 2023 GMT
        Subject: CN=Doyle, C=IT, ST=Italia, O=Regione Piemonte
        Subject Public Key Info:
            Public Key Algorithm: id-ecPublicKey
                Public-Key: (256 bit)
                pub:
                    04:dc:55:89:8b:e9:59:45:74:dc:30:90:2e:2c:b6:
                    e8:98:33:20:1a:ce:1c:98:3a:09:d2:8b:a0:d5:b5:
                    84:86:73:05:7f:c5:7c:66:28:42:c6:51:5d:2e:44:
                    ad:ea:cb:f3:4a:4c:94:19:1f:6a:e9:ed:44:14:12:
                    55:d5:27:90:e0
                ASN1 OID: prime256v1
                NIST CURVE: P-256
        X509v3 extensions:
            X509v3 Key Usage: critical
                Digital Signature, Key Encipherment
            X509v3 Basic Constraints: critical
                CA:FALSE, pathlen:3
    Signature Algorithm: ecdsa-with-SHA256
         30:45:02:21:00:d1:7b:7a:05:3d:9a:ed:89:23:32:d3:2c:50:
         08:64:c1:65:af:29:9f:b2:8a:62:dc:08:11:a1:ea:d4:43:aa:
         13:02:20:50:5a:59:3d:8a:65:bd:69:5e:48:78:67:e7:c7:ee:
         8a:6b:11:93:fc:25:a8:93:69:de:82:00:d9:43:cc:39:eb
-----BEGIN CERTIFICATE-----
MIIB9zCCAZ2gAwIBAgIBCzAKBggqhkjOPQQDAjCBmzEZMBcGA1UEAwwQUmVnaW9u
ZSBQaWVtb250ZTELMAkGA1UEBhMCSVQxDzANBgNVBAgMBkl0YWxpYTEYMBYGA1UE
CgwPRS1Wb3Rpbmcgc3lzdGVtMSIwIAYDVQQLDBlFLVZvdGluZyBzeXN0ZW0gYXV0
aG9yaXR5MSIwIAYJKoZIhvcNAQkBFhNQaWVtb250ZUBldm90aW5nLml0MB4XDTIy
MDgwMzEzMjYwNloXDTIzMDgwMzEzMjYwNlowSTEOMAwGA1UEAwwFRG95bGUxCzAJ
BgNVBAYTAklUMQ8wDQYDVQQIDAZJdGFsaWExGTAXBgNVBAoMEFJlZ2lvbmUgUGll
bW9udGUwWTATBgcqhkjOPQIBBggqhkjOPQMBBwNCAATcVYmL6VlFdNwwkC4stuiY
MyAazhyYOgnSi6DVtYSGcwV/xXxmKELGUV0uRK3qy/NKTJQZH2rp7UQUElXVJ5Dg
oyMwITAOBgNVHQ8BAf8EBAMCBaAwDwYDVR0TAQH/BAUwAwIBAzAKBggqhkjOPQQD
AgNIADBFAiEA0Xt6BT2a7YkjMtMsUAhkwWWvKZ+yimLcCBGh6tRDqhMCIFBaWT2K
Zb1pXkh4Z+fH7oprEZP8JaiTad6CANlDzDnr
-----END CERTIFICATE-----
