Certificate:
    Data:
        Version: 3 (0x2)
        Serial Number: 35 (0x23)
        Signature Algorithm: ecdsa-with-SHA256
        Issuer: CN=Regione Sardegna, C=IT, ST=Italia, O=E-Voting system, OU=E-Voting system authority/emailAddress=Sardegna@evoting.it
        Validity
            Not Before: Aug 26 15:21:06 2022 GMT
            Not After : Aug 26 15:21:06 2023 GMT
        Subject: CN=Drew, C=IT, ST=Italia, O=Regione Sardegna
        Subject Public Key Info:
            Public Key Algorithm: id-ecPublicKey
                Public-Key: (256 bit)
                pub:
                    04:d1:49:1f:8f:6f:ee:23:32:43:92:df:f4:eb:d0:
                    10:b2:9a:e6:d9:5b:b7:4d:e2:98:e8:dd:7b:98:c7:
                    34:6a:4e:01:d2:a6:92:0f:6c:74:d7:c2:89:1b:6c:
                    d8:91:72:7c:e3:7d:e4:42:29:4f:8a:a9:0d:f9:d3:
                    3d:77:a8:8c:4b
                ASN1 OID: secp256k1
        X509v3 extensions:
            X509v3 Key Usage: critical
                Digital Signature, Key Encipherment
            X509v3 Basic Constraints: critical
                CA:FALSE, pathlen:3
    Signature Algorithm: ecdsa-with-SHA256
         30:44:02:20:03:56:e8:4b:62:84:f4:0d:a6:31:e9:42:e7:39:
         8d:66:cb:30:a5:33:85:4e:61:ab:bc:5a:d3:33:e6:e6:ed:6a:
         02:20:1a:4e:cd:6d:fe:19:52:26:ce:f6:83:84:69:01:fb:39:
         d1:9c:22:5d:cc:39:bc:a8:98:7b:1c:c0:b2:dc:87:9f
-----BEGIN CERTIFICATE-----
MIIB8jCCAZmgAwIBAgIBIzAKBggqhkjOPQQDAjCBmzEZMBcGA1UEAwwQUmVnaW9u
ZSBTYXJkZWduYTELMAkGA1UEBhMCSVQxDzANBgNVBAgMBkl0YWxpYTEYMBYGA1UE
CgwPRS1Wb3Rpbmcgc3lzdGVtMSIwIAYDVQQLDBlFLVZvdGluZyBzeXN0ZW0gYXV0
aG9yaXR5MSIwIAYJKoZIhvcNAQkBFhNTYXJkZWduYUBldm90aW5nLml0MB4XDTIy
MDgyNjE1MjEwNloXDTIzMDgyNjE1MjEwNlowSDENMAsGA1UEAwwERHJldzELMAkG
A1UEBhMCSVQxDzANBgNVBAgMBkl0YWxpYTEZMBcGA1UECgwQUmVnaW9uZSBTYXJk
ZWduYTBWMBAGByqGSM49AgEGBSuBBAAKA0IABNFJH49v7iMyQ5Lf9OvQELKa5tlb
t03imOjde5jHNGpOAdKmkg9sdNfCiRts2JFyfON95EIpT4qpDfnTPXeojEujIzAh
MA4GA1UdDwEB/wQEAwIFoDAPBgNVHRMBAf8EBTADAgEDMAoGCCqGSM49BAMCA0cA
MEQCIANW6EtihPQNpjHpQuc5jWbLMKUzhU5hq7xa0zPm5u1qAiAaTs1t/hlSJs72
g4RpAfs50ZwiXcw5vKiYexzAstyHnw==
-----END CERTIFICATE-----
