Certificate:
    Data:
        Version: 3 (0x2)
        Serial Number: 15 (0xf)
        Signature Algorithm: ecdsa-with-SHA256
        Issuer: CN=Regione Emilia_Romagna, C=IT, ST=Italia, O=E-Voting system, OU=E-Voting system authority/emailAddress=Emilia_Romagna@evoting.it
        Validity
            Not Before: Aug 26 15:19:25 2022 GMT
            Not After : Aug 26 15:19:25 2023 GMT
        Subject: CN=Dustin, C=IT, ST=Italia, O=Regione Emilia_Romagna
        Subject Public Key Info:
            Public Key Algorithm: id-ecPublicKey
                Public-Key: (256 bit)
                pub:
                    04:ec:f3:ff:4d:85:4f:62:10:05:59:68:96:1c:60:
                    10:e6:64:af:ca:db:1c:19:f7:11:e3:ba:16:dc:66:
                    9b:6d:31:30:8d:c5:8d:08:86:95:ad:2f:e5:52:bf:
                    e4:88:4d:0a:b9:c5:32:be:c7:55:54:ae:5c:69:ec:
                    54:1f:8f:4d:83
                ASN1 OID: secp256k1
        X509v3 extensions:
            X509v3 Key Usage: critical
                Digital Signature, Key Encipherment
            X509v3 Basic Constraints: critical
                CA:FALSE, pathlen:3
    Signature Algorithm: ecdsa-with-SHA256
         30:44:02:20:14:37:95:fe:aa:3e:f4:c4:95:0f:92:2e:50:e1:
         45:50:e8:12:32:a7:7b:27:db:e4:62:d0:8c:35:4f:bd:0a:4a:
         02:20:7a:4d:92:32:61:94:c5:74:39:b9:91:c7:1b:40:1f:85:
         f7:d4:f2:13:b7:cf:d2:a1:9c:db:5b:64:1c:0b:52:3e
-----BEGIN CERTIFICATE-----
MIICBjCCAa2gAwIBAgIBDzAKBggqhkjOPQQDAjCBpzEfMB0GA1UEAwwWUmVnaW9u
ZSBFbWlsaWFfUm9tYWduYTELMAkGA1UEBhMCSVQxDzANBgNVBAgMBkl0YWxpYTEY
MBYGA1UECgwPRS1Wb3Rpbmcgc3lzdGVtMSIwIAYDVQQLDBlFLVZvdGluZyBzeXN0
ZW0gYXV0aG9yaXR5MSgwJgYJKoZIhvcNAQkBFhlFbWlsaWFfUm9tYWduYUBldm90
aW5nLml0MB4XDTIyMDgyNjE1MTkyNVoXDTIzMDgyNjE1MTkyNVowUDEPMA0GA1UE
AwwGRHVzdGluMQswCQYDVQQGEwJJVDEPMA0GA1UECAwGSXRhbGlhMR8wHQYDVQQK
DBZSZWdpb25lIEVtaWxpYV9Sb21hZ25hMFYwEAYHKoZIzj0CAQYFK4EEAAoDQgAE
7PP/TYVPYhAFWWiWHGAQ5mSvytscGfcR47oW3GabbTEwjcWNCIaVrS/lUr/kiE0K
ucUyvsdVVK5caexUH49Ng6MjMCEwDgYDVR0PAQH/BAQDAgWgMA8GA1UdEwEB/wQF
MAMCAQMwCgYIKoZIzj0EAwIDRwAwRAIgFDeV/qo+9MSVD5IuUOFFUOgSMqd7J9vk
YtCMNU+9CkoCIHpNkjJhlMV0ObmRxxtAH4X31PITt8/SoZzbW2QcC1I+
-----END CERTIFICATE-----
