Certificate:
    Data:
        Version: 3 (0x2)
        Serial Number: 23 (0x17)
        Signature Algorithm: ecdsa-with-SHA256
        Issuer: CN=Regione Veneto, C=IT, ST=Italia, O=E-Voting system, OU=E-Voting system authority/emailAddress=Veneto@evoting.it
        Validity
            Not Before: Aug  3 13:27:05 2022 GMT
            Not After : Aug  3 13:27:05 2023 GMT
        Subject: CN=Dwayne, C=IT, ST=Italia, O=Regione Veneto
        Subject Public Key Info:
            Public Key Algorithm: id-ecPublicKey
                Public-Key: (256 bit)
                pub:
                    04:b2:c3:f6:0f:50:bb:fa:e8:8e:7f:33:c0:85:a5:
                    3d:46:9c:56:b4:78:31:f6:65:86:a4:51:97:21:e0:
                    d6:35:32:14:40:1c:ac:b3:07:77:7e:76:55:d8:7d:
                    3c:50:63:5e:69:64:7a:6f:54:f8:44:52:25:9c:bd:
                    56:d6:fa:25:77
                ASN1 OID: prime256v1
                NIST CURVE: P-256
        X509v3 extensions:
            X509v3 Key Usage: critical
                Digital Signature, Key Encipherment
            X509v3 Basic Constraints: critical
                CA:FALSE, pathlen:3
    Signature Algorithm: ecdsa-with-SHA256
         30:46:02:21:00:ef:62:23:e1:e8:b6:5a:13:e0:2b:ec:d4:e6:
         54:8e:96:a4:7d:98:e4:b0:f8:7f:a8:ed:aa:b3:4a:21:b3:c8:
         ac:02:21:00:b4:55:90:48:c2:ac:44:13:b0:48:96:df:89:c6:
         ad:1d:7c:05:b5:cc:13:4b:35:fb:a2:cc:55:ae:42:41:b9:3d
-----BEGIN CERTIFICATE-----
MIIB8zCCAZigAwIBAgIBFzAKBggqhkjOPQQDAjCBlzEXMBUGA1UEAwwOUmVnaW9u
ZSBWZW5ldG8xCzAJBgNVBAYTAklUMQ8wDQYDVQQIDAZJdGFsaWExGDAWBgNVBAoM
D0UtVm90aW5nIHN5c3RlbTEiMCAGA1UECwwZRS1Wb3Rpbmcgc3lzdGVtIGF1dGhv
cml0eTEgMB4GCSqGSIb3DQEJARYRVmVuZXRvQGV2b3RpbmcuaXQwHhcNMjIwODAz
MTMyNzA1WhcNMjMwODAzMTMyNzA1WjBIMQ8wDQYDVQQDDAZEd2F5bmUxCzAJBgNV
BAYTAklUMQ8wDQYDVQQIDAZJdGFsaWExFzAVBgNVBAoMDlJlZ2lvbmUgVmVuZXRv
MFkwEwYHKoZIzj0CAQYIKoZIzj0DAQcDQgAEssP2D1C7+uiOfzPAhaU9RpxWtHgx
9mWGpFGXIeDWNTIUQBysswd3fnZV2H08UGNeaWR6b1T4RFIlnL1W1vold6MjMCEw
DgYDVR0PAQH/BAQDAgWgMA8GA1UdEwEB/wQFMAMCAQMwCgYIKoZIzj0EAwIDSQAw
RgIhAO9iI+HotloT4Cvs1OZUjpakfZjksPh/qO2qs0ohs8isAiEAtFWQSMKsRBOw
SJbficatHXwFtcwTSzX7osxVrkJBuT0=
-----END CERTIFICATE-----
