Certificate:
    Data:
        Version: 3 (0x2)
        Serial Number: 37 (0x25)
        Signature Algorithm: ecdsa-with-SHA256
        Issuer: CN=Regione Campania, C=IT, ST=Italia, O=E-Voting system, OU=E-Voting system authority/emailAddress=Campania@evoting.it
        Validity
            Not Before: Aug  3 13:27:41 2022 GMT
            Not After : Aug  3 13:27:41 2023 GMT
        Subject: CN=Dwight, C=IT, ST=Italia, O=Regione Campania
        Subject Public Key Info:
            Public Key Algorithm: id-ecPublicKey
                Public-Key: (256 bit)
                pub:
                    04:71:45:89:dc:4b:7a:79:36:27:d7:a7:f1:ae:8a:
                    55:b8:da:93:6b:c2:69:c1:3b:3f:ba:78:03:e2:59:
                    70:b7:ef:2c:f6:4f:7b:27:a4:4b:fe:31:7b:98:a9:
                    8d:aa:cf:c4:fd:34:c0:83:2f:90:0b:77:03:bd:3d:
                    de:0d:80:0b:8c
                ASN1 OID: prime256v1
                NIST CURVE: P-256
        X509v3 extensions:
            X509v3 Key Usage: critical
                Digital Signature, Key Encipherment
            X509v3 Basic Constraints: critical
                CA:FALSE, pathlen:3
    Signature Algorithm: ecdsa-with-SHA256
         30:45:02:20:79:70:ee:af:93:88:4d:74:c3:f3:60:11:a3:d3:
         45:f3:ee:be:0e:b7:73:e6:3f:4a:0a:ce:d4:cf:f2:28:5a:3d:
         02:21:00:b0:63:34:0b:59:a0:45:b8:f5:61:c5:3d:39:f5:7a:
         94:2b:00:84:73:9d:d9:f4:fb:f5:4c:22:ad:1d:56:cc:98
-----BEGIN CERTIFICATE-----
MIIB+DCCAZ6gAwIBAgIBJTAKBggqhkjOPQQDAjCBmzEZMBcGA1UEAwwQUmVnaW9u
ZSBDYW1wYW5pYTELMAkGA1UEBhMCSVQxDzANBgNVBAgMBkl0YWxpYTEYMBYGA1UE
CgwPRS1Wb3Rpbmcgc3lzdGVtMSIwIAYDVQQLDBlFLVZvdGluZyBzeXN0ZW0gYXV0
aG9yaXR5MSIwIAYJKoZIhvcNAQkBFhNDYW1wYW5pYUBldm90aW5nLml0MB4XDTIy
MDgwMzEzMjc0MVoXDTIzMDgwMzEzMjc0MVowSjEPMA0GA1UEAwwGRHdpZ2h0MQsw
CQYDVQQGEwJJVDEPMA0GA1UECAwGSXRhbGlhMRkwFwYDVQQKDBBSZWdpb25lIENh
bXBhbmlhMFkwEwYHKoZIzj0CAQYIKoZIzj0DAQcDQgAEcUWJ3Et6eTYn16fxropV
uNqTa8JpwTs/ungD4llwt+8s9k97J6RL/jF7mKmNqs/E/TTAgy+QC3cDvT3eDYAL
jKMjMCEwDgYDVR0PAQH/BAQDAgWgMA8GA1UdEwEB/wQFMAMCAQMwCgYIKoZIzj0E
AwIDSAAwRQIgeXDur5OITXTD82ARo9NF8+6+Drdz5j9KCs7Uz/IoWj0CIQCwYzQL
WaBFuPVhxT059XqUKwCEc53Z9Pv1TCKtHVbMmA==
-----END CERTIFICATE-----
