Certificate:
    Data:
        Version: 3 (0x2)
        Serial Number: 17 (0x11)
        Signature Algorithm: ecdsa-with-SHA256
        Issuer: CN=Regione Trentino_Alto_Adige, C=IT, ST=Italia, O=E-Voting system, OU=E-Voting system authority/emailAddress=Trentino_Alto_Adige@evoting.it
        Validity
            Not Before: Aug 26 15:19:42 2022 GMT
            Not After : Aug 26 15:19:42 2023 GMT
        Subject: CN=Earl, C=IT, ST=Italia, O=Regione Trentino_Alto_Adige
        Subject Public Key Info:
            Public Key Algorithm: id-ecPublicKey
                Public-Key: (256 bit)
                pub:
                    04:b5:0c:54:02:39:94:2c:27:bf:fd:5d:ae:68:3b:
                    92:d3:fd:03:66:52:ed:ef:91:99:bf:ac:da:bd:92:
                    9e:88:7a:cb:1e:10:81:ed:af:38:f0:64:a7:11:31:
                    95:78:6c:8d:ae:c3:82:53:8c:d9:bb:a7:da:cd:e7:
                    ee:7d:62:36:36
                ASN1 OID: secp256k1
        X509v3 extensions:
            X509v3 Key Usage: critical
                Digital Signature, Key Encipherment
            X509v3 Basic Constraints: critical
                CA:FALSE, pathlen:3
    Signature Algorithm: ecdsa-with-SHA256
         30:45:02:20:7f:4f:61:dc:ac:82:b8:9c:1d:01:27:37:10:31:
         a4:fe:b3:cb:5a:08:dd:8a:7c:bc:b2:93:af:a5:08:94:8f:38:
         02:21:00:b2:1b:fa:da:ed:33:a4:47:8a:ba:98:c7:44:71:44:
         e7:c1:14:cd:27:59:6f:fe:79:85:d0:64:6b:09:fb:f7:db
-----BEGIN CERTIFICATE-----
MIICFDCCAbqgAwIBAgIBETAKBggqhkjOPQQDAjCBsTEkMCIGA1UEAwwbUmVnaW9u
ZSBUcmVudGlub19BbHRvX0FkaWdlMQswCQYDVQQGEwJJVDEPMA0GA1UECAwGSXRh
bGlhMRgwFgYDVQQKDA9FLVZvdGluZyBzeXN0ZW0xIjAgBgNVBAsMGUUtVm90aW5n
IHN5c3RlbSBhdXRob3JpdHkxLTArBgkqhkiG9w0BCQEWHlRyZW50aW5vX0FsdG9f
QWRpZ2VAZXZvdGluZy5pdDAeFw0yMjA4MjYxNTE5NDJaFw0yMzA4MjYxNTE5NDJa
MFMxDTALBgNVBAMMBEVhcmwxCzAJBgNVBAYTAklUMQ8wDQYDVQQIDAZJdGFsaWEx
JDAiBgNVBAoMG1JlZ2lvbmUgVHJlbnRpbm9fQWx0b19BZGlnZTBWMBAGByqGSM49
AgEGBSuBBAAKA0IABLUMVAI5lCwnv/1drmg7ktP9A2ZS7e+Rmb+s2r2Snoh6yx4Q
ge2vOPBkpxExlXhsja7DglOM2bun2s3n7n1iNjajIzAhMA4GA1UdDwEB/wQEAwIF
oDAPBgNVHRMBAf8EBTADAgEDMAoGCCqGSM49BAMCA0gAMEUCIH9PYdysgricHQEn
NxAxpP6zy1oI3Yp8vLKTr6UIlI84AiEAshv62u0zpEeKupjHRHFE58EUzSdZb/55
hdBkawn799s=
-----END CERTIFICATE-----
