Certificate:
    Data:
        Version: 3 (0x2)
        Serial Number: 18 (0x12)
        Signature Algorithm: ecdsa-with-SHA256
        Issuer: CN=Regione Veneto, C=IT, ST=Italia, O=E-Voting system, OU=E-Voting system authority/emailAddress=Veneto@evoting.it
        Validity
            Not Before: Aug  3 13:26:47 2022 GMT
            Not After : Aug  3 13:26:47 2023 GMT
        Subject: CN=Earnest, C=IT, ST=Italia, O=Regione Veneto
        Subject Public Key Info:
            Public Key Algorithm: id-ecPublicKey
                Public-Key: (256 bit)
                pub:
                    04:0a:76:64:58:7d:99:ad:b7:b0:0b:e2:27:c7:62:
                    8f:e8:8f:0d:fd:ed:72:f3:09:04:1e:f8:92:15:b7:
                    18:51:0a:b3:37:5f:5a:29:50:47:e9:c0:65:77:39:
                    02:6a:af:1c:ca:72:cf:6f:27:a4:d6:4b:bf:6c:45:
                    ef:d4:47:e7:92
                ASN1 OID: prime256v1
                NIST CURVE: P-256
        X509v3 extensions:
            X509v3 Key Usage: critical
                Digital Signature, Key Encipherment
            X509v3 Basic Constraints: critical
                CA:FALSE, pathlen:3
    Signature Algorithm: ecdsa-with-SHA256
         30:45:02:21:00:9b:d8:b6:65:f5:62:9f:fc:72:96:bd:31:fa:
         c0:12:f3:07:9a:6f:2e:29:47:68:95:a2:23:60:db:9a:06:c5:
         89:02:20:4c:dd:52:4c:5e:79:e2:bd:89:c1:3a:90:af:b3:00:
         97:2f:a1:07:e2:42:4b:34:e8:2d:d0:02:02:c1:8c:2a:fa
-----BEGIN CERTIFICATE-----
MIIB8zCCAZmgAwIBAgIBEjAKBggqhkjOPQQDAjCBlzEXMBUGA1UEAwwOUmVnaW9u
ZSBWZW5ldG8xCzAJBgNVBAYTAklUMQ8wDQYDVQQIDAZJdGFsaWExGDAWBgNVBAoM
D0UtVm90aW5nIHN5c3RlbTEiMCAGA1UECwwZRS1Wb3Rpbmcgc3lzdGVtIGF1dGhv
cml0eTEgMB4GCSqGSIb3DQEJARYRVmVuZXRvQGV2b3RpbmcuaXQwHhcNMjIwODAz
MTMyNjQ3WhcNMjMwODAzMTMyNjQ3WjBJMRAwDgYDVQQDDAdFYXJuZXN0MQswCQYD
VQQGEwJJVDEPMA0GA1UECAwGSXRhbGlhMRcwFQYDVQQKDA5SZWdpb25lIFZlbmV0
bzBZMBMGByqGSM49AgEGCCqGSM49AwEHA0IABAp2ZFh9ma23sAviJ8dij+iPDf3t
cvMJBB74khW3GFEKszdfWilQR+nAZXc5AmqvHMpyz28npNZLv2xF79RH55KjIzAh
MA4GA1UdDwEB/wQEAwIFoDAPBgNVHRMBAf8EBTADAgEDMAoGCCqGSM49BAMCA0gA
MEUCIQCb2LZl9WKf/HKWvTH6wBLzB5pvLilHaJWiI2DbmgbFiQIgTN1STF554r2J
wTqQr7MAly+hB+JCSzToLdACAsGMKvo=
-----END CERTIFICATE-----
