Certificate:
    Data:
        Version: 3 (0x2)
        Serial Number: 28 (0x1c)
        Signature Algorithm: ecdsa-with-SHA256
        Issuer: CN=Regione Lazio, C=IT, ST=Italia, O=E-Voting system, OU=E-Voting system authority/emailAddress=Lazio@evoting.it
        Validity
            Not Before: Aug 26 15:20:14 2022 GMT
            Not After : Aug 26 15:20:14 2023 GMT
        Subject: CN=Earnest, C=IT, ST=Italia, O=Regione Lazio
        Subject Public Key Info:
            Public Key Algorithm: id-ecPublicKey
                Public-Key: (256 bit)
                pub:
                    04:e0:9b:9a:5f:fa:ca:b1:58:97:ae:87:a7:61:d1:
                    93:28:f0:fd:07:be:9b:06:b0:c8:2e:76:a5:b1:58:
                    9f:06:af:f1:78:f7:94:fe:a1:0a:ab:24:f8:0a:b1:
                    aa:4c:f3:ae:1f:3c:c4:56:8d:3a:3d:5a:86:12:06:
                    f1:a4:50:10:c1
                ASN1 OID: secp256k1
        X509v3 extensions:
            X509v3 Key Usage: critical
                Digital Signature, Key Encipherment
            X509v3 Basic Constraints: critical
                CA:FALSE, pathlen:3
    Signature Algorithm: ecdsa-with-SHA256
         30:45:02:21:00:ea:6c:88:5a:e5:07:db:d1:cc:cf:6d:d1:24:
         d0:28:83:46:66:4f:56:26:ef:3f:e3:2c:19:db:ed:ab:8e:e4:
         30:02:20:7e:b3:f9:6a:e8:35:04:b4:72:24:23:17:fb:bc:39:
         e6:8c:1f:3b:6d:48:ea:62:a5:22:2d:41:e6:f1:76:19:05
-----BEGIN CERTIFICATE-----
MIIB7TCCAZOgAwIBAgIBHDAKBggqhkjOPQQDAjCBlTEWMBQGA1UEAwwNUmVnaW9u
ZSBMYXppbzELMAkGA1UEBhMCSVQxDzANBgNVBAgMBkl0YWxpYTEYMBYGA1UECgwP
RS1Wb3Rpbmcgc3lzdGVtMSIwIAYDVQQLDBlFLVZvdGluZyBzeXN0ZW0gYXV0aG9y
aXR5MR8wHQYJKoZIhvcNAQkBFhBMYXppb0Bldm90aW5nLml0MB4XDTIyMDgyNjE1
MjAxNFoXDTIzMDgyNjE1MjAxNFowSDEQMA4GA1UEAwwHRWFybmVzdDELMAkGA1UE
BhMCSVQxDzANBgNVBAgMBkl0YWxpYTEWMBQGA1UECgwNUmVnaW9uZSBMYXppbzBW
MBAGByqGSM49AgEGBSuBBAAKA0IABOCbml/6yrFYl66Hp2HRkyjw/Qe+mwawyC52
pbFYnwav8Xj3lP6hCqsk+Aqxqkzzrh88xFaNOj1ahhIG8aRQEMGjIzAhMA4GA1Ud
DwEB/wQEAwIFoDAPBgNVHRMBAf8EBTADAgEDMAoGCCqGSM49BAMCA0gAMEUCIQDq
bIha5Qfb0czPbdEk0CiDRmZPVibvP+MsGdvtq47kMAIgfrP5aug1BLRyJCMX+7w5
5owfO21I6mKlIi1B5vF2GQU=
-----END CERTIFICATE-----
