Certificate:
    Data:
        Version: 3 (0x2)
        Serial Number: 27 (0x1b)
        Signature Algorithm: ecdsa-with-SHA256
        Issuer: CN=Regione Emilia_Romagna, C=IT, ST=Italia, O=E-Voting system, OU=E-Voting system authority/emailAddress=Emilia_Romagna@evoting.it
        Validity
            Not Before: Aug 26 15:20:04 2022 GMT
            Not After : Aug 26 15:20:04 2023 GMT
        Subject: CN=Eddie, C=IT, ST=Italia, O=Regione Emilia_Romagna
        Subject Public Key Info:
            Public Key Algorithm: id-ecPublicKey
                Public-Key: (256 bit)
                pub:
                    04:8a:ad:8f:38:1e:76:e8:73:34:a4:e6:7b:45:1c:
                    93:30:28:3f:8f:b4:b5:75:a9:41:d8:45:52:86:d3:
                    91:30:78:35:1a:35:64:76:e9:ce:8a:2e:81:63:44:
                    e4:1b:95:58:cc:c7:59:fa:d2:57:b0:54:88:df:c6:
                    f5:06:1c:dd:dd
                ASN1 OID: secp256k1
        X509v3 extensions:
            X509v3 Key Usage: critical
                Digital Signature, Key Encipherment
            X509v3 Basic Constraints: critical
                CA:FALSE, pathlen:3
    Signature Algorithm: ecdsa-with-SHA256
         30:45:02:21:00:a9:69:71:28:bb:49:f6:95:b1:8f:86:40:b6:
         5c:5c:e1:5d:0a:7e:cf:26:bc:b0:b8:87:08:3f:ed:3f:ae:58:
         06:02:20:22:6d:6b:3b:51:83:30:12:00:9e:24:18:a0:61:0b:
         49:94:3e:0f:d2:c4:23:32:7e:1f:6c:e8:a1:bf:66:e3:dd
-----BEGIN CERTIFICATE-----
MIICBjCCAaygAwIBAgIBGzAKBggqhkjOPQQDAjCBpzEfMB0GA1UEAwwWUmVnaW9u
ZSBFbWlsaWFfUm9tYWduYTELMAkGA1UEBhMCSVQxDzANBgNVBAgMBkl0YWxpYTEY
MBYGA1UECgwPRS1Wb3Rpbmcgc3lzdGVtMSIwIAYDVQQLDBlFLVZvdGluZyBzeXN0
ZW0gYXV0aG9yaXR5MSgwJgYJKoZIhvcNAQkBFhlFbWlsaWFfUm9tYWduYUBldm90
aW5nLml0MB4XDTIyMDgyNjE1MjAwNFoXDTIzMDgyNjE1MjAwNFowTzEOMAwGA1UE
AwwFRWRkaWUxCzAJBgNVBAYTAklUMQ8wDQYDVQQIDAZJdGFsaWExHzAdBgNVBAoM
FlJlZ2lvbmUgRW1pbGlhX1JvbWFnbmEwVjAQBgcqhkjOPQIBBgUrgQQACgNCAASK
rY84HnboczSk5ntFHJMwKD+PtLV1qUHYRVKG05EweDUaNWR26c6KLoFjROQblVjM
x1n60lewVIjfxvUGHN3doyMwITAOBgNVHQ8BAf8EBAMCBaAwDwYDVR0TAQH/BAUw
AwIBAzAKBggqhkjOPQQDAgNIADBFAiEAqWlxKLtJ9pWxj4ZAtlxc4V0Kfs8mvLC4
hwg/7T+uWAYCICJtaztRgzASAJ4kGKBhC0mUPg/SxCMyfh9s6KG/ZuPd
-----END CERTIFICATE-----
