Certificate:
    Data:
        Version: 3 (0x2)
        Serial Number: 41 (0x29)
        Signature Algorithm: ecdsa-with-SHA256
        Issuer: CN=Regione Lazio, C=IT, ST=Italia, O=E-Voting system, OU=E-Voting system authority/emailAddress=Lazio@evoting.it
        Validity
            Not Before: Aug 26 15:21:21 2022 GMT
            Not After : Aug 26 15:21:21 2023 GMT
        Subject: CN=Edgar, C=IT, ST=Italia, O=Regione Lazio
        Subject Public Key Info:
            Public Key Algorithm: id-ecPublicKey
                Public-Key: (256 bit)
                pub:
                    04:20:18:08:06:a7:63:5d:f6:44:a9:9d:56:2e:b5:
                    97:a7:a8:40:c7:9c:ac:f6:34:92:d0:50:f3:79:c1:
                    13:07:51:84:b2:df:d1:2b:de:ba:8d:c5:c9:49:fb:
                    67:37:b6:28:ed:1d:a5:83:cf:df:aa:00:2b:db:be:
                    4c:05:06:8b:4a
                ASN1 OID: secp256k1
        X509v3 extensions:
            X509v3 Key Usage: critical
                Digital Signature, Key Encipherment
            X509v3 Basic Constraints: critical
                CA:FALSE, pathlen:3
    Signature Algorithm: ecdsa-with-SHA256
         30:46:02:21:00:f4:70:e5:44:7d:04:5c:25:d2:d4:63:cc:5a:
         45:c3:61:c4:09:38:56:a2:89:de:d2:40:96:3f:87:c5:76:1c:
         e2:02:21:00:89:55:3f:38:54:61:1d:f9:12:14:3f:d0:fc:f1:
         e6:5b:ed:2c:44:39:fe:08:c7:cc:34:74:be:4c:2c:21:03:b4
-----BEGIN CERTIFICATE-----
MIIB7DCCAZGgAwIBAgIBKTAKBggqhkjOPQQDAjCBlTEWMBQGA1UEAwwNUmVnaW9u
ZSBMYXppbzELMAkGA1UEBhMCSVQxDzANBgNVBAgMBkl0YWxpYTEYMBYGA1UECgwP
RS1Wb3Rpbmcgc3lzdGVtMSIwIAYDVQQLDBlFLVZvdGluZyBzeXN0ZW0gYXV0aG9y
aXR5MR8wHQYJKoZIhvcNAQkBFhBMYXppb0Bldm90aW5nLml0MB4XDTIyMDgyNjE1
MjEyMVoXDTIzMDgyNjE1MjEyMVowRjEOMAwGA1UEAwwFRWRnYXIxCzAJBgNVBAYT
AklUMQ8wDQYDVQQIDAZJdGFsaWExFjAUBgNVBAoMDVJlZ2lvbmUgTGF6aW8wVjAQ
BgcqhkjOPQIBBgUrgQQACgNCAAQgGAgGp2Nd9kSpnVYutZenqEDHnKz2NJLQUPN5
wRMHUYSy39Er3rqNxclJ+2c3tijtHaWDz9+qACvbvkwFBotKoyMwITAOBgNVHQ8B
Af8EBAMCBaAwDwYDVR0TAQH/BAUwAwIBAzAKBggqhkjOPQQDAgNJADBGAiEA9HDl
RH0EXCXS1GPMWkXDYcQJOFaiid7SQJY/h8V2HOICIQCJVT84VGEd+RIUP9D88eZb
7SxEOf4Ix8w0dL5MLCEDtA==
-----END CERTIFICATE-----
