Certificate:
    Data:
        Version: 3 (0x2)
        Serial Number: 36 (0x24)
        Signature Algorithm: ecdsa-with-SHA256
        Issuer: CN=Regione Toscana, C=IT, ST=Italia, O=E-Voting system, OU=E-Voting system authority/emailAddress=Toscana@evoting.it
        Validity
            Not Before: Aug 26 15:21:08 2022 GMT
            Not After : Aug 26 15:21:08 2023 GMT
        Subject: CN=Edith, C=IT, ST=Italia, O=Regione Toscana
        Subject Public Key Info:
            Public Key Algorithm: id-ecPublicKey
                Public-Key: (256 bit)
                pub:
                    04:f1:89:41:9b:d4:95:e7:3e:ae:26:15:84:db:11:
                    71:bc:77:01:03:b0:63:0d:05:65:76:14:97:60:e4:
                    48:14:82:72:a1:eb:a1:fe:a6:54:3c:21:3c:75:c9:
                    8a:cb:a6:f7:d6:17:3a:94:e8:96:10:bc:05:f7:d3:
                    c1:cf:72:10:8a
                ASN1 OID: secp256k1
        X509v3 extensions:
            X509v3 Key Usage: critical
                Digital Signature, Key Encipherment
            X509v3 Basic Constraints: critical
                CA:FALSE, pathlen:3
    Signature Algorithm: ecdsa-with-SHA256
         30:46:02:21:00:db:9f:fa:d8:f9:fc:9f:2f:39:e7:a6:96:ba:
         f5:85:59:17:b9:87:68:51:70:91:c2:8d:9b:0f:00:db:79:f6:
         cb:02:21:00:ee:59:15:61:64:90:a2:83:3b:8d:04:51:8d:ef:
         a2:9f:e9:4e:56:bb:82:1d:6c:9e:e4:ce:97:60:7c:cf:41:dc
-----BEGIN CERTIFICATE-----
MIIB8jCCAZegAwIBAgIBJDAKBggqhkjOPQQDAjCBmTEYMBYGA1UEAwwPUmVnaW9u
ZSBUb3NjYW5hMQswCQYDVQQGEwJJVDEPMA0GA1UECAwGSXRhbGlhMRgwFgYDVQQK
DA9FLVZvdGluZyBzeXN0ZW0xIjAgBgNVBAsMGUUtVm90aW5nIHN5c3RlbSBhdXRo
b3JpdHkxITAfBgkqhkiG9w0BCQEWElRvc2NhbmFAZXZvdGluZy5pdDAeFw0yMjA4
MjYxNTIxMDhaFw0yMzA4MjYxNTIxMDhaMEgxDjAMBgNVBAMMBUVkaXRoMQswCQYD
VQQGEwJJVDEPMA0GA1UECAwGSXRhbGlhMRgwFgYDVQQKDA9SZWdpb25lIFRvc2Nh
bmEwVjAQBgcqhkjOPQIBBgUrgQQACgNCAATxiUGb1JXnPq4mFYTbEXG8dwEDsGMN
BWV2FJdg5EgUgnKh66H+plQ8ITx1yYrLpvfWFzqU6JYQvAX308HPchCKoyMwITAO
BgNVHQ8BAf8EBAMCBaAwDwYDVR0TAQH/BAUwAwIBAzAKBggqhkjOPQQDAgNJADBG
AiEA25/62Pn8ny8556aWuvWFWRe5h2hRcJHCjZsPANt59ssCIQDuWRVhZJCigzuN
BFGN76Kf6U5Wu4IdbJ7kzpdgfM9B3A==
-----END CERTIFICATE-----
