Certificate:
    Data:
        Version: 3 (0x2)
        Serial Number: 11 (0xb)
        Signature Algorithm: ecdsa-with-SHA256
        Issuer: CN=Regione Umbria, C=IT, ST=Italia, O=E-Voting system, OU=E-Voting system authority/emailAddress=Umbria@evoting.it
        Validity
            Not Before: Aug 26 15:18:57 2022 GMT
            Not After : Aug 26 15:18:57 2023 GMT
        Subject: CN=Edna, C=IT, ST=Italia, O=Regione Umbria
        Subject Public Key Info:
            Public Key Algorithm: id-ecPublicKey
                Public-Key: (256 bit)
                pub:
                    04:14:7d:02:c3:61:fe:ea:fd:0b:a2:48:ea:2e:01:
                    d0:c2:13:bd:ef:fb:6d:09:80:83:bc:6f:65:6e:27:
                    2d:11:42:ab:de:fc:1b:9f:61:b6:7e:08:db:b8:51:
                    b2:f3:ce:9c:bf:f1:c4:7d:a0:5c:76:fa:4e:7a:46:
                    45:92:e5:f5:d2
                ASN1 OID: secp256k1
        X509v3 extensions:
            X509v3 Key Usage: critical
                Digital Signature, Key Encipherment
            X509v3 Basic Constraints: critical
                CA:FALSE, pathlen:3
    Signature Algorithm: ecdsa-with-SHA256
         30:45:02:20:0b:55:84:33:33:82:8b:39:44:02:10:2f:83:07:
         3a:dd:09:4e:53:24:57:fe:f9:83:be:58:bf:b1:a8:fe:6d:35:
         02:21:00:c5:95:0e:85:57:92:eb:a0:73:27:43:32:47:d8:33:
         5f:5d:a8:75:82:35:e6:38:c5:2d:7b:c2:f5:24:1d:91:67
-----BEGIN CERTIFICATE-----
MIIB7TCCAZOgAwIBAgIBCzAKBggqhkjOPQQDAjCBlzEXMBUGA1UEAwwOUmVnaW9u
ZSBVbWJyaWExCzAJBgNVBAYTAklUMQ8wDQYDVQQIDAZJdGFsaWExGDAWBgNVBAoM
D0UtVm90aW5nIHN5c3RlbTEiMCAGA1UECwwZRS1Wb3Rpbmcgc3lzdGVtIGF1dGhv
cml0eTEgMB4GCSqGSIb3DQEJARYRVW1icmlhQGV2b3RpbmcuaXQwHhcNMjIwODI2
MTUxODU3WhcNMjMwODI2MTUxODU3WjBGMQ0wCwYDVQQDDARFZG5hMQswCQYDVQQG
EwJJVDEPMA0GA1UECAwGSXRhbGlhMRcwFQYDVQQKDA5SZWdpb25lIFVtYnJpYTBW
MBAGByqGSM49AgEGBSuBBAAKA0IABBR9AsNh/ur9C6JI6i4B0MITve/7bQmAg7xv
ZW4nLRFCq978G59htn4I27hRsvPOnL/xxH2gXHb6TnpGRZLl9dKjIzAhMA4GA1Ud
DwEB/wQEAwIFoDAPBgNVHRMBAf8EBTADAgEDMAoGCCqGSM49BAMCA0gAMEUCIAtV
hDMzgos5RAIQL4MHOt0JTlMkV/75g75Yv7Go/m01AiEAxZUOhVeS66BzJ0MyR9gz
X12odYI15jjFLXvC9SQdkWc=
-----END CERTIFICATE-----
