Certificate:
    Data:
        Version: 3 (0x2)
        Serial Number: 20 (0x14)
        Signature Algorithm: ecdsa-with-SHA256
        Issuer: CN=Regione Campania, C=IT, ST=Italia, O=E-Voting system, OU=E-Voting system authority/emailAddress=Campania@evoting.it
        Validity
            Not Before: Aug  3 13:26:33 2022 GMT
            Not After : Aug  3 13:26:33 2023 GMT
        Subject: CN=Edna, C=IT, ST=Italia, O=Regione Campania
        Subject Public Key Info:
            Public Key Algorithm: id-ecPublicKey
                Public-Key: (256 bit)
                pub:
                    04:fa:dd:86:1f:ba:ff:68:1b:d4:48:70:3c:6f:1d:
                    7b:2d:6f:e0:97:fa:22:72:9e:5e:bc:9e:f8:91:e1:
                    c1:b6:44:03:16:8a:2b:30:67:6f:c8:6c:e8:d4:8f:
                    1b:17:45:2c:3b:d2:bd:93:cd:44:63:0e:b5:8c:d4:
                    e4:d6:82:97:3d
                ASN1 OID: prime256v1
                NIST CURVE: P-256
        X509v3 extensions:
            X509v3 Key Usage: critical
                Digital Signature, Key Encipherment
            X509v3 Basic Constraints: critical
                CA:FALSE, pathlen:3
    Signature Algorithm: ecdsa-with-SHA256
         30:45:02:20:4f:2c:b8:75:79:17:1f:34:f3:e7:77:8a:b6:16:
         4a:b3:14:70:97:c5:db:40:54:8f:d6:e7:18:52:ff:0b:1b:8a:
         02:21:00:e2:7c:c5:4f:69:8f:34:be:df:b8:f7:1a:0d:5f:ed:
         64:c0:14:80:0f:81:1a:52:d9:6f:5e:d6:9b:4b:25:b9:78
-----BEGIN CERTIFICATE-----
MIIB9jCCAZygAwIBAgIBFDAKBggqhkjOPQQDAjCBmzEZMBcGA1UEAwwQUmVnaW9u
ZSBDYW1wYW5pYTELMAkGA1UEBhMCSVQxDzANBgNVBAgMBkl0YWxpYTEYMBYGA1UE
CgwPRS1Wb3Rpbmcgc3lzdGVtMSIwIAYDVQQLDBlFLVZvdGluZyBzeXN0ZW0gYXV0
aG9yaXR5MSIwIAYJKoZIhvcNAQkBFhNDYW1wYW5pYUBldm90aW5nLml0MB4XDTIy
MDgwMzEzMjYzM1oXDTIzMDgwMzEzMjYzM1owSDENMAsGA1UEAwwERWRuYTELMAkG
A1UEBhMCSVQxDzANBgNVBAgMBkl0YWxpYTEZMBcGA1UECgwQUmVnaW9uZSBDYW1w
YW5pYTBZMBMGByqGSM49AgEGCCqGSM49AwEHA0IABPrdhh+6/2gb1EhwPG8dey1v
4Jf6InKeXrye+JHhwbZEAxaKKzBnb8hs6NSPGxdFLDvSvZPNRGMOtYzU5NaClz2j
IzAhMA4GA1UdDwEB/wQEAwIFoDAPBgNVHRMBAf8EBTADAgEDMAoGCCqGSM49BAMC
A0gAMEUCIE8suHV5Fx808+d3irYWSrMUcJfF20BUj9bnGFL/CxuKAiEA4nzFT2mP
NL7fuPcaDV/tZMAUgA+BGlLZb17Wm0sluXg=
-----END CERTIFICATE-----
