Certificate:
    Data:
        Version: 3 (0x2)
        Serial Number: 12 (0xc)
        Signature Algorithm: ecdsa-with-SHA256
        Issuer: CN=Regione Puglia, C=IT, ST=Italia, O=E-Voting system, OU=E-Voting system authority/emailAddress=Puglia@evoting.it
        Validity
            Not Before: Aug  3 13:26:38 2022 GMT
            Not After : Aug  3 13:26:38 2023 GMT
        Subject: CN=Eduardo, C=IT, ST=Italia, O=Regione Puglia
        Subject Public Key Info:
            Public Key Algorithm: id-ecPublicKey
                Public-Key: (256 bit)
                pub:
                    04:45:cc:73:c9:31:a0:1c:60:76:71:f5:f2:6d:45:
                    c0:ff:2b:b6:dc:ce:8d:a0:49:5a:94:b2:f2:38:ee:
                    68:6b:a0:c6:39:ea:86:16:bc:c4:bc:21:fe:52:af:
                    6d:74:b0:73:3c:10:94:25:cc:f7:f0:91:65:5f:a5:
                    ab:b8:69:86:a8
                ASN1 OID: prime256v1
                NIST CURVE: P-256
        X509v3 extensions:
            X509v3 Key Usage: critical
                Digital Signature, Key Encipherment
            X509v3 Basic Constraints: critical
                CA:FALSE, pathlen:3
    Signature Algorithm: ecdsa-with-SHA256
         30:44:02:20:34:8b:f0:6e:bf:aa:90:cd:d4:a2:50:15:fe:66:
         a5:1e:11:ae:c9:be:8e:c5:5d:c4:a6:65:e7:97:a8:81:07:56:
         02:20:1e:65:26:d7:4b:67:0b:fd:bb:9c:86:63:ce:d2:52:68:
         6d:69:c7:b6:f9:86:b8:da:66:7d:eb:1a:0c:b4:40:0c
-----BEGIN CERTIFICATE-----
MIIB8jCCAZmgAwIBAgIBDDAKBggqhkjOPQQDAjCBlzEXMBUGA1UEAwwOUmVnaW9u
ZSBQdWdsaWExCzAJBgNVBAYTAklUMQ8wDQYDVQQIDAZJdGFsaWExGDAWBgNVBAoM
D0UtVm90aW5nIHN5c3RlbTEiMCAGA1UECwwZRS1Wb3Rpbmcgc3lzdGVtIGF1dGhv
cml0eTEgMB4GCSqGSIb3DQEJARYRUHVnbGlhQGV2b3RpbmcuaXQwHhcNMjIwODAz
MTMyNjM4WhcNMjMwODAzMTMyNjM4WjBJMRAwDgYDVQQDDAdFZHVhcmRvMQswCQYD
VQQGEwJJVDEPMA0GA1UECAwGSXRhbGlhMRcwFQYDVQQKDA5SZWdpb25lIFB1Z2xp
YTBZMBMGByqGSM49AgEGCCqGSM49AwEHA0IABEXMc8kxoBxgdnH18m1FwP8rttzO
jaBJWpSy8jjuaGugxjnqhha8xLwh/lKvbXSwczwQlCXM9/CRZV+lq7hphqijIzAh
MA4GA1UdDwEB/wQEAwIFoDAPBgNVHRMBAf8EBTADAgEDMAoGCCqGSM49BAMCA0cA
MEQCIDSL8G6/qpDN1KJQFf5mpR4Rrsm+jsVdxKZl55eogQdWAiAeZSbXS2cL/buc
hmPO0lJobWnHtvmGuNpmfesaDLRADA==
-----END CERTIFICATE-----
