Certificate:
    Data:
        Version: 3 (0x2)
        Serial Number: 38 (0x26)
        Signature Algorithm: ecdsa-with-SHA256
        Issuer: CN=Regione Umbria, C=IT, ST=Italia, O=E-Voting system, OU=E-Voting system authority/emailAddress=Umbria@evoting.it
        Validity
            Not Before: Aug 26 15:20:57 2022 GMT
            Not After : Aug 26 15:20:57 2023 GMT
        Subject: CN=Eduardo, C=IT, ST=Italia, O=Regione Umbria
        Subject Public Key Info:
            Public Key Algorithm: id-ecPublicKey
                Public-Key: (256 bit)
                pub:
                    04:40:d5:df:b6:d6:b4:41:58:22:1b:23:98:03:0f:
                    e0:e0:4f:9f:4c:a3:f9:55:dc:ed:23:76:24:9e:03:
                    9a:c2:fa:cd:7a:45:2c:19:8c:ad:24:05:9e:81:bc:
                    f3:78:56:5c:11:b8:58:db:84:02:93:e4:33:7e:32:
                    5a:8d:46:bb:a2
                ASN1 OID: secp256k1
        X509v3 extensions:
            X509v3 Key Usage: critical
                Digital Signature, Key Encipherment
            X509v3 Basic Constraints: critical
                CA:FALSE, pathlen:3
    Signature Algorithm: ecdsa-with-SHA256
         30:45:02:21:00:f2:61:12:65:9b:dc:80:e3:a6:49:14:e7:69:
         b5:e9:54:06:9c:fd:50:21:6d:5c:0a:dc:a2:0b:f0:f2:01:c7:
         b5:02:20:64:ca:9a:f8:53:29:c0:b8:3d:f5:83:72:f8:df:cb:
         a8:7f:5c:24:46:51:d2:0d:c7:42:f6:bf:c4:b9:a8:c1:cf
-----BEGIN CERTIFICATE-----
MIIB8DCCAZagAwIBAgIBJjAKBggqhkjOPQQDAjCBlzEXMBUGA1UEAwwOUmVnaW9u
ZSBVbWJyaWExCzAJBgNVBAYTAklUMQ8wDQYDVQQIDAZJdGFsaWExGDAWBgNVBAoM
D0UtVm90aW5nIHN5c3RlbTEiMCAGA1UECwwZRS1Wb3Rpbmcgc3lzdGVtIGF1dGhv
cml0eTEgMB4GCSqGSIb3DQEJARYRVW1icmlhQGV2b3RpbmcuaXQwHhcNMjIwODI2
MTUyMDU3WhcNMjMwODI2MTUyMDU3WjBJMRAwDgYDVQQDDAdFZHVhcmRvMQswCQYD
VQQGEwJJVDEPMA0GA1UECAwGSXRhbGlhMRcwFQYDVQQKDA5SZWdpb25lIFVtYnJp
YTBWMBAGByqGSM49AgEGBSuBBAAKA0IABEDV37bWtEFYIhsjmAMP4OBPn0yj+VXc
7SN2JJ4DmsL6zXpFLBmMrSQFnoG883hWXBG4WNuEApPkM34yWo1Gu6KjIzAhMA4G
A1UdDwEB/wQEAwIFoDAPBgNVHRMBAf8EBTADAgEDMAoGCCqGSM49BAMCA0gAMEUC
IQDyYRJlm9yA46ZJFOdptelUBpz9UCFtXArcogvw8gHHtQIgZMqa+FMpwLg99YNy
+N/LqH9cJEZR0g3HQva/xLmowc8=
-----END CERTIFICATE-----
