Certificate:
    Data:
        Version: 3 (0x2)
        Serial Number: 31 (0x1f)
        Signature Algorithm: ecdsa-with-SHA256
        Issuer: CN=Regione Trentino_Alto_Adige, C=IT, ST=Italia, O=E-Voting system, OU=E-Voting system authority/emailAddress=Trentino_Alto_Adige@evoting.it
        Validity
            Not Before: Aug 26 15:20:36 2022 GMT
            Not After : Aug 26 15:20:36 2023 GMT
        Subject: CN=Edward, C=IT, ST=Italia, O=Regione Trentino_Alto_Adige
        Subject Public Key Info:
            Public Key Algorithm: id-ecPublicKey
                Public-Key: (256 bit)
                pub:
                    04:d3:ea:8b:b2:b9:47:58:2d:ee:11:05:0e:d1:c5:
                    ac:6c:4c:32:3c:e6:5a:30:cd:ce:03:0b:fc:5c:cb:
                    95:ba:39:0f:1f:20:0c:88:35:9d:aa:b3:09:9b:b0:
                    c2:0c:d8:c2:29:a7:3b:f8:28:44:84:d6:28:4b:56:
                    24:90:0e:93:05
                ASN1 OID: secp256k1
        X509v3 extensions:
            X509v3 Key Usage: critical
                Digital Signature, Key Encipherment
            X509v3 Basic Constraints: critical
                CA:FALSE, pathlen:3
    Signature Algorithm: ecdsa-with-SHA256
         30:46:02:21:00:f3:a2:5e:9b:1f:10:b2:27:06:83:ee:7c:00:
         96:f7:b4:ca:14:75:ce:c1:da:9a:06:5a:68:74:e8:2c:4a:c9:
         88:02:21:00:8b:3b:33:64:b8:0a:c7:13:8e:60:33:cf:f9:7d:
         c0:01:6a:a7:c0:a7:63:30:d2:1b:50:89:6b:04:dc:de:ea:ab
-----BEGIN CERTIFICATE-----
MIICFzCCAbygAwIBAgIBHzAKBggqhkjOPQQDAjCBsTEkMCIGA1UEAwwbUmVnaW9u
ZSBUcmVudGlub19BbHRvX0FkaWdlMQswCQYDVQQGEwJJVDEPMA0GA1UECAwGSXRh
bGlhMRgwFgYDVQQKDA9FLVZvdGluZyBzeXN0ZW0xIjAgBgNVBAsMGUUtVm90aW5n
IHN5c3RlbSBhdXRob3JpdHkxLTArBgkqhkiG9w0BCQEWHlRyZW50aW5vX0FsdG9f
QWRpZ2VAZXZvdGluZy5pdDAeFw0yMjA4MjYxNTIwMzZaFw0yMzA4MjYxNTIwMzZa
MFUxDzANBgNVBAMMBkVkd2FyZDELMAkGA1UEBhMCSVQxDzANBgNVBAgMBkl0YWxp
YTEkMCIGA1UECgwbUmVnaW9uZSBUcmVudGlub19BbHRvX0FkaWdlMFYwEAYHKoZI
zj0CAQYFK4EEAAoDQgAE0+qLsrlHWC3uEQUO0cWsbEwyPOZaMM3OAwv8XMuVujkP
HyAMiDWdqrMJm7DCDNjCKac7+ChEhNYoS1YkkA6TBaMjMCEwDgYDVR0PAQH/BAQD
AgWgMA8GA1UdEwEB/wQFMAMCAQMwCgYIKoZIzj0EAwIDSQAwRgIhAPOiXpsfELIn
BoPufACW97TKFHXOwdqaBlpodOgsSsmIAiEAizszZLgKxxOOYDPP+X3AAWqnwKdj
MNIbUIlrBNze6qs=
-----END CERTIFICATE-----
