Certificate:
    Data:
        Version: 3 (0x2)
        Serial Number: 33 (0x21)
        Signature Algorithm: ecdsa-with-SHA256
        Issuer: CN=Regione Toscana, C=IT, ST=Italia, O=E-Voting system, OU=E-Voting system authority/emailAddress=Toscana@evoting.it
        Validity
            Not Before: Aug 26 15:20:53 2022 GMT
            Not After : Aug 26 15:20:53 2023 GMT
        Subject: CN=Edwin, C=IT, ST=Italia, O=Regione Toscana
        Subject Public Key Info:
            Public Key Algorithm: id-ecPublicKey
                Public-Key: (256 bit)
                pub:
                    04:09:38:c6:55:99:1b:06:d4:a4:62:88:a5:65:29:
                    67:d5:e3:89:a1:f4:2f:80:8b:46:f8:f7:c7:f4:16:
                    19:8f:e6:a0:12:b2:77:44:ee:fb:99:38:23:f0:82:
                    ad:da:db:b4:f2:cc:cc:e7:48:26:5a:50:ce:49:3d:
                    e5:c6:29:b2:1c
                ASN1 OID: secp256k1
        X509v3 extensions:
            X509v3 Key Usage: critical
                Digital Signature, Key Encipherment
            X509v3 Basic Constraints: critical
                CA:FALSE, pathlen:3
    Signature Algorithm: ecdsa-with-SHA256
         30:45:02:21:00:dd:5a:c0:ec:e6:56:0b:ca:a8:15:76:e4:c5:
         44:8a:78:c5:ac:e6:e3:09:f4:da:af:76:b4:c2:95:8d:48:bc:
         81:02:20:40:fe:61:9d:72:ad:a2:a3:9d:8f:6a:57:a7:75:9b:
         6e:85:39:4d:56:55:e5:ed:d3:f9:d9:28:c6:ed:a9:96:de
-----BEGIN CERTIFICATE-----
MIIB8TCCAZegAwIBAgIBITAKBggqhkjOPQQDAjCBmTEYMBYGA1UEAwwPUmVnaW9u
ZSBUb3NjYW5hMQswCQYDVQQGEwJJVDEPMA0GA1UECAwGSXRhbGlhMRgwFgYDVQQK
DA9FLVZvdGluZyBzeXN0ZW0xIjAgBgNVBAsMGUUtVm90aW5nIHN5c3RlbSBhdXRo
b3JpdHkxITAfBgkqhkiG9w0BCQEWElRvc2NhbmFAZXZvdGluZy5pdDAeFw0yMjA4
MjYxNTIwNTNaFw0yMzA4MjYxNTIwNTNaMEgxDjAMBgNVBAMMBUVkd2luMQswCQYD
VQQGEwJJVDEPMA0GA1UECAwGSXRhbGlhMRgwFgYDVQQKDA9SZWdpb25lIFRvc2Nh
bmEwVjAQBgcqhkjOPQIBBgUrgQQACgNCAAQJOMZVmRsG1KRiiKVlKWfV44mh9C+A
i0b498f0FhmP5qASsndE7vuZOCPwgq3a27TyzMznSCZaUM5JPeXGKbIcoyMwITAO
BgNVHQ8BAf8EBAMCBaAwDwYDVR0TAQH/BAUwAwIBAzAKBggqhkjOPQQDAgNIADBF
AiEA3VrA7OZWC8qoFXbkxUSKeMWs5uMJ9NqvdrTClY1IvIECIED+YZ1yraKjnY9q
V6d1m26FOU1WVeXt0/nZKMbtqZbe
-----END CERTIFICATE-----
