Certificate:
    Data:
        Version: 3 (0x2)
        Serial Number: 4 (0x4)
        Signature Algorithm: ecdsa-with-SHA256
        Issuer: CN=Regione Umbria, C=IT, ST=Italia, O=E-Voting system, OU=E-Voting system authority/emailAddress=Umbria@evoting.it
        Validity
            Not Before: Aug  3 13:26:03 2022 GMT
            Not After : Aug  3 13:26:03 2023 GMT
        Subject: CN=Efren, C=IT, ST=Italia, O=Regione Umbria
        Subject Public Key Info:
            Public Key Algorithm: id-ecPublicKey
                Public-Key: (256 bit)
                pub:
                    04:8e:20:37:ee:15:5f:78:73:17:85:0b:76:c2:57:
                    44:56:64:20:8e:6b:92:f1:4a:27:fb:31:04:58:cd:
                    6d:6c:af:39:0f:c7:ee:90:a5:74:c7:12:a0:18:ef:
                    f7:82:c3:ad:e8:74:41:47:f6:48:f7:92:6d:f8:29:
                    f3:12:3a:3d:e3
                ASN1 OID: prime256v1
                NIST CURVE: P-256
        X509v3 extensions:
            X509v3 Key Usage: critical
                Digital Signature, Key Encipherment
            X509v3 Basic Constraints: critical
                CA:FALSE, pathlen:3
    Signature Algorithm: ecdsa-with-SHA256
         30:46:02:21:00:91:3a:e7:e1:3d:4c:0f:b8:45:35:29:b7:22:
         f8:52:7b:de:2e:bd:84:57:73:cf:d4:96:43:14:c0:4d:f5:97:
         2b:02:21:00:b1:64:89:cb:bc:3c:89:47:5c:da:d4:c5:60:30:
         b8:1e:14:3c:71:91:cb:10:a8:5f:33:18:9c:16:bf:6c:8b:be
-----BEGIN CERTIFICATE-----
MIIB8jCCAZegAwIBAgIBBDAKBggqhkjOPQQDAjCBlzEXMBUGA1UEAwwOUmVnaW9u
ZSBVbWJyaWExCzAJBgNVBAYTAklUMQ8wDQYDVQQIDAZJdGFsaWExGDAWBgNVBAoM
D0UtVm90aW5nIHN5c3RlbTEiMCAGA1UECwwZRS1Wb3Rpbmcgc3lzdGVtIGF1dGhv
cml0eTEgMB4GCSqGSIb3DQEJARYRVW1icmlhQGV2b3RpbmcuaXQwHhcNMjIwODAz
MTMyNjAzWhcNMjMwODAzMTMyNjAzWjBHMQ4wDAYDVQQDDAVFZnJlbjELMAkGA1UE
BhMCSVQxDzANBgNVBAgMBkl0YWxpYTEXMBUGA1UECgwOUmVnaW9uZSBVbWJyaWEw
WTATBgcqhkjOPQIBBggqhkjOPQMBBwNCAASOIDfuFV94cxeFC3bCV0RWZCCOa5Lx
Sif7MQRYzW1srzkPx+6QpXTHEqAY7/eCw63odEFH9kj3km34KfMSOj3joyMwITAO
BgNVHQ8BAf8EBAMCBaAwDwYDVR0TAQH/BAUwAwIBAzAKBggqhkjOPQQDAgNJADBG
AiEAkTrn4T1MD7hFNSm3IvhSe94uvYRXc8/UlkMUwE31lysCIQCxZInLvDyJR1za
1MVgMLgeFDxxkcsQqF8zGJwWv2yLvg==
-----END CERTIFICATE-----
