Certificate:
    Data:
        Version: 3 (0x2)
        Serial Number: 8 (0x8)
        Signature Algorithm: ecdsa-with-SHA256
        Issuer: CN=Regione Sicilia, C=IT, ST=Italia, O=E-Voting system, OU=E-Voting system authority/emailAddress=Sicilia@evoting.it
        Validity
            Not Before: Aug 26 15:18:46 2022 GMT
            Not After : Aug 26 15:18:46 2023 GMT
        Subject: CN=Elaine, C=IT, ST=Italia, O=Regione Sicilia
        Subject Public Key Info:
            Public Key Algorithm: id-ecPublicKey
                Public-Key: (256 bit)
                pub:
                    04:f3:fd:42:06:ca:39:56:02:57:2c:41:80:01:8e:
                    0c:7b:f2:39:2c:53:56:ee:d6:5c:fc:8d:27:51:87:
                    7f:45:b2:e7:36:66:09:92:b7:ca:ad:9a:41:d2:65:
                    a4:f3:6b:ce:78:78:87:3b:b7:20:3d:8f:5f:05:cf:
                    7a:49:0e:42:aa
                ASN1 OID: secp256k1
        X509v3 extensions:
            X509v3 Key Usage: critical
                Digital Signature, Key Encipherment
            X509v3 Basic Constraints: critical
                CA:FALSE, pathlen:3
    Signature Algorithm: ecdsa-with-SHA256
         30:46:02:21:00:8e:74:8a:af:e9:0e:41:6d:42:c1:f4:c9:a8:
         5c:dd:d6:a9:94:c1:6f:09:da:df:a7:42:1a:c5:f3:97:b3:3e:
         51:02:21:00:b5:c7:ee:63:83:41:bb:13:a3:70:f0:a1:fc:99:
         6a:52:4f:42:80:c6:eb:ae:ba:c1:ce:fc:dd:a3:9f:ba:c7:f8
-----BEGIN CERTIFICATE-----
MIIB8zCCAZigAwIBAgIBCDAKBggqhkjOPQQDAjCBmTEYMBYGA1UEAwwPUmVnaW9u
ZSBTaWNpbGlhMQswCQYDVQQGEwJJVDEPMA0GA1UECAwGSXRhbGlhMRgwFgYDVQQK
DA9FLVZvdGluZyBzeXN0ZW0xIjAgBgNVBAsMGUUtVm90aW5nIHN5c3RlbSBhdXRo
b3JpdHkxITAfBgkqhkiG9w0BCQEWElNpY2lsaWFAZXZvdGluZy5pdDAeFw0yMjA4
MjYxNTE4NDZaFw0yMzA4MjYxNTE4NDZaMEkxDzANBgNVBAMMBkVsYWluZTELMAkG
A1UEBhMCSVQxDzANBgNVBAgMBkl0YWxpYTEYMBYGA1UECgwPUmVnaW9uZSBTaWNp
bGlhMFYwEAYHKoZIzj0CAQYFK4EEAAoDQgAE8/1CBso5VgJXLEGAAY4Me/I5LFNW
7tZc/I0nUYd/RbLnNmYJkrfKrZpB0mWk82vOeHiHO7cgPY9fBc96SQ5CqqMjMCEw
DgYDVR0PAQH/BAQDAgWgMA8GA1UdEwEB/wQFMAMCAQMwCgYIKoZIzj0EAwIDSQAw
RgIhAI50iq/pDkFtQsH0yahc3daplMFvCdrfp0IaxfOXsz5RAiEAtcfuY4NBuxOj
cPCh/JlqUk9CgMbrrrrBzvzdo5+6x/g=
-----END CERTIFICATE-----
