Certificate:
    Data:
        Version: 3 (0x2)
        Serial Number: 4 (0x4)
        Signature Algorithm: ecdsa-with-SHA256
        Issuer: CN=Regione Piemonte, C=IT, ST=Italia, O=E-Voting system, OU=E-Voting system authority/emailAddress=Piemonte@evoting.it
        Validity
            Not Before: Aug  3 13:25:45 2022 GMT
            Not After : Aug  3 13:25:45 2023 GMT
        Subject: CN=Elba, C=IT, ST=Italia, O=Regione Piemonte
        Subject Public Key Info:
            Public Key Algorithm: id-ecPublicKey
                Public-Key: (256 bit)
                pub:
                    04:50:65:88:02:51:2c:55:20:ee:34:7c:d2:a2:ef:
                    c8:f2:27:9f:ae:b5:6c:c2:f3:ee:2f:62:86:3e:1f:
                    6a:bd:31:18:f3:ab:1d:d0:4b:68:44:ad:8a:87:c3:
                    ab:f9:96:fb:24:91:71:01:6b:d8:b4:7d:27:dc:48:
                    a0:5a:bb:b2:e4
                ASN1 OID: prime256v1
                NIST CURVE: P-256
        X509v3 extensions:
            X509v3 Key Usage: critical
                Digital Signature, Key Encipherment
            X509v3 Basic Constraints: critical
                CA:FALSE, pathlen:3
    Signature Algorithm: ecdsa-with-SHA256
         30:45:02:20:7d:6c:ca:60:74:f5:df:bc:47:2c:e7:54:40:8b:
         5d:fd:1d:ea:43:fb:35:65:21:02:b2:76:7d:a5:53:d5:c5:90:
         02:21:00:e3:ce:8b:b7:01:b6:d0:85:d6:33:83:63:dc:85:22:
         8c:66:1c:e1:cf:14:69:0c:bf:9b:82:18:bb:42:a5:62:c3
-----BEGIN CERTIFICATE-----
MIIB9jCCAZygAwIBAgIBBDAKBggqhkjOPQQDAjCBmzEZMBcGA1UEAwwQUmVnaW9u
ZSBQaWVtb250ZTELMAkGA1UEBhMCSVQxDzANBgNVBAgMBkl0YWxpYTEYMBYGA1UE
CgwPRS1Wb3Rpbmcgc3lzdGVtMSIwIAYDVQQLDBlFLVZvdGluZyBzeXN0ZW0gYXV0
aG9yaXR5MSIwIAYJKoZIhvcNAQkBFhNQaWVtb250ZUBldm90aW5nLml0MB4XDTIy
MDgwMzEzMjU0NVoXDTIzMDgwMzEzMjU0NVowSDENMAsGA1UEAwwERWxiYTELMAkG
A1UEBhMCSVQxDzANBgNVBAgMBkl0YWxpYTEZMBcGA1UECgwQUmVnaW9uZSBQaWVt
b250ZTBZMBMGByqGSM49AgEGCCqGSM49AwEHA0IABFBliAJRLFUg7jR80qLvyPIn
n661bMLz7i9ihj4far0xGPOrHdBLaEStiofDq/mW+ySRcQFr2LR9J9xIoFq7suSj
IzAhMA4GA1UdDwEB/wQEAwIFoDAPBgNVHRMBAf8EBTADAgEDMAoGCCqGSM49BAMC
A0gAMEUCIH1symB09d+8RyznVECLXf0d6kP7NWUhArJ2faVT1cWQAiEA486LtwG2
0IXWM4Nj3IUijGYc4c8UaQy/m4IYu0KlYsM=
-----END CERTIFICATE-----
