Certificate:
    Data:
        Version: 3 (0x2)
        Serial Number: 12 (0xc)
        Signature Algorithm: ecdsa-with-SHA256
        Issuer: CN=Regione Lombardia, C=IT, ST=Italia, O=E-Voting system, OU=E-Voting system authority/emailAddress=Lombardia@evoting.it
        Validity
            Not Before: Aug 26 15:19:24 2022 GMT
            Not After : Aug 26 15:19:24 2023 GMT
        Subject: CN=Eldon, C=IT, ST=Italia, O=Regione Lombardia
        Subject Public Key Info:
            Public Key Algorithm: id-ecPublicKey
                Public-Key: (256 bit)
                pub:
                    04:e8:44:5f:27:a6:f3:f0:2a:db:79:27:a6:4a:b0:
                    6d:84:60:89:8b:71:46:22:cd:11:56:60:2d:df:f6:
                    a0:5f:95:10:9b:1d:0c:15:04:4b:a2:9d:57:86:41:
                    3e:96:4a:31:34:66:20:8f:44:18:ca:6a:c5:84:1f:
                    de:02:93:fd:44
                ASN1 OID: secp256k1
        X509v3 extensions:
            X509v3 Key Usage: critical
                Digital Signature, Key Encipherment
            X509v3 Basic Constraints: critical
                CA:FALSE, pathlen:3
    Signature Algorithm: ecdsa-with-SHA256
         30:45:02:21:00:99:52:3f:86:ef:dd:3e:c2:7d:af:51:3a:a9:
         4d:58:b0:16:39:db:af:85:0e:a7:55:1a:6d:f1:3c:35:54:1f:
         f4:02:20:55:04:a3:ba:b2:b0:51:aa:65:cf:2f:cc:23:36:12:
         60:5a:39:18:6d:ca:3f:f0:ef:92:d5:b0:39:54:54:e2:b2
-----BEGIN CERTIFICATE-----
MIIB9zCCAZ2gAwIBAgIBDDAKBggqhkjOPQQDAjCBnTEaMBgGA1UEAwwRUmVnaW9u
ZSBMb21iYXJkaWExCzAJBgNVBAYTAklUMQ8wDQYDVQQIDAZJdGFsaWExGDAWBgNV
BAoMD0UtVm90aW5nIHN5c3RlbTEiMCAGA1UECwwZRS1Wb3Rpbmcgc3lzdGVtIGF1
dGhvcml0eTEjMCEGCSqGSIb3DQEJARYUTG9tYmFyZGlhQGV2b3RpbmcuaXQwHhcN
MjIwODI2MTUxOTI0WhcNMjMwODI2MTUxOTI0WjBKMQ4wDAYDVQQDDAVFbGRvbjEL
MAkGA1UEBhMCSVQxDzANBgNVBAgMBkl0YWxpYTEaMBgGA1UECgwRUmVnaW9uZSBM
b21iYXJkaWEwVjAQBgcqhkjOPQIBBgUrgQQACgNCAAToRF8npvPwKtt5J6ZKsG2E
YImLcUYizRFWYC3f9qBflRCbHQwVBEuinVeGQT6WSjE0ZiCPRBjKasWEH94Ck/1E
oyMwITAOBgNVHQ8BAf8EBAMCBaAwDwYDVR0TAQH/BAUwAwIBAzAKBggqhkjOPQQD
AgNIADBFAiEAmVI/hu/dPsJ9r1E6qU1YsBY526+FDqdVGm3xPDVUH/QCIFUEo7qy
sFGqZc8vzCM2EmBaORhtyj/w75LVsDlUVOKy
-----END CERTIFICATE-----
