Certificate:
    Data:
        Version: 3 (0x2)
        Serial Number: 36 (0x24)
        Signature Algorithm: ecdsa-with-SHA256
        Issuer: CN=Regione Valle_d_Aosta, C=IT, ST=Italia, O=E-Voting system, OU=E-Voting system authority/emailAddress=Valle_d_Aosta@evoting.it
        Validity
            Not Before: Aug 26 15:20:52 2022 GMT
            Not After : Aug 26 15:20:52 2023 GMT
        Subject: CN=Eleanor, C=IT, ST=Italia, O=Regione Valle_d_Aosta
        Subject Public Key Info:
            Public Key Algorithm: id-ecPublicKey
                Public-Key: (256 bit)
                pub:
                    04:95:4d:36:a9:a0:0c:ca:9d:52:6c:09:44:f8:19:
                    f3:8d:e5:92:4e:35:b3:de:cc:4a:ab:ab:a6:40:f0:
                    f7:6f:d9:2e:5c:9a:88:6d:ad:1a:6a:30:1a:e3:f5:
                    0e:a2:a7:c7:cf:9d:7d:aa:90:02:30:d5:40:21:8c:
                    0c:c5:68:36:0a
                ASN1 OID: secp256k1
        X509v3 extensions:
            X509v3 Key Usage: critical
                Digital Signature, Key Encipherment
            X509v3 Basic Constraints: critical
                CA:FALSE, pathlen:3
    Signature Algorithm: ecdsa-with-SHA256
         30:44:02:20:1e:c1:dd:2a:d2:46:2a:43:e3:e9:85:4e:26:14:
         5e:29:30:5b:7b:d0:bc:38:73:b2:28:8c:51:1c:87:f3:70:20:
         02:20:51:cf:b5:04:3a:ab:3f:c8:f6:43:69:e7:86:8e:33:aa:
         c9:b8:c6:9a:47:69:0b:0a:ed:c1:a4:62:6e:f9:79:ff
-----BEGIN CERTIFICATE-----
MIICBDCCAaugAwIBAgIBJDAKBggqhkjOPQQDAjCBpTEeMBwGA1UEAwwVUmVnaW9u
ZSBWYWxsZV9kX0Fvc3RhMQswCQYDVQQGEwJJVDEPMA0GA1UECAwGSXRhbGlhMRgw
FgYDVQQKDA9FLVZvdGluZyBzeXN0ZW0xIjAgBgNVBAsMGUUtVm90aW5nIHN5c3Rl
bSBhdXRob3JpdHkxJzAlBgkqhkiG9w0BCQEWGFZhbGxlX2RfQW9zdGFAZXZvdGlu
Zy5pdDAeFw0yMjA4MjYxNTIwNTJaFw0yMzA4MjYxNTIwNTJaMFAxEDAOBgNVBAMM
B0VsZWFub3IxCzAJBgNVBAYTAklUMQ8wDQYDVQQIDAZJdGFsaWExHjAcBgNVBAoM
FVJlZ2lvbmUgVmFsbGVfZF9Bb3N0YTBWMBAGByqGSM49AgEGBSuBBAAKA0IABJVN
NqmgDMqdUmwJRPgZ843lkk41s97MSqurpkDw92/ZLlyaiG2tGmowGuP1DqKnx8+d
faqQAjDVQCGMDMVoNgqjIzAhMA4GA1UdDwEB/wQEAwIFoDAPBgNVHRMBAf8EBTAD
AgEDMAoGCCqGSM49BAMCA0cAMEQCIB7B3SrSRipD4+mFTiYUXikwW3vQvDhzsiiM
URyH83AgAiBRz7UEOqs/yPZDaeeGjjOqybjGmkdpCwrtwaRibvl5/w==
-----END CERTIFICATE-----
