Certificate:
    Data:
        Version: 3 (0x2)
        Serial Number: 8 (0x8)
        Signature Algorithm: ecdsa-with-SHA256
        Issuer: CN=Regione Liguria, C=IT, ST=Italia, O=E-Voting system, OU=E-Voting system authority/emailAddress=Liguria@evoting.it
        Validity
            Not Before: Aug 26 15:18:39 2022 GMT
            Not After : Aug 26 15:18:39 2023 GMT
        Subject: CN=Eliana, C=IT, ST=Italia, O=Regione Liguria
        Subject Public Key Info:
            Public Key Algorithm: id-ecPublicKey
                Public-Key: (256 bit)
                pub:
                    04:62:7a:35:ae:8e:54:74:37:be:7c:62:da:35:47:
                    7b:3a:2e:1a:3c:fa:6c:ff:1d:5e:61:9f:f1:27:8d:
                    ba:e5:04:5d:75:b1:fb:bc:cf:57:be:53:24:15:1f:
                    ec:06:24:f5:fe:d8:35:25:e1:24:f8:5e:dc:2a:32:
                    bc:99:07:20:35
                ASN1 OID: secp256k1
        X509v3 extensions:
            X509v3 Key Usage: critical
                Digital Signature, Key Encipherment
            X509v3 Basic Constraints: critical
                CA:FALSE, pathlen:3
    Signature Algorithm: ecdsa-with-SHA256
         30:45:02:20:39:4f:46:5f:be:fd:c0:0a:e9:0e:33:3c:01:73:
         09:b8:66:6b:a4:9e:9e:24:3d:a2:18:02:22:66:7d:17:c2:42:
         02:21:00:81:87:f9:36:0b:f5:b5:16:c4:0f:ba:22:78:5a:64:
         54:3d:0d:38:60:4f:46:f6:bc:98:f1:48:df:0d:c4:22:ff
-----BEGIN CERTIFICATE-----
MIIB8jCCAZigAwIBAgIBCDAKBggqhkjOPQQDAjCBmTEYMBYGA1UEAwwPUmVnaW9u
ZSBMaWd1cmlhMQswCQYDVQQGEwJJVDEPMA0GA1UECAwGSXRhbGlhMRgwFgYDVQQK
DA9FLVZvdGluZyBzeXN0ZW0xIjAgBgNVBAsMGUUtVm90aW5nIHN5c3RlbSBhdXRo
b3JpdHkxITAfBgkqhkiG9w0BCQEWEkxpZ3VyaWFAZXZvdGluZy5pdDAeFw0yMjA4
MjYxNTE4MzlaFw0yMzA4MjYxNTE4MzlaMEkxDzANBgNVBAMMBkVsaWFuYTELMAkG
A1UEBhMCSVQxDzANBgNVBAgMBkl0YWxpYTEYMBYGA1UECgwPUmVnaW9uZSBMaWd1
cmlhMFYwEAYHKoZIzj0CAQYFK4EEAAoDQgAEYno1ro5UdDe+fGLaNUd7Oi4aPPps
/x1eYZ/xJ4265QRddbH7vM9XvlMkFR/sBiT1/tg1JeEk+F7cKjK8mQcgNaMjMCEw
DgYDVR0PAQH/BAQDAgWgMA8GA1UdEwEB/wQFMAMCAQMwCgYIKoZIzj0EAwIDSAAw
RQIgOU9GX779wArpDjM8AXMJuGZrpJ6eJD2iGAIiZn0XwkICIQCBh/k2C/W1FsQP
uiJ4WmRUPQ04YE9G9ryY8UjfDcQi/w==
-----END CERTIFICATE-----
