Certificate:
    Data:
        Version: 3 (0x2)
        Serial Number: 46 (0x2e)
        Signature Algorithm: ecdsa-with-SHA256
        Issuer: CN=Regione Abruzzo, C=IT, ST=Italia, O=E-Voting system, OU=E-Voting system authority/emailAddress=Abruzzo@evoting.it
        Validity
            Not Before: Aug  3 13:28:03 2022 GMT
            Not After : Aug  3 13:28:03 2023 GMT
        Subject: CN=Elida, C=IT, ST=Italia, O=Regione Abruzzo
        Subject Public Key Info:
            Public Key Algorithm: id-ecPublicKey
                Public-Key: (256 bit)
                pub:
                    04:57:f9:fc:90:38:41:85:a9:74:d6:47:37:75:e8:
                    99:80:c4:77:71:a4:6d:a2:b3:51:8c:73:7a:1b:4e:
                    c1:68:b8:1f:51:06:77:e0:3c:66:1f:11:94:4b:7b:
                    bd:0e:c3:1d:77:f3:7e:d8:2c:a3:32:2f:fb:56:57:
                    60:07:5b:eb:40
                ASN1 OID: prime256v1
                NIST CURVE: P-256
        X509v3 extensions:
            X509v3 Key Usage: critical
                Digital Signature, Key Encipherment
            X509v3 Basic Constraints: critical
                CA:FALSE, pathlen:3
    Signature Algorithm: ecdsa-with-SHA256
         30:45:02:21:00:96:25:fc:21:ee:bd:74:74:6a:db:3e:07:0e:
         da:82:4a:f6:bf:04:2c:73:74:3f:e9:44:d1:54:a0:97:b2:ff:
         9f:02:20:51:28:d7:1b:6f:af:76:0c:bf:db:f8:ea:b3:e2:8c:
         d2:aa:1c:87:17:ca:26:ef:96:3f:db:cb:7f:1c:20:a2:5f
-----BEGIN CERTIFICATE-----
MIIB9DCCAZqgAwIBAgIBLjAKBggqhkjOPQQDAjCBmTEYMBYGA1UEAwwPUmVnaW9u
ZSBBYnJ1enpvMQswCQYDVQQGEwJJVDEPMA0GA1UECAwGSXRhbGlhMRgwFgYDVQQK
DA9FLVZvdGluZyBzeXN0ZW0xIjAgBgNVBAsMGUUtVm90aW5nIHN5c3RlbSBhdXRo
b3JpdHkxITAfBgkqhkiG9w0BCQEWEkFicnV6em9AZXZvdGluZy5pdDAeFw0yMjA4
MDMxMzI4MDNaFw0yMzA4MDMxMzI4MDNaMEgxDjAMBgNVBAMMBUVsaWRhMQswCQYD
VQQGEwJJVDEPMA0GA1UECAwGSXRhbGlhMRgwFgYDVQQKDA9SZWdpb25lIEFicnV6
em8wWTATBgcqhkjOPQIBBggqhkjOPQMBBwNCAARX+fyQOEGFqXTWRzd16JmAxHdx
pG2is1GMc3obTsFouB9RBnfgPGYfEZRLe70Owx13837YLKMyL/tWV2AHW+tAoyMw
ITAOBgNVHQ8BAf8EBAMCBaAwDwYDVR0TAQH/BAUwAwIBAzAKBggqhkjOPQQDAgNI
ADBFAiEAliX8Ie69dHRq2z4HDtqCSva/BCxzdD/pRNFUoJey/58CIFEo1xtvr3YM
v9v46rPijNKqHIcXyibvlj/by38cIKJf
-----END CERTIFICATE-----
