Certificate:
    Data:
        Version: 3 (0x2)
        Serial Number: 47 (0x2f)
        Signature Algorithm: ecdsa-with-SHA256
        Issuer: CN=Regione Calabria, C=IT, ST=Italia, O=E-Voting system, OU=E-Voting system authority/emailAddress=Calabria@evoting.it
        Validity
            Not Before: Aug  3 13:28:20 2022 GMT
            Not After : Aug  3 13:28:20 2023 GMT
        Subject: CN=Elise, C=IT, ST=Italia, O=Regione Calabria
        Subject Public Key Info:
            Public Key Algorithm: id-ecPublicKey
                Public-Key: (256 bit)
                pub:
                    04:8c:9f:7a:65:a4:32:49:1f:10:09:32:b6:e3:bb:
                    5d:4f:60:c7:90:cf:f1:4a:4c:3a:3a:94:e7:df:73:
                    57:01:0a:59:91:ca:14:15:3d:15:b9:c0:41:12:81:
                    14:65:bc:b4:21:34:bd:02:42:2e:24:8c:00:a7:96:
                    b0:f0:6a:ff:16
                ASN1 OID: prime256v1
                NIST CURVE: P-256
        X509v3 extensions:
            X509v3 Key Usage: critical
                Digital Signature, Key Encipherment
            X509v3 Basic Constraints: critical
                CA:FALSE, pathlen:3
    Signature Algorithm: ecdsa-with-SHA256
         30:45:02:21:00:aa:89:59:cb:89:17:c9:a2:71:c5:2c:bc:cb:
         ce:22:e1:2c:d2:77:f0:9f:e9:92:b6:63:61:6a:56:a5:d2:79:
         ea:02:20:1b:2f:7c:18:ca:33:6d:00:bb:7f:da:20:c8:71:3e:
         91:0f:6a:12:4d:c4:33:15:9a:13:8a:19:8d:66:53:b8:ef
-----BEGIN CERTIFICATE-----
MIIB9zCCAZ2gAwIBAgIBLzAKBggqhkjOPQQDAjCBmzEZMBcGA1UEAwwQUmVnaW9u
ZSBDYWxhYnJpYTELMAkGA1UEBhMCSVQxDzANBgNVBAgMBkl0YWxpYTEYMBYGA1UE
CgwPRS1Wb3Rpbmcgc3lzdGVtMSIwIAYDVQQLDBlFLVZvdGluZyBzeXN0ZW0gYXV0
aG9yaXR5MSIwIAYJKoZIhvcNAQkBFhNDYWxhYnJpYUBldm90aW5nLml0MB4XDTIy
MDgwMzEzMjgyMFoXDTIzMDgwMzEzMjgyMFowSTEOMAwGA1UEAwwFRWxpc2UxCzAJ
BgNVBAYTAklUMQ8wDQYDVQQIDAZJdGFsaWExGTAXBgNVBAoMEFJlZ2lvbmUgQ2Fs
YWJyaWEwWTATBgcqhkjOPQIBBggqhkjOPQMBBwNCAASMn3plpDJJHxAJMrbju11P
YMeQz/FKTDo6lOffc1cBClmRyhQVPRW5wEESgRRlvLQhNL0CQi4kjACnlrDwav8W
oyMwITAOBgNVHQ8BAf8EBAMCBaAwDwYDVR0TAQH/BAUwAwIBAzAKBggqhkjOPQQD
AgNIADBFAiEAqolZy4kXyaJxxSy8y84i4SzSd/Cf6ZK2Y2FqVqXSeeoCIBsvfBjK
M20Au3/aIMhxPpEPahJNxDMVmhOKGY1mU7jv
-----END CERTIFICATE-----
