Certificate:
    Data:
        Version: 3 (0x2)
        Serial Number: 52 (0x34)
        Signature Algorithm: ecdsa-with-SHA256
        Issuer: CN=Regione Puglia, C=IT, ST=Italia, O=E-Voting system, OU=E-Voting system authority/emailAddress=Puglia@evoting.it
        Validity
            Not Before: Aug 26 15:21:27 2022 GMT
            Not After : Aug 26 15:21:27 2023 GMT
        Subject: CN=Elizabeth, C=IT, ST=Italia, O=Regione Puglia
        Subject Public Key Info:
            Public Key Algorithm: id-ecPublicKey
                Public-Key: (256 bit)
                pub:
                    04:a2:6d:4e:cd:e4:db:da:53:e8:12:4b:b0:8a:33:
                    16:b5:23:13:fc:23:ea:c6:ce:b3:30:ed:c1:96:81:
                    e6:da:7e:62:5e:f7:87:83:ef:8f:5d:10:df:14:b5:
                    50:dd:60:21:2e:e8:18:f9:d6:c8:64:91:47:e5:b1:
                    f9:b7:b4:f0:ab
                ASN1 OID: secp256k1
        X509v3 extensions:
            X509v3 Key Usage: critical
                Digital Signature, Key Encipherment
            X509v3 Basic Constraints: critical
                CA:FALSE, pathlen:3
    Signature Algorithm: ecdsa-with-SHA256
         30:46:02:21:00:cf:db:39:4f:cd:98:c8:3f:be:95:24:79:39:
         61:be:66:c9:d5:9b:3f:71:9b:92:fd:eb:d9:35:ea:a9:3a:fd:
         2c:02:21:00:ad:cc:4a:53:06:a5:f3:32:aa:58:e3:1e:44:aa:
         0c:d7:0b:a8:c8:3a:42:2c:55:78:08:8a:81:ee:6f:4f:7f:db
-----BEGIN CERTIFICATE-----
MIIB8zCCAZigAwIBAgIBNDAKBggqhkjOPQQDAjCBlzEXMBUGA1UEAwwOUmVnaW9u
ZSBQdWdsaWExCzAJBgNVBAYTAklUMQ8wDQYDVQQIDAZJdGFsaWExGDAWBgNVBAoM
D0UtVm90aW5nIHN5c3RlbTEiMCAGA1UECwwZRS1Wb3Rpbmcgc3lzdGVtIGF1dGhv
cml0eTEgMB4GCSqGSIb3DQEJARYRUHVnbGlhQGV2b3RpbmcuaXQwHhcNMjIwODI2
MTUyMTI3WhcNMjMwODI2MTUyMTI3WjBLMRIwEAYDVQQDDAlFbGl6YWJldGgxCzAJ
BgNVBAYTAklUMQ8wDQYDVQQIDAZJdGFsaWExFzAVBgNVBAoMDlJlZ2lvbmUgUHVn
bGlhMFYwEAYHKoZIzj0CAQYFK4EEAAoDQgAEom1OzeTb2lPoEkuwijMWtSMT/CPq
xs6zMO3BloHm2n5iXveHg++PXRDfFLVQ3WAhLugY+dbIZJFH5bH5t7Twq6MjMCEw
DgYDVR0PAQH/BAQDAgWgMA8GA1UdEwEB/wQFMAMCAQMwCgYIKoZIzj0EAwIDSQAw
RgIhAM/bOU/NmMg/vpUkeTlhvmbJ1Zs/cZuS/evZNeqpOv0sAiEArcxKUwal8zKq
WOMeRKoM1wuoyDpCLFV4CIqB7m9Pf9s=
-----END CERTIFICATE-----
