Certificate:
    Data:
        Version: 3 (0x2)
        Serial Number: 40 (0x28)
        Signature Algorithm: ecdsa-with-SHA256
        Issuer: CN=Regione Piemonte, C=IT, ST=Italia, O=E-Voting system, OU=E-Voting system authority/emailAddress=Piemonte@evoting.it
        Validity
            Not Before: Aug  3 13:27:18 2022 GMT
            Not After : Aug  3 13:27:18 2023 GMT
        Subject: CN=Elizabeth, C=IT, ST=Italia, O=Regione Piemonte
        Subject Public Key Info:
            Public Key Algorithm: id-ecPublicKey
                Public-Key: (256 bit)
                pub:
                    04:bd:ac:82:3d:8f:b4:8b:df:ec:1b:2e:7a:ca:4c:
                    94:92:88:06:d9:4d:1f:5d:f8:1f:8b:bf:c3:00:10:
                    7e:17:39:81:e7:01:35:df:64:b3:d6:0d:b1:bf:67:
                    60:8d:72:f0:90:72:07:ff:d9:60:30:0a:cb:a9:cd:
                    e3:6b:89:36:56
                ASN1 OID: prime256v1
                NIST CURVE: P-256
        X509v3 extensions:
            X509v3 Key Usage: critical
                Digital Signature, Key Encipherment
            X509v3 Basic Constraints: critical
                CA:FALSE, pathlen:3
    Signature Algorithm: ecdsa-with-SHA256
         30:45:02:21:00:fb:7a:97:15:37:e0:30:03:4c:a5:b4:79:32:
         f2:9a:db:4f:58:db:e9:ad:86:70:6c:f9:22:3d:5d:fc:a8:35:
         9c:02:20:6b:a2:f4:fb:a0:13:ee:c9:e8:ee:b8:14:f7:6a:32:
         71:90:a1:99:9b:9a:b5:9b:a7:9c:b2:d5:70:4c:7a:3c:2b
-----BEGIN CERTIFICATE-----
MIIB+zCCAaGgAwIBAgIBKDAKBggqhkjOPQQDAjCBmzEZMBcGA1UEAwwQUmVnaW9u
ZSBQaWVtb250ZTELMAkGA1UEBhMCSVQxDzANBgNVBAgMBkl0YWxpYTEYMBYGA1UE
CgwPRS1Wb3Rpbmcgc3lzdGVtMSIwIAYDVQQLDBlFLVZvdGluZyBzeXN0ZW0gYXV0
aG9yaXR5MSIwIAYJKoZIhvcNAQkBFhNQaWVtb250ZUBldm90aW5nLml0MB4XDTIy
MDgwMzEzMjcxOFoXDTIzMDgwMzEzMjcxOFowTTESMBAGA1UEAwwJRWxpemFiZXRo
MQswCQYDVQQGEwJJVDEPMA0GA1UECAwGSXRhbGlhMRkwFwYDVQQKDBBSZWdpb25l
IFBpZW1vbnRlMFkwEwYHKoZIzj0CAQYIKoZIzj0DAQcDQgAEvayCPY+0i9/sGy56
ykyUkogG2U0fXfgfi7/DABB+FzmB5wE132Sz1g2xv2dgjXLwkHIH/9lgMArLqc3j
a4k2VqMjMCEwDgYDVR0PAQH/BAQDAgWgMA8GA1UdEwEB/wQFMAMCAQMwCgYIKoZI
zj0EAwIDSAAwRQIhAPt6lxU34DADTKW0eTLymttPWNvprYZwbPkiPV38qDWcAiBr
ovT7oBPuyejuuBT3ajJxkKGZm5q1m6ecstVwTHo8Kw==
-----END CERTIFICATE-----
