Certificate:
    Data:
        Version: 3 (0x2)
        Serial Number: 8 (0x8)
        Signature Algorithm: ecdsa-with-SHA256
        Issuer: CN=Regione Valle_d_Aosta, C=IT, ST=Italia, O=E-Voting system, OU=E-Voting system authority/emailAddress=Valle_d_Aosta@evoting.it
        Validity
            Not Before: Aug  3 13:26:08 2022 GMT
            Not After : Aug  3 13:26:08 2023 GMT
        Subject: CN=Eliz, C=IT, ST=Italia, O=Regione Valle_d_Aosta
        Subject Public Key Info:
            Public Key Algorithm: id-ecPublicKey
                Public-Key: (256 bit)
                pub:
                    04:68:99:01:88:89:a1:73:92:4c:a1:5a:d2:cb:3c:
                    61:04:19:b5:2e:aa:b6:d4:cc:55:40:8b:44:23:aa:
                    3a:51:d7:67:7f:7f:e1:9d:de:91:51:7a:83:d2:c1:
                    ed:80:7a:1a:54:4f:5b:30:21:22:12:9b:22:de:31:
                    01:07:55:41:7e
                ASN1 OID: prime256v1
                NIST CURVE: P-256
        X509v3 extensions:
            X509v3 Key Usage: critical
                Digital Signature, Key Encipherment
            X509v3 Basic Constraints: critical
                CA:FALSE, pathlen:3
    Signature Algorithm: ecdsa-with-SHA256
         30:44:02:20:39:cc:cc:fa:02:25:e8:7a:5b:f5:9e:20:88:51:
         e5:1f:a9:44:bd:4c:bd:ad:28:dd:49:36:a1:9e:29:1d:f0:36:
         02:20:06:f3:12:4c:a7:5b:2f:1a:60:b5:5e:b4:90:6b:65:a9:
         d3:22:e3:53:2f:2b:80:f2:4a:68:3d:15:8d:79:14:07
-----BEGIN CERTIFICATE-----
MIICBDCCAaugAwIBAgIBCDAKBggqhkjOPQQDAjCBpTEeMBwGA1UEAwwVUmVnaW9u
ZSBWYWxsZV9kX0Fvc3RhMQswCQYDVQQGEwJJVDEPMA0GA1UECAwGSXRhbGlhMRgw
FgYDVQQKDA9FLVZvdGluZyBzeXN0ZW0xIjAgBgNVBAsMGUUtVm90aW5nIHN5c3Rl
bSBhdXRob3JpdHkxJzAlBgkqhkiG9w0BCQEWGFZhbGxlX2RfQW9zdGFAZXZvdGlu
Zy5pdDAeFw0yMjA4MDMxMzI2MDhaFw0yMzA4MDMxMzI2MDhaME0xDTALBgNVBAMM
BEVsaXoxCzAJBgNVBAYTAklUMQ8wDQYDVQQIDAZJdGFsaWExHjAcBgNVBAoMFVJl
Z2lvbmUgVmFsbGVfZF9Bb3N0YTBZMBMGByqGSM49AgEGCCqGSM49AwEHA0IABGiZ
AYiJoXOSTKFa0ss8YQQZtS6qttTMVUCLRCOqOlHXZ39/4Z3ekVF6g9LB7YB6GlRP
WzAhIhKbIt4xAQdVQX6jIzAhMA4GA1UdDwEB/wQEAwIFoDAPBgNVHRMBAf8EBTAD
AgEDMAoGCCqGSM49BAMCA0cAMEQCIDnMzPoCJeh6W/WeIIhR5R+pRL1Mva0o3Uk2
oZ4pHfA2AiAG8xJMp1svGmC1XrSQa2Wp0yLjUy8rgPJKaD0VjXkUBw==
-----END CERTIFICATE-----
