Certificate:
    Data:
        Version: 3 (0x2)
        Serial Number: 20 (0x14)
        Signature Algorithm: ecdsa-with-SHA256
        Issuer: CN=Regione Puglia, C=IT, ST=Italia, O=E-Voting system, OU=E-Voting system authority/emailAddress=Puglia@evoting.it
        Validity
            Not Before: Aug 26 15:19:54 2022 GMT
            Not After : Aug 26 15:19:54 2023 GMT
        Subject: CN=Ellen, C=IT, ST=Italia, O=Regione Puglia
        Subject Public Key Info:
            Public Key Algorithm: id-ecPublicKey
                Public-Key: (256 bit)
                pub:
                    04:f4:e1:40:da:fd:33:cf:99:5c:9f:5f:0e:e5:24:
                    1e:11:f8:d7:d9:34:2f:70:88:94:78:89:e3:db:46:
                    41:fe:31:7c:18:a5:df:20:58:b1:dc:55:ab:72:1a:
                    bb:2e:1d:f4:6f:e9:a8:4d:d3:3e:3b:fe:e0:b6:cb:
                    a3:89:6e:bf:71
                ASN1 OID: secp256k1
        X509v3 extensions:
            X509v3 Key Usage: critical
                Digital Signature, Key Encipherment
            X509v3 Basic Constraints: critical
                CA:FALSE, pathlen:3
    Signature Algorithm: ecdsa-with-SHA256
         30:44:02:20:69:3f:32:fe:68:ea:7d:b7:50:27:b5:54:f9:45:
         f4:a6:69:6b:5d:da:76:70:77:e9:e2:31:00:d5:79:0a:91:8d:
         02:20:0a:a0:1c:0f:79:68:c1:1f:41:98:09:4a:ff:64:8e:ab:
         8b:1e:b3:d7:55:d5:a1:08:e1:59:72:51:52:51:1d:1d
-----BEGIN CERTIFICATE-----
MIIB7TCCAZSgAwIBAgIBFDAKBggqhkjOPQQDAjCBlzEXMBUGA1UEAwwOUmVnaW9u
ZSBQdWdsaWExCzAJBgNVBAYTAklUMQ8wDQYDVQQIDAZJdGFsaWExGDAWBgNVBAoM
D0UtVm90aW5nIHN5c3RlbTEiMCAGA1UECwwZRS1Wb3Rpbmcgc3lzdGVtIGF1dGhv
cml0eTEgMB4GCSqGSIb3DQEJARYRUHVnbGlhQGV2b3RpbmcuaXQwHhcNMjIwODI2
MTUxOTU0WhcNMjMwODI2MTUxOTU0WjBHMQ4wDAYDVQQDDAVFbGxlbjELMAkGA1UE
BhMCSVQxDzANBgNVBAgMBkl0YWxpYTEXMBUGA1UECgwOUmVnaW9uZSBQdWdsaWEw
VjAQBgcqhkjOPQIBBgUrgQQACgNCAAT04UDa/TPPmVyfXw7lJB4R+NfZNC9wiJR4
iePbRkH+MXwYpd8gWLHcVatyGrsuHfRv6ahN0z47/uC2y6OJbr9xoyMwITAOBgNV
HQ8BAf8EBAMCBaAwDwYDVR0TAQH/BAUwAwIBAzAKBggqhkjOPQQDAgNHADBEAiBp
PzL+aOp9t1AntVT5RfSmaWtd2nZwd+niMQDVeQqRjQIgCqAcD3lowR9BmAlK/2SO
q4ses9dV1aEI4VlyUVJRHR0=
-----END CERTIFICATE-----
