Certificate:
    Data:
        Version: 3 (0x2)
        Serial Number: 44 (0x2c)
        Signature Algorithm: ecdsa-with-SHA256
        Issuer: CN=Regione Calabria, C=IT, ST=Italia, O=E-Voting system, OU=E-Voting system authority/emailAddress=Calabria@evoting.it
        Validity
            Not Before: Aug  3 13:28:15 2022 GMT
            Not After : Aug  3 13:28:15 2023 GMT
        Subject: CN=Elliot, C=IT, ST=Italia, O=Regione Calabria
        Subject Public Key Info:
            Public Key Algorithm: id-ecPublicKey
                Public-Key: (256 bit)
                pub:
                    04:7e:9e:7c:7c:ba:89:16:38:79:78:51:75:c4:b3:
                    2b:76:da:fa:05:a7:c6:f1:9f:ba:c5:ea:14:ac:03:
                    95:53:d5:b1:19:63:84:54:96:f3:b1:9c:66:14:49:
                    74:24:b5:68:f9:51:e8:47:3a:dd:0d:27:7c:85:64:
                    55:39:65:07:cf
                ASN1 OID: prime256v1
                NIST CURVE: P-256
        X509v3 extensions:
            X509v3 Key Usage: critical
                Digital Signature, Key Encipherment
            X509v3 Basic Constraints: critical
                CA:FALSE, pathlen:3
    Signature Algorithm: ecdsa-with-SHA256
         30:46:02:21:00:f6:2d:33:61:1c:82:10:54:85:40:f4:43:23:
         da:67:ed:a6:1d:ed:f0:34:09:37:04:59:39:84:0a:ca:fb:6e:
         2d:02:21:00:9a:cc:ac:29:06:91:f6:83:61:bb:06:f3:39:ac:
         a5:11:41:52:05:bc:b6:3b:b1:9b:06:cb:9f:3b:11:6d:7e:df
-----BEGIN CERTIFICATE-----
MIIB+TCCAZ6gAwIBAgIBLDAKBggqhkjOPQQDAjCBmzEZMBcGA1UEAwwQUmVnaW9u
ZSBDYWxhYnJpYTELMAkGA1UEBhMCSVQxDzANBgNVBAgMBkl0YWxpYTEYMBYGA1UE
CgwPRS1Wb3Rpbmcgc3lzdGVtMSIwIAYDVQQLDBlFLVZvdGluZyBzeXN0ZW0gYXV0
aG9yaXR5MSIwIAYJKoZIhvcNAQkBFhNDYWxhYnJpYUBldm90aW5nLml0MB4XDTIy
MDgwMzEzMjgxNVoXDTIzMDgwMzEzMjgxNVowSjEPMA0GA1UEAwwGRWxsaW90MQsw
CQYDVQQGEwJJVDEPMA0GA1UECAwGSXRhbGlhMRkwFwYDVQQKDBBSZWdpb25lIENh
bGFicmlhMFkwEwYHKoZIzj0CAQYIKoZIzj0DAQcDQgAEfp58fLqJFjh5eFF1xLMr
dtr6BafG8Z+6xeoUrAOVU9WxGWOEVJbzsZxmFEl0JLVo+VHoRzrdDSd8hWRVOWUH
z6MjMCEwDgYDVR0PAQH/BAQDAgWgMA8GA1UdEwEB/wQFMAMCAQMwCgYIKoZIzj0E
AwIDSQAwRgIhAPYtM2EcghBUhUD0QyPaZ+2mHe3wNAk3BFk5hArK+24tAiEAmsys
KQaR9oNhuwbzOaylEUFSBby2O7GbBsufOxFtft8=
-----END CERTIFICATE-----
