Certificate:
    Data:
        Version: 3 (0x2)
        Serial Number: 9 (0x9)
        Signature Algorithm: ecdsa-with-SHA256
        Issuer: CN=Regione Campania, C=IT, ST=Italia, O=E-Voting system, OU=E-Voting system authority/emailAddress=Campania@evoting.it
        Validity
            Not Before: Aug 26 15:19:07 2022 GMT
            Not After : Aug 26 15:19:07 2023 GMT
        Subject: CN=Eloise, C=IT, ST=Italia, O=Regione Campania
        Subject Public Key Info:
            Public Key Algorithm: id-ecPublicKey
                Public-Key: (256 bit)
                pub:
                    04:f2:c6:1f:fb:86:10:66:c0:62:33:61:19:b7:d6:
                    03:f6:d2:f2:83:d9:65:f4:79:1b:4e:b1:6a:1e:24:
                    bb:6f:cc:fb:d9:87:40:b8:8e:79:a8:66:c6:e9:51:
                    4e:1d:c0:0c:b1:71:99:e5:c3:d0:45:57:53:ce:aa:
                    a4:26:c8:3c:aa
                ASN1 OID: secp256k1
        X509v3 extensions:
            X509v3 Key Usage: critical
                Digital Signature, Key Encipherment
            X509v3 Basic Constraints: critical
                CA:FALSE, pathlen:3
    Signature Algorithm: ecdsa-with-SHA256
         30:44:02:20:61:58:3b:b6:4b:0c:bb:c9:de:b3:c2:50:ed:ba:
         e3:c4:61:e4:d8:0b:3f:4a:d3:9b:91:7d:f6:fb:82:48:e5:e2:
         02:20:4a:bf:17:e6:aa:36:14:45:48:fb:51:f2:39:e1:e4:86:
         e5:ac:17:fd:bb:f7:93:99:99:30:ac:1c:b6:a9:b9:53
-----BEGIN CERTIFICATE-----
MIIB9DCCAZugAwIBAgIBCTAKBggqhkjOPQQDAjCBmzEZMBcGA1UEAwwQUmVnaW9u
ZSBDYW1wYW5pYTELMAkGA1UEBhMCSVQxDzANBgNVBAgMBkl0YWxpYTEYMBYGA1UE
CgwPRS1Wb3Rpbmcgc3lzdGVtMSIwIAYDVQQLDBlFLVZvdGluZyBzeXN0ZW0gYXV0
aG9yaXR5MSIwIAYJKoZIhvcNAQkBFhNDYW1wYW5pYUBldm90aW5nLml0MB4XDTIy
MDgyNjE1MTkwN1oXDTIzMDgyNjE1MTkwN1owSjEPMA0GA1UEAwwGRWxvaXNlMQsw
CQYDVQQGEwJJVDEPMA0GA1UECAwGSXRhbGlhMRkwFwYDVQQKDBBSZWdpb25lIENh
bXBhbmlhMFYwEAYHKoZIzj0CAQYFK4EEAAoDQgAE8sYf+4YQZsBiM2EZt9YD9tLy
g9ll9HkbTrFqHiS7b8z72YdAuI55qGbG6VFOHcAMsXGZ5cPQRVdTzqqkJsg8qqMj
MCEwDgYDVR0PAQH/BAQDAgWgMA8GA1UdEwEB/wQFMAMCAQMwCgYIKoZIzj0EAwID
RwAwRAIgYVg7tksMu8nes8JQ7brjxGHk2As/StObkX32+4JI5eICIEq/F+aqNhRF
SPtR8jnh5IblrBf9u/eTmZkwrBy2qblT
-----END CERTIFICATE-----
