Certificate:
    Data:
        Version: 3 (0x2)
        Serial Number: 36 (0x24)
        Signature Algorithm: ecdsa-with-SHA256
        Issuer: CN=Regione Puglia, C=IT, ST=Italia, O=E-Voting system, OU=E-Voting system authority/emailAddress=Puglia@evoting.it
        Validity
            Not Before: Aug 26 15:20:54 2022 GMT
            Not After : Aug 26 15:20:54 2023 GMT
        Subject: CN=Elsie, C=IT, ST=Italia, O=Regione Puglia
        Subject Public Key Info:
            Public Key Algorithm: id-ecPublicKey
                Public-Key: (256 bit)
                pub:
                    04:21:74:48:61:85:ef:e2:c2:0d:b8:67:9e:33:76:
                    2b:a5:81:59:f8:0a:7b:a1:cb:43:cb:05:b1:65:2c:
                    e1:7b:b7:36:0e:80:cb:98:70:ae:c3:b7:e4:f9:40:
                    5a:cc:92:eb:13:ab:56:fd:39:2c:02:ca:26:8a:45:
                    46:c6:96:47:64
                ASN1 OID: secp256k1
        X509v3 extensions:
            X509v3 Key Usage: critical
                Digital Signature, Key Encipherment
            X509v3 Basic Constraints: critical
                CA:FALSE, pathlen:3
    Signature Algorithm: ecdsa-with-SHA256
         30:46:02:21:00:bd:14:90:2d:b9:0b:a1:c6:55:34:95:66:77:
         db:04:f3:ee:a1:9e:dd:a2:42:32:a7:bd:4c:4f:80:e6:9d:0b:
         87:02:21:00:d5:db:3d:ee:6e:99:45:19:a3:58:5c:bf:b9:f5:
         02:8f:d6:6c:b2:8c:05:95:92:3a:19:5f:ed:cf:73:b4:a0:4f
-----BEGIN CERTIFICATE-----
MIIB7zCCAZSgAwIBAgIBJDAKBggqhkjOPQQDAjCBlzEXMBUGA1UEAwwOUmVnaW9u
ZSBQdWdsaWExCzAJBgNVBAYTAklUMQ8wDQYDVQQIDAZJdGFsaWExGDAWBgNVBAoM
D0UtVm90aW5nIHN5c3RlbTEiMCAGA1UECwwZRS1Wb3Rpbmcgc3lzdGVtIGF1dGhv
cml0eTEgMB4GCSqGSIb3DQEJARYRUHVnbGlhQGV2b3RpbmcuaXQwHhcNMjIwODI2
MTUyMDU0WhcNMjMwODI2MTUyMDU0WjBHMQ4wDAYDVQQDDAVFbHNpZTELMAkGA1UE
BhMCSVQxDzANBgNVBAgMBkl0YWxpYTEXMBUGA1UECgwOUmVnaW9uZSBQdWdsaWEw
VjAQBgcqhkjOPQIBBgUrgQQACgNCAAQhdEhhhe/iwg24Z54zdiulgVn4Cnuhy0PL
BbFlLOF7tzYOgMuYcK7Dt+T5QFrMkusTq1b9OSwCyiaKRUbGlkdkoyMwITAOBgNV
HQ8BAf8EBAMCBaAwDwYDVR0TAQH/BAUwAwIBAzAKBggqhkjOPQQDAgNJADBGAiEA
vRSQLbkLocZVNJVmd9sE8+6hnt2iQjKnvUxPgOadC4cCIQDV2z3ubplFGaNYXL+5
9QKP1myyjAWVkjoZX+3Pc7SgTw==
-----END CERTIFICATE-----
