Certificate:
    Data:
        Version: 3 (0x2)
        Serial Number: 19 (0x13)
        Signature Algorithm: ecdsa-with-SHA256
        Issuer: CN=Regione Toscana, C=IT, ST=Italia, O=E-Voting system, OU=E-Voting system authority/emailAddress=Toscana@evoting.it
        Validity
            Not Before: Aug  3 13:26:35 2022 GMT
            Not After : Aug  3 13:26:35 2023 GMT
        Subject: CN=Elvira, C=IT, ST=Italia, O=Regione Toscana
        Subject Public Key Info:
            Public Key Algorithm: id-ecPublicKey
                Public-Key: (256 bit)
                pub:
                    04:8a:09:7f:ec:81:0e:ba:50:ea:00:29:32:2b:34:
                    c9:99:6e:28:d8:ae:ac:df:f9:cc:3e:55:15:cf:5a:
                    e1:7b:c1:fc:71:91:0e:a8:1f:eb:16:78:1f:ec:94:
                    17:48:7e:fb:90:8d:09:9d:81:03:13:d1:e3:cb:90:
                    b6:ef:ae:53:bd
                ASN1 OID: prime256v1
                NIST CURVE: P-256
        X509v3 extensions:
            X509v3 Key Usage: critical
                Digital Signature, Key Encipherment
            X509v3 Basic Constraints: critical
                CA:FALSE, pathlen:3
    Signature Algorithm: ecdsa-with-SHA256
         30:45:02:21:00:f2:31:49:ab:45:23:e9:b3:39:9e:13:36:29:
         12:6c:de:f6:22:95:55:07:6c:71:f7:b4:66:43:07:b1:ce:4b:
         6a:02:20:42:32:7d:88:74:15:17:ee:c5:e8:61:be:38:ca:cc:
         9e:a4:96:20:a8:51:34:29:54:d5:d2:b6:e5:bd:ee:58:ac
-----BEGIN CERTIFICATE-----
MIIB9TCCAZugAwIBAgIBEzAKBggqhkjOPQQDAjCBmTEYMBYGA1UEAwwPUmVnaW9u
ZSBUb3NjYW5hMQswCQYDVQQGEwJJVDEPMA0GA1UECAwGSXRhbGlhMRgwFgYDVQQK
DA9FLVZvdGluZyBzeXN0ZW0xIjAgBgNVBAsMGUUtVm90aW5nIHN5c3RlbSBhdXRo
b3JpdHkxITAfBgkqhkiG9w0BCQEWElRvc2NhbmFAZXZvdGluZy5pdDAeFw0yMjA4
MDMxMzI2MzVaFw0yMzA4MDMxMzI2MzVaMEkxDzANBgNVBAMMBkVsdmlyYTELMAkG
A1UEBhMCSVQxDzANBgNVBAgMBkl0YWxpYTEYMBYGA1UECgwPUmVnaW9uZSBUb3Nj
YW5hMFkwEwYHKoZIzj0CAQYIKoZIzj0DAQcDQgAEigl/7IEOulDqACkyKzTJmW4o
2K6s3/nMPlUVz1rhe8H8cZEOqB/rFngf7JQXSH77kI0JnYEDE9Hjy5C2765TvaMj
MCEwDgYDVR0PAQH/BAQDAgWgMA8GA1UdEwEB/wQFMAMCAQMwCgYIKoZIzj0EAwID
SAAwRQIhAPIxSatFI+mzOZ4TNikSbN72IpVVB2xx97RmQwexzktqAiBCMn2IdBUX
7sXoYb44ysyepJYgqFE0KVTV0rblve5YrA==
-----END CERTIFICATE-----
