Certificate:
    Data:
        Version: 3 (0x2)
        Serial Number: 35 (0x23)
        Signature Algorithm: ecdsa-with-SHA256
        Issuer: CN=Regione Trentino_Alto_Adige, C=IT, ST=Italia, O=E-Voting system, OU=E-Voting system authority/emailAddress=Trentino_Alto_Adige@evoting.it
        Validity
            Not Before: Aug 26 15:20:48 2022 GMT
            Not After : Aug 26 15:20:48 2023 GMT
        Subject: CN=Emanuel, C=IT, ST=Italia, O=Regione Trentino_Alto_Adige
        Subject Public Key Info:
            Public Key Algorithm: id-ecPublicKey
                Public-Key: (256 bit)
                pub:
                    04:2e:a7:6f:8c:47:33:be:3a:93:0e:5f:e5:3d:d5:
                    ed:e5:6b:ce:61:c1:a9:f7:44:28:a0:5b:53:cb:68:
                    a9:70:62:02:ee:59:91:2a:fc:f0:9a:59:63:44:60:
                    b0:cc:1e:36:0c:eb:55:4d:ca:d6:cf:ca:7c:7b:b1:
                    85:98:31:bc:8a
                ASN1 OID: secp256k1
        X509v3 extensions:
            X509v3 Key Usage: critical
                Digital Signature, Key Encipherment
            X509v3 Basic Constraints: critical
                CA:FALSE, pathlen:3
    Signature Algorithm: ecdsa-with-SHA256
         30:44:02:20:6f:b3:5e:f7:76:4e:c9:57:6d:8e:9f:22:0d:46:
         3e:3d:14:dc:c3:04:6d:fd:d7:e9:36:8e:50:1a:82:46:29:5f:
         02:20:7b:ab:ba:d0:6b:d7:5c:83:1b:97:42:61:c2:79:5d:04:
         41:a5:45:d6:d4:f3:0f:eb:c3:76:4d:1e:f0:bb:99:78
-----BEGIN CERTIFICATE-----
MIICFjCCAb2gAwIBAgIBIzAKBggqhkjOPQQDAjCBsTEkMCIGA1UEAwwbUmVnaW9u
ZSBUcmVudGlub19BbHRvX0FkaWdlMQswCQYDVQQGEwJJVDEPMA0GA1UECAwGSXRh
bGlhMRgwFgYDVQQKDA9FLVZvdGluZyBzeXN0ZW0xIjAgBgNVBAsMGUUtVm90aW5n
IHN5c3RlbSBhdXRob3JpdHkxLTArBgkqhkiG9w0BCQEWHlRyZW50aW5vX0FsdG9f
QWRpZ2VAZXZvdGluZy5pdDAeFw0yMjA4MjYxNTIwNDhaFw0yMzA4MjYxNTIwNDha
MFYxEDAOBgNVBAMMB0VtYW51ZWwxCzAJBgNVBAYTAklUMQ8wDQYDVQQIDAZJdGFs
aWExJDAiBgNVBAoMG1JlZ2lvbmUgVHJlbnRpbm9fQWx0b19BZGlnZTBWMBAGByqG
SM49AgEGBSuBBAAKA0IABC6nb4xHM746kw5f5T3V7eVrzmHBqfdEKKBbU8toqXBi
Au5ZkSr88JpZY0RgsMweNgzrVU3K1s/KfHuxhZgxvIqjIzAhMA4GA1UdDwEB/wQE
AwIFoDAPBgNVHRMBAf8EBTADAgEDMAoGCCqGSM49BAMCA0cAMEQCIG+zXvd2TslX
bY6fIg1GPj0U3MMEbf3X6TaOUBqCRilfAiB7q7rQa9dcgxuXQmHCeV0EQaVF1tTz
D+vDdk0e8LuZeA==
-----END CERTIFICATE-----
