Certificate:
    Data:
        Version: 3 (0x2)
        Serial Number: 1 (0x1)
        Signature Algorithm: ecdsa-with-SHA256
        Issuer: CN=Regione Abruzzo, C=IT, ST=Italia, O=E-Voting system, OU=E-Voting system authority/emailAddress=Abruzzo@evoting.it
        Validity
            Not Before: Aug 26 15:18:25 2022 GMT
            Not After : Aug 26 15:18:25 2023 GMT
        Subject: CN=Emily, C=IT, ST=Italia, O=Regione Abruzzo
        Subject Public Key Info:
            Public Key Algorithm: id-ecPublicKey
                Public-Key: (256 bit)
                pub:
                    04:ed:a3:04:cc:6c:be:f8:04:c7:a4:b1:fc:28:01:
                    51:fa:bd:23:cf:9e:9c:9a:10:a6:a0:75:74:8b:ee:
                    27:51:39:b7:45:24:90:99:e9:2f:3a:25:a2:d0:d4:
                    75:80:8b:1e:71:86:ab:79:11:95:98:72:c3:02:79:
                    6d:f0:57:ec:90
                ASN1 OID: secp256k1
        X509v3 extensions:
            X509v3 Key Usage: critical
                Digital Signature, Key Encipherment
            X509v3 Basic Constraints: critical
                CA:FALSE, pathlen:3
    Signature Algorithm: ecdsa-with-SHA256
         30:46:02:21:00:ba:0a:7d:72:fb:15:65:c4:49:04:9b:20:a3:
         26:6b:3c:4a:84:ee:89:61:bc:1b:f8:54:82:5d:09:61:4a:af:
         59:02:21:00:f8:9f:89:c9:ea:7f:58:8f:f2:48:4c:4a:4d:41:
         54:ac:9e:f8:8c:21:82:25:09:0a:16:d0:e6:3b:2b:4f:75:14
-----BEGIN CERTIFICATE-----
MIIB8jCCAZegAwIBAgIBATAKBggqhkjOPQQDAjCBmTEYMBYGA1UEAwwPUmVnaW9u
ZSBBYnJ1enpvMQswCQYDVQQGEwJJVDEPMA0GA1UECAwGSXRhbGlhMRgwFgYDVQQK
DA9FLVZvdGluZyBzeXN0ZW0xIjAgBgNVBAsMGUUtVm90aW5nIHN5c3RlbSBhdXRo
b3JpdHkxITAfBgkqhkiG9w0BCQEWEkFicnV6em9AZXZvdGluZy5pdDAeFw0yMjA4
MjYxNTE4MjVaFw0yMzA4MjYxNTE4MjVaMEgxDjAMBgNVBAMMBUVtaWx5MQswCQYD
VQQGEwJJVDEPMA0GA1UECAwGSXRhbGlhMRgwFgYDVQQKDA9SZWdpb25lIEFicnV6
em8wVjAQBgcqhkjOPQIBBgUrgQQACgNCAATtowTMbL74BMeksfwoAVH6vSPPnpya
EKagdXSL7idRObdFJJCZ6S86JaLQ1HWAix5xhqt5EZWYcsMCeW3wV+yQoyMwITAO
BgNVHQ8BAf8EBAMCBaAwDwYDVR0TAQH/BAUwAwIBAzAKBggqhkjOPQQDAgNJADBG
AiEAugp9cvsVZcRJBJsgoyZrPEqE7olhvBv4VIJdCWFKr1kCIQD4n4nJ6n9Yj/JI
TEpNQVSsnviMIYIlCQoW0OY7K091FA==
-----END CERTIFICATE-----
