Certificate:
    Data:
        Version: 3 (0x2)
        Serial Number: 27 (0x1b)
        Signature Algorithm: ecdsa-with-SHA256
        Issuer: CN=Regione Sardegna, C=IT, ST=Italia, O=E-Voting system, OU=E-Voting system authority/emailAddress=Sardegna@evoting.it
        Validity
            Not Before: Aug  3 13:27:49 2022 GMT
            Not After : Aug  3 13:27:49 2023 GMT
        Subject: CN=Emily, C=IT, ST=Italia, O=Regione Sardegna
        Subject Public Key Info:
            Public Key Algorithm: id-ecPublicKey
                Public-Key: (256 bit)
                pub:
                    04:51:88:5c:59:f7:b6:e3:f3:ca:56:7d:77:c6:19:
                    98:91:01:cc:a6:9a:42:97:6e:cf:c9:c5:62:a7:c2:
                    53:fb:0a:66:c3:ae:0a:97:29:2a:d9:af:58:c8:95:
                    02:22:b0:5d:d9:43:09:32:8e:fa:32:b1:34:93:24:
                    20:9e:79:a6:f4
                ASN1 OID: prime256v1
                NIST CURVE: P-256
        X509v3 extensions:
            X509v3 Key Usage: critical
                Digital Signature, Key Encipherment
            X509v3 Basic Constraints: critical
                CA:FALSE, pathlen:3
    Signature Algorithm: ecdsa-with-SHA256
         30:45:02:21:00:d6:3e:6d:58:0d:78:ea:41:09:bf:0c:f9:55:
         69:49:cb:a0:b2:6f:f8:1f:a8:0f:a4:5b:e7:9f:46:68:8d:61:
         3c:02:20:1a:55:d0:50:0e:f3:87:a6:4a:3f:38:77:ca:00:71:
         db:50:a0:30:f0:cb:d9:88:94:d9:c8:02:d2:84:46:b5:c0
-----BEGIN CERTIFICATE-----
MIIB9zCCAZ2gAwIBAgIBGzAKBggqhkjOPQQDAjCBmzEZMBcGA1UEAwwQUmVnaW9u
ZSBTYXJkZWduYTELMAkGA1UEBhMCSVQxDzANBgNVBAgMBkl0YWxpYTEYMBYGA1UE
CgwPRS1Wb3Rpbmcgc3lzdGVtMSIwIAYDVQQLDBlFLVZvdGluZyBzeXN0ZW0gYXV0
aG9yaXR5MSIwIAYJKoZIhvcNAQkBFhNTYXJkZWduYUBldm90aW5nLml0MB4XDTIy
MDgwMzEzMjc0OVoXDTIzMDgwMzEzMjc0OVowSTEOMAwGA1UEAwwFRW1pbHkxCzAJ
BgNVBAYTAklUMQ8wDQYDVQQIDAZJdGFsaWExGTAXBgNVBAoMEFJlZ2lvbmUgU2Fy
ZGVnbmEwWTATBgcqhkjOPQIBBggqhkjOPQMBBwNCAARRiFxZ97bj88pWfXfGGZiR
AcymmkKXbs/JxWKnwlP7CmbDrgqXKSrZr1jIlQIisF3ZQwkyjvoysTSTJCCeeab0
oyMwITAOBgNVHQ8BAf8EBAMCBaAwDwYDVR0TAQH/BAUwAwIBAzAKBggqhkjOPQQD
AgNIADBFAiEA1j5tWA146kEJvwz5VWlJy6Cyb/gfqA+kW+efRmiNYTwCIBpV0FAO
84emSj84d8oAcdtQoDDwy9mIlNnIAtKERrXA
-----END CERTIFICATE-----
