Certificate:
    Data:
        Version: 3 (0x2)
        Serial Number: 9 (0x9)
        Signature Algorithm: ecdsa-with-SHA256
        Issuer: CN=Regione Sardegna, C=IT, ST=Italia, O=E-Voting system, OU=E-Voting system authority/emailAddress=Sardegna@evoting.it
        Validity
            Not Before: Aug 26 15:19:15 2022 GMT
            Not After : Aug 26 15:19:15 2023 GMT
        Subject: CN=Emma, C=IT, ST=Italia, O=Regione Sardegna
        Subject Public Key Info:
            Public Key Algorithm: id-ecPublicKey
                Public-Key: (256 bit)
                pub:
                    04:a9:86:d2:cf:6e:bb:53:af:f4:c7:b6:50:00:cc:
                    fe:a1:ce:b4:6e:5e:80:21:33:52:d2:68:17:e9:d9:
                    7e:c6:21:45:70:f8:e5:ca:73:02:a7:eb:5d:8f:aa:
                    29:71:50:a3:8e:bd:fe:02:c0:1f:08:6c:15:ad:11:
                    6c:fb:36:74:ec
                ASN1 OID: secp256k1
        X509v3 extensions:
            X509v3 Key Usage: critical
                Digital Signature, Key Encipherment
            X509v3 Basic Constraints: critical
                CA:FALSE, pathlen:3
    Signature Algorithm: ecdsa-with-SHA256
         30:44:02:20:03:32:e7:c2:65:78:a7:fa:d3:87:1e:4a:f6:70:
         97:14:84:f8:60:bf:13:e6:4e:06:c6:ba:69:1e:7f:52:b8:d2:
         02:20:69:b7:22:99:4e:df:bb:f4:94:73:f4:f3:db:9a:fa:e3:
         3e:be:33:50:6d:7a:fb:68:44:09:d2:c0:8c:42:5f:c1
-----BEGIN CERTIFICATE-----
MIIB8jCCAZmgAwIBAgIBCTAKBggqhkjOPQQDAjCBmzEZMBcGA1UEAwwQUmVnaW9u
ZSBTYXJkZWduYTELMAkGA1UEBhMCSVQxDzANBgNVBAgMBkl0YWxpYTEYMBYGA1UE
CgwPRS1Wb3Rpbmcgc3lzdGVtMSIwIAYDVQQLDBlFLVZvdGluZyBzeXN0ZW0gYXV0
aG9yaXR5MSIwIAYJKoZIhvcNAQkBFhNTYXJkZWduYUBldm90aW5nLml0MB4XDTIy
MDgyNjE1MTkxNVoXDTIzMDgyNjE1MTkxNVowSDENMAsGA1UEAwwERW1tYTELMAkG
A1UEBhMCSVQxDzANBgNVBAgMBkl0YWxpYTEZMBcGA1UECgwQUmVnaW9uZSBTYXJk
ZWduYTBWMBAGByqGSM49AgEGBSuBBAAKA0IABKmG0s9uu1Ov9Me2UADM/qHOtG5e
gCEzUtJoF+nZfsYhRXD45cpzAqfrXY+qKXFQo469/gLAHwhsFa0RbPs2dOyjIzAh
MA4GA1UdDwEB/wQEAwIFoDAPBgNVHRMBAf8EBTADAgEDMAoGCCqGSM49BAMCA0cA
MEQCIAMy58JleKf604ceSvZwlxSE+GC/E+ZOBsa6aR5/UrjSAiBptyKZTt+79JRz
9PPbmvrjPr4zUG16+2hECdLAjEJfwQ==
-----END CERTIFICATE-----
