Certificate:
    Data:
        Version: 3 (0x2)
        Serial Number: 2 (0x2)
        Signature Algorithm: ecdsa-with-SHA256
        Issuer: CN=Regione Umbria, C=IT, ST=Italia, O=E-Voting system, OU=E-Voting system authority/emailAddress=Umbria@evoting.it
        Validity
            Not Before: Aug 26 15:18:28 2022 GMT
            Not After : Aug 26 15:18:28 2023 GMT
        Subject: CN=Emmett, C=IT, ST=Italia, O=Regione Umbria
        Subject Public Key Info:
            Public Key Algorithm: id-ecPublicKey
                Public-Key: (256 bit)
                pub:
                    04:2b:23:bf:fb:7f:8b:08:f7:f8:dd:71:3c:a5:e5:
                    25:91:35:ff:3b:5e:8b:d9:da:7b:ba:4c:00:e6:78:
                    29:f1:9c:7d:a7:ff:17:23:7c:0c:d5:cb:84:e5:82:
                    1f:26:10:e1:a9:c3:b4:6e:5c:57:11:a8:91:5f:c9:
                    bd:5b:a2:73:b1
                ASN1 OID: secp256k1
        X509v3 extensions:
            X509v3 Key Usage: critical
                Digital Signature, Key Encipherment
            X509v3 Basic Constraints: critical
                CA:FALSE, pathlen:3
    Signature Algorithm: ecdsa-with-SHA256
         30:44:02:20:59:b1:31:65:98:72:90:a3:d0:65:e4:90:62:86:
         25:f7:9a:16:6e:ba:e7:7b:3c:bd:5d:1e:39:a0:27:10:22:db:
         02:20:6e:f1:f4:cc:a0:19:64:3a:3c:94:be:38:95:e3:b2:b5:
         f3:b9:b8:e6:c8:f1:e2:bc:44:28:00:2f:62:2d:8a:a8
-----BEGIN CERTIFICATE-----
MIIB7jCCAZWgAwIBAgIBAjAKBggqhkjOPQQDAjCBlzEXMBUGA1UEAwwOUmVnaW9u
ZSBVbWJyaWExCzAJBgNVBAYTAklUMQ8wDQYDVQQIDAZJdGFsaWExGDAWBgNVBAoM
D0UtVm90aW5nIHN5c3RlbTEiMCAGA1UECwwZRS1Wb3Rpbmcgc3lzdGVtIGF1dGhv
cml0eTEgMB4GCSqGSIb3DQEJARYRVW1icmlhQGV2b3RpbmcuaXQwHhcNMjIwODI2
MTUxODI4WhcNMjMwODI2MTUxODI4WjBIMQ8wDQYDVQQDDAZFbW1ldHQxCzAJBgNV
BAYTAklUMQ8wDQYDVQQIDAZJdGFsaWExFzAVBgNVBAoMDlJlZ2lvbmUgVW1icmlh
MFYwEAYHKoZIzj0CAQYFK4EEAAoDQgAEKyO/+3+LCPf43XE8peUlkTX/O16L2dp7
ukwA5ngp8Zx9p/8XI3wM1cuE5YIfJhDhqcO0blxXEaiRX8m9W6JzsaMjMCEwDgYD
VR0PAQH/BAQDAgWgMA8GA1UdEwEB/wQFMAMCAQMwCgYIKoZIzj0EAwIDRwAwRAIg
WbExZZhykKPQZeSQYoYl95oWbrrnezy9XR45oCcQItsCIG7x9MygGWQ6PJS+OJXj
srXzubjmyPHivEQoAC9iLYqo
-----END CERTIFICATE-----
