Certificate:
    Data:
        Version: 3 (0x2)
        Serial Number: 14 (0xe)
        Signature Algorithm: ecdsa-with-SHA256
        Issuer: CN=Regione Emilia_Romagna, C=IT, ST=Italia, O=E-Voting system, OU=E-Voting system authority/emailAddress=Emilia_Romagna@evoting.it
        Validity
            Not Before: Aug  3 13:26:24 2022 GMT
            Not After : Aug  3 13:26:24 2023 GMT
        Subject: CN=Enrique, C=IT, ST=Italia, O=Regione Emilia_Romagna
        Subject Public Key Info:
            Public Key Algorithm: id-ecPublicKey
                Public-Key: (256 bit)
                pub:
                    04:85:a2:2c:fd:6a:db:35:9d:a6:24:09:a8:ec:ff:
                    20:2a:07:8c:53:0b:4d:b8:14:81:51:82:a3:57:4c:
                    01:61:85:c4:db:8d:3a:b6:22:d8:b8:21:4b:43:91:
                    34:02:63:b7:74:94:44:76:e7:ed:d5:d6:6a:b2:69:
                    65:d8:4b:e4:e5
                ASN1 OID: prime256v1
                NIST CURVE: P-256
        X509v3 extensions:
            X509v3 Key Usage: critical
                Digital Signature, Key Encipherment
            X509v3 Basic Constraints: critical
                CA:FALSE, pathlen:3
    Signature Algorithm: ecdsa-with-SHA256
         30:45:02:20:59:6e:3c:1a:ce:e5:6c:53:b6:7b:7a:bb:4f:27:
         59:f7:64:65:1f:55:95:72:62:f7:51:99:18:85:1d:b0:e5:c5:
         02:21:00:b7:77:7e:0e:d0:64:9e:ea:48:56:8c:7c:ee:a6:36:
         4e:1d:e7:56:f8:a1:2f:f3:62:2f:a0:4e:26:db:95:6b:2c
-----BEGIN CERTIFICATE-----
MIICCzCCAbGgAwIBAgIBDjAKBggqhkjOPQQDAjCBpzEfMB0GA1UEAwwWUmVnaW9u
ZSBFbWlsaWFfUm9tYWduYTELMAkGA1UEBhMCSVQxDzANBgNVBAgMBkl0YWxpYTEY
MBYGA1UECgwPRS1Wb3Rpbmcgc3lzdGVtMSIwIAYDVQQLDBlFLVZvdGluZyBzeXN0
ZW0gYXV0aG9yaXR5MSgwJgYJKoZIhvcNAQkBFhlFbWlsaWFfUm9tYWduYUBldm90
aW5nLml0MB4XDTIyMDgwMzEzMjYyNFoXDTIzMDgwMzEzMjYyNFowUTEQMA4GA1UE
AwwHRW5yaXF1ZTELMAkGA1UEBhMCSVQxDzANBgNVBAgMBkl0YWxpYTEfMB0GA1UE
CgwWUmVnaW9uZSBFbWlsaWFfUm9tYWduYTBZMBMGByqGSM49AgEGCCqGSM49AwEH
A0IABIWiLP1q2zWdpiQJqOz/ICoHjFMLTbgUgVGCo1dMAWGFxNuNOrYi2LghS0OR
NAJjt3SURHbn7dXWarJpZdhL5OWjIzAhMA4GA1UdDwEB/wQEAwIFoDAPBgNVHRMB
Af8EBTADAgEDMAoGCCqGSM49BAMCA0gAMEUCIFluPBrO5WxTtnt6u08nWfdkZR9V
lXJi91GZGIUdsOXFAiEAt3d+DtBknupIVox87qY2Th3nVvihL/NiL6BOJtuVayw=
-----END CERTIFICATE-----
