Certificate:
    Data:
        Version: 3 (0x2)
        Serial Number: 11 (0xb)
        Signature Algorithm: ecdsa-with-SHA256
        Issuer: CN=Regione Toscana, C=IT, ST=Italia, O=E-Voting system, OU=E-Voting system authority/emailAddress=Toscana@evoting.it
        Validity
            Not Before: Aug 26 15:19:25 2022 GMT
            Not After : Aug 26 15:19:25 2023 GMT
        Subject: CN=Eric, C=IT, ST=Italia, O=Regione Toscana
        Subject Public Key Info:
            Public Key Algorithm: id-ecPublicKey
                Public-Key: (256 bit)
                pub:
                    04:76:58:3b:cd:5e:10:20:21:95:c8:6d:90:ba:40:
                    2f:6d:03:a0:71:d8:d2:77:c0:53:f9:42:7b:60:58:
                    8e:76:a6:55:6f:58:7f:58:2c:a4:45:e8:94:cb:ad:
                    3a:2b:bb:52:10:8b:3c:4e:87:a0:fc:b7:69:52:fc:
                    0c:cb:04:1d:be
                ASN1 OID: secp256k1
        X509v3 extensions:
            X509v3 Key Usage: critical
                Digital Signature, Key Encipherment
            X509v3 Basic Constraints: critical
                CA:FALSE, pathlen:3
    Signature Algorithm: ecdsa-with-SHA256
         30:46:02:21:00:f8:c3:16:a5:5e:c9:95:bd:e9:fc:77:63:13:
         64:2a:19:c8:fa:11:f9:97:24:2c:79:5d:a1:cc:35:0c:69:e9:
         5a:02:21:00:cb:c3:d0:8d:89:20:37:8e:aa:f1:b7:0c:2e:82:
         1c:1b:48:19:0d:02:06:8e:3f:e9:b5:6d:98:fc:57:68:b7:86
-----BEGIN CERTIFICATE-----
MIIB8TCCAZagAwIBAgIBCzAKBggqhkjOPQQDAjCBmTEYMBYGA1UEAwwPUmVnaW9u
ZSBUb3NjYW5hMQswCQYDVQQGEwJJVDEPMA0GA1UECAwGSXRhbGlhMRgwFgYDVQQK
DA9FLVZvdGluZyBzeXN0ZW0xIjAgBgNVBAsMGUUtVm90aW5nIHN5c3RlbSBhdXRo
b3JpdHkxITAfBgkqhkiG9w0BCQEWElRvc2NhbmFAZXZvdGluZy5pdDAeFw0yMjA4
MjYxNTE5MjVaFw0yMzA4MjYxNTE5MjVaMEcxDTALBgNVBAMMBEVyaWMxCzAJBgNV
BAYTAklUMQ8wDQYDVQQIDAZJdGFsaWExGDAWBgNVBAoMD1JlZ2lvbmUgVG9zY2Fu
YTBWMBAGByqGSM49AgEGBSuBBAAKA0IABHZYO81eECAhlchtkLpAL20DoHHY0nfA
U/lCe2BYjnamVW9Yf1gspEXolMutOiu7UhCLPE6HoPy3aVL8DMsEHb6jIzAhMA4G
A1UdDwEB/wQEAwIFoDAPBgNVHRMBAf8EBTADAgEDMAoGCCqGSM49BAMCA0kAMEYC
IQD4wxalXsmVven8d2MTZCoZyPoR+ZckLHldocw1DGnpWgIhAMvD0I2JIDeOqvG3
DC6CHBtIGQ0CBo4/6bVtmPxXaLeG
-----END CERTIFICATE-----
