Certificate:
    Data:
        Version: 3 (0x2)
        Serial Number: 20 (0x14)
        Signature Algorithm: ecdsa-with-SHA256
        Issuer: CN=Regione Molise, C=IT, ST=Italia, O=E-Voting system, OU=E-Voting system authority/emailAddress=Molise@evoting.it
        Validity
            Not Before: Aug 26 15:20:04 2022 GMT
            Not After : Aug 26 15:20:04 2023 GMT
        Subject: CN=Erica, C=IT, ST=Italia, O=Regione Molise
        Subject Public Key Info:
            Public Key Algorithm: id-ecPublicKey
                Public-Key: (256 bit)
                pub:
                    04:da:70:2e:e1:87:4f:b2:ef:a5:3e:4a:2b:a3:c9:
                    3f:20:9e:89:aa:f9:2a:87:ee:ee:11:24:b9:79:3e:
                    56:bc:0e:73:92:3d:89:41:ad:f3:fc:56:3c:46:49:
                    e1:a8:aa:24:cf:aa:fd:15:72:e1:f2:e4:c5:d3:ae:
                    16:b1:df:64:4d
                ASN1 OID: secp256k1
        X509v3 extensions:
            X509v3 Key Usage: critical
                Digital Signature, Key Encipherment
            X509v3 Basic Constraints: critical
                CA:FALSE, pathlen:3
    Signature Algorithm: ecdsa-with-SHA256
         30:45:02:20:23:b8:1c:32:c1:96:79:bb:b4:57:fa:61:eb:09:
         53:a7:fb:35:d8:49:97:28:63:d4:3b:6b:f4:c9:11:18:52:19:
         02:21:00:c7:d4:19:52:14:a2:ba:91:eb:fa:33:83:74:e0:a4:
         7c:11:8f:50:c0:58:b5:e7:59:64:2a:fe:13:9f:92:41:41
-----BEGIN CERTIFICATE-----
MIIB7jCCAZSgAwIBAgIBFDAKBggqhkjOPQQDAjCBlzEXMBUGA1UEAwwOUmVnaW9u
ZSBNb2xpc2UxCzAJBgNVBAYTAklUMQ8wDQYDVQQIDAZJdGFsaWExGDAWBgNVBAoM
D0UtVm90aW5nIHN5c3RlbTEiMCAGA1UECwwZRS1Wb3Rpbmcgc3lzdGVtIGF1dGhv
cml0eTEgMB4GCSqGSIb3DQEJARYRTW9saXNlQGV2b3RpbmcuaXQwHhcNMjIwODI2
MTUyMDA0WhcNMjMwODI2MTUyMDA0WjBHMQ4wDAYDVQQDDAVFcmljYTELMAkGA1UE
BhMCSVQxDzANBgNVBAgMBkl0YWxpYTEXMBUGA1UECgwOUmVnaW9uZSBNb2xpc2Uw
VjAQBgcqhkjOPQIBBgUrgQQACgNCAATacC7hh0+y76U+SiujyT8gnomq+SqH7u4R
JLl5Pla8DnOSPYlBrfP8VjxGSeGoqiTPqv0VcuHy5MXTrhax32RNoyMwITAOBgNV
HQ8BAf8EBAMCBaAwDwYDVR0TAQH/BAUwAwIBAzAKBggqhkjOPQQDAgNIADBFAiAj
uBwywZZ5u7RX+mHrCVOn+zXYSZcoY9Q7a/TJERhSGQIhAMfUGVIUorqR6/ozg3Tg
pHwRj1DAWLXnWWQq/hOfkkFB
-----END CERTIFICATE-----
