Certificate:
    Data:
        Version: 3 (0x2)
        Serial Number: 5 (0x5)
        Signature Algorithm: ecdsa-with-SHA256
        Issuer: CN=Regione Lazio, C=IT, ST=Italia, O=E-Voting system, OU=E-Voting system authority/emailAddress=Lazio@evoting.it
        Validity
            Not Before: Aug 26 15:18:39 2022 GMT
            Not After : Aug 26 15:18:39 2023 GMT
        Subject: CN=Erik, C=IT, ST=Italia, O=Regione Lazio
        Subject Public Key Info:
            Public Key Algorithm: id-ecPublicKey
                Public-Key: (256 bit)
                pub:
                    04:cd:7c:bf:41:ec:f6:dd:c2:d5:d3:df:ff:e8:b5:
                    cc:9a:ef:9b:76:cc:94:b7:a6:16:2c:59:e8:46:0a:
                    cd:81:4c:1d:f6:e8:3d:71:e4:6a:fb:83:11:30:ee:
                    7e:c1:6b:54:24:f9:d0:e2:ca:41:75:97:48:d7:35:
                    00:e2:90:11:28
                ASN1 OID: secp256k1
        X509v3 extensions:
            X509v3 Key Usage: critical
                Digital Signature, Key Encipherment
            X509v3 Basic Constraints: critical
                CA:FALSE, pathlen:3
    Signature Algorithm: ecdsa-with-SHA256
         30:44:02:20:5a:26:14:c1:9f:eb:02:73:9b:4d:f3:43:eb:bc:
         36:3a:5f:59:92:5e:51:51:a0:7c:5e:d7:23:bc:1a:f9:ac:5c:
         02:20:05:14:4c:7d:ff:f2:4f:1b:1f:2c:d8:24:c1:30:e4:92:
         20:b7:bc:65:52:20:e4:3e:75:db:2d:6d:05:cd:4f:2a
-----BEGIN CERTIFICATE-----
MIIB6TCCAZCgAwIBAgIBBTAKBggqhkjOPQQDAjCBlTEWMBQGA1UEAwwNUmVnaW9u
ZSBMYXppbzELMAkGA1UEBhMCSVQxDzANBgNVBAgMBkl0YWxpYTEYMBYGA1UECgwP
RS1Wb3Rpbmcgc3lzdGVtMSIwIAYDVQQLDBlFLVZvdGluZyBzeXN0ZW0gYXV0aG9y
aXR5MR8wHQYJKoZIhvcNAQkBFhBMYXppb0Bldm90aW5nLml0MB4XDTIyMDgyNjE1
MTgzOVoXDTIzMDgyNjE1MTgzOVowRTENMAsGA1UEAwwERXJpazELMAkGA1UEBhMC
SVQxDzANBgNVBAgMBkl0YWxpYTEWMBQGA1UECgwNUmVnaW9uZSBMYXppbzBWMBAG
ByqGSM49AgEGBSuBBAAKA0IABM18v0Hs9t3C1dPf/+i1zJrvm3bMlLemFixZ6EYK
zYFMHfboPXHkavuDETDufsFrVCT50OLKQXWXSNc1AOKQESijIzAhMA4GA1UdDwEB
/wQEAwIFoDAPBgNVHRMBAf8EBTADAgEDMAoGCCqGSM49BAMCA0cAMEQCIFomFMGf
6wJzm03zQ+u8NjpfWZJeUVGgfF7XI7wa+axcAiAFFEx9//JPGx8s2CTBMOSSILe8
ZVIg5D512y1tBc1PKg==
-----END CERTIFICATE-----
