Certificate:
    Data:
        Version: 3 (0x2)
        Serial Number: 26 (0x1a)
        Signature Algorithm: ecdsa-with-SHA256
        Issuer: CN=Regione Liguria, C=IT, ST=Italia, O=E-Voting system, OU=E-Voting system authority/emailAddress=Liguria@evoting.it
        Validity
            Not Before: Aug 26 15:19:29 2022 GMT
            Not After : Aug 26 15:19:29 2023 GMT
        Subject: CN=Erma, C=IT, ST=Italia, O=Regione Liguria
        Subject Public Key Info:
            Public Key Algorithm: id-ecPublicKey
                Public-Key: (256 bit)
                pub:
                    04:1b:be:54:bd:fe:a6:b4:eb:25:bc:1f:a7:48:30:
                    ef:88:02:ce:ec:61:f0:2d:e6:ad:ab:a1:5e:c5:01:
                    1d:db:0f:33:37:f0:aa:ed:43:3f:c0:47:39:5f:1f:
                    b8:09:da:a1:7e:d7:12:24:61:89:bd:73:78:c2:b7:
                    27:3d:91:74:20
                ASN1 OID: secp256k1
        X509v3 extensions:
            X509v3 Key Usage: critical
                Digital Signature, Key Encipherment
            X509v3 Basic Constraints: critical
                CA:FALSE, pathlen:3
    Signature Algorithm: ecdsa-with-SHA256
         30:44:02:20:06:60:88:2e:9b:af:af:f6:2a:3b:7e:52:a7:e7:
         8d:bc:ff:a9:e4:1f:bf:b3:47:b9:93:25:01:8f:88:05:76:91:
         02:20:2e:c0:0d:c8:33:93:ae:52:ac:41:93:b8:6d:9c:67:2e:
         2b:d1:fb:69:cc:61:e3:ea:59:86:2a:f6:5f:f0:bc:4a
-----BEGIN CERTIFICATE-----
MIIB7zCCAZagAwIBAgIBGjAKBggqhkjOPQQDAjCBmTEYMBYGA1UEAwwPUmVnaW9u
ZSBMaWd1cmlhMQswCQYDVQQGEwJJVDEPMA0GA1UECAwGSXRhbGlhMRgwFgYDVQQK
DA9FLVZvdGluZyBzeXN0ZW0xIjAgBgNVBAsMGUUtVm90aW5nIHN5c3RlbSBhdXRo
b3JpdHkxITAfBgkqhkiG9w0BCQEWEkxpZ3VyaWFAZXZvdGluZy5pdDAeFw0yMjA4
MjYxNTE5MjlaFw0yMzA4MjYxNTE5MjlaMEcxDTALBgNVBAMMBEVybWExCzAJBgNV
BAYTAklUMQ8wDQYDVQQIDAZJdGFsaWExGDAWBgNVBAoMD1JlZ2lvbmUgTGlndXJp
YTBWMBAGByqGSM49AgEGBSuBBAAKA0IABBu+VL3+prTrJbwfp0gw74gCzuxh8C3m
rauhXsUBHdsPMzfwqu1DP8BHOV8fuAnaoX7XEiRhib1zeMK3Jz2RdCCjIzAhMA4G
A1UdDwEB/wQEAwIFoDAPBgNVHRMBAf8EBTADAgEDMAoGCCqGSM49BAMCA0cAMEQC
IAZgiC6br6/2Kjt+Uqfnjbz/qeQfv7NHuZMlAY+IBXaRAiAuwA3IM5OuUqxBk7ht
nGcuK9H7acxh4+pZhir2X/C8Sg==
-----END CERTIFICATE-----
