Certificate:
    Data:
        Version: 3 (0x2)
        Serial Number: 13 (0xd)
        Signature Algorithm: ecdsa-with-SHA256
        Issuer: CN=Regione Calabria, C=IT, ST=Italia, O=E-Voting system, OU=E-Voting system authority/emailAddress=Calabria@evoting.it
        Validity
            Not Before: Aug  3 13:26:17 2022 GMT
            Not After : Aug  3 13:26:17 2023 GMT
        Subject: CN=Ernesto, C=IT, ST=Italia, O=Regione Calabria
        Subject Public Key Info:
            Public Key Algorithm: id-ecPublicKey
                Public-Key: (256 bit)
                pub:
                    04:9f:ef:28:63:73:66:8a:1c:ed:c1:2c:28:dc:79:
                    ec:32:21:17:9b:5b:c6:57:96:e8:0e:9a:e9:d5:83:
                    62:92:11:b0:93:90:8b:7a:d3:e2:bb:b6:21:2f:fc:
                    6d:56:9c:93:62:e2:f6:f6:7a:8e:b0:f8:5d:bf:0f:
                    69:fe:10:6f:a2
                ASN1 OID: prime256v1
                NIST CURVE: P-256
        X509v3 extensions:
            X509v3 Key Usage: critical
                Digital Signature, Key Encipherment
            X509v3 Basic Constraints: critical
                CA:FALSE, pathlen:3
    Signature Algorithm: ecdsa-with-SHA256
         30:44:02:20:66:01:2d:ae:ff:c3:42:31:15:21:95:e6:b9:60:
         42:37:15:45:82:58:6c:14:ac:a9:43:e3:22:4d:84:ab:aa:bc:
         02:20:41:0b:be:92:6c:32:cd:48:e6:e2:43:0d:61:eb:9f:91:
         14:ad:07:7b:35:b1:2b:a8:9b:e5:6d:ca:4a:81:86:eb
-----BEGIN CERTIFICATE-----
MIIB+DCCAZ+gAwIBAgIBDTAKBggqhkjOPQQDAjCBmzEZMBcGA1UEAwwQUmVnaW9u
ZSBDYWxhYnJpYTELMAkGA1UEBhMCSVQxDzANBgNVBAgMBkl0YWxpYTEYMBYGA1UE
CgwPRS1Wb3Rpbmcgc3lzdGVtMSIwIAYDVQQLDBlFLVZvdGluZyBzeXN0ZW0gYXV0
aG9yaXR5MSIwIAYJKoZIhvcNAQkBFhNDYWxhYnJpYUBldm90aW5nLml0MB4XDTIy
MDgwMzEzMjYxN1oXDTIzMDgwMzEzMjYxN1owSzEQMA4GA1UEAwwHRXJuZXN0bzEL
MAkGA1UEBhMCSVQxDzANBgNVBAgMBkl0YWxpYTEZMBcGA1UECgwQUmVnaW9uZSBD
YWxhYnJpYTBZMBMGByqGSM49AgEGCCqGSM49AwEHA0IABJ/vKGNzZooc7cEsKNx5
7DIhF5tbxleW6A6a6dWDYpIRsJOQi3rT4ru2IS/8bVack2Li9vZ6jrD4Xb8Paf4Q
b6KjIzAhMA4GA1UdDwEB/wQEAwIFoDAPBgNVHRMBAf8EBTADAgEDMAoGCCqGSM49
BAMCA0cAMEQCIGYBLa7/w0IxFSGV5rlgQjcVRYJYbBSsqUPjIk2Eq6q8AiBBC76S
bDLNSObiQw1h65+RFK0HezWxK6ib5W3KSoGG6w==
-----END CERTIFICATE-----
