Certificate:
    Data:
        Version: 3 (0x2)
        Serial Number: 43 (0x2b)
        Signature Algorithm: ecdsa-with-SHA256
        Issuer: CN=Regione Molise, C=IT, ST=Italia, O=E-Voting system, OU=E-Voting system authority/emailAddress=Molise@evoting.it
        Validity
            Not Before: Aug 26 15:21:27 2022 GMT
            Not After : Aug 26 15:21:27 2023 GMT
        Subject: CN=Ernest, C=IT, ST=Italia, O=Regione Molise
        Subject Public Key Info:
            Public Key Algorithm: id-ecPublicKey
                Public-Key: (256 bit)
                pub:
                    04:de:47:bb:51:27:b6:19:7d:79:76:57:22:52:31:
                    55:78:77:31:56:60:80:fd:51:4b:5d:8b:49:74:ac:
                    6a:52:30:5c:8f:be:67:2c:fc:18:f3:b7:6b:54:32:
                    0c:c0:de:32:ae:0b:47:14:b0:f5:41:fd:72:5c:9c:
                    a3:df:b0:1d:6b
                ASN1 OID: secp256k1
        X509v3 extensions:
            X509v3 Key Usage: critical
                Digital Signature, Key Encipherment
            X509v3 Basic Constraints: critical
                CA:FALSE, pathlen:3
    Signature Algorithm: ecdsa-with-SHA256
         30:45:02:21:00:d0:85:50:c7:67:ab:2d:c3:22:6e:75:e4:f3:
         10:6e:64:7c:a0:39:5a:c0:91:49:31:27:17:4b:d0:65:87:2d:
         53:02:20:19:01:db:2e:e1:ef:99:a2:60:36:33:4f:f5:0c:ac:
         81:01:b5:1e:83:7b:ff:9b:d7:70:b1:51:62:57:20:af:59
-----BEGIN CERTIFICATE-----
MIIB7zCCAZWgAwIBAgIBKzAKBggqhkjOPQQDAjCBlzEXMBUGA1UEAwwOUmVnaW9u
ZSBNb2xpc2UxCzAJBgNVBAYTAklUMQ8wDQYDVQQIDAZJdGFsaWExGDAWBgNVBAoM
D0UtVm90aW5nIHN5c3RlbTEiMCAGA1UECwwZRS1Wb3Rpbmcgc3lzdGVtIGF1dGhv
cml0eTEgMB4GCSqGSIb3DQEJARYRTW9saXNlQGV2b3RpbmcuaXQwHhcNMjIwODI2
MTUyMTI3WhcNMjMwODI2MTUyMTI3WjBIMQ8wDQYDVQQDDAZFcm5lc3QxCzAJBgNV
BAYTAklUMQ8wDQYDVQQIDAZJdGFsaWExFzAVBgNVBAoMDlJlZ2lvbmUgTW9saXNl
MFYwEAYHKoZIzj0CAQYFK4EEAAoDQgAE3ke7USe2GX15dlciUjFVeHcxVmCA/VFL
XYtJdKxqUjBcj75nLPwY87drVDIMwN4yrgtHFLD1Qf1yXJyj37Ada6MjMCEwDgYD
VR0PAQH/BAQDAgWgMA8GA1UdEwEB/wQFMAMCAQMwCgYIKoZIzj0EAwIDSAAwRQIh
ANCFUMdnqy3DIm515PMQbmR8oDlawJFJMScXS9Blhy1TAiAZAdsu4e+ZomA2M0/1
DKyBAbUeg3v/m9dwsVFiVyCvWQ==
-----END CERTIFICATE-----
