Certificate:
    Data:
        Version: 3 (0x2)
        Serial Number: 20 (0x14)
        Signature Algorithm: ecdsa-with-SHA256
        Issuer: CN=Regione Sicilia, C=IT, ST=Italia, O=E-Voting system, OU=E-Voting system authority/emailAddress=Sicilia@evoting.it
        Validity
            Not Before: Aug 26 15:19:39 2022 GMT
            Not After : Aug 26 15:19:39 2023 GMT
        Subject: CN=Ernestine, C=IT, ST=Italia, O=Regione Sicilia
        Subject Public Key Info:
            Public Key Algorithm: id-ecPublicKey
                Public-Key: (256 bit)
                pub:
                    04:66:15:5e:7a:79:3d:0c:5e:2b:e5:2a:f0:7c:d4:
                    d1:ea:4b:73:1f:02:9d:ef:e9:51:2c:14:23:93:3a:
                    5b:6b:83:5d:da:62:b6:b7:29:9b:0e:c4:a8:c1:e3:
                    8e:ae:ac:da:81:8a:59:13:ed:2e:06:e0:a8:54:a7:
                    99:bc:72:f2:bf
                ASN1 OID: secp256k1
        X509v3 extensions:
            X509v3 Key Usage: critical
                Digital Signature, Key Encipherment
            X509v3 Basic Constraints: critical
                CA:FALSE, pathlen:3
    Signature Algorithm: ecdsa-with-SHA256
         30:45:02:21:00:b9:fa:d8:94:68:83:e4:f4:5c:f8:02:6a:16:
         12:20:db:58:81:ee:df:4b:54:ca:37:be:2f:7e:9a:5e:dd:49:
         16:02:20:33:e0:54:0b:76:a5:db:88:e6:ef:13:b9:ee:58:a2:
         8e:22:39:ae:4c:17:a9:2b:d5:ed:b0:06:38:3d:1e:6e:89
-----BEGIN CERTIFICATE-----
MIIB9TCCAZugAwIBAgIBFDAKBggqhkjOPQQDAjCBmTEYMBYGA1UEAwwPUmVnaW9u
ZSBTaWNpbGlhMQswCQYDVQQGEwJJVDEPMA0GA1UECAwGSXRhbGlhMRgwFgYDVQQK
DA9FLVZvdGluZyBzeXN0ZW0xIjAgBgNVBAsMGUUtVm90aW5nIHN5c3RlbSBhdXRo
b3JpdHkxITAfBgkqhkiG9w0BCQEWElNpY2lsaWFAZXZvdGluZy5pdDAeFw0yMjA4
MjYxNTE5MzlaFw0yMzA4MjYxNTE5MzlaMEwxEjAQBgNVBAMMCUVybmVzdGluZTEL
MAkGA1UEBhMCSVQxDzANBgNVBAgMBkl0YWxpYTEYMBYGA1UECgwPUmVnaW9uZSBT
aWNpbGlhMFYwEAYHKoZIzj0CAQYFK4EEAAoDQgAEZhVeenk9DF4r5SrwfNTR6ktz
HwKd7+lRLBQjkzpba4Nd2mK2tymbDsSoweOOrqzagYpZE+0uBuCoVKeZvHLyv6Mj
MCEwDgYDVR0PAQH/BAQDAgWgMA8GA1UdEwEB/wQFMAMCAQMwCgYIKoZIzj0EAwID
SAAwRQIhALn62JRog+T0XPgCahYSINtYge7fS1TKN74vfppe3UkWAiAz4FQLdqXb
iObvE7nuWKKOIjmuTBepK9XtsAY4PR5uiQ==
-----END CERTIFICATE-----
