Certificate:
    Data:
        Version: 3 (0x2)
        Serial Number: 19 (0x13)
        Signature Algorithm: ecdsa-with-SHA256
        Issuer: CN=Regione Marche, C=IT, ST=Italia, O=E-Voting system, OU=E-Voting system authority/emailAddress=Marche@evoting.it
        Validity
            Not Before: Aug 26 15:20:29 2022 GMT
            Not After : Aug 26 15:20:29 2023 GMT
        Subject: CN=Esther, C=IT, ST=Italia, O=Regione Marche
        Subject Public Key Info:
            Public Key Algorithm: id-ecPublicKey
                Public-Key: (256 bit)
                pub:
                    04:a5:43:c0:06:81:69:9f:9b:24:df:29:de:12:b9:
                    a2:c1:ac:88:9f:a8:20:b9:51:8a:6b:cd:1a:85:9b:
                    11:29:70:24:4e:2f:7e:c4:10:fd:99:f4:81:64:d1:
                    f8:fe:35:91:c0:b3:9e:92:87:f2:e1:00:06:29:b6:
                    e9:bf:33:86:a3
                ASN1 OID: secp256k1
        X509v3 extensions:
            X509v3 Key Usage: critical
                Digital Signature, Key Encipherment
            X509v3 Basic Constraints: critical
                CA:FALSE, pathlen:3
    Signature Algorithm: ecdsa-with-SHA256
         30:45:02:20:69:c8:ca:8b:84:62:17:c8:34:ad:99:ab:55:3e:
         3b:8f:3d:4b:e4:6d:6e:59:ad:40:b6:ce:61:57:ec:68:2a:96:
         02:21:00:cd:6e:8a:15:66:44:bd:5a:18:61:13:94:1c:98:e1:
         40:14:ae:9b:92:e4:61:8b:56:1b:75:cb:37:11:33:fe:9b
-----BEGIN CERTIFICATE-----
MIIB7zCCAZWgAwIBAgIBEzAKBggqhkjOPQQDAjCBlzEXMBUGA1UEAwwOUmVnaW9u
ZSBNYXJjaGUxCzAJBgNVBAYTAklUMQ8wDQYDVQQIDAZJdGFsaWExGDAWBgNVBAoM
D0UtVm90aW5nIHN5c3RlbTEiMCAGA1UECwwZRS1Wb3Rpbmcgc3lzdGVtIGF1dGhv
cml0eTEgMB4GCSqGSIb3DQEJARYRTWFyY2hlQGV2b3RpbmcuaXQwHhcNMjIwODI2
MTUyMDI5WhcNMjMwODI2MTUyMDI5WjBIMQ8wDQYDVQQDDAZFc3RoZXIxCzAJBgNV
BAYTAklUMQ8wDQYDVQQIDAZJdGFsaWExFzAVBgNVBAoMDlJlZ2lvbmUgTWFyY2hl
MFYwEAYHKoZIzj0CAQYFK4EEAAoDQgAEpUPABoFpn5sk3yneErmiwayIn6gguVGK
a80ahZsRKXAkTi9+xBD9mfSBZNH4/jWRwLOekofy4QAGKbbpvzOGo6MjMCEwDgYD
VR0PAQH/BAQDAgWgMA8GA1UdEwEB/wQFMAMCAQMwCgYIKoZIzj0EAwIDSAAwRQIg
acjKi4RiF8g0rZmrVT47jz1L5G1uWa1Ats5hV+xoKpYCIQDNbooVZkS9WhhhE5Qc
mOFAFK6bkuRhi1Ybdcs3ETP+mw==
-----END CERTIFICATE-----
