Certificate:
    Data:
        Version: 3 (0x2)
        Serial Number: 36 (0x24)
        Signature Algorithm: ecdsa-with-SHA256
        Issuer: CN=Regione Friuli_Venezia_Giulia, C=IT, ST=Italia, O=E-Voting system, OU=E-Voting system authority/emailAddress=Friuli_Venezia_Giulia@evoting.it
        Validity
            Not Before: Aug 26 15:21:10 2022 GMT
            Not After : Aug 26 15:21:10 2023 GMT
        Subject: CN=Ethel, C=IT, ST=Italia, O=Regione Friuli_Venezia_Giulia
        Subject Public Key Info:
            Public Key Algorithm: id-ecPublicKey
                Public-Key: (256 bit)
                pub:
                    04:a3:38:c1:be:6e:dd:a4:e7:a1:9b:52:3c:87:d2:
                    4e:ed:34:d5:53:99:0b:66:f8:ce:50:fd:eb:e7:f7:
                    92:b8:6e:94:2a:3c:27:24:9d:32:5a:15:6e:15:50:
                    11:63:56:1a:78:f9:e2:cc:59:7c:be:84:ab:c6:90:
                    93:cb:44:48:5c
                ASN1 OID: secp256k1
        X509v3 extensions:
            X509v3 Key Usage: critical
                Digital Signature, Key Encipherment
            X509v3 Basic Constraints: critical
                CA:FALSE, pathlen:3
    Signature Algorithm: ecdsa-with-SHA256
         30:45:02:21:00:83:e6:18:e0:58:51:5f:77:f5:d2:a5:18:04:
         c8:0d:57:65:37:ed:5b:ed:7c:19:ee:97:be:7f:c7:33:e2:50:
         db:02:20:1d:b3:23:b3:ed:40:6d:2b:f1:1d:25:98:5d:ae:54:
         b5:2a:16:b8:11:9d:f5:8a:58:59:66:04:1f:6c:6b:a3:77
-----BEGIN CERTIFICATE-----
MIICGzCCAcGgAwIBAgIBJDAKBggqhkjOPQQDAjCBtTEmMCQGA1UEAwwdUmVnaW9u
ZSBGcml1bGlfVmVuZXppYV9HaXVsaWExCzAJBgNVBAYTAklUMQ8wDQYDVQQIDAZJ
dGFsaWExGDAWBgNVBAoMD0UtVm90aW5nIHN5c3RlbTEiMCAGA1UECwwZRS1Wb3Rp
bmcgc3lzdGVtIGF1dGhvcml0eTEvMC0GCSqGSIb3DQEJARYgRnJpdWxpX1ZlbmV6
aWFfR2l1bGlhQGV2b3RpbmcuaXQwHhcNMjIwODI2MTUyMTEwWhcNMjMwODI2MTUy
MTEwWjBWMQ4wDAYDVQQDDAVFdGhlbDELMAkGA1UEBhMCSVQxDzANBgNVBAgMBkl0
YWxpYTEmMCQGA1UECgwdUmVnaW9uZSBGcml1bGlfVmVuZXppYV9HaXVsaWEwVjAQ
BgcqhkjOPQIBBgUrgQQACgNCAASjOMG+bt2k56GbUjyH0k7tNNVTmQtm+M5Q/evn
95K4bpQqPCcknTJaFW4VUBFjVhp4+eLMWXy+hKvGkJPLREhcoyMwITAOBgNVHQ8B
Af8EBAMCBaAwDwYDVR0TAQH/BAUwAwIBAzAKBggqhkjOPQQDAgNIADBFAiEAg+YY
4FhRX3f10qUYBMgNV2U37VvtfBnul75/xzPiUNsCIB2zI7PtQG0r8R0lmF2uVLUq
FrgRnfWKWFlmBB9sa6N3
-----END CERTIFICATE-----
