Certificate:
    Data:
        Version: 3 (0x2)
        Serial Number: 31 (0x1f)
        Signature Algorithm: ecdsa-with-SHA256
        Issuer: CN=Regione Valle_d_Aosta, C=IT, ST=Italia, O=E-Voting system, OU=E-Voting system authority/emailAddress=Valle_d_Aosta@evoting.it
        Validity
            Not Before: Aug  3 13:27:12 2022 GMT
            Not After : Aug  3 13:27:12 2023 GMT
        Subject: CN=Eugenie, C=IT, ST=Italia, O=Regione Valle_d_Aosta
        Subject Public Key Info:
            Public Key Algorithm: id-ecPublicKey
                Public-Key: (256 bit)
                pub:
                    04:9c:e1:fb:e4:03:3a:a9:18:6a:23:d8:94:a5:72:
                    f7:17:10:7e:59:af:24:b0:4e:7b:79:cd:d8:65:81:
                    19:96:58:5d:b1:ee:2a:89:71:c9:b9:79:f7:ec:5b:
                    85:e8:66:56:92:dd:b3:2d:bf:0d:10:af:8c:4a:5e:
                    e8:b1:6f:4e:a1
                ASN1 OID: prime256v1
                NIST CURVE: P-256
        X509v3 extensions:
            X509v3 Key Usage: critical
                Digital Signature, Key Encipherment
            X509v3 Basic Constraints: critical
                CA:FALSE, pathlen:3
    Signature Algorithm: ecdsa-with-SHA256
         30:45:02:20:1f:ee:61:b1:16:0e:3b:2c:71:6d:be:5d:dd:0d:
         a6:d8:8c:17:52:ac:6a:1d:ef:41:68:18:3a:5d:3c:bd:93:e9:
         02:21:00:ce:13:6c:63:2a:97:6c:74:f6:69:02:84:99:15:51:
         99:d6:e8:42:52:8e:58:21:5c:1b:28:2c:62:d2:0e:46:68
-----BEGIN CERTIFICATE-----
MIICCDCCAa6gAwIBAgIBHzAKBggqhkjOPQQDAjCBpTEeMBwGA1UEAwwVUmVnaW9u
ZSBWYWxsZV9kX0Fvc3RhMQswCQYDVQQGEwJJVDEPMA0GA1UECAwGSXRhbGlhMRgw
FgYDVQQKDA9FLVZvdGluZyBzeXN0ZW0xIjAgBgNVBAsMGUUtVm90aW5nIHN5c3Rl
bSBhdXRob3JpdHkxJzAlBgkqhkiG9w0BCQEWGFZhbGxlX2RfQW9zdGFAZXZvdGlu
Zy5pdDAeFw0yMjA4MDMxMzI3MTJaFw0yMzA4MDMxMzI3MTJaMFAxEDAOBgNVBAMM
B0V1Z2VuaWUxCzAJBgNVBAYTAklUMQ8wDQYDVQQIDAZJdGFsaWExHjAcBgNVBAoM
FVJlZ2lvbmUgVmFsbGVfZF9Bb3N0YTBZMBMGByqGSM49AgEGCCqGSM49AwEHA0IA
BJzh++QDOqkYaiPYlKVy9xcQflmvJLBOe3nN2GWBGZZYXbHuKolxybl59+xbhehm
VpLdsy2/DRCvjEpe6LFvTqGjIzAhMA4GA1UdDwEB/wQEAwIFoDAPBgNVHRMBAf8E
BTADAgEDMAoGCCqGSM49BAMCA0gAMEUCIB/uYbEWDjsscW2+Xd0NptiMF1Ksah3v
QWgYOl08vZPpAiEAzhNsYyqXbHT2aQKEmRVRmdboQlKOWCFcGygsYtIORmg=
-----END CERTIFICATE-----
