Certificate:
    Data:
        Version: 3 (0x2)
        Serial Number: 33 (0x21)
        Signature Algorithm: ecdsa-with-SHA256
        Issuer: CN=Regione Sardegna, C=IT, ST=Italia, O=E-Voting system, OU=E-Voting system authority/emailAddress=Sardegna@evoting.it
        Validity
            Not Before: Aug 26 15:20:59 2022 GMT
            Not After : Aug 26 15:20:59 2023 GMT
        Subject: CN=Eugenia, C=IT, ST=Italia, O=Regione Sardegna
        Subject Public Key Info:
            Public Key Algorithm: id-ecPublicKey
                Public-Key: (256 bit)
                pub:
                    04:37:14:18:8e:a1:9d:ee:2f:3c:e2:c1:50:01:f6:
                    09:9a:0f:29:1e:f2:03:de:be:11:2d:83:d7:03:3f:
                    09:0c:b5:c2:86:da:94:8f:fd:4a:07:be:58:19:38:
                    8d:09:e9:86:66:88:f2:15:1b:51:fb:2c:4d:8a:b9:
                    93:2d:1f:f1:c8
                ASN1 OID: secp256k1
        X509v3 extensions:
            X509v3 Key Usage: critical
                Digital Signature, Key Encipherment
            X509v3 Basic Constraints: critical
                CA:FALSE, pathlen:3
    Signature Algorithm: ecdsa-with-SHA256
         30:45:02:20:5f:76:a0:2e:3a:92:cf:a2:af:eb:6e:81:3b:b1:
         34:6a:4b:da:10:49:a4:dc:9d:77:34:36:04:c4:3d:6a:82:e1:
         02:21:00:e2:52:19:48:de:c1:7f:49:e5:a0:b8:4e:0a:c0:cc:
         3c:e7:cb:cb:c7:58:de:68:1d:f0:0d:98:ac:b4:97:bd:1d
-----BEGIN CERTIFICATE-----
MIIB9jCCAZygAwIBAgIBITAKBggqhkjOPQQDAjCBmzEZMBcGA1UEAwwQUmVnaW9u
ZSBTYXJkZWduYTELMAkGA1UEBhMCSVQxDzANBgNVBAgMBkl0YWxpYTEYMBYGA1UE
CgwPRS1Wb3Rpbmcgc3lzdGVtMSIwIAYDVQQLDBlFLVZvdGluZyBzeXN0ZW0gYXV0
aG9yaXR5MSIwIAYJKoZIhvcNAQkBFhNTYXJkZWduYUBldm90aW5nLml0MB4XDTIy
MDgyNjE1MjA1OVoXDTIzMDgyNjE1MjA1OVowSzEQMA4GA1UEAwwHRXVnZW5pYTEL
MAkGA1UEBhMCSVQxDzANBgNVBAgMBkl0YWxpYTEZMBcGA1UECgwQUmVnaW9uZSBT
YXJkZWduYTBWMBAGByqGSM49AgEGBSuBBAAKA0IABDcUGI6hne4vPOLBUAH2CZoP
KR7yA96+ES2D1wM/CQy1wobalI/9Sge+WBk4jQnphmaI8hUbUfssTYq5ky0f8cij
IzAhMA4GA1UdDwEB/wQEAwIFoDAPBgNVHRMBAf8EBTADAgEDMAoGCCqGSM49BAMC
A0gAMEUCIF92oC46ks+ir+tugTuxNGpL2hBJpNyddzQ2BMQ9aoLhAiEA4lIZSN7B
f0nloLhOCsDMPOfLy8dY3mgd8A2YrLSXvR0=
-----END CERTIFICATE-----
