Certificate:
    Data:
        Version: 3 (0x2)
        Serial Number: 39 (0x27)
        Signature Algorithm: ecdsa-with-SHA256
        Issuer: CN=Regione Calabria, C=IT, ST=Italia, O=E-Voting system, OU=E-Voting system authority/emailAddress=Calabria@evoting.it
        Validity
            Not Before: Aug  3 13:28:02 2022 GMT
            Not After : Aug  3 13:28:02 2023 GMT
        Subject: CN=Eugenio, C=IT, ST=Italia, O=Regione Calabria
        Subject Public Key Info:
            Public Key Algorithm: id-ecPublicKey
                Public-Key: (256 bit)
                pub:
                    04:f1:8e:ae:28:fd:5f:bf:5a:73:92:17:4a:09:2a:
                    80:ef:c5:1d:83:53:bb:c5:72:77:94:71:90:6d:92:
                    3c:8d:27:77:6a:3e:a8:28:6c:dc:f4:69:55:de:bc:
                    2e:b5:63:0e:c0:e7:ac:1d:bc:e8:1b:89:c8:b1:a3:
                    f1:fd:ef:77:f6
                ASN1 OID: prime256v1
                NIST CURVE: P-256
        X509v3 extensions:
            X509v3 Key Usage: critical
                Digital Signature, Key Encipherment
            X509v3 Basic Constraints: critical
                CA:FALSE, pathlen:3
    Signature Algorithm: ecdsa-with-SHA256
         30:46:02:21:00:b6:63:63:77:74:b9:79:6c:8d:11:70:28:0e:
         4c:20:9a:be:2b:fb:de:f5:bf:51:10:5d:55:45:76:54:46:3c:
         14:02:21:00:8e:6a:c7:71:59:fd:3e:66:20:a1:22:79:91:eb:
         e0:45:af:51:4b:f0:1d:ec:8c:fd:ac:ba:94:e8:02:a8:f6:4a
-----BEGIN CERTIFICATE-----
MIIB+jCCAZ+gAwIBAgIBJzAKBggqhkjOPQQDAjCBmzEZMBcGA1UEAwwQUmVnaW9u
ZSBDYWxhYnJpYTELMAkGA1UEBhMCSVQxDzANBgNVBAgMBkl0YWxpYTEYMBYGA1UE
CgwPRS1Wb3Rpbmcgc3lzdGVtMSIwIAYDVQQLDBlFLVZvdGluZyBzeXN0ZW0gYXV0
aG9yaXR5MSIwIAYJKoZIhvcNAQkBFhNDYWxhYnJpYUBldm90aW5nLml0MB4XDTIy
MDgwMzEzMjgwMloXDTIzMDgwMzEzMjgwMlowSzEQMA4GA1UEAwwHRXVnZW5pbzEL
MAkGA1UEBhMCSVQxDzANBgNVBAgMBkl0YWxpYTEZMBcGA1UECgwQUmVnaW9uZSBD
YWxhYnJpYTBZMBMGByqGSM49AgEGCCqGSM49AwEHA0IABPGOrij9X79ac5IXSgkq
gO/FHYNTu8Vyd5RxkG2SPI0nd2o+qChs3PRpVd68LrVjDsDnrB286BuJyLGj8f3v
d/ajIzAhMA4GA1UdDwEB/wQEAwIFoDAPBgNVHRMBAf8EBTADAgEDMAoGCCqGSM49
BAMCA0kAMEYCIQC2Y2N3dLl5bI0RcCgOTCCaviv73vW/URBdVUV2VEY8FAIhAI5q
x3FZ/T5mIKEieZHr4EWvUUvwHeyM/ay6lOgCqPZK
-----END CERTIFICATE-----
