Certificate:
    Data:
        Version: 3 (0x2)
        Serial Number: 38 (0x26)
        Signature Algorithm: ecdsa-with-SHA256
        Issuer: CN=Regione Toscana, C=IT, ST=Italia, O=E-Voting system, OU=E-Voting system authority/emailAddress=Toscana@evoting.it
        Validity
            Not Before: Aug 26 15:21:17 2022 GMT
            Not After : Aug 26 15:21:17 2023 GMT
        Subject: CN=Eunice, C=IT, ST=Italia, O=Regione Toscana
        Subject Public Key Info:
            Public Key Algorithm: id-ecPublicKey
                Public-Key: (256 bit)
                pub:
                    04:9d:10:7b:b5:a5:47:8f:d8:46:db:93:fe:38:0b:
                    ca:e5:c4:32:35:6a:5e:ba:92:c4:a1:c2:aa:8f:35:
                    91:8c:67:de:bc:e0:ac:78:e9:e7:9e:81:5a:46:f4:
                    c1:c6:12:87:73:17:1c:20:cb:a4:c7:f2:8f:7f:97:
                    b0:26:30:bf:52
                ASN1 OID: secp256k1
        X509v3 extensions:
            X509v3 Key Usage: critical
                Digital Signature, Key Encipherment
            X509v3 Basic Constraints: critical
                CA:FALSE, pathlen:3
    Signature Algorithm: ecdsa-with-SHA256
         30:44:02:20:0d:3a:b4:ab:ce:ed:b8:60:c9:0f:fd:2d:55:47:
         c4:98:8d:c5:b5:f7:eb:31:74:39:39:b8:ba:fe:e3:3f:04:47:
         02:20:66:b8:2b:4f:58:ea:57:92:4e:e4:f8:f8:05:d6:76:86:
         d7:46:b7:77:b8:ae:a0:66:33:20:9f:34:4e:ee:30:02
-----BEGIN CERTIFICATE-----
MIIB8TCCAZigAwIBAgIBJjAKBggqhkjOPQQDAjCBmTEYMBYGA1UEAwwPUmVnaW9u
ZSBUb3NjYW5hMQswCQYDVQQGEwJJVDEPMA0GA1UECAwGSXRhbGlhMRgwFgYDVQQK
DA9FLVZvdGluZyBzeXN0ZW0xIjAgBgNVBAsMGUUtVm90aW5nIHN5c3RlbSBhdXRo
b3JpdHkxITAfBgkqhkiG9w0BCQEWElRvc2NhbmFAZXZvdGluZy5pdDAeFw0yMjA4
MjYxNTIxMTdaFw0yMzA4MjYxNTIxMTdaMEkxDzANBgNVBAMMBkV1bmljZTELMAkG
A1UEBhMCSVQxDzANBgNVBAgMBkl0YWxpYTEYMBYGA1UECgwPUmVnaW9uZSBUb3Nj
YW5hMFYwEAYHKoZIzj0CAQYFK4EEAAoDQgAEnRB7taVHj9hG25P+OAvK5cQyNWpe
upLEocKqjzWRjGfevOCseOnnnoFaRvTBxhKHcxccIMukx/KPf5ewJjC/UqMjMCEw
DgYDVR0PAQH/BAQDAgWgMA8GA1UdEwEB/wQFMAMCAQMwCgYIKoZIzj0EAwIDRwAw
RAIgDTq0q87tuGDJD/0tVUfEmI3FtffrMXQ5Obi6/uM/BEcCIGa4K09Y6leSTuT4
+AXWdobXRrd3uK6gZjMgnzRO7jAC
-----END CERTIFICATE-----
