Certificate:
    Data:
        Version: 3 (0x2)
        Serial Number: 9 (0x9)
        Signature Algorithm: ecdsa-with-SHA256
        Issuer: CN=Regione Molise, C=IT, ST=Italia, O=E-Voting system, OU=E-Voting system authority/emailAddress=Molise@evoting.it
        Validity
            Not Before: Aug 26 15:19:19 2022 GMT
            Not After : Aug 26 15:19:19 2023 GMT
        Subject: CN=Eva, C=IT, ST=Italia, O=Regione Molise
        Subject Public Key Info:
            Public Key Algorithm: id-ecPublicKey
                Public-Key: (256 bit)
                pub:
                    04:f1:af:e6:ad:d6:0c:45:19:5e:67:e4:53:0c:dd:
                    be:66:47:cf:58:7a:00:c1:48:b7:33:7d:90:4d:ef:
                    d4:4f:11:67:02:a7:0b:fc:39:d4:95:18:97:56:33:
                    15:a1:0f:c2:c5:d7:aa:41:0a:54:65:97:70:a4:31:
                    82:4b:11:07:b1
                ASN1 OID: secp256k1
        X509v3 extensions:
            X509v3 Key Usage: critical
                Digital Signature, Key Encipherment
            X509v3 Basic Constraints: critical
                CA:FALSE, pathlen:3
    Signature Algorithm: ecdsa-with-SHA256
         30:46:02:21:00:91:3b:15:2f:5f:7f:1b:eb:f7:fb:83:44:15:
         10:c4:a1:33:09:d5:f8:7b:a5:25:77:25:b0:56:be:3b:89:cd:
         f1:02:21:00:b6:92:7e:b1:d6:aa:0b:a7:76:3a:02:21:3a:c4:
         82:ec:4d:1a:c9:b3:c4:05:71:f2:5f:b8:9e:3e:a9:f6:03:e1
-----BEGIN CERTIFICATE-----
MIIB7TCCAZKgAwIBAgIBCTAKBggqhkjOPQQDAjCBlzEXMBUGA1UEAwwOUmVnaW9u
ZSBNb2xpc2UxCzAJBgNVBAYTAklUMQ8wDQYDVQQIDAZJdGFsaWExGDAWBgNVBAoM
D0UtVm90aW5nIHN5c3RlbTEiMCAGA1UECwwZRS1Wb3Rpbmcgc3lzdGVtIGF1dGhv
cml0eTEgMB4GCSqGSIb3DQEJARYRTW9saXNlQGV2b3RpbmcuaXQwHhcNMjIwODI2
MTUxOTE5WhcNMjMwODI2MTUxOTE5WjBFMQwwCgYDVQQDDANFdmExCzAJBgNVBAYT
AklUMQ8wDQYDVQQIDAZJdGFsaWExFzAVBgNVBAoMDlJlZ2lvbmUgTW9saXNlMFYw
EAYHKoZIzj0CAQYFK4EEAAoDQgAE8a/mrdYMRRleZ+RTDN2+ZkfPWHoAwUi3M32Q
Te/UTxFnAqcL/DnUlRiXVjMVoQ/CxdeqQQpUZZdwpDGCSxEHsaMjMCEwDgYDVR0P
AQH/BAQDAgWgMA8GA1UdEwEB/wQFMAMCAQMwCgYIKoZIzj0EAwIDSQAwRgIhAJE7
FS9ffxvr9/uDRBUQxKEzCdX4e6UldyWwVr47ic3xAiEAtpJ+sdaqC6d2OgIhOsSC
7E0aybPEBXHyX7iePqn2A+E=
-----END CERTIFICATE-----
