Certificate:
    Data:
        Version: 3 (0x2)
        Serial Number: 49 (0x31)
        Signature Algorithm: ecdsa-with-SHA256
        Issuer: CN=Regione Piemonte, C=IT, ST=Italia, O=E-Voting system, OU=E-Voting system authority/emailAddress=Piemonte@evoting.it
        Validity
            Not Before: Aug  3 13:27:35 2022 GMT
            Not After : Aug  3 13:27:35 2023 GMT
        Subject: CN=Evangeline, C=IT, ST=Italia, O=Regione Piemonte
        Subject Public Key Info:
            Public Key Algorithm: id-ecPublicKey
                Public-Key: (256 bit)
                pub:
                    04:71:6f:66:e9:ab:94:1f:fb:76:70:d8:94:e2:3e:
                    a0:cf:7e:47:6f:41:96:9f:b0:46:fe:e4:b5:12:0d:
                    3f:a2:82:1b:8e:a3:55:47:18:40:a9:c3:e0:8a:6e:
                    d5:8c:c9:90:89:38:4c:e9:e6:81:26:35:25:5d:9f:
                    77:6c:85:c7:a2
                ASN1 OID: prime256v1
                NIST CURVE: P-256
        X509v3 extensions:
            X509v3 Key Usage: critical
                Digital Signature, Key Encipherment
            X509v3 Basic Constraints: critical
                CA:FALSE, pathlen:3
    Signature Algorithm: ecdsa-with-SHA256
         30:45:02:21:00:a0:f2:c0:8a:9e:3c:db:6a:9c:dc:fc:6c:6d:
         84:8d:94:30:09:2c:ad:02:93:24:dd:12:24:28:56:98:44:73:
         46:02:20:14:0c:03:90:bb:1e:6d:37:f4:79:61:61:db:e0:a0:
         6c:be:2e:d4:9e:91:af:2e:3a:6d:04:42:aa:fb:3f:5f:8f
-----BEGIN CERTIFICATE-----
MIIB/DCCAaKgAwIBAgIBMTAKBggqhkjOPQQDAjCBmzEZMBcGA1UEAwwQUmVnaW9u
ZSBQaWVtb250ZTELMAkGA1UEBhMCSVQxDzANBgNVBAgMBkl0YWxpYTEYMBYGA1UE
CgwPRS1Wb3Rpbmcgc3lzdGVtMSIwIAYDVQQLDBlFLVZvdGluZyBzeXN0ZW0gYXV0
aG9yaXR5MSIwIAYJKoZIhvcNAQkBFhNQaWVtb250ZUBldm90aW5nLml0MB4XDTIy
MDgwMzEzMjczNVoXDTIzMDgwMzEzMjczNVowTjETMBEGA1UEAwwKRXZhbmdlbGlu
ZTELMAkGA1UEBhMCSVQxDzANBgNVBAgMBkl0YWxpYTEZMBcGA1UECgwQUmVnaW9u
ZSBQaWVtb250ZTBZMBMGByqGSM49AgEGCCqGSM49AwEHA0IABHFvZumrlB/7dnDY
lOI+oM9+R29Blp+wRv7ktRINP6KCG46jVUcYQKnD4Ipu1YzJkIk4TOnmgSY1JV2f
d2yFx6KjIzAhMA4GA1UdDwEB/wQEAwIFoDAPBgNVHRMBAf8EBTADAgEDMAoGCCqG
SM49BAMCA0gAMEUCIQCg8sCKnjzbapzc/GxthI2UMAksrQKTJN0SJChWmERzRgIg
FAwDkLsebTf0eWFh2+CgbL4u1J6Rry46bQRCqvs/X48=
-----END CERTIFICATE-----
