Certificate:
    Data:
        Version: 3 (0x2)
        Serial Number: 7 (0x7)
        Signature Algorithm: ecdsa-with-SHA256
        Issuer: CN=Regione Toscana, C=IT, ST=Italia, O=E-Voting system, OU=E-Voting system authority/emailAddress=Toscana@evoting.it
        Validity
            Not Before: Aug 26 15:19:10 2022 GMT
            Not After : Aug 26 15:19:10 2023 GMT
        Subject: CN=Evelyn, C=IT, ST=Italia, O=Regione Toscana
        Subject Public Key Info:
            Public Key Algorithm: id-ecPublicKey
                Public-Key: (256 bit)
                pub:
                    04:90:5e:58:8d:6b:fe:7a:86:b8:7f:7d:cf:8d:de:
                    c0:5f:db:d0:3f:b5:c1:0b:be:6f:1e:b4:27:5d:b4:
                    1c:67:7e:a8:d6:e5:13:96:8e:c9:47:61:2d:9d:b1:
                    ef:96:f7:94:0f:d1:01:99:2b:93:af:64:de:d7:55:
                    d8:63:57:42:84
                ASN1 OID: secp256k1
        X509v3 extensions:
            X509v3 Key Usage: critical
                Digital Signature, Key Encipherment
            X509v3 Basic Constraints: critical
                CA:FALSE, pathlen:3
    Signature Algorithm: ecdsa-with-SHA256
         30:45:02:21:00:9f:bb:1c:6c:09:f9:e7:8e:72:6f:a1:45:26:
         d7:d2:d3:2c:09:4f:cb:60:98:3c:12:f7:da:fe:71:aa:04:1f:
         62:02:20:6b:43:56:f2:4f:e5:ab:26:32:69:2a:64:e1:b6:64:
         cf:3c:b3:ab:12:3a:28:10:be:86:5a:f5:cb:cc:a7:1a:e1
-----BEGIN CERTIFICATE-----
MIIB8jCCAZigAwIBAgIBBzAKBggqhkjOPQQDAjCBmTEYMBYGA1UEAwwPUmVnaW9u
ZSBUb3NjYW5hMQswCQYDVQQGEwJJVDEPMA0GA1UECAwGSXRhbGlhMRgwFgYDVQQK
DA9FLVZvdGluZyBzeXN0ZW0xIjAgBgNVBAsMGUUtVm90aW5nIHN5c3RlbSBhdXRo
b3JpdHkxITAfBgkqhkiG9w0BCQEWElRvc2NhbmFAZXZvdGluZy5pdDAeFw0yMjA4
MjYxNTE5MTBaFw0yMzA4MjYxNTE5MTBaMEkxDzANBgNVBAMMBkV2ZWx5bjELMAkG
A1UEBhMCSVQxDzANBgNVBAgMBkl0YWxpYTEYMBYGA1UECgwPUmVnaW9uZSBUb3Nj
YW5hMFYwEAYHKoZIzj0CAQYFK4EEAAoDQgAEkF5YjWv+eoa4f33Pjd7AX9vQP7XB
C75vHrQnXbQcZ36o1uUTlo7JR2EtnbHvlveUD9EBmSuTr2Te11XYY1dChKMjMCEw
DgYDVR0PAQH/BAQDAgWgMA8GA1UdEwEB/wQFMAMCAQMwCgYIKoZIzj0EAwIDSAAw
RQIhAJ+7HGwJ+eeOcm+hRSbX0tMsCU/LYJg8Evfa/nGqBB9iAiBrQ1byT+WrJjJp
KmThtmTPPLOrEjooEL6GWvXLzKca4Q==
-----END CERTIFICATE-----
