Certificate:
    Data:
        Version: 3 (0x2)
        Serial Number: 15 (0xf)
        Signature Algorithm: ecdsa-with-SHA256
        Issuer: CN=Regione Liguria, C=IT, ST=Italia, O=E-Voting system, OU=E-Voting system authority/emailAddress=Liguria@evoting.it
        Validity
            Not Before: Aug  3 13:26:18 2022 GMT
            Not After : Aug  3 13:26:18 2023 GMT
        Subject: CN=Evelyn, C=IT, ST=Italia, O=Regione Liguria
        Subject Public Key Info:
            Public Key Algorithm: id-ecPublicKey
                Public-Key: (256 bit)
                pub:
                    04:68:f6:3e:ed:86:6c:bb:c3:64:fd:13:df:6c:aa:
                    52:0a:4b:63:a3:c9:dd:de:cf:60:fc:1d:08:d5:52:
                    26:4a:f0:85:b5:a9:70:5d:65:38:be:48:e0:50:f7:
                    da:5c:43:77:d1:d5:5c:d0:60:0c:d7:7d:38:68:cd:
                    3f:29:b4:c1:14
                ASN1 OID: prime256v1
                NIST CURVE: P-256
        X509v3 extensions:
            X509v3 Key Usage: critical
                Digital Signature, Key Encipherment
            X509v3 Basic Constraints: critical
                CA:FALSE, pathlen:3
    Signature Algorithm: ecdsa-with-SHA256
         30:44:02:20:2a:12:55:c4:9a:4d:dd:ee:ea:ed:67:64:44:f3:
         dc:af:a8:b6:54:b1:d9:1b:9f:9f:e0:1b:be:36:a9:93:af:f3:
         02:20:47:4f:78:f6:8c:07:98:92:59:e6:5e:9e:06:15:ea:80:
         49:6b:5b:1a:d3:34:76:8a:29:de:79:f1:ec:5f:ec:bd
-----BEGIN CERTIFICATE-----
MIIB9DCCAZugAwIBAgIBDzAKBggqhkjOPQQDAjCBmTEYMBYGA1UEAwwPUmVnaW9u
ZSBMaWd1cmlhMQswCQYDVQQGEwJJVDEPMA0GA1UECAwGSXRhbGlhMRgwFgYDVQQK
DA9FLVZvdGluZyBzeXN0ZW0xIjAgBgNVBAsMGUUtVm90aW5nIHN5c3RlbSBhdXRo
b3JpdHkxITAfBgkqhkiG9w0BCQEWEkxpZ3VyaWFAZXZvdGluZy5pdDAeFw0yMjA4
MDMxMzI2MThaFw0yMzA4MDMxMzI2MThaMEkxDzANBgNVBAMMBkV2ZWx5bjELMAkG
A1UEBhMCSVQxDzANBgNVBAgMBkl0YWxpYTEYMBYGA1UECgwPUmVnaW9uZSBMaWd1
cmlhMFkwEwYHKoZIzj0CAQYIKoZIzj0DAQcDQgAEaPY+7YZsu8Nk/RPfbKpSCktj
o8nd3s9g/B0I1VImSvCFtalwXWU4vkjgUPfaXEN30dVc0GAM1304aM0/KbTBFKMj
MCEwDgYDVR0PAQH/BAQDAgWgMA8GA1UdEwEB/wQFMAMCAQMwCgYIKoZIzj0EAwID
RwAwRAIgKhJVxJpN3e7q7WdkRPPcr6i2VLHZG5+f4Bu+NqmTr/MCIEdPePaMB5iS
WeZengYV6oBJa1sa0zR2iineefHsX+y9
-----END CERTIFICATE-----
