Certificate:
    Data:
        Version: 3 (0x2)
        Serial Number: 36 (0x24)
        Signature Algorithm: ecdsa-with-SHA256
        Issuer: CN=Regione Emilia_Romagna, C=IT, ST=Italia, O=E-Voting system, OU=E-Voting system authority/emailAddress=Emilia_Romagna@evoting.it
        Validity
            Not Before: Aug 26 15:20:46 2022 GMT
            Not After : Aug 26 15:20:46 2023 GMT
        Subject: CN=Everett, C=IT, ST=Italia, O=Regione Emilia_Romagna
        Subject Public Key Info:
            Public Key Algorithm: id-ecPublicKey
                Public-Key: (256 bit)
                pub:
                    04:74:41:54:2b:7c:3d:3a:c4:07:be:22:9d:1d:7b:
                    b0:66:55:bc:bf:cc:72:bc:53:48:f0:42:b7:37:4d:
                    a5:90:61:9a:d9:9f:e4:9d:34:f5:8b:d1:03:2f:be:
                    c4:1e:a5:cf:15:17:5e:04:d4:83:08:95:d6:ff:44:
                    2a:02:34:30:31
                ASN1 OID: secp256k1
        X509v3 extensions:
            X509v3 Key Usage: critical
                Digital Signature, Key Encipherment
            X509v3 Basic Constraints: critical
                CA:FALSE, pathlen:3
    Signature Algorithm: ecdsa-with-SHA256
         30:45:02:21:00:d6:87:45:61:2c:62:20:7b:b5:c7:b9:4e:03:
         76:46:23:31:3f:17:a4:e8:aa:db:eb:c7:58:05:74:92:e4:2d:
         f1:02:20:76:d7:57:70:25:55:3e:0c:c4:44:38:11:88:67:f3:
         72:ea:09:e7:98:04:75:c3:08:cd:d4:66:f8:d1:1d:3a:44
-----BEGIN CERTIFICATE-----
MIICCDCCAa6gAwIBAgIBJDAKBggqhkjOPQQDAjCBpzEfMB0GA1UEAwwWUmVnaW9u
ZSBFbWlsaWFfUm9tYWduYTELMAkGA1UEBhMCSVQxDzANBgNVBAgMBkl0YWxpYTEY
MBYGA1UECgwPRS1Wb3Rpbmcgc3lzdGVtMSIwIAYDVQQLDBlFLVZvdGluZyBzeXN0
ZW0gYXV0aG9yaXR5MSgwJgYJKoZIhvcNAQkBFhlFbWlsaWFfUm9tYWduYUBldm90
aW5nLml0MB4XDTIyMDgyNjE1MjA0NloXDTIzMDgyNjE1MjA0NlowUTEQMA4GA1UE
AwwHRXZlcmV0dDELMAkGA1UEBhMCSVQxDzANBgNVBAgMBkl0YWxpYTEfMB0GA1UE
CgwWUmVnaW9uZSBFbWlsaWFfUm9tYWduYTBWMBAGByqGSM49AgEGBSuBBAAKA0IA
BHRBVCt8PTrEB74inR17sGZVvL/McrxTSPBCtzdNpZBhmtmf5J009YvRAy++xB6l
zxUXXgTUgwiV1v9EKgI0MDGjIzAhMA4GA1UdDwEB/wQEAwIFoDAPBgNVHRMBAf8E
BTADAgEDMAoGCCqGSM49BAMCA0gAMEUCIQDWh0VhLGIge7XHuU4DdkYjMT8XpOiq
2+vHWAV0kuQt8QIgdtdXcCVVPgzERDgRiGfzcuoJ55gEdcMIzdRm+NEdOkQ=
-----END CERTIFICATE-----
