Certificate:
    Data:
        Version: 3 (0x2)
        Serial Number: 33 (0x21)
        Signature Algorithm: ecdsa-with-SHA256
        Issuer: CN=Regione Lazio, C=IT, ST=Italia, O=E-Voting system, OU=E-Voting system authority/emailAddress=Lazio@evoting.it
        Validity
            Not Before: Aug  3 13:27:29 2022 GMT
            Not After : Aug  3 13:27:29 2023 GMT
        Subject: CN=Fallon, C=IT, ST=Italia, O=Regione Lazio
        Subject Public Key Info:
            Public Key Algorithm: id-ecPublicKey
                Public-Key: (256 bit)
                pub:
                    04:c2:03:dd:3f:0e:9b:c6:e9:a1:4b:e3:05:5b:be:
                    b7:90:67:d6:cd:84:2b:61:59:4a:4b:8f:dc:f0:53:
                    f5:6f:a2:6c:27:df:20:ac:e8:d0:d5:ff:5f:e3:bf:
                    ef:52:b0:14:84:fa:9a:50:59:7d:b5:ac:4a:27:9f:
                    7a:ae:b9:15:0a
                ASN1 OID: prime256v1
                NIST CURVE: P-256
        X509v3 extensions:
            X509v3 Key Usage: critical
                Digital Signature, Key Encipherment
            X509v3 Basic Constraints: critical
                CA:FALSE, pathlen:3
    Signature Algorithm: ecdsa-with-SHA256
         30:46:02:21:00:d4:e8:2f:b0:22:4a:36:f7:fd:63:98:ab:56:
         fa:de:7a:0d:41:e6:30:89:4b:6c:23:ac:2e:a1:c5:21:53:80:
         4e:02:21:00:cd:42:50:00:e9:d3:db:4b:92:fe:36:93:60:87:
         d2:88:9c:bb:17:28:42:6b:0b:eb:6e:99:7b:18:dd:59:88:8b
-----BEGIN CERTIFICATE-----
MIIB8DCCAZWgAwIBAgIBITAKBggqhkjOPQQDAjCBlTEWMBQGA1UEAwwNUmVnaW9u
ZSBMYXppbzELMAkGA1UEBhMCSVQxDzANBgNVBAgMBkl0YWxpYTEYMBYGA1UECgwP
RS1Wb3Rpbmcgc3lzdGVtMSIwIAYDVQQLDBlFLVZvdGluZyBzeXN0ZW0gYXV0aG9y
aXR5MR8wHQYJKoZIhvcNAQkBFhBMYXppb0Bldm90aW5nLml0MB4XDTIyMDgwMzEz
MjcyOVoXDTIzMDgwMzEzMjcyOVowRzEPMA0GA1UEAwwGRmFsbG9uMQswCQYDVQQG
EwJJVDEPMA0GA1UECAwGSXRhbGlhMRYwFAYDVQQKDA1SZWdpb25lIExhemlvMFkw
EwYHKoZIzj0CAQYIKoZIzj0DAQcDQgAEwgPdPw6bxumhS+MFW763kGfWzYQrYVlK
S4/c8FP1b6JsJ98grOjQ1f9f47/vUrAUhPqaUFl9taxKJ596rrkVCqMjMCEwDgYD
VR0PAQH/BAQDAgWgMA8GA1UdEwEB/wQFMAMCAQMwCgYIKoZIzj0EAwIDSQAwRgIh
ANToL7AiSjb3/WOYq1b63noNQeYwiUtsI6wuocUhU4BOAiEAzUJQAOnT20uS/jaT
YIfSiJy7FyhCawvrbpl7GN1ZiIs=
-----END CERTIFICATE-----
