Certificate:
    Data:
        Version: 3 (0x2)
        Serial Number: 16 (0x10)
        Signature Algorithm: ecdsa-with-SHA256
        Issuer: CN=Regione Friuli_Venezia_Giulia, C=IT, ST=Italia, O=E-Voting system, OU=E-Voting system authority/emailAddress=Friuli_Venezia_Giulia@evoting.it
        Validity
            Not Before: Aug  3 13:26:34 2022 GMT
            Not After : Aug  3 13:26:34 2023 GMT
        Subject: CN=Fanny, C=IT, ST=Italia, O=Regione Friuli_Venezia_Giulia
        Subject Public Key Info:
            Public Key Algorithm: id-ecPublicKey
                Public-Key: (256 bit)
                pub:
                    04:ff:de:de:0b:97:37:b3:1a:6d:09:f3:cf:e5:ba:
                    86:e1:5b:60:a5:e8:82:57:ab:16:2a:d7:2f:fb:1a:
                    7d:c0:5f:de:0b:ba:77:c9:0a:a2:11:e3:f0:c3:6d:
                    22:9b:86:8e:c4:8e:1f:0f:b3:ff:f5:87:5e:0d:49:
                    43:cc:e1:b1:e6
                ASN1 OID: prime256v1
                NIST CURVE: P-256
        X509v3 extensions:
            X509v3 Key Usage: critical
                Digital Signature, Key Encipherment
            X509v3 Basic Constraints: critical
                CA:FALSE, pathlen:3
    Signature Algorithm: ecdsa-with-SHA256
         30:46:02:21:00:e7:e5:5a:e6:6d:de:03:9f:0c:cf:92:d3:94:
         85:ca:1a:ca:cc:ac:47:c2:1a:71:9b:aa:b1:24:80:56:1f:63:
         2a:02:21:00:fb:69:0d:72:66:49:51:0c:61:d1:48:b2:c8:85:
         45:a4:1b:53:ae:1a:25:57:c5:31:e6:e7:b6:57:27:62:42:b0
-----BEGIN CERTIFICATE-----
MIICHzCCAcSgAwIBAgIBEDAKBggqhkjOPQQDAjCBtTEmMCQGA1UEAwwdUmVnaW9u
ZSBGcml1bGlfVmVuZXppYV9HaXVsaWExCzAJBgNVBAYTAklUMQ8wDQYDVQQIDAZJ
dGFsaWExGDAWBgNVBAoMD0UtVm90aW5nIHN5c3RlbTEiMCAGA1UECwwZRS1Wb3Rp
bmcgc3lzdGVtIGF1dGhvcml0eTEvMC0GCSqGSIb3DQEJARYgRnJpdWxpX1ZlbmV6
aWFfR2l1bGlhQGV2b3RpbmcuaXQwHhcNMjIwODAzMTMyNjM0WhcNMjMwODAzMTMy
NjM0WjBWMQ4wDAYDVQQDDAVGYW5ueTELMAkGA1UEBhMCSVQxDzANBgNVBAgMBkl0
YWxpYTEmMCQGA1UECgwdUmVnaW9uZSBGcml1bGlfVmVuZXppYV9HaXVsaWEwWTAT
BgcqhkjOPQIBBggqhkjOPQMBBwNCAAT/3t4LlzezGm0J88/luobhW2Cl6IJXqxYq
1y/7Gn3AX94LunfJCqIR4/DDbSKbho7Ejh8Ps//1h14NSUPM4bHmoyMwITAOBgNV
HQ8BAf8EBAMCBaAwDwYDVR0TAQH/BAUwAwIBAzAKBggqhkjOPQQDAgNJADBGAiEA
5+Va5m3eA58Mz5LTlIXKGsrMrEfCGnGbqrEkgFYfYyoCIQD7aQ1yZklRDGHRSLLI
hUWkG1OuGiVXxTHm57ZXJ2JCsA==
-----END CERTIFICATE-----
