Certificate:
    Data:
        Version: 3 (0x2)
        Serial Number: 16 (0x10)
        Signature Algorithm: ecdsa-with-SHA256
        Issuer: CN=Regione Umbria, C=IT, ST=Italia, O=E-Voting system, OU=E-Voting system authority/emailAddress=Umbria@evoting.it
        Validity
            Not Before: Aug 26 15:19:21 2022 GMT
            Not After : Aug 26 15:19:21 2023 GMT
        Subject: CN=Fay, C=IT, ST=Italia, O=Regione Umbria
        Subject Public Key Info:
            Public Key Algorithm: id-ecPublicKey
                Public-Key: (256 bit)
                pub:
                    04:57:eb:28:90:58:9b:b1:73:18:a2:e2:91:6c:19:
                    79:bd:3a:5c:c2:e4:07:8e:9a:f5:47:77:5d:9a:98:
                    4a:85:55:af:fe:16:3f:f0:8a:24:81:28:e7:66:ca:
                    21:f3:e2:e8:f2:4d:7f:51:e0:95:6d:fc:0a:9f:17:
                    cf:ed:16:c0:68
                ASN1 OID: secp256k1
        X509v3 extensions:
            X509v3 Key Usage: critical
                Digital Signature, Key Encipherment
            X509v3 Basic Constraints: critical
                CA:FALSE, pathlen:3
    Signature Algorithm: ecdsa-with-SHA256
         30:46:02:21:00:b3:c7:d7:30:7b:97:2d:8a:3f:73:3c:8f:14:
         15:46:60:7d:6a:91:4b:7e:35:3a:bc:50:0f:0b:1e:87:e6:be:
         b7:02:21:00:a1:ee:e4:c9:87:6c:42:94:5d:38:7d:ca:9f:80:
         97:ac:4f:b9:47:ff:b2:7f:d5:09:6f:e2:8d:c5:9e:73:14:59
-----BEGIN CERTIFICATE-----
MIIB7TCCAZKgAwIBAgIBEDAKBggqhkjOPQQDAjCBlzEXMBUGA1UEAwwOUmVnaW9u
ZSBVbWJyaWExCzAJBgNVBAYTAklUMQ8wDQYDVQQIDAZJdGFsaWExGDAWBgNVBAoM
D0UtVm90aW5nIHN5c3RlbTEiMCAGA1UECwwZRS1Wb3Rpbmcgc3lzdGVtIGF1dGhv
cml0eTEgMB4GCSqGSIb3DQEJARYRVW1icmlhQGV2b3RpbmcuaXQwHhcNMjIwODI2
MTUxOTIxWhcNMjMwODI2MTUxOTIxWjBFMQwwCgYDVQQDDANGYXkxCzAJBgNVBAYT
AklUMQ8wDQYDVQQIDAZJdGFsaWExFzAVBgNVBAoMDlJlZ2lvbmUgVW1icmlhMFYw
EAYHKoZIzj0CAQYFK4EEAAoDQgAEV+sokFibsXMYouKRbBl5vTpcwuQHjpr1R3dd
mphKhVWv/hY/8IokgSjnZsoh8+Lo8k1/UeCVbfwKnxfP7RbAaKMjMCEwDgYDVR0P
AQH/BAQDAgWgMA8GA1UdEwEB/wQFMAMCAQMwCgYIKoZIzj0EAwIDSQAwRgIhALPH
1zB7ly2KP3M8jxQVRmB9apFLfjU6vFAPCx6H5r63AiEAoe7kyYdsQpRdOH3Kn4CX
rE+5R/+yf9UJb+KNxZ5zFFk=
-----END CERTIFICATE-----
