Certificate:
    Data:
        Version: 3 (0x2)
        Serial Number: 48 (0x30)
        Signature Algorithm: ecdsa-with-SHA256
        Issuer: CN=Regione Puglia, C=IT, ST=Italia, O=E-Voting system, OU=E-Voting system authority/emailAddress=Puglia@evoting.it
        Validity
            Not Before: Aug 26 15:21:18 2022 GMT
            Not After : Aug 26 15:21:18 2023 GMT
        Subject: CN=Faye, C=IT, ST=Italia, O=Regione Puglia
        Subject Public Key Info:
            Public Key Algorithm: id-ecPublicKey
                Public-Key: (256 bit)
                pub:
                    04:6c:42:c2:57:00:bb:dd:23:61:5b:9c:03:9a:bb:
                    8e:dd:c1:c5:ec:51:62:51:2e:a5:56:88:b7:7f:51:
                    4b:5d:27:d2:be:cf:d3:87:70:a6:93:13:11:ba:5a:
                    b3:52:88:ac:9b:1e:88:f9:a2:65:be:9f:41:59:c5:
                    5d:04:fb:46:dc
                ASN1 OID: secp256k1
        X509v3 extensions:
            X509v3 Key Usage: critical
                Digital Signature, Key Encipherment
            X509v3 Basic Constraints: critical
                CA:FALSE, pathlen:3
    Signature Algorithm: ecdsa-with-SHA256
         30:45:02:20:51:c8:a5:9e:c6:ab:76:e9:9d:62:c3:cb:99:0c:
         9a:00:45:f2:d7:d6:07:af:a6:41:bc:df:b2:a9:82:d8:c6:96:
         02:21:00:85:99:e8:49:37:af:e2:e7:ee:ea:64:f9:27:3f:2a:
         3e:f4:2d:41:ce:dd:42:1b:5b:5a:f8:5d:77:7a:74:ee:f1
-----BEGIN CERTIFICATE-----
MIIB7TCCAZOgAwIBAgIBMDAKBggqhkjOPQQDAjCBlzEXMBUGA1UEAwwOUmVnaW9u
ZSBQdWdsaWExCzAJBgNVBAYTAklUMQ8wDQYDVQQIDAZJdGFsaWExGDAWBgNVBAoM
D0UtVm90aW5nIHN5c3RlbTEiMCAGA1UECwwZRS1Wb3Rpbmcgc3lzdGVtIGF1dGhv
cml0eTEgMB4GCSqGSIb3DQEJARYRUHVnbGlhQGV2b3RpbmcuaXQwHhcNMjIwODI2
MTUyMTE4WhcNMjMwODI2MTUyMTE4WjBGMQ0wCwYDVQQDDARGYXllMQswCQYDVQQG
EwJJVDEPMA0GA1UECAwGSXRhbGlhMRcwFQYDVQQKDA5SZWdpb25lIFB1Z2xpYTBW
MBAGByqGSM49AgEGBSuBBAAKA0IABGxCwlcAu90jYVucA5q7jt3BxexRYlEupVaI
t39RS10n0r7P04dwppMTEbpas1KIrJseiPmiZb6fQVnFXQT7RtyjIzAhMA4GA1Ud
DwEB/wQEAwIFoDAPBgNVHRMBAf8EBTADAgEDMAoGCCqGSM49BAMCA0gAMEUCIFHI
pZ7Gq3bpnWLDy5kMmgBF8tfWB6+mQbzfsqmC2MaWAiEAhZnoSTev4ufu6mT5Jz8q
PvQtQc7dQhtbWvhdd3p07vE=
-----END CERTIFICATE-----
