Certificate:
    Data:
        Version: 3 (0x2)
        Serial Number: 2 (0x2)
        Signature Algorithm: ecdsa-with-SHA256
        Issuer: CN=Regione Piemonte, C=IT, ST=Italia, O=E-Voting system, OU=E-Voting system authority/emailAddress=Piemonte@evoting.it
        Validity
            Not Before: Aug  3 13:25:43 2022 GMT
            Not After : Aug  3 13:25:43 2023 GMT
        Subject: CN=Faye, C=IT, ST=Italia, O=Regione Piemonte
        Subject Public Key Info:
            Public Key Algorithm: id-ecPublicKey
                Public-Key: (256 bit)
                pub:
                    04:ba:f5:4b:a6:66:15:28:25:c2:c4:26:7b:94:66:
                    09:1b:eb:af:70:31:4e:fe:a9:bd:71:65:54:15:db:
                    de:12:34:9f:64:12:40:fe:10:9a:ef:26:d5:ba:1c:
                    00:c3:f0:1d:0b:ab:ba:3a:d5:69:85:4f:fb:e7:5c:
                    b3:01:d6:4b:e6
                ASN1 OID: prime256v1
                NIST CURVE: P-256
        X509v3 extensions:
            X509v3 Key Usage: critical
                Digital Signature, Key Encipherment
            X509v3 Basic Constraints: critical
                CA:FALSE, pathlen:3
    Signature Algorithm: ecdsa-with-SHA256
         30:45:02:21:00:f6:d5:15:d3:e7:e3:c2:11:87:3d:d8:bc:d2:
         79:61:f0:d5:09:d8:5a:d0:84:5f:59:4c:fb:ad:62:10:a2:98:
         ae:02:20:24:4c:1e:8c:66:c4:19:65:40:ca:aa:1e:df:7e:c5:
         a1:2f:1b:3e:4c:23:67:23:16:52:82:f4:ba:d2:a0:dd:47
-----BEGIN CERTIFICATE-----
MIIB9jCCAZygAwIBAgIBAjAKBggqhkjOPQQDAjCBmzEZMBcGA1UEAwwQUmVnaW9u
ZSBQaWVtb250ZTELMAkGA1UEBhMCSVQxDzANBgNVBAgMBkl0YWxpYTEYMBYGA1UE
CgwPRS1Wb3Rpbmcgc3lzdGVtMSIwIAYDVQQLDBlFLVZvdGluZyBzeXN0ZW0gYXV0
aG9yaXR5MSIwIAYJKoZIhvcNAQkBFhNQaWVtb250ZUBldm90aW5nLml0MB4XDTIy
MDgwMzEzMjU0M1oXDTIzMDgwMzEzMjU0M1owSDENMAsGA1UEAwwERmF5ZTELMAkG
A1UEBhMCSVQxDzANBgNVBAgMBkl0YWxpYTEZMBcGA1UECgwQUmVnaW9uZSBQaWVt
b250ZTBZMBMGByqGSM49AgEGCCqGSM49AwEHA0IABLr1S6ZmFSglwsQme5RmCRvr
r3AxTv6pvXFlVBXb3hI0n2QSQP4Qmu8m1bocAMPwHQurujrVaYVP++dcswHWS+aj
IzAhMA4GA1UdDwEB/wQEAwIFoDAPBgNVHRMBAf8EBTADAgEDMAoGCCqGSM49BAMC
A0gAMEUCIQD21RXT5+PCEYc92LzSeWHw1QnYWtCEX1lM+61iEKKYrgIgJEwejGbE
GWVAyqoe337FoS8bPkwjZyMWUoL0utKg3Uc=
-----END CERTIFICATE-----
