Certificate:
    Data:
        Version: 3 (0x2)
        Serial Number: 46 (0x2e)
        Signature Algorithm: ecdsa-with-SHA256
        Issuer: CN=Regione Trentino_Alto_Adige, C=IT, ST=Italia, O=E-Voting system, OU=E-Voting system authority/emailAddress=Trentino_Alto_Adige@evoting.it
        Validity
            Not Before: Aug 26 15:21:20 2022 GMT
            Not After : Aug 26 15:21:20 2023 GMT
        Subject: CN=Felicia, C=IT, ST=Italia, O=Regione Trentino_Alto_Adige
        Subject Public Key Info:
            Public Key Algorithm: id-ecPublicKey
                Public-Key: (256 bit)
                pub:
                    04:3f:ca:f3:3e:a5:13:9a:91:78:18:c7:bc:85:f2:
                    c5:ca:75:40:80:ef:11:20:4e:d6:5c:3e:01:25:89:
                    76:72:95:96:cb:c9:17:cc:b9:48:51:5b:43:a7:ab:
                    b4:f7:9c:15:c6:3f:fe:48:8e:36:28:ee:07:b0:4d:
                    e3:ad:8d:7e:59
                ASN1 OID: secp256k1
        X509v3 extensions:
            X509v3 Key Usage: critical
                Digital Signature, Key Encipherment
            X509v3 Basic Constraints: critical
                CA:FALSE, pathlen:3
    Signature Algorithm: ecdsa-with-SHA256
         30:46:02:21:00:86:6a:f7:71:05:5d:27:64:7c:4e:80:07:66:
         57:c5:a2:f8:e0:62:17:57:69:2c:7a:8f:e5:93:1c:05:c5:6f:
         d8:02:21:00:a5:c1:50:ea:77:df:aa:e1:8d:cb:8b:c4:6e:9e:
         65:0f:4b:d4:9e:86:92:2e:2c:2f:9d:8c:c8:59:40:78:31:b6
-----BEGIN CERTIFICATE-----
MIICGDCCAb2gAwIBAgIBLjAKBggqhkjOPQQDAjCBsTEkMCIGA1UEAwwbUmVnaW9u
ZSBUcmVudGlub19BbHRvX0FkaWdlMQswCQYDVQQGEwJJVDEPMA0GA1UECAwGSXRh
bGlhMRgwFgYDVQQKDA9FLVZvdGluZyBzeXN0ZW0xIjAgBgNVBAsMGUUtVm90aW5n
IHN5c3RlbSBhdXRob3JpdHkxLTArBgkqhkiG9w0BCQEWHlRyZW50aW5vX0FsdG9f
QWRpZ2VAZXZvdGluZy5pdDAeFw0yMjA4MjYxNTIxMjBaFw0yMzA4MjYxNTIxMjBa
MFYxEDAOBgNVBAMMB0ZlbGljaWExCzAJBgNVBAYTAklUMQ8wDQYDVQQIDAZJdGFs
aWExJDAiBgNVBAoMG1JlZ2lvbmUgVHJlbnRpbm9fQWx0b19BZGlnZTBWMBAGByqG
SM49AgEGBSuBBAAKA0IABD/K8z6lE5qReBjHvIXyxcp1QIDvESBO1lw+ASWJdnKV
lsvJF8y5SFFbQ6ertPecFcY//kiONijuB7BN462NflmjIzAhMA4GA1UdDwEB/wQE
AwIFoDAPBgNVHRMBAf8EBTADAgEDMAoGCCqGSM49BAMCA0kAMEYCIQCGavdxBV0n
ZHxOgAdmV8Wi+OBiF1dpLHqP5ZMcBcVv2AIhAKXBUOp336rhjcuLxG6eZQ9L1J6G
ki4sL52MyFlAeDG2
-----END CERTIFICATE-----
