Certificate:
    Data:
        Version: 3 (0x2)
        Serial Number: 42 (0x2a)
        Signature Algorithm: ecdsa-with-SHA256
        Issuer: CN=Regione Valle_d_Aosta, C=IT, ST=Italia, O=E-Voting system, OU=E-Voting system authority/emailAddress=Valle_d_Aosta@evoting.it
        Validity
            Not Before: Aug  3 13:27:54 2022 GMT
            Not After : Aug  3 13:27:54 2023 GMT
        Subject: CN=Felisha, C=IT, ST=Italia, O=Regione Valle_d_Aosta
        Subject Public Key Info:
            Public Key Algorithm: id-ecPublicKey
                Public-Key: (256 bit)
                pub:
                    04:7e:67:1e:ab:e1:09:c6:cb:9e:29:82:0f:cd:1a:
                    17:e0:d4:3a:c8:60:4a:86:4e:50:b6:c9:b3:78:aa:
                    ac:85:34:22:1a:7e:65:02:a6:2f:de:45:ba:89:02:
                    f5:db:45:1c:a2:c5:1a:c0:41:e8:9c:65:7f:ef:67:
                    79:96:bf:ea:35
                ASN1 OID: prime256v1
                NIST CURVE: P-256
        X509v3 extensions:
            X509v3 Key Usage: critical
                Digital Signature, Key Encipherment
            X509v3 Basic Constraints: critical
                CA:FALSE, pathlen:3
    Signature Algorithm: ecdsa-with-SHA256
         30:45:02:21:00:b2:ce:22:2f:ae:a9:ed:43:7b:f5:7c:fb:9d:
         47:d0:1d:81:15:55:04:17:23:fb:34:c5:9a:09:a0:05:76:58:
         b2:02:20:2e:fe:a5:b8:85:27:6a:fe:7f:63:0c:22:ec:6d:60:
         7b:47:a7:6e:1f:e9:0e:59:9f:b6:ba:9c:49:8f:f3:c4:72
-----BEGIN CERTIFICATE-----
MIICCDCCAa6gAwIBAgIBKjAKBggqhkjOPQQDAjCBpTEeMBwGA1UEAwwVUmVnaW9u
ZSBWYWxsZV9kX0Fvc3RhMQswCQYDVQQGEwJJVDEPMA0GA1UECAwGSXRhbGlhMRgw
FgYDVQQKDA9FLVZvdGluZyBzeXN0ZW0xIjAgBgNVBAsMGUUtVm90aW5nIHN5c3Rl
bSBhdXRob3JpdHkxJzAlBgkqhkiG9w0BCQEWGFZhbGxlX2RfQW9zdGFAZXZvdGlu
Zy5pdDAeFw0yMjA4MDMxMzI3NTRaFw0yMzA4MDMxMzI3NTRaMFAxEDAOBgNVBAMM
B0ZlbGlzaGExCzAJBgNVBAYTAklUMQ8wDQYDVQQIDAZJdGFsaWExHjAcBgNVBAoM
FVJlZ2lvbmUgVmFsbGVfZF9Bb3N0YTBZMBMGByqGSM49AgEGCCqGSM49AwEHA0IA
BH5nHqvhCcbLnimCD80aF+DUOshgSoZOULbJs3iqrIU0Ihp+ZQKmL95FuokC9dtF
HKLFGsBB6Jxlf+9neZa/6jWjIzAhMA4GA1UdDwEB/wQEAwIFoDAPBgNVHRMBAf8E
BTADAgEDMAoGCCqGSM49BAMCA0gAMEUCIQCyziIvrqntQ3v1fPudR9AdgRVVBBcj
+zTFmgmgBXZYsgIgLv6luIUnav5/Ywwi7G1ge0enbh/pDlmftrqcSY/zxHI=
-----END CERTIFICATE-----
