Certificate:
    Data:
        Version: 3 (0x2)
        Serial Number: 48 (0x30)
        Signature Algorithm: ecdsa-with-SHA256
        Issuer: CN=Regione Piemonte, C=IT, ST=Italia, O=E-Voting system, OU=E-Voting system authority/emailAddress=Piemonte@evoting.it
        Validity
            Not Before: Aug  3 13:27:29 2022 GMT
            Not After : Aug  3 13:27:29 2023 GMT
        Subject: CN=Felicia, C=IT, ST=Italia, O=Regione Piemonte
        Subject Public Key Info:
            Public Key Algorithm: id-ecPublicKey
                Public-Key: (256 bit)
                pub:
                    04:eb:ec:36:b1:f2:fd:38:c9:13:bb:f1:91:85:26:
                    b1:66:57:30:92:a2:4e:85:8d:05:83:6e:8c:00:bf:
                    95:c9:2b:68:84:76:2a:0e:40:2f:5c:0b:40:7d:41:
                    24:cc:60:50:94:c4:b4:85:23:26:ab:28:c4:a5:92:
                    ec:6a:d7:f6:63
                ASN1 OID: prime256v1
                NIST CURVE: P-256
        X509v3 extensions:
            X509v3 Key Usage: critical
                Digital Signature, Key Encipherment
            X509v3 Basic Constraints: critical
                CA:FALSE, pathlen:3
    Signature Algorithm: ecdsa-with-SHA256
         30:45:02:20:51:97:f8:c6:6b:94:c9:12:bf:13:05:ef:92:4d:
         05:33:ac:39:6b:f4:e2:5e:3d:81:9f:1d:b6:80:07:3f:12:fc:
         02:21:00:9c:f5:c0:65:43:b4:be:76:69:f2:f3:09:df:55:91:
         57:93:2c:b2:02:28:ce:67:a4:6e:ad:58:ec:7e:3c:18:14
-----BEGIN CERTIFICATE-----
MIIB+TCCAZ+gAwIBAgIBMDAKBggqhkjOPQQDAjCBmzEZMBcGA1UEAwwQUmVnaW9u
ZSBQaWVtb250ZTELMAkGA1UEBhMCSVQxDzANBgNVBAgMBkl0YWxpYTEYMBYGA1UE
CgwPRS1Wb3Rpbmcgc3lzdGVtMSIwIAYDVQQLDBlFLVZvdGluZyBzeXN0ZW0gYXV0
aG9yaXR5MSIwIAYJKoZIhvcNAQkBFhNQaWVtb250ZUBldm90aW5nLml0MB4XDTIy
MDgwMzEzMjcyOVoXDTIzMDgwMzEzMjcyOVowSzEQMA4GA1UEAwwHRmVsaWNpYTEL
MAkGA1UEBhMCSVQxDzANBgNVBAgMBkl0YWxpYTEZMBcGA1UECgwQUmVnaW9uZSBQ
aWVtb250ZTBZMBMGByqGSM49AgEGCCqGSM49AwEHA0IABOvsNrHy/TjJE7vxkYUm
sWZXMJKiToWNBYNujAC/lckraIR2Kg5AL1wLQH1BJMxgUJTEtIUjJqsoxKWS7GrX
9mOjIzAhMA4GA1UdDwEB/wQEAwIFoDAPBgNVHRMBAf8EBTADAgEDMAoGCCqGSM49
BAMCA0gAMEUCIFGX+MZrlMkSvxMF75JNBTOsOWv04l49gZ8dtoAHPxL8AiEAnPXA
ZUO0vnZp8vMJ31WRV5MssgIozmekbq1Y7H48GBQ=
-----END CERTIFICATE-----
