Certificate:
    Data:
        Version: 3 (0x2)
        Serial Number: 24 (0x18)
        Signature Algorithm: ecdsa-with-SHA256
        Issuer: CN=Regione Abruzzo, C=IT, ST=Italia, O=E-Voting system, OU=E-Voting system authority/emailAddress=Abruzzo@evoting.it
        Validity
            Not Before: Aug  3 13:26:48 2022 GMT
            Not After : Aug  3 13:26:48 2023 GMT
        Subject: CN=Felipe, C=IT, ST=Italia, O=Regione Abruzzo
        Subject Public Key Info:
            Public Key Algorithm: id-ecPublicKey
                Public-Key: (256 bit)
                pub:
                    04:d8:16:91:3c:41:24:d5:75:6c:43:72:30:c5:f8:
                    b7:bb:13:a8:7a:c2:3b:91:3e:3b:b1:34:c7:32:28:
                    9b:29:92:d4:14:9f:99:77:40:ab:ca:c4:d8:85:be:
                    33:e9:b7:68:5b:e2:dd:93:16:6c:f1:8a:1a:3d:bf:
                    e2:62:a8:19:71
                ASN1 OID: prime256v1
                NIST CURVE: P-256
        X509v3 extensions:
            X509v3 Key Usage: critical
                Digital Signature, Key Encipherment
            X509v3 Basic Constraints: critical
                CA:FALSE, pathlen:3
    Signature Algorithm: ecdsa-with-SHA256
         30:44:02:20:27:84:76:f2:b8:3c:24:1f:3a:67:4d:4d:f3:c8:
         f4:0d:6f:58:3c:68:67:82:97:58:cc:d8:e9:58:51:26:3a:fb:
         02:20:30:bd:cd:84:73:d4:dc:a7:40:9c:c6:c5:7a:ad:dc:9f:
         a4:d5:cc:5f:77:65:62:a5:3a:aa:55:30:c5:45:11:bb
-----BEGIN CERTIFICATE-----
MIIB9DCCAZugAwIBAgIBGDAKBggqhkjOPQQDAjCBmTEYMBYGA1UEAwwPUmVnaW9u
ZSBBYnJ1enpvMQswCQYDVQQGEwJJVDEPMA0GA1UECAwGSXRhbGlhMRgwFgYDVQQK
DA9FLVZvdGluZyBzeXN0ZW0xIjAgBgNVBAsMGUUtVm90aW5nIHN5c3RlbSBhdXRo
b3JpdHkxITAfBgkqhkiG9w0BCQEWEkFicnV6em9AZXZvdGluZy5pdDAeFw0yMjA4
MDMxMzI2NDhaFw0yMzA4MDMxMzI2NDhaMEkxDzANBgNVBAMMBkZlbGlwZTELMAkG
A1UEBhMCSVQxDzANBgNVBAgMBkl0YWxpYTEYMBYGA1UECgwPUmVnaW9uZSBBYnJ1
enpvMFkwEwYHKoZIzj0CAQYIKoZIzj0DAQcDQgAE2BaRPEEk1XVsQ3Iwxfi3uxOo
esI7kT47sTTHMiibKZLUFJ+Zd0CrysTYhb4z6bdoW+LdkxZs8YoaPb/iYqgZcaMj
MCEwDgYDVR0PAQH/BAQDAgWgMA8GA1UdEwEB/wQFMAMCAQMwCgYIKoZIzj0EAwID
RwAwRAIgJ4R28rg8JB86Z01N88j0DW9YPGhngpdYzNjpWFEmOvsCIDC9zYRz1Nyn
QJzGxXqt3J+k1cxfd2VipTqqVTDFRRG7
-----END CERTIFICATE-----
