Certificate:
    Data:
        Version: 3 (0x2)
        Serial Number: 7 (0x7)
        Signature Algorithm: ecdsa-with-SHA256
        Issuer: CN=Regione Molise, C=IT, ST=Italia, O=E-Voting system, OU=E-Voting system authority/emailAddress=Molise@evoting.it
        Validity
            Not Before: Aug 26 15:19:12 2022 GMT
            Not After : Aug 26 15:19:12 2023 GMT
        Subject: CN=Filomena, C=IT, ST=Italia, O=Regione Molise
        Subject Public Key Info:
            Public Key Algorithm: id-ecPublicKey
                Public-Key: (256 bit)
                pub:
                    04:4f:4a:f3:07:be:de:cd:ed:05:1a:96:a0:10:e3:
                    f3:f4:84:d4:52:ec:e2:af:17:48:66:b4:f3:b0:cd:
                    0b:72:a7:b5:db:3c:36:7e:6d:46:9f:04:b0:a7:97:
                    85:42:82:fb:0b:75:f2:4a:2d:c4:ba:8f:34:f1:cf:
                    1d:08:8c:71:38
                ASN1 OID: secp256k1
        X509v3 extensions:
            X509v3 Key Usage: critical
                Digital Signature, Key Encipherment
            X509v3 Basic Constraints: critical
                CA:FALSE, pathlen:3
    Signature Algorithm: ecdsa-with-SHA256
         30:45:02:20:4b:8e:a2:0d:e2:33:2a:c5:07:3b:bb:99:98:bf:
         a0:7e:e9:88:f1:45:1b:7b:d5:4b:71:34:4f:e9:b1:12:85:5d:
         02:21:00:c0:ba:e5:37:a4:cd:40:fd:c4:09:58:21:dd:bd:28:
         79:ed:91:74:1e:be:c1:8f:a2:e4:8a:31:60:e6:b5:bb:50
-----BEGIN CERTIFICATE-----
MIIB8TCCAZegAwIBAgIBBzAKBggqhkjOPQQDAjCBlzEXMBUGA1UEAwwOUmVnaW9u
ZSBNb2xpc2UxCzAJBgNVBAYTAklUMQ8wDQYDVQQIDAZJdGFsaWExGDAWBgNVBAoM
D0UtVm90aW5nIHN5c3RlbTEiMCAGA1UECwwZRS1Wb3Rpbmcgc3lzdGVtIGF1dGhv
cml0eTEgMB4GCSqGSIb3DQEJARYRTW9saXNlQGV2b3RpbmcuaXQwHhcNMjIwODI2
MTUxOTEyWhcNMjMwODI2MTUxOTEyWjBKMREwDwYDVQQDDAhGaWxvbWVuYTELMAkG
A1UEBhMCSVQxDzANBgNVBAgMBkl0YWxpYTEXMBUGA1UECgwOUmVnaW9uZSBNb2xp
c2UwVjAQBgcqhkjOPQIBBgUrgQQACgNCAARPSvMHvt7N7QUalqAQ4/P0hNRS7OKv
F0hmtPOwzQtyp7XbPDZ+bUafBLCnl4VCgvsLdfJKLcS6jzTxzx0IjHE4oyMwITAO
BgNVHQ8BAf8EBAMCBaAwDwYDVR0TAQH/BAUwAwIBAzAKBggqhkjOPQQDAgNIADBF
AiBLjqIN4jMqxQc7u5mYv6B+6YjxRRt71UtxNE/psRKFXQIhAMC65TekzUD9xAlY
Id29KHntkXQevsGPouSKMWDmtbtQ
-----END CERTIFICATE-----
