Certificate:
    Data:
        Version: 3 (0x2)
        Serial Number: 45 (0x2d)
        Signature Algorithm: ecdsa-with-SHA256
        Issuer: CN=Regione Sardegna, C=IT, ST=Italia, O=E-Voting system, OU=E-Voting system authority/emailAddress=Sardegna@evoting.it
        Validity
            Not Before: Aug 26 15:21:32 2022 GMT
            Not After : Aug 26 15:21:32 2023 GMT
        Subject: CN=Florence, C=IT, ST=Italia, O=Regione Sardegna
        Subject Public Key Info:
            Public Key Algorithm: id-ecPublicKey
                Public-Key: (256 bit)
                pub:
                    04:12:52:87:af:6a:52:77:51:ea:94:fe:aa:f6:0d:
                    f9:fa:c0:aa:76:d2:63:f8:ac:59:a2:18:8f:1b:9d:
                    58:f6:e2:09:df:d6:72:10:54:61:36:be:44:d5:1f:
                    3d:78:7a:af:34:32:0d:1a:40:81:49:19:21:a6:ff:
                    ea:a0:f2:37:ef
                ASN1 OID: secp256k1
        X509v3 extensions:
            X509v3 Key Usage: critical
                Digital Signature, Key Encipherment
            X509v3 Basic Constraints: critical
                CA:FALSE, pathlen:3
    Signature Algorithm: ecdsa-with-SHA256
         30:46:02:21:00:bc:21:fc:e5:0f:8a:c2:94:40:97:ac:da:7b:
         ff:1d:e7:cc:6f:05:89:10:b0:ca:c3:ef:07:ff:5b:49:92:d7:
         4f:02:21:00:8b:04:39:ad:0b:ef:46:70:8f:2d:57:a2:49:43:
         5f:da:63:cd:34:55:1d:e3:a0:96:e7:46:4b:60:f6:32:fc:79
-----BEGIN CERTIFICATE-----
MIIB+DCCAZ2gAwIBAgIBLTAKBggqhkjOPQQDAjCBmzEZMBcGA1UEAwwQUmVnaW9u
ZSBTYXJkZWduYTELMAkGA1UEBhMCSVQxDzANBgNVBAgMBkl0YWxpYTEYMBYGA1UE
CgwPRS1Wb3Rpbmcgc3lzdGVtMSIwIAYDVQQLDBlFLVZvdGluZyBzeXN0ZW0gYXV0
aG9yaXR5MSIwIAYJKoZIhvcNAQkBFhNTYXJkZWduYUBldm90aW5nLml0MB4XDTIy
MDgyNjE1MjEzMloXDTIzMDgyNjE1MjEzMlowTDERMA8GA1UEAwwIRmxvcmVuY2Ux
CzAJBgNVBAYTAklUMQ8wDQYDVQQIDAZJdGFsaWExGTAXBgNVBAoMEFJlZ2lvbmUg
U2FyZGVnbmEwVjAQBgcqhkjOPQIBBgUrgQQACgNCAAQSUoevalJ3UeqU/qr2Dfn6
wKp20mP4rFmiGI8bnVj24gnf1nIQVGE2vkTVHz14eq80Mg0aQIFJGSGm/+qg8jfv
oyMwITAOBgNVHQ8BAf8EBAMCBaAwDwYDVR0TAQH/BAUwAwIBAzAKBggqhkjOPQQD
AgNJADBGAiEAvCH85Q+KwpRAl6zae/8d58xvBYkQsMrD7wf/W0mS108CIQCLBDmt
C+9GcI8tV6JJQ1/aY800VR3joJbnRktg9jL8eQ==
-----END CERTIFICATE-----
