Certificate:
    Data:
        Version: 3 (0x2)
        Serial Number: 52 (0x34)
        Signature Algorithm: ecdsa-with-SHA256
        Issuer: CN=Regione Piemonte, C=IT, ST=Italia, O=E-Voting system, OU=E-Voting system authority/emailAddress=Piemonte@evoting.it
        Validity
            Not Before: Aug  3 13:27:52 2022 GMT
            Not After : Aug  3 13:27:52 2023 GMT
        Subject: CN=Florence, C=IT, ST=Italia, O=Regione Piemonte
        Subject Public Key Info:
            Public Key Algorithm: id-ecPublicKey
                Public-Key: (256 bit)
                pub:
                    04:6c:29:10:4b:8c:c5:8f:0d:c2:a6:e9:48:4d:15:
                    d4:6c:23:c8:f8:86:bd:fc:04:ff:81:04:48:85:a7:
                    60:b6:78:78:7a:01:cf:60:24:c6:44:9d:1c:07:a3:
                    be:d2:01:cb:8c:11:4f:d2:31:db:c7:95:b2:80:1e:
                    12:e8:1c:5f:bf
                ASN1 OID: prime256v1
                NIST CURVE: P-256
        X509v3 extensions:
            X509v3 Key Usage: critical
                Digital Signature, Key Encipherment
            X509v3 Basic Constraints: critical
                CA:FALSE, pathlen:3
    Signature Algorithm: ecdsa-with-SHA256
         30:46:02:21:00:fc:88:79:a0:2b:64:a8:94:24:d9:5f:81:a3:
         e2:05:8f:a2:09:f9:d2:db:8f:79:8d:d1:26:5d:d5:c4:96:61:
         b7:02:21:00:d7:0e:bc:95:17:6c:c1:61:2b:0b:1f:e8:62:36:
         87:c6:13:2c:83:fb:4f:e1:b3:b4:c1:5f:46:05:d2:98:54:65
-----BEGIN CERTIFICATE-----
MIIB+zCCAaCgAwIBAgIBNDAKBggqhkjOPQQDAjCBmzEZMBcGA1UEAwwQUmVnaW9u
ZSBQaWVtb250ZTELMAkGA1UEBhMCSVQxDzANBgNVBAgMBkl0YWxpYTEYMBYGA1UE
CgwPRS1Wb3Rpbmcgc3lzdGVtMSIwIAYDVQQLDBlFLVZvdGluZyBzeXN0ZW0gYXV0
aG9yaXR5MSIwIAYJKoZIhvcNAQkBFhNQaWVtb250ZUBldm90aW5nLml0MB4XDTIy
MDgwMzEzMjc1MloXDTIzMDgwMzEzMjc1MlowTDERMA8GA1UEAwwIRmxvcmVuY2Ux
CzAJBgNVBAYTAklUMQ8wDQYDVQQIDAZJdGFsaWExGTAXBgNVBAoMEFJlZ2lvbmUg
UGllbW9udGUwWTATBgcqhkjOPQIBBggqhkjOPQMBBwNCAARsKRBLjMWPDcKm6UhN
FdRsI8j4hr38BP+BBEiFp2C2eHh6Ac9gJMZEnRwHo77SAcuMEU/SMdvHlbKAHhLo
HF+/oyMwITAOBgNVHQ8BAf8EBAMCBaAwDwYDVR0TAQH/BAUwAwIBAzAKBggqhkjO
PQQDAgNJADBGAiEA/Ih5oCtkqJQk2V+Bo+IFj6IJ+dLbj3mN0SZd1cSWYbcCIQDX
DryVF2zBYSsLH+hiNofGEyyD+0/hs7TBX0YF0phUZQ==
-----END CERTIFICATE-----
