Certificate:
    Data:
        Version: 3 (0x2)
        Serial Number: 11 (0xb)
        Signature Algorithm: ecdsa-with-SHA256
        Issuer: CN=Regione Friuli_Venezia_Giulia, C=IT, ST=Italia, O=E-Voting system, OU=E-Voting system authority/emailAddress=Friuli_Venezia_Giulia@evoting.it
        Validity
            Not Before: Aug 26 15:19:13 2022 GMT
            Not After : Aug 26 15:19:13 2023 GMT
        Subject: CN=Floyd, C=IT, ST=Italia, O=Regione Friuli_Venezia_Giulia
        Subject Public Key Info:
            Public Key Algorithm: id-ecPublicKey
                Public-Key: (256 bit)
                pub:
                    04:82:1d:35:3b:c9:ff:df:4b:64:df:99:f5:48:42:
                    53:9b:fb:fa:a5:45:06:20:fa:fb:d7:1d:c0:17:e7:
                    d5:f8:82:d1:62:da:72:c9:3a:a3:b8:18:e5:ac:48:
                    2c:99:29:87:d9:81:e9:ca:46:d6:b2:fe:b0:dc:1a:
                    2b:cd:6e:d0:fb
                ASN1 OID: secp256k1
        X509v3 extensions:
            X509v3 Key Usage: critical
                Digital Signature, Key Encipherment
            X509v3 Basic Constraints: critical
                CA:FALSE, pathlen:3
    Signature Algorithm: ecdsa-with-SHA256
         30:45:02:21:00:af:18:92:1a:c5:16:b1:3a:72:71:f5:6c:7c:
         e9:ab:45:72:db:e4:64:92:76:34:4b:5f:6e:26:ed:35:9e:24:
         48:02:20:7a:18:65:9f:e9:c7:af:66:d5:00:8a:e0:bc:38:bf:
         ae:87:8d:ac:ef:45:ee:cc:5d:d3:bb:69:55:06:57:dd:86
-----BEGIN CERTIFICATE-----
MIICGzCCAcGgAwIBAgIBCzAKBggqhkjOPQQDAjCBtTEmMCQGA1UEAwwdUmVnaW9u
ZSBGcml1bGlfVmVuZXppYV9HaXVsaWExCzAJBgNVBAYTAklUMQ8wDQYDVQQIDAZJ
dGFsaWExGDAWBgNVBAoMD0UtVm90aW5nIHN5c3RlbTEiMCAGA1UECwwZRS1Wb3Rp
bmcgc3lzdGVtIGF1dGhvcml0eTEvMC0GCSqGSIb3DQEJARYgRnJpdWxpX1ZlbmV6
aWFfR2l1bGlhQGV2b3RpbmcuaXQwHhcNMjIwODI2MTUxOTEzWhcNMjMwODI2MTUx
OTEzWjBWMQ4wDAYDVQQDDAVGbG95ZDELMAkGA1UEBhMCSVQxDzANBgNVBAgMBkl0
YWxpYTEmMCQGA1UECgwdUmVnaW9uZSBGcml1bGlfVmVuZXppYV9HaXVsaWEwVjAQ
BgcqhkjOPQIBBgUrgQQACgNCAASCHTU7yf/fS2TfmfVIQlOb+/qlRQYg+vvXHcAX
59X4gtFi2nLJOqO4GOWsSCyZKYfZgenKRtay/rDcGivNbtD7oyMwITAOBgNVHQ8B
Af8EBAMCBaAwDwYDVR0TAQH/BAUwAwIBAzAKBggqhkjOPQQDAgNIADBFAiEArxiS
GsUWsTpycfVsfOmrRXLb5GSSdjRLX24m7TWeJEgCIHoYZZ/px69m1QCK4Lw4v66H
jazvRe7MXdO7aVUGV92G
-----END CERTIFICATE-----
