Certificate:
    Data:
        Version: 3 (0x2)
        Serial Number: 51 (0x33)
        Signature Algorithm: ecdsa-with-SHA256
        Issuer: CN=Regione Piemonte, C=IT, ST=Italia, O=E-Voting system, OU=E-Voting system authority/emailAddress=Piemonte@evoting.it
        Validity
            Not Before: Aug 26 15:21:44 2022 GMT
            Not After : Aug 26 15:21:44 2023 GMT
        Subject: CN=Franklin, C=IT, ST=Italia, O=Regione Piemonte
        Subject Public Key Info:
            Public Key Algorithm: id-ecPublicKey
                Public-Key: (256 bit)
                pub:
                    04:17:ac:4a:05:8f:0a:3f:cd:97:2b:6d:0c:03:64:
                    48:d9:29:ae:d1:ac:f2:34:ea:72:04:e7:e3:3d:97:
                    02:17:31:ea:3c:b7:ad:f4:04:2a:69:a7:63:19:65:
                    9d:46:33:1f:53:03:ae:09:8c:fd:a1:b7:cc:6a:5c:
                    db:60:36:ff:9b
                ASN1 OID: secp256k1
        X509v3 extensions:
            X509v3 Key Usage: critical
                Digital Signature, Key Encipherment
            X509v3 Basic Constraints: critical
                CA:FALSE, pathlen:3
    Signature Algorithm: ecdsa-with-SHA256
         30:46:02:21:00:88:7e:02:5c:88:71:c8:da:3b:4d:34:f5:2c:
         15:7c:b4:c2:43:52:6a:e8:26:81:f3:c7:fb:f8:46:73:33:14:
         26:02:21:00:f4:48:b9:55:c3:3a:84:a3:8b:33:c1:67:4f:54:
         f3:97:bc:54:38:56:19:b1:4c:e9:96:72:bb:40:7d:17:56:50
-----BEGIN CERTIFICATE-----
MIIB+DCCAZ2gAwIBAgIBMzAKBggqhkjOPQQDAjCBmzEZMBcGA1UEAwwQUmVnaW9u
ZSBQaWVtb250ZTELMAkGA1UEBhMCSVQxDzANBgNVBAgMBkl0YWxpYTEYMBYGA1UE
CgwPRS1Wb3Rpbmcgc3lzdGVtMSIwIAYDVQQLDBlFLVZvdGluZyBzeXN0ZW0gYXV0
aG9yaXR5MSIwIAYJKoZIhvcNAQkBFhNQaWVtb250ZUBldm90aW5nLml0MB4XDTIy
MDgyNjE1MjE0NFoXDTIzMDgyNjE1MjE0NFowTDERMA8GA1UEAwwIRnJhbmtsaW4x
CzAJBgNVBAYTAklUMQ8wDQYDVQQIDAZJdGFsaWExGTAXBgNVBAoMEFJlZ2lvbmUg
UGllbW9udGUwVjAQBgcqhkjOPQIBBgUrgQQACgNCAAQXrEoFjwo/zZcrbQwDZEjZ
Ka7RrPI06nIE5+M9lwIXMeo8t630BCppp2MZZZ1GMx9TA64JjP2ht8xqXNtgNv+b
oyMwITAOBgNVHQ8BAf8EBAMCBaAwDwYDVR0TAQH/BAUwAwIBAzAKBggqhkjOPQQD
AgNJADBGAiEAiH4CXIhxyNo7TTT1LBV8tMJDUmroJoHzx/v4RnMzFCYCIQD0SLlV
wzqEo4szwWdPVPOXvFQ4VhmxTOmWcrtAfRdWUA==
-----END CERTIFICATE-----
