Certificate:
    Data:
        Version: 3 (0x2)
        Serial Number: 16 (0x10)
        Signature Algorithm: ecdsa-with-SHA256
        Issuer: CN=Regione Veneto, C=IT, ST=Italia, O=E-Voting system, OU=E-Voting system authority/emailAddress=Veneto@evoting.it
        Validity
            Not Before: Aug 26 15:20:26 2022 GMT
            Not After : Aug 26 15:20:26 2023 GMT
        Subject: CN=Frank, C=IT, ST=Italia, O=Regione Veneto
        Subject Public Key Info:
            Public Key Algorithm: id-ecPublicKey
                Public-Key: (256 bit)
                pub:
                    04:ff:4b:7c:78:92:6f:54:90:9c:d1:4b:99:c6:47:
                    f7:69:bc:03:eb:ef:31:e2:4b:fb:7c:ee:9b:ca:76:
                    6e:11:a3:4a:45:06:3f:ce:a4:f9:21:36:2c:d2:fe:
                    e1:41:09:19:58:56:bb:9a:40:78:af:d5:65:f5:0c:
                    a6:f4:16:75:89
                ASN1 OID: secp256k1
        X509v3 extensions:
            X509v3 Key Usage: critical
                Digital Signature, Key Encipherment
            X509v3 Basic Constraints: critical
                CA:FALSE, pathlen:3
    Signature Algorithm: ecdsa-with-SHA256
         30:44:02:20:2c:81:e4:a6:34:5b:0d:4f:30:fa:cd:49:cb:d4:
         0a:fb:1f:54:99:9c:51:7d:f2:2d:c1:ba:36:26:86:bc:45:5d:
         02:20:36:db:2d:7b:dc:58:8e:f0:ed:21:bb:e1:1f:b8:e5:28:
         6d:a3:e4:77:b1:1d:e4:19:33:f6:ad:5b:e1:9a:a3:b1
-----BEGIN CERTIFICATE-----
MIIB7TCCAZSgAwIBAgIBEDAKBggqhkjOPQQDAjCBlzEXMBUGA1UEAwwOUmVnaW9u
ZSBWZW5ldG8xCzAJBgNVBAYTAklUMQ8wDQYDVQQIDAZJdGFsaWExGDAWBgNVBAoM
D0UtVm90aW5nIHN5c3RlbTEiMCAGA1UECwwZRS1Wb3Rpbmcgc3lzdGVtIGF1dGhv
cml0eTEgMB4GCSqGSIb3DQEJARYRVmVuZXRvQGV2b3RpbmcuaXQwHhcNMjIwODI2
MTUyMDI2WhcNMjMwODI2MTUyMDI2WjBHMQ4wDAYDVQQDDAVGcmFuazELMAkGA1UE
BhMCSVQxDzANBgNVBAgMBkl0YWxpYTEXMBUGA1UECgwOUmVnaW9uZSBWZW5ldG8w
VjAQBgcqhkjOPQIBBgUrgQQACgNCAAT/S3x4km9UkJzRS5nGR/dpvAPr7zHiS/t8
7pvKdm4Ro0pFBj/OpPkhNizS/uFBCRlYVruaQHiv1WX1DKb0FnWJoyMwITAOBgNV
HQ8BAf8EBAMCBaAwDwYDVR0TAQH/BAUwAwIBAzAKBggqhkjOPQQDAgNHADBEAiAs
geSmNFsNTzD6zUnL1Ar7H1SZnFF98i3BujYmhrxFXQIgNtste9xYjvDtIbvhH7jl
KG2j5HexHeQZM/atW+Gao7E=
-----END CERTIFICATE-----
