Certificate:
    Data:
        Version: 3 (0x2)
        Serial Number: 21 (0x15)
        Signature Algorithm: ecdsa-with-SHA256
        Issuer: CN=Regione Friuli_Venezia_Giulia, C=IT, ST=Italia, O=E-Voting system, OU=E-Voting system authority/emailAddress=Friuli_Venezia_Giulia@evoting.it
        Validity
            Not Before: Aug 26 15:20:01 2022 GMT
            Not After : Aug 26 15:20:01 2023 GMT
        Subject: CN=Francisco, C=IT, ST=Italia, O=Regione Friuli_Venezia_Giulia
        Subject Public Key Info:
            Public Key Algorithm: id-ecPublicKey
                Public-Key: (256 bit)
                pub:
                    04:78:4a:86:33:f6:77:c3:07:2b:fe:01:3e:73:da:
                    b6:c5:c3:9f:96:9f:8f:24:3a:55:d9:f1:fc:d4:5b:
                    fc:b1:e9:bb:cc:bc:8b:10:26:28:69:ee:f0:d5:05:
                    4b:96:0f:d0:77:4a:51:03:95:ff:15:98:32:58:3c:
                    a3:95:58:bc:e2
                ASN1 OID: secp256k1
        X509v3 extensions:
            X509v3 Key Usage: critical
                Digital Signature, Key Encipherment
            X509v3 Basic Constraints: critical
                CA:FALSE, pathlen:3
    Signature Algorithm: ecdsa-with-SHA256
         30:45:02:20:4d:b1:46:70:12:53:e9:2c:99:a5:6e:4d:8f:be:
         3d:39:f5:46:90:ff:99:ed:e8:6b:49:62:56:cd:d9:dc:52:2e:
         02:21:00:93:6c:5b:b4:bd:52:ab:e9:3b:35:1c:95:47:32:d6:
         6a:6d:2b:1f:4b:82:fa:71:d4:c0:bb:66:ed:8d:31:1d:e1
-----BEGIN CERTIFICATE-----
MIICHzCCAcWgAwIBAgIBFTAKBggqhkjOPQQDAjCBtTEmMCQGA1UEAwwdUmVnaW9u
ZSBGcml1bGlfVmVuZXppYV9HaXVsaWExCzAJBgNVBAYTAklUMQ8wDQYDVQQIDAZJ
dGFsaWExGDAWBgNVBAoMD0UtVm90aW5nIHN5c3RlbTEiMCAGA1UECwwZRS1Wb3Rp
bmcgc3lzdGVtIGF1dGhvcml0eTEvMC0GCSqGSIb3DQEJARYgRnJpdWxpX1ZlbmV6
aWFfR2l1bGlhQGV2b3RpbmcuaXQwHhcNMjIwODI2MTUyMDAxWhcNMjMwODI2MTUy
MDAxWjBaMRIwEAYDVQQDDAlGcmFuY2lzY28xCzAJBgNVBAYTAklUMQ8wDQYDVQQI
DAZJdGFsaWExJjAkBgNVBAoMHVJlZ2lvbmUgRnJpdWxpX1ZlbmV6aWFfR2l1bGlh
MFYwEAYHKoZIzj0CAQYFK4EEAAoDQgAEeEqGM/Z3wwcr/gE+c9q2xcOflp+PJDpV
2fH81Fv8sem7zLyLECYoae7w1QVLlg/Qd0pRA5X/FZgyWDyjlVi84qMjMCEwDgYD
VR0PAQH/BAQDAgWgMA8GA1UdEwEB/wQFMAMCAQMwCgYIKoZIzj0EAwIDSAAwRQIg
TbFGcBJT6SyZpW5Nj749OfVGkP+Z7ehrSWJWzdncUi4CIQCTbFu0vVKr6Ts1HJVH
MtZqbSsfS4L6cdTAu2btjTEd4Q==
-----END CERTIFICATE-----
