Certificate:
    Data:
        Version: 3 (0x2)
        Serial Number: 15 (0xf)
        Signature Algorithm: ecdsa-with-SHA256
        Issuer: CN=Regione Abruzzo, C=IT, ST=Italia, O=E-Voting system, OU=E-Voting system authority/emailAddress=Abruzzo@evoting.it
        Validity
            Not Before: Aug  3 13:26:27 2022 GMT
            Not After : Aug  3 13:26:27 2023 GMT
        Subject: CN=Frankie, C=IT, ST=Italia, O=Regione Abruzzo
        Subject Public Key Info:
            Public Key Algorithm: id-ecPublicKey
                Public-Key: (256 bit)
                pub:
                    04:e1:28:2b:5b:89:55:0e:7f:6a:eb:b8:27:b6:a9:
                    78:c4:c0:28:ff:2f:b3:78:73:ea:2b:34:10:6a:84:
                    a8:86:2f:e2:27:16:6a:cb:96:fa:4b:9e:97:e4:65:
                    84:ba:9e:16:29:3d:54:05:53:cf:37:16:e4:45:8d:
                    e7:fb:20:51:58
                ASN1 OID: prime256v1
                NIST CURVE: P-256
        X509v3 extensions:
            X509v3 Key Usage: critical
                Digital Signature, Key Encipherment
            X509v3 Basic Constraints: critical
                CA:FALSE, pathlen:3
    Signature Algorithm: ecdsa-with-SHA256
         30:46:02:21:00:b5:20:6a:16:07:eb:da:88:40:6f:45:36:19:
         88:26:5c:b5:73:f8:a7:db:09:3a:35:b1:7d:86:5e:d1:7e:96:
         c7:02:21:00:a5:60:f5:ca:64:07:60:83:c1:92:7a:16:83:de:
         d0:8a:b7:7d:92:67:2c:01:d2:ce:18:b2:96:38:9c:6c:2a:66
-----BEGIN CERTIFICATE-----
MIIB9zCCAZygAwIBAgIBDzAKBggqhkjOPQQDAjCBmTEYMBYGA1UEAwwPUmVnaW9u
ZSBBYnJ1enpvMQswCQYDVQQGEwJJVDEPMA0GA1UECAwGSXRhbGlhMRgwFgYDVQQK
DA9FLVZvdGluZyBzeXN0ZW0xIjAgBgNVBAsMGUUtVm90aW5nIHN5c3RlbSBhdXRo
b3JpdHkxITAfBgkqhkiG9w0BCQEWEkFicnV6em9AZXZvdGluZy5pdDAeFw0yMjA4
MDMxMzI2MjdaFw0yMzA4MDMxMzI2MjdaMEoxEDAOBgNVBAMMB0ZyYW5raWUxCzAJ
BgNVBAYTAklUMQ8wDQYDVQQIDAZJdGFsaWExGDAWBgNVBAoMD1JlZ2lvbmUgQWJy
dXp6bzBZMBMGByqGSM49AgEGCCqGSM49AwEHA0IABOEoK1uJVQ5/auu4J7apeMTA
KP8vs3hz6is0EGqEqIYv4icWasuW+kuel+RlhLqeFik9VAVTzzcW5EWN5/sgUVij
IzAhMA4GA1UdDwEB/wQEAwIFoDAPBgNVHRMBAf8EBTADAgEDMAoGCCqGSM49BAMC
A0kAMEYCIQC1IGoWB+vaiEBvRTYZiCZctXP4p9sJOjWxfYZe0X6WxwIhAKVg9cpk
B2CDwZJ6FoPe0Iq3fZJnLAHSzhiyljicbCpm
-----END CERTIFICATE-----
