Certificate:
    Data:
        Version: 3 (0x2)
        Serial Number: 65 (0x41)
        Signature Algorithm: ecdsa-with-SHA256
        Issuer: CN=Regione Piemonte, C=IT, ST=Italia, O=E-Voting system, OU=E-Voting system authority/emailAddress=Piemonte@evoting.it
        Validity
            Not Before: Aug  3 13:28:42 2022 GMT
            Not After : Aug  3 13:28:42 2023 GMT
        Subject: CN=Francisco, C=IT, ST=Italia, O=Regione Piemonte
        Subject Public Key Info:
            Public Key Algorithm: id-ecPublicKey
                Public-Key: (256 bit)
                pub:
                    04:db:41:d9:ba:40:82:c4:8e:94:6f:32:32:e4:1f:
                    4f:9d:e4:8e:40:15:97:09:f7:37:1a:1a:82:fd:14:
                    b3:53:39:1b:02:bb:77:12:d7:3e:c4:b7:09:be:56:
                    d4:e2:0a:86:13:1a:92:cc:ea:79:a2:fe:e1:29:77:
                    d1:2a:99:1e:b5
                ASN1 OID: prime256v1
                NIST CURVE: P-256
        X509v3 extensions:
            X509v3 Key Usage: critical
                Digital Signature, Key Encipherment
            X509v3 Basic Constraints: critical
                CA:FALSE, pathlen:3
    Signature Algorithm: ecdsa-with-SHA256
         30:44:02:20:29:b2:ac:51:3e:08:94:76:05:f6:58:97:78:e7:
         40:0a:e4:e5:ee:0c:d9:0a:70:2a:76:3c:09:3f:a9:8c:54:23:
         02:20:2a:d9:37:67:fb:44:2e:45:87:d3:51:ea:6b:6b:a7:ee:
         08:fa:5c:38:af:90:b9:c8:b8:84:3a:7b:f1:c5:b1:b3
-----BEGIN CERTIFICATE-----
MIIB+jCCAaGgAwIBAgIBQTAKBggqhkjOPQQDAjCBmzEZMBcGA1UEAwwQUmVnaW9u
ZSBQaWVtb250ZTELMAkGA1UEBhMCSVQxDzANBgNVBAgMBkl0YWxpYTEYMBYGA1UE
CgwPRS1Wb3Rpbmcgc3lzdGVtMSIwIAYDVQQLDBlFLVZvdGluZyBzeXN0ZW0gYXV0
aG9yaXR5MSIwIAYJKoZIhvcNAQkBFhNQaWVtb250ZUBldm90aW5nLml0MB4XDTIy
MDgwMzEzMjg0MloXDTIzMDgwMzEzMjg0MlowTTESMBAGA1UEAwwJRnJhbmNpc2Nv
MQswCQYDVQQGEwJJVDEPMA0GA1UECAwGSXRhbGlhMRkwFwYDVQQKDBBSZWdpb25l
IFBpZW1vbnRlMFkwEwYHKoZIzj0CAQYIKoZIzj0DAQcDQgAE20HZukCCxI6UbzIy
5B9PneSOQBWXCfc3GhqC/RSzUzkbArt3Etc+xLcJvlbU4gqGExqSzOp5ov7hKXfR
KpketaMjMCEwDgYDVR0PAQH/BAQDAgWgMA8GA1UdEwEB/wQFMAMCAQMwCgYIKoZI
zj0EAwIDRwAwRAIgKbKsUT4IlHYF9liXeOdACuTl7gzZCnAqdjwJP6mMVCMCICrZ
N2f7RC5Fh9NR6mtrp+4I+lw4r5C5yLiEOnvxxbGz
-----END CERTIFICATE-----
