Certificate:
    Data:
        Version: 3 (0x2)
        Serial Number: 11 (0xb)
        Signature Algorithm: ecdsa-with-SHA256
        Issuer: CN=Regione Lazio, C=IT, ST=Italia, O=E-Voting system, OU=E-Voting system authority/emailAddress=Lazio@evoting.it
        Validity
            Not Before: Aug 26 15:19:09 2022 GMT
            Not After : Aug 26 15:19:09 2023 GMT
        Subject: CN=Francis, C=IT, ST=Italia, O=Regione Lazio
        Subject Public Key Info:
            Public Key Algorithm: id-ecPublicKey
                Public-Key: (256 bit)
                pub:
                    04:e5:64:09:cc:d6:f9:72:68:70:69:0c:c2:76:e6:
                    c9:b1:4b:28:bb:ce:1f:14:c1:af:fe:44:d6:b3:3e:
                    bd:5f:57:1e:42:79:4a:c3:0a:7f:d3:b6:77:31:4c:
                    e5:01:ec:24:8a:81:f7:08:26:7e:f2:f6:2a:67:14:
                    bf:3b:91:f8:b9
                ASN1 OID: secp256k1
        X509v3 extensions:
            X509v3 Key Usage: critical
                Digital Signature, Key Encipherment
            X509v3 Basic Constraints: critical
                CA:FALSE, pathlen:3
    Signature Algorithm: ecdsa-with-SHA256
         30:45:02:20:56:2d:ba:30:78:6f:fe:86:fc:78:71:dd:85:6c:
         dd:b5:7d:e9:ea:0d:ba:7b:81:8f:26:10:1c:ea:2f:dd:ec:9d:
         02:21:00:de:7c:b1:11:1f:18:b7:a2:ae:67:5c:85:4a:80:ac:
         4c:1e:14:c8:98:5c:5b:0f:e5:02:40:5d:9b:a9:ce:fa:72
-----BEGIN CERTIFICATE-----
MIIB7TCCAZOgAwIBAgIBCzAKBggqhkjOPQQDAjCBlTEWMBQGA1UEAwwNUmVnaW9u
ZSBMYXppbzELMAkGA1UEBhMCSVQxDzANBgNVBAgMBkl0YWxpYTEYMBYGA1UECgwP
RS1Wb3Rpbmcgc3lzdGVtMSIwIAYDVQQLDBlFLVZvdGluZyBzeXN0ZW0gYXV0aG9y
aXR5MR8wHQYJKoZIhvcNAQkBFhBMYXppb0Bldm90aW5nLml0MB4XDTIyMDgyNjE1
MTkwOVoXDTIzMDgyNjE1MTkwOVowSDEQMA4GA1UEAwwHRnJhbmNpczELMAkGA1UE
BhMCSVQxDzANBgNVBAgMBkl0YWxpYTEWMBQGA1UECgwNUmVnaW9uZSBMYXppbzBW
MBAGByqGSM49AgEGBSuBBAAKA0IABOVkCczW+XJocGkMwnbmybFLKLvOHxTBr/5E
1rM+vV9XHkJ5SsMKf9O2dzFM5QHsJIqB9wgmfvL2KmcUvzuR+LmjIzAhMA4GA1Ud
DwEB/wQEAwIFoDAPBgNVHRMBAf8EBTADAgEDMAoGCCqGSM49BAMCA0gAMEUCIFYt
ujB4b/6G/Hhx3YVs3bV96eoNunuBjyYQHOov3eydAiEA3nyxER8Yt6KuZ1yFSoCs
TB4UyJhcWw/lAkBdm6nO+nI=
-----END CERTIFICATE-----
