Certificate:
    Data:
        Version: 3 (0x2)
        Serial Number: 15 (0xf)
        Signature Algorithm: ecdsa-with-SHA256
        Issuer: CN=Regione Friuli_Venezia_Giulia, C=IT, ST=Italia, O=E-Voting system, OU=E-Voting system authority/emailAddress=Friuli_Venezia_Giulia@evoting.it
        Validity
            Not Before: Aug 26 15:19:36 2022 GMT
            Not After : Aug 26 15:19:36 2023 GMT
        Subject: CN=France, C=IT, ST=Italia, O=Regione Friuli_Venezia_Giulia
        Subject Public Key Info:
            Public Key Algorithm: id-ecPublicKey
                Public-Key: (256 bit)
                pub:
                    04:ba:0a:e9:f9:ec:e0:04:33:a7:d2:14:36:c8:1b:
                    75:95:14:0d:49:68:a5:fb:ad:1e:d7:6a:94:0a:2d:
                    93:5c:cf:ad:af:86:a5:12:27:e2:dc:a5:7b:95:f7:
                    da:80:66:dd:81:f3:0f:05:6b:3f:51:23:91:b8:d9:
                    0e:01:a3:45:1e
                ASN1 OID: secp256k1
        X509v3 extensions:
            X509v3 Key Usage: critical
                Digital Signature, Key Encipherment
            X509v3 Basic Constraints: critical
                CA:FALSE, pathlen:3
    Signature Algorithm: ecdsa-with-SHA256
         30:45:02:20:67:cd:2d:e4:b4:fa:7b:18:d4:38:82:aa:0f:72:
         71:fc:93:86:37:8b:36:fc:fc:d4:d4:78:2e:0b:4e:58:89:0e:
         02:21:00:f9:36:c5:ea:05:31:5c:61:cf:c3:14:eb:b1:4d:a2:
         9a:c2:6f:32:35:45:75:3b:1f:85:c0:52:9c:d1:25:cf:ef
-----BEGIN CERTIFICATE-----
MIICHDCCAcKgAwIBAgIBDzAKBggqhkjOPQQDAjCBtTEmMCQGA1UEAwwdUmVnaW9u
ZSBGcml1bGlfVmVuZXppYV9HaXVsaWExCzAJBgNVBAYTAklUMQ8wDQYDVQQIDAZJ
dGFsaWExGDAWBgNVBAoMD0UtVm90aW5nIHN5c3RlbTEiMCAGA1UECwwZRS1Wb3Rp
bmcgc3lzdGVtIGF1dGhvcml0eTEvMC0GCSqGSIb3DQEJARYgRnJpdWxpX1ZlbmV6
aWFfR2l1bGlhQGV2b3RpbmcuaXQwHhcNMjIwODI2MTUxOTM2WhcNMjMwODI2MTUx
OTM2WjBXMQ8wDQYDVQQDDAZGcmFuY2UxCzAJBgNVBAYTAklUMQ8wDQYDVQQIDAZJ
dGFsaWExJjAkBgNVBAoMHVJlZ2lvbmUgRnJpdWxpX1ZlbmV6aWFfR2l1bGlhMFYw
EAYHKoZIzj0CAQYFK4EEAAoDQgAEugrp+ezgBDOn0hQ2yBt1lRQNSWil+60e12qU
Ci2TXM+tr4alEifi3KV7lffagGbdgfMPBWs/USORuNkOAaNFHqMjMCEwDgYDVR0P
AQH/BAQDAgWgMA8GA1UdEwEB/wQFMAMCAQMwCgYIKoZIzj0EAwIDSAAwRQIgZ80t
5LT6exjUOIKqD3Jx/JOGN4s2/PzU1HguC05YiQ4CIQD5NsXqBTFcYc/DFOuxTaKa
wm8yNUV1Ox+FwFKc0SXP7w==
-----END CERTIFICATE-----
