Certificate:
    Data:
        Version: 3 (0x2)
        Serial Number: 15 (0xf)
        Signature Algorithm: ecdsa-with-SHA256
        Issuer: CN=Regione Lazio, C=IT, ST=Italia, O=E-Voting system, OU=E-Voting system authority/emailAddress=Lazio@evoting.it
        Validity
            Not Before: Aug  3 13:26:07 2022 GMT
            Not After : Aug  3 13:26:07 2023 GMT
        Subject: CN=Frank, C=IT, ST=Italia, O=Regione Lazio
        Subject Public Key Info:
            Public Key Algorithm: id-ecPublicKey
                Public-Key: (256 bit)
                pub:
                    04:bf:f8:e8:d0:ca:fb:2a:e9:36:fa:17:e6:bb:79:
                    ee:f5:2f:d0:f1:1e:2b:91:8e:ca:0d:94:7f:cf:a2:
                    d2:56:f6:fa:82:de:eb:fe:5c:3d:35:7c:06:7b:ff:
                    4a:8d:77:de:6d:a6:de:fc:06:5c:eb:32:12:42:15:
                    64:9f:c3:90:6b
                ASN1 OID: prime256v1
                NIST CURVE: P-256
        X509v3 extensions:
            X509v3 Key Usage: critical
                Digital Signature, Key Encipherment
            X509v3 Basic Constraints: critical
                CA:FALSE, pathlen:3
    Signature Algorithm: ecdsa-with-SHA256
         30:46:02:21:00:c0:d1:96:6a:33:97:bc:f3:03:26:4d:7f:54:
         2b:99:43:6c:36:0c:20:05:b5:45:52:96:ad:e8:f3:e8:f8:99:
         14:02:21:00:b3:04:25:08:fc:67:46:2b:34:b6:09:ec:75:fb:
         e1:eb:99:79:ad:eb:34:be:66:0f:f0:71:4b:b7:0a:38:a7:2b
-----BEGIN CERTIFICATE-----
MIIB7zCCAZSgAwIBAgIBDzAKBggqhkjOPQQDAjCBlTEWMBQGA1UEAwwNUmVnaW9u
ZSBMYXppbzELMAkGA1UEBhMCSVQxDzANBgNVBAgMBkl0YWxpYTEYMBYGA1UECgwP
RS1Wb3Rpbmcgc3lzdGVtMSIwIAYDVQQLDBlFLVZvdGluZyBzeXN0ZW0gYXV0aG9y
aXR5MR8wHQYJKoZIhvcNAQkBFhBMYXppb0Bldm90aW5nLml0MB4XDTIyMDgwMzEz
MjYwN1oXDTIzMDgwMzEzMjYwN1owRjEOMAwGA1UEAwwFRnJhbmsxCzAJBgNVBAYT
AklUMQ8wDQYDVQQIDAZJdGFsaWExFjAUBgNVBAoMDVJlZ2lvbmUgTGF6aW8wWTAT
BgcqhkjOPQIBBggqhkjOPQMBBwNCAAS/+OjQyvsq6Tb6F+a7ee71L9DxHiuRjsoN
lH/PotJW9vqC3uv+XD01fAZ7/0qNd95tpt78BlzrMhJCFWSfw5BroyMwITAOBgNV
HQ8BAf8EBAMCBaAwDwYDVR0TAQH/BAUwAwIBAzAKBggqhkjOPQQDAgNJADBGAiEA
wNGWajOXvPMDJk1/VCuZQ2w2DCAFtUVSlq3o8+j4mRQCIQCzBCUI/GdGKzS2Cex1
++HrmXmt6zS+Zg/wcUu3CjinKw==
-----END CERTIFICATE-----
