Certificate:
    Data:
        Version: 3 (0x2)
        Serial Number: 3 (0x3)
        Signature Algorithm: ecdsa-with-SHA256
        Issuer: CN=Regione Campania, C=IT, ST=Italia, O=E-Voting system, OU=E-Voting system authority/emailAddress=Campania@evoting.it
        Validity
            Not Before: Aug 26 15:18:28 2022 GMT
            Not After : Aug 26 15:18:28 2023 GMT
        Subject: CN=Frederick, C=IT, ST=Italia, O=Regione Campania
        Subject Public Key Info:
            Public Key Algorithm: id-ecPublicKey
                Public-Key: (256 bit)
                pub:
                    04:68:57:1d:4c:b4:19:30:1c:44:5b:fb:8a:ea:c1:
                    f0:7c:fd:bd:c0:5f:0e:40:01:ed:34:94:ff:e3:f5:
                    f6:18:eb:61:0d:9d:cf:85:94:0e:62:51:51:e5:e2:
                    56:8d:a2:c2:9c:fd:41:55:74:57:34:4d:2c:16:cf:
                    97:6e:e8:af:92
                ASN1 OID: secp256k1
        X509v3 extensions:
            X509v3 Key Usage: critical
                Digital Signature, Key Encipherment
            X509v3 Basic Constraints: critical
                CA:FALSE, pathlen:3
    Signature Algorithm: ecdsa-with-SHA256
         30:46:02:21:00:c7:39:66:f4:66:fe:77:19:f1:c8:55:e2:83:
         89:cf:bc:53:cc:90:0a:e0:6a:cf:fc:bc:94:31:37:e5:a8:e7:
         ad:02:21:00:cb:74:dd:fb:c9:91:38:7f:f8:5f:cf:5d:2f:19:
         73:46:aa:93:87:22:69:29:20:6f:e5:50:a2:09:92:80:a0:36
-----BEGIN CERTIFICATE-----
MIIB+TCCAZ6gAwIBAgIBAzAKBggqhkjOPQQDAjCBmzEZMBcGA1UEAwwQUmVnaW9u
ZSBDYW1wYW5pYTELMAkGA1UEBhMCSVQxDzANBgNVBAgMBkl0YWxpYTEYMBYGA1UE
CgwPRS1Wb3Rpbmcgc3lzdGVtMSIwIAYDVQQLDBlFLVZvdGluZyBzeXN0ZW0gYXV0
aG9yaXR5MSIwIAYJKoZIhvcNAQkBFhNDYW1wYW5pYUBldm90aW5nLml0MB4XDTIy
MDgyNjE1MTgyOFoXDTIzMDgyNjE1MTgyOFowTTESMBAGA1UEAwwJRnJlZGVyaWNr
MQswCQYDVQQGEwJJVDEPMA0GA1UECAwGSXRhbGlhMRkwFwYDVQQKDBBSZWdpb25l
IENhbXBhbmlhMFYwEAYHKoZIzj0CAQYFK4EEAAoDQgAEaFcdTLQZMBxEW/uK6sHw
fP29wF8OQAHtNJT/4/X2GOthDZ3PhZQOYlFR5eJWjaLCnP1BVXRXNE0sFs+Xbuiv
kqMjMCEwDgYDVR0PAQH/BAQDAgWgMA8GA1UdEwEB/wQFMAMCAQMwCgYIKoZIzj0E
AwIDSQAwRgIhAMc5ZvRm/ncZ8chV4oOJz7xTzJAK4GrP/LyUMTflqOetAiEAy3Td
+8mROH/4X89dLxlzRqqThyJpKSBv5VCiCZKAoDY=
-----END CERTIFICATE-----
