Certificate:
    Data:
        Version: 3 (0x2)
        Serial Number: 55 (0x37)
        Signature Algorithm: ecdsa-with-SHA256
        Issuer: CN=Regione Sicilia, C=IT, ST=Italia, O=E-Voting system, OU=E-Voting system authority/emailAddress=Sicilia@evoting.it
        Validity
            Not Before: Aug 26 15:21:41 2022 GMT
            Not After : Aug 26 15:21:41 2023 GMT
        Subject: CN=Freda, C=IT, ST=Italia, O=Regione Sicilia
        Subject Public Key Info:
            Public Key Algorithm: id-ecPublicKey
                Public-Key: (256 bit)
                pub:
                    04:11:f8:c3:da:54:37:f4:fa:7d:65:6f:a9:7f:47:
                    c8:f0:7b:60:6d:3f:58:dc:14:0c:06:65:dc:55:61:
                    62:5c:6f:09:2b:9d:eb:09:6c:96:95:ca:b8:85:14:
                    f5:90:3c:53:b3:63:cc:00:f6:84:43:42:de:69:fa:
                    51:e1:05:57:6c
                ASN1 OID: secp256k1
        X509v3 extensions:
            X509v3 Key Usage: critical
                Digital Signature, Key Encipherment
            X509v3 Basic Constraints: critical
                CA:FALSE, pathlen:3
    Signature Algorithm: ecdsa-with-SHA256
         30:46:02:21:00:8b:d0:1c:1d:a7:c7:db:4d:38:30:12:32:f5:
         87:e5:69:fb:5d:fe:eb:14:13:12:92:8d:4a:1d:0c:36:a7:a3:
         31:02:21:00:e6:b6:e8:cc:0a:0e:d4:72:a4:da:56:54:b6:7f:
         3a:8b:60:13:9f:2a:ca:7c:bf:08:1b:24:bd:89:6d:6d:b5:bc
-----BEGIN CERTIFICATE-----
MIIB8jCCAZegAwIBAgIBNzAKBggqhkjOPQQDAjCBmTEYMBYGA1UEAwwPUmVnaW9u
ZSBTaWNpbGlhMQswCQYDVQQGEwJJVDEPMA0GA1UECAwGSXRhbGlhMRgwFgYDVQQK
DA9FLVZvdGluZyBzeXN0ZW0xIjAgBgNVBAsMGUUtVm90aW5nIHN5c3RlbSBhdXRo
b3JpdHkxITAfBgkqhkiG9w0BCQEWElNpY2lsaWFAZXZvdGluZy5pdDAeFw0yMjA4
MjYxNTIxNDFaFw0yMzA4MjYxNTIxNDFaMEgxDjAMBgNVBAMMBUZyZWRhMQswCQYD
VQQGEwJJVDEPMA0GA1UECAwGSXRhbGlhMRgwFgYDVQQKDA9SZWdpb25lIFNpY2ls
aWEwVjAQBgcqhkjOPQIBBgUrgQQACgNCAAQR+MPaVDf0+n1lb6l/R8jwe2BtP1jc
FAwGZdxVYWJcbwkrnesJbJaVyriFFPWQPFOzY8wA9oRDQt5p+lHhBVdsoyMwITAO
BgNVHQ8BAf8EBAMCBaAwDwYDVR0TAQH/BAUwAwIBAzAKBggqhkjOPQQDAgNJADBG
AiEAi9AcHafH2004MBIy9Yflaftd/usUExKSjUodDDanozECIQDmtujMCg7UcqTa
VlS2fzqLYBOfKsp8vwgbJL2JbW21vA==
-----END CERTIFICATE-----
