Certificate:
    Data:
        Version: 3 (0x2)
        Serial Number: 46 (0x2e)
        Signature Algorithm: ecdsa-with-SHA256
        Issuer: CN=Regione Campania, C=IT, ST=Italia, O=E-Voting system, OU=E-Voting system authority/emailAddress=Campania@evoting.it
        Validity
            Not Before: Aug  3 13:28:06 2022 GMT
            Not After : Aug  3 13:28:06 2023 GMT
        Subject: CN=Fredrick, C=IT, ST=Italia, O=Regione Campania
        Subject Public Key Info:
            Public Key Algorithm: id-ecPublicKey
                Public-Key: (256 bit)
                pub:
                    04:6c:78:7b:e4:44:1f:b2:f8:a1:74:e3:64:fd:3c:
                    78:09:d9:5b:27:da:0c:0b:c0:41:6f:32:15:89:b7:
                    75:b4:39:5f:62:25:d3:09:50:7d:a7:71:93:8d:13:
                    1e:c4:c5:26:28:fa:e3:45:f8:0c:49:3e:e4:4a:ec:
                    89:c9:64:5e:3b
                ASN1 OID: prime256v1
                NIST CURVE: P-256
        X509v3 extensions:
            X509v3 Key Usage: critical
                Digital Signature, Key Encipherment
            X509v3 Basic Constraints: critical
                CA:FALSE, pathlen:3
    Signature Algorithm: ecdsa-with-SHA256
         30:44:02:20:46:0c:74:cd:bb:db:46:90:03:9d:7d:6e:b1:bf:
         c0:2d:65:8d:57:a5:9d:08:65:01:6b:39:3b:f9:b6:a3:6c:2b:
         02:20:05:00:fd:a7:3c:80:28:c8:f1:ff:fb:6e:99:dd:95:2f:
         b7:fe:90:7c:e8:5c:f5:f7:68:9d:5e:30:4b:65:77:0a
-----BEGIN CERTIFICATE-----
MIIB+TCCAaCgAwIBAgIBLjAKBggqhkjOPQQDAjCBmzEZMBcGA1UEAwwQUmVnaW9u
ZSBDYW1wYW5pYTELMAkGA1UEBhMCSVQxDzANBgNVBAgMBkl0YWxpYTEYMBYGA1UE
CgwPRS1Wb3Rpbmcgc3lzdGVtMSIwIAYDVQQLDBlFLVZvdGluZyBzeXN0ZW0gYXV0
aG9yaXR5MSIwIAYJKoZIhvcNAQkBFhNDYW1wYW5pYUBldm90aW5nLml0MB4XDTIy
MDgwMzEzMjgwNloXDTIzMDgwMzEzMjgwNlowTDERMA8GA1UEAwwIRnJlZHJpY2sx
CzAJBgNVBAYTAklUMQ8wDQYDVQQIDAZJdGFsaWExGTAXBgNVBAoMEFJlZ2lvbmUg
Q2FtcGFuaWEwWTATBgcqhkjOPQIBBggqhkjOPQMBBwNCAARseHvkRB+y+KF042T9
PHgJ2Vsn2gwLwEFvMhWJt3W0OV9iJdMJUH2ncZONEx7ExSYo+uNF+AxJPuRK7InJ
ZF47oyMwITAOBgNVHQ8BAf8EBAMCBaAwDwYDVR0TAQH/BAUwAwIBAzAKBggqhkjO
PQQDAgNHADBEAiBGDHTNu9tGkAOdfW6xv8AtZY1XpZ0IZQFrOTv5tqNsKwIgBQD9
pzyAKMjx//tumd2VL7f+kHzoXPX3aJ1eMEtldwo=
-----END CERTIFICATE-----
