Certificate:
    Data:
        Version: 3 (0x2)
        Serial Number: 53 (0x35)
        Signature Algorithm: ecdsa-with-SHA256
        Issuer: CN=Regione Piemonte, C=IT, ST=Italia, O=E-Voting system, OU=E-Voting system authority/emailAddress=Piemonte@evoting.it
        Validity
            Not Before: Aug  3 13:27:53 2022 GMT
            Not After : Aug  3 13:27:53 2023 GMT
        Subject: CN=Fritz, C=IT, ST=Italia, O=Regione Piemonte
        Subject Public Key Info:
            Public Key Algorithm: id-ecPublicKey
                Public-Key: (256 bit)
                pub:
                    04:79:1b:65:0e:a0:8d:ca:2b:27:07:66:8a:0e:76:
                    0a:1f:cd:ea:26:4f:c8:7b:46:45:0c:a6:28:a7:76:
                    45:da:2b:2a:f4:fa:ca:71:23:86:5d:54:40:62:de:
                    9d:40:84:34:09:17:53:88:89:e0:49:65:f9:bd:5c:
                    a3:ad:f0:22:ff
                ASN1 OID: prime256v1
                NIST CURVE: P-256
        X509v3 extensions:
            X509v3 Key Usage: critical
                Digital Signature, Key Encipherment
            X509v3 Basic Constraints: critical
                CA:FALSE, pathlen:3
    Signature Algorithm: ecdsa-with-SHA256
         30:44:02:20:74:e6:b2:44:1d:28:8e:32:21:2f:9a:0d:0a:33:
         f8:bb:92:90:6f:4c:b0:13:59:53:26:3a:7b:26:5e:ba:3b:9d:
         02:20:72:d1:78:5a:09:63:47:2e:e8:49:4f:1f:33:c3:87:e5:
         8f:48:c2:76:a7:6c:31:a0:1b:3b:ee:e6:a8:1c:3d:8a
-----BEGIN CERTIFICATE-----
MIIB9jCCAZ2gAwIBAgIBNTAKBggqhkjOPQQDAjCBmzEZMBcGA1UEAwwQUmVnaW9u
ZSBQaWVtb250ZTELMAkGA1UEBhMCSVQxDzANBgNVBAgMBkl0YWxpYTEYMBYGA1UE
CgwPRS1Wb3Rpbmcgc3lzdGVtMSIwIAYDVQQLDBlFLVZvdGluZyBzeXN0ZW0gYXV0
aG9yaXR5MSIwIAYJKoZIhvcNAQkBFhNQaWVtb250ZUBldm90aW5nLml0MB4XDTIy
MDgwMzEzMjc1M1oXDTIzMDgwMzEzMjc1M1owSTEOMAwGA1UEAwwFRnJpdHoxCzAJ
BgNVBAYTAklUMQ8wDQYDVQQIDAZJdGFsaWExGTAXBgNVBAoMEFJlZ2lvbmUgUGll
bW9udGUwWTATBgcqhkjOPQIBBggqhkjOPQMBBwNCAAR5G2UOoI3KKycHZooOdgof
zeomT8h7RkUMpiindkXaKyr0+spxI4ZdVEBi3p1AhDQJF1OIieBJZfm9XKOt8CL/
oyMwITAOBgNVHQ8BAf8EBAMCBaAwDwYDVR0TAQH/BAUwAwIBAzAKBggqhkjOPQQD
AgNHADBEAiB05rJEHSiOMiEvmg0KM/i7kpBvTLATWVMmOnsmXro7nQIgctF4Wglj
Ry7oSU8fM8OH5Y9IwnanbDGgGzvu5qgcPYo=
-----END CERTIFICATE-----
