Certificate:
    Data:
        Version: 3 (0x2)
        Serial Number: 17 (0x11)
        Signature Algorithm: ecdsa-with-SHA256
        Issuer: CN=Regione Sicilia, C=IT, ST=Italia, O=E-Voting system, OU=E-Voting system authority/emailAddress=Sicilia@evoting.it
        Validity
            Not Before: Aug  3 13:27:08 2022 GMT
            Not After : Aug  3 13:27:08 2023 GMT
        Subject: CN=Gabriela, C=IT, ST=Italia, O=Regione Sicilia
        Subject Public Key Info:
            Public Key Algorithm: id-ecPublicKey
                Public-Key: (256 bit)
                pub:
                    04:ac:d6:db:0a:0a:cd:66:5c:36:15:c3:64:3c:99:
                    79:9c:2c:02:76:8c:02:64:bc:59:62:aa:f2:09:11:
                    d8:1d:75:d4:8a:7e:60:6a:d4:20:53:18:34:db:79:
                    2f:06:96:3a:eb:93:25:79:49:5a:b4:02:5e:c2:25:
                    dc:2a:6c:3d:fb
                ASN1 OID: prime256v1
                NIST CURVE: P-256
        X509v3 extensions:
            X509v3 Key Usage: critical
                Digital Signature, Key Encipherment
            X509v3 Basic Constraints: critical
                CA:FALSE, pathlen:3
    Signature Algorithm: ecdsa-with-SHA256
         30:45:02:20:64:e8:47:67:f3:cf:63:54:84:54:bf:fe:4e:e2:
         43:70:59:00:9a:7f:ab:2b:26:0b:58:cf:f6:56:ba:e2:fb:76:
         02:21:00:d4:20:5c:d9:3e:a5:b0:57:34:87:ef:b1:28:77:f7:
         30:36:ef:61:ce:bd:ed:34:7c:1b:6c:8a:44:d7:80:80:cc
-----BEGIN CERTIFICATE-----
MIIB9zCCAZ2gAwIBAgIBETAKBggqhkjOPQQDAjCBmTEYMBYGA1UEAwwPUmVnaW9u
ZSBTaWNpbGlhMQswCQYDVQQGEwJJVDEPMA0GA1UECAwGSXRhbGlhMRgwFgYDVQQK
DA9FLVZvdGluZyBzeXN0ZW0xIjAgBgNVBAsMGUUtVm90aW5nIHN5c3RlbSBhdXRo
b3JpdHkxITAfBgkqhkiG9w0BCQEWElNpY2lsaWFAZXZvdGluZy5pdDAeFw0yMjA4
MDMxMzI3MDhaFw0yMzA4MDMxMzI3MDhaMEsxETAPBgNVBAMMCEdhYnJpZWxhMQsw
CQYDVQQGEwJJVDEPMA0GA1UECAwGSXRhbGlhMRgwFgYDVQQKDA9SZWdpb25lIFNp
Y2lsaWEwWTATBgcqhkjOPQIBBggqhkjOPQMBBwNCAASs1tsKCs1mXDYVw2Q8mXmc
LAJ2jAJkvFliqvIJEdgdddSKfmBq1CBTGDTbeS8GljrrkyV5SVq0Al7CJdwqbD37
oyMwITAOBgNVHQ8BAf8EBAMCBaAwDwYDVR0TAQH/BAUwAwIBAzAKBggqhkjOPQQD
AgNIADBFAiBk6Edn889jVIRUv/5O4kNwWQCaf6srJgtYz/ZWuuL7dgIhANQgXNk+
pbBXNIfvsSh39zA272HOve00fBtsikTXgIDM
-----END CERTIFICATE-----
