Certificate:
    Data:
        Version: 3 (0x2)
        Serial Number: 5 (0x5)
        Signature Algorithm: ecdsa-with-SHA256
        Issuer: CN=Regione Sardegna, C=IT, ST=Italia, O=E-Voting system, OU=E-Voting system authority/emailAddress=Sardegna@evoting.it
        Validity
            Not Before: Aug 26 15:18:34 2022 GMT
            Not After : Aug 26 15:18:34 2023 GMT
        Subject: CN=Gail, C=IT, ST=Italia, O=Regione Sardegna
        Subject Public Key Info:
            Public Key Algorithm: id-ecPublicKey
                Public-Key: (256 bit)
                pub:
                    04:4b:ea:78:5f:2e:5e:49:74:70:c5:55:a2:86:7f:
                    2c:2b:c3:89:bc:0b:d4:14:fa:3e:d3:ee:8b:cb:ca:
                    b9:f6:cc:06:6a:26:76:61:ee:d9:72:88:ce:92:ec:
                    25:c2:9c:bb:23:f8:2f:95:a9:0f:fc:6e:d3:f1:97:
                    e9:de:37:17:06
                ASN1 OID: secp256k1
        X509v3 extensions:
            X509v3 Key Usage: critical
                Digital Signature, Key Encipherment
            X509v3 Basic Constraints: critical
                CA:FALSE, pathlen:3
    Signature Algorithm: ecdsa-with-SHA256
         30:46:02:21:00:c8:9d:56:e2:62:6a:fc:a8:10:b9:81:03:84:
         e2:f9:fd:ea:1e:51:09:f8:a4:65:3f:3b:90:5e:41:cd:dc:b0:
         4c:02:21:00:91:be:85:29:1c:48:16:99:79:65:b6:fe:c7:ad:
         17:d2:eb:e3:1e:e8:c6:b0:8e:80:08:a1:3b:00:6c:c8:12:97
-----BEGIN CERTIFICATE-----
MIIB9DCCAZmgAwIBAgIBBTAKBggqhkjOPQQDAjCBmzEZMBcGA1UEAwwQUmVnaW9u
ZSBTYXJkZWduYTELMAkGA1UEBhMCSVQxDzANBgNVBAgMBkl0YWxpYTEYMBYGA1UE
CgwPRS1Wb3Rpbmcgc3lzdGVtMSIwIAYDVQQLDBlFLVZvdGluZyBzeXN0ZW0gYXV0
aG9yaXR5MSIwIAYJKoZIhvcNAQkBFhNTYXJkZWduYUBldm90aW5nLml0MB4XDTIy
MDgyNjE1MTgzNFoXDTIzMDgyNjE1MTgzNFowSDENMAsGA1UEAwwER2FpbDELMAkG
A1UEBhMCSVQxDzANBgNVBAgMBkl0YWxpYTEZMBcGA1UECgwQUmVnaW9uZSBTYXJk
ZWduYTBWMBAGByqGSM49AgEGBSuBBAAKA0IABEvqeF8uXkl0cMVVooZ/LCvDibwL
1BT6PtPui8vKufbMBmomdmHu2XKIzpLsJcKcuyP4L5WpD/xu0/GX6d43FwajIzAh
MA4GA1UdDwEB/wQEAwIFoDAPBgNVHRMBAf8EBTADAgEDMAoGCCqGSM49BAMCA0kA
MEYCIQDInVbiYmr8qBC5gQOE4vn96h5RCfikZT87kF5BzdywTAIhAJG+hSkcSBaZ
eWW2/setF9Lr4x7oxrCOgAihOwBsyBKX
-----END CERTIFICATE-----
