Certificate:
    Data:
        Version: 3 (0x2)
        Serial Number: 13 (0xd)
        Signature Algorithm: ecdsa-with-SHA256
        Issuer: CN=Regione Marche, C=IT, ST=Italia, O=E-Voting system, OU=E-Voting system authority/emailAddress=Marche@evoting.it
        Validity
            Not Before: Aug  3 13:26:07 2022 GMT
            Not After : Aug  3 13:26:07 2023 GMT
        Subject: CN=Garland, C=IT, ST=Italia, O=Regione Marche
        Subject Public Key Info:
            Public Key Algorithm: id-ecPublicKey
                Public-Key: (256 bit)
                pub:
                    04:25:2f:e0:87:46:a9:92:d7:2d:d5:84:75:69:0c:
                    3b:19:e7:1a:f5:93:69:b2:2b:35:fc:a6:4c:7e:d9:
                    49:9d:8c:09:ce:1a:97:b4:df:90:35:94:cf:f8:c1:
                    e1:0d:f0:2f:8b:4b:77:1a:05:90:f4:68:1c:c7:2d:
                    57:24:ea:e7:0f
                ASN1 OID: prime256v1
                NIST CURVE: P-256
        X509v3 extensions:
            X509v3 Key Usage: critical
                Digital Signature, Key Encipherment
            X509v3 Basic Constraints: critical
                CA:FALSE, pathlen:3
    Signature Algorithm: ecdsa-with-SHA256
         30:45:02:21:00:b5:57:ac:d9:0c:13:8d:27:c0:fa:3c:b3:d1:
         b4:0c:6b:5f:68:e1:fb:65:0f:6e:9f:4b:58:e9:3a:3f:1b:33:
         5a:02:20:4b:2f:6a:55:e8:6f:dd:3e:bc:d0:df:02:a2:a1:4e:
         a0:22:6f:53:5d:70:fc:c3:f2:e5:99:81:7f:08:36:c1:06
-----BEGIN CERTIFICATE-----
MIIB8zCCAZmgAwIBAgIBDTAKBggqhkjOPQQDAjCBlzEXMBUGA1UEAwwOUmVnaW9u
ZSBNYXJjaGUxCzAJBgNVBAYTAklUMQ8wDQYDVQQIDAZJdGFsaWExGDAWBgNVBAoM
D0UtVm90aW5nIHN5c3RlbTEiMCAGA1UECwwZRS1Wb3Rpbmcgc3lzdGVtIGF1dGhv
cml0eTEgMB4GCSqGSIb3DQEJARYRTWFyY2hlQGV2b3RpbmcuaXQwHhcNMjIwODAz
MTMyNjA3WhcNMjMwODAzMTMyNjA3WjBJMRAwDgYDVQQDDAdHYXJsYW5kMQswCQYD
VQQGEwJJVDEPMA0GA1UECAwGSXRhbGlhMRcwFQYDVQQKDA5SZWdpb25lIE1hcmNo
ZTBZMBMGByqGSM49AgEGCCqGSM49AwEHA0IABCUv4IdGqZLXLdWEdWkMOxnnGvWT
abIrNfymTH7ZSZ2MCc4al7TfkDWUz/jB4Q3wL4tLdxoFkPRoHMctVyTq5w+jIzAh
MA4GA1UdDwEB/wQEAwIFoDAPBgNVHRMBAf8EBTADAgEDMAoGCCqGSM49BAMCA0gA
MEUCIQC1V6zZDBONJ8D6PLPRtAxrX2jh+2UPbp9LWOk6PxszWgIgSy9qVehv3T68
0N8CoqFOoCJvU11w/MPy5ZmBfwg2wQY=
-----END CERTIFICATE-----
