Certificate:
    Data:
        Version: 3 (0x2)
        Serial Number: 38 (0x26)
        Signature Algorithm: ecdsa-with-SHA256
        Issuer: CN=Regione Trentino_Alto_Adige, C=IT, ST=Italia, O=E-Voting system, OU=E-Voting system authority/emailAddress=Trentino_Alto_Adige@evoting.it
        Validity
            Not Before: Aug 26 15:20:54 2022 GMT
            Not After : Aug 26 15:20:54 2023 GMT
        Subject: CN=Gary, C=IT, ST=Italia, O=Regione Trentino_Alto_Adige
        Subject Public Key Info:
            Public Key Algorithm: id-ecPublicKey
                Public-Key: (256 bit)
                pub:
                    04:0e:67:f3:b5:94:d1:84:b9:3c:87:80:28:a2:fe:
                    95:e2:5e:c6:17:14:3c:40:f5:3b:8f:c5:57:08:3c:
                    66:4f:59:1f:84:6a:f5:de:9a:37:cc:9f:71:04:dd:
                    b9:02:9b:fc:2d:6e:01:e7:72:31:0c:3f:fd:ac:35:
                    98:c0:ed:67:6b
                ASN1 OID: secp256k1
        X509v3 extensions:
            X509v3 Key Usage: critical
                Digital Signature, Key Encipherment
            X509v3 Basic Constraints: critical
                CA:FALSE, pathlen:3
    Signature Algorithm: ecdsa-with-SHA256
         30:44:02:20:16:f7:38:bb:3a:f2:65:45:e1:59:dd:ad:79:2c:
         21:0c:a6:ef:0c:df:ad:19:9a:93:ce:28:ab:b9:eb:4a:cf:3c:
         02:20:0e:d0:98:08:e1:93:8f:28:ab:08:ce:6b:0e:54:fc:b3:
         41:59:85:bf:7a:a4:f9:89:f5:7a:94:61:da:68:40:18
-----BEGIN CERTIFICATE-----
MIICEzCCAbqgAwIBAgIBJjAKBggqhkjOPQQDAjCBsTEkMCIGA1UEAwwbUmVnaW9u
ZSBUcmVudGlub19BbHRvX0FkaWdlMQswCQYDVQQGEwJJVDEPMA0GA1UECAwGSXRh
bGlhMRgwFgYDVQQKDA9FLVZvdGluZyBzeXN0ZW0xIjAgBgNVBAsMGUUtVm90aW5n
IHN5c3RlbSBhdXRob3JpdHkxLTArBgkqhkiG9w0BCQEWHlRyZW50aW5vX0FsdG9f
QWRpZ2VAZXZvdGluZy5pdDAeFw0yMjA4MjYxNTIwNTRaFw0yMzA4MjYxNTIwNTRa
MFMxDTALBgNVBAMMBEdhcnkxCzAJBgNVBAYTAklUMQ8wDQYDVQQIDAZJdGFsaWEx
JDAiBgNVBAoMG1JlZ2lvbmUgVHJlbnRpbm9fQWx0b19BZGlnZTBWMBAGByqGSM49
AgEGBSuBBAAKA0IABA5n87WU0YS5PIeAKKL+leJexhcUPED1O4/FVwg8Zk9ZH4Rq
9d6aN8yfcQTduQKb/C1uAedyMQw//aw1mMDtZ2ujIzAhMA4GA1UdDwEB/wQEAwIF
oDAPBgNVHRMBAf8EBTADAgEDMAoGCCqGSM49BAMCA0cAMEQCIBb3OLs68mVF4Vnd
rXksIQym7wzfrRmak84oq7nrSs88AiAO0JgI4ZOPKKsIzmsOVPyzQVmFv3qk+Yn1
epRh2mhAGA==
-----END CERTIFICATE-----
