Certificate:
    Data:
        Version: 3 (0x2)
        Serial Number: 35 (0x23)
        Signature Algorithm: ecdsa-with-SHA256
        Issuer: CN=Regione Abruzzo, C=IT, ST=Italia, O=E-Voting system, OU=E-Voting system authority/emailAddress=Abruzzo@evoting.it
        Validity
            Not Before: Aug 26 15:20:51 2022 GMT
            Not After : Aug 26 15:20:51 2023 GMT
        Subject: CN=Gayle, C=IT, ST=Italia, O=Regione Abruzzo
        Subject Public Key Info:
            Public Key Algorithm: id-ecPublicKey
                Public-Key: (256 bit)
                pub:
                    04:bd:43:f8:b8:1d:04:cc:3a:a8:01:91:02:a6:38:
                    82:2c:6d:b1:5c:40:a2:a7:79:ab:fd:15:18:97:d7:
                    cf:b8:d3:72:23:15:49:9d:d0:2a:da:df:2a:bc:d5:
                    54:ff:08:77:91:10:c7:73:31:62:76:db:7b:f3:d0:
                    3c:66:83:e5:5b
                ASN1 OID: secp256k1
        X509v3 extensions:
            X509v3 Key Usage: critical
                Digital Signature, Key Encipherment
            X509v3 Basic Constraints: critical
                CA:FALSE, pathlen:3
    Signature Algorithm: ecdsa-with-SHA256
         30:45:02:20:4f:38:77:cd:cd:7f:77:97:a3:7d:55:8e:ef:7d:
         ae:42:1d:c7:58:27:a1:57:a9:4d:ee:a1:c4:ba:aa:91:33:ea:
         02:21:00:85:18:46:3a:db:1e:21:d0:6a:90:4b:18:6f:25:f0:
         cc:02:d1:78:1a:31:a0:d2:1c:10:70:4d:fa:c8:d5:46:43
-----BEGIN CERTIFICATE-----
MIIB8TCCAZegAwIBAgIBIzAKBggqhkjOPQQDAjCBmTEYMBYGA1UEAwwPUmVnaW9u
ZSBBYnJ1enpvMQswCQYDVQQGEwJJVDEPMA0GA1UECAwGSXRhbGlhMRgwFgYDVQQK
DA9FLVZvdGluZyBzeXN0ZW0xIjAgBgNVBAsMGUUtVm90aW5nIHN5c3RlbSBhdXRo
b3JpdHkxITAfBgkqhkiG9w0BCQEWEkFicnV6em9AZXZvdGluZy5pdDAeFw0yMjA4
MjYxNTIwNTFaFw0yMzA4MjYxNTIwNTFaMEgxDjAMBgNVBAMMBUdheWxlMQswCQYD
VQQGEwJJVDEPMA0GA1UECAwGSXRhbGlhMRgwFgYDVQQKDA9SZWdpb25lIEFicnV6
em8wVjAQBgcqhkjOPQIBBgUrgQQACgNCAAS9Q/i4HQTMOqgBkQKmOIIsbbFcQKKn
eav9FRiX18+403IjFUmd0Cra3yq81VT/CHeREMdzMWJ223vz0Dxmg+VboyMwITAO
BgNVHQ8BAf8EBAMCBaAwDwYDVR0TAQH/BAUwAwIBAzAKBggqhkjOPQQDAgNIADBF
AiBPOHfNzX93l6N9VY7vfa5CHcdYJ6FXqU3uocS6qpEz6gIhAIUYRjrbHiHQapBL
GG8l8MwC0XgaMaDSHBBwTfrI1UZD
-----END CERTIFICATE-----
