Certificate:
    Data:
        Version: 3 (0x2)
        Serial Number: 46 (0x2e)
        Signature Algorithm: ecdsa-with-SHA256
        Issuer: CN=Regione Valle_d_Aosta, C=IT, ST=Italia, O=E-Voting system, OU=E-Voting system authority/emailAddress=Valle_d_Aosta@evoting.it
        Validity
            Not Before: Aug 26 15:21:17 2022 GMT
            Not After : Aug 26 15:21:17 2023 GMT
        Subject: CN=Gene, C=IT, ST=Italia, O=Regione Valle_d_Aosta
        Subject Public Key Info:
            Public Key Algorithm: id-ecPublicKey
                Public-Key: (256 bit)
                pub:
                    04:7b:d0:db:74:36:a7:e5:a5:aa:59:dc:e6:c8:ea:
                    4a:f9:58:63:aa:c1:51:6c:e5:82:17:1d:b0:f2:7b:
                    85:8c:85:1e:69:21:c2:dd:e7:00:35:cf:c9:77:6f:
                    86:e3:68:f9:b9:6e:f7:64:39:33:43:fd:cc:87:10:
                    cd:7c:de:73:b8
                ASN1 OID: secp256k1
        X509v3 extensions:
            X509v3 Key Usage: critical
                Digital Signature, Key Encipherment
            X509v3 Basic Constraints: critical
                CA:FALSE, pathlen:3
    Signature Algorithm: ecdsa-with-SHA256
         30:45:02:21:00:c9:48:84:99:5c:c1:08:3b:2f:8e:78:e8:a9:
         d0:a4:3e:ed:10:fa:7c:ed:40:4c:b6:6e:bf:78:c4:b5:79:d5:
         9d:02:20:68:b0:39:43:c9:33:fc:75:0c:7a:32:d1:79:57:21:
         42:0a:13:16:67:a8:44:6d:cb:dd:f1:f2:86:15:ba:28:82
-----BEGIN CERTIFICATE-----
MIICAjCCAaigAwIBAgIBLjAKBggqhkjOPQQDAjCBpTEeMBwGA1UEAwwVUmVnaW9u
ZSBWYWxsZV9kX0Fvc3RhMQswCQYDVQQGEwJJVDEPMA0GA1UECAwGSXRhbGlhMRgw
FgYDVQQKDA9FLVZvdGluZyBzeXN0ZW0xIjAgBgNVBAsMGUUtVm90aW5nIHN5c3Rl
bSBhdXRob3JpdHkxJzAlBgkqhkiG9w0BCQEWGFZhbGxlX2RfQW9zdGFAZXZvdGlu
Zy5pdDAeFw0yMjA4MjYxNTIxMTdaFw0yMzA4MjYxNTIxMTdaME0xDTALBgNVBAMM
BEdlbmUxCzAJBgNVBAYTAklUMQ8wDQYDVQQIDAZJdGFsaWExHjAcBgNVBAoMFVJl
Z2lvbmUgVmFsbGVfZF9Bb3N0YTBWMBAGByqGSM49AgEGBSuBBAAKA0IABHvQ23Q2
p+Wlqlnc5sjqSvlYY6rBUWzlghcdsPJ7hYyFHmkhwt3nADXPyXdvhuNo+blu92Q5
M0P9zIcQzXzec7ijIzAhMA4GA1UdDwEB/wQEAwIFoDAPBgNVHRMBAf8EBTADAgED
MAoGCCqGSM49BAMCA0gAMEUCIQDJSISZXMEIOy+OeOip0KQ+7RD6fO1ATLZuv3jE
tXnVnQIgaLA5Q8kz/HUMejLReVchQgoTFmeoRG3L3fHyhhW6KII=
-----END CERTIFICATE-----
