Certificate:
    Data:
        Version: 3 (0x2)
        Serial Number: 14 (0xe)
        Signature Algorithm: ecdsa-with-SHA256
        Issuer: CN=Regione Valle_d_Aosta, C=IT, ST=Italia, O=E-Voting system, OU=E-Voting system authority/emailAddress=Valle_d_Aosta@evoting.it
        Validity
            Not Before: Aug  3 13:26:25 2022 GMT
            Not After : Aug  3 13:26:25 2023 GMT
        Subject: CN=Genevieve, C=IT, ST=Italia, O=Regione Valle_d_Aosta
        Subject Public Key Info:
            Public Key Algorithm: id-ecPublicKey
                Public-Key: (256 bit)
                pub:
                    04:ca:e6:bd:c1:b1:37:ea:ff:1f:c3:fa:e6:cf:03:
                    f1:50:6d:5e:93:21:75:ab:56:90:12:7d:12:b5:07:
                    12:03:a9:0d:c2:25:27:5e:d2:a7:96:4d:82:ea:19:
                    15:70:37:6c:c1:2b:af:75:88:13:dd:54:e8:d1:d3:
                    88:01:26:3f:fe
                ASN1 OID: prime256v1
                NIST CURVE: P-256
        X509v3 extensions:
            X509v3 Key Usage: critical
                Digital Signature, Key Encipherment
            X509v3 Basic Constraints: critical
                CA:FALSE, pathlen:3
    Signature Algorithm: ecdsa-with-SHA256
         30:45:02:20:75:76:be:ed:bd:21:79:06:ce:f4:b0:e3:61:59:
         86:85:66:59:d9:6a:73:22:f2:cd:55:2f:7e:38:83:18:83:cc:
         02:21:00:ab:c7:f0:91:78:b3:70:46:b4:03:8c:e3:0c:75:72:
         43:ac:2a:b6:63:70:bb:99:eb:4c:51:52:33:87:5a:99:14
-----BEGIN CERTIFICATE-----
MIICCjCCAbCgAwIBAgIBDjAKBggqhkjOPQQDAjCBpTEeMBwGA1UEAwwVUmVnaW9u
ZSBWYWxsZV9kX0Fvc3RhMQswCQYDVQQGEwJJVDEPMA0GA1UECAwGSXRhbGlhMRgw
FgYDVQQKDA9FLVZvdGluZyBzeXN0ZW0xIjAgBgNVBAsMGUUtVm90aW5nIHN5c3Rl
bSBhdXRob3JpdHkxJzAlBgkqhkiG9w0BCQEWGFZhbGxlX2RfQW9zdGFAZXZvdGlu
Zy5pdDAeFw0yMjA4MDMxMzI2MjVaFw0yMzA4MDMxMzI2MjVaMFIxEjAQBgNVBAMM
CUdlbmV2aWV2ZTELMAkGA1UEBhMCSVQxDzANBgNVBAgMBkl0YWxpYTEeMBwGA1UE
CgwVUmVnaW9uZSBWYWxsZV9kX0Fvc3RhMFkwEwYHKoZIzj0CAQYIKoZIzj0DAQcD
QgAEyua9wbE36v8fw/rmzwPxUG1ekyF1q1aQEn0StQcSA6kNwiUnXtKnlk2C6hkV
cDdswSuvdYgT3VTo0dOIASY//qMjMCEwDgYDVR0PAQH/BAQDAgWgMA8GA1UdEwEB
/wQFMAMCAQMwCgYIKoZIzj0EAwIDSAAwRQIgdXa+7b0heQbO9LDjYVmGhWZZ2Wpz
IvLNVS9+OIMYg8wCIQCrx/CReLNwRrQDjOMMdXJDrCq2Y3C7metMUVIzh1qZFA==
-----END CERTIFICATE-----
