Certificate:
    Data:
        Version: 3 (0x2)
        Serial Number: 10 (0xa)
        Signature Algorithm: ecdsa-with-SHA256
        Issuer: CN=Regione Basilicata, C=IT, ST=Italia, O=E-Voting system, OU=E-Voting system authority/emailAddress=Basilicata@evoting.it
        Validity
            Not Before: Aug 26 15:19:10 2022 GMT
            Not After : Aug 26 15:19:10 2023 GMT
        Subject: CN=Genevieve, C=IT, ST=Italia, O=Regione Basilicata
        Subject Public Key Info:
            Public Key Algorithm: id-ecPublicKey
                Public-Key: (256 bit)
                pub:
                    04:37:bb:6a:9b:d8:bf:d3:db:8a:96:28:b6:bf:f2:
                    31:79:57:9d:50:9b:a7:6e:4e:de:d1:ff:83:8a:e2:
                    13:68:ea:75:19:07:9a:a6:c5:70:c8:0f:ef:2c:87:
                    71:b7:e5:3c:0a:fd:c3:02:f3:72:c4:40:2c:80:1c:
                    5c:84:5b:00:30
                ASN1 OID: secp256k1
        X509v3 extensions:
            X509v3 Key Usage: critical
                Digital Signature, Key Encipherment
            X509v3 Basic Constraints: critical
                CA:FALSE, pathlen:3
    Signature Algorithm: ecdsa-with-SHA256
         30:45:02:21:00:aa:ae:51:03:00:74:b8:61:ab:35:0b:42:35:
         a7:73:7a:2c:fc:1d:45:9d:aa:a5:bd:e2:28:02:74:a9:93:c9:
         eb:02:20:64:b9:69:e3:d8:0f:94:0b:e4:bd:19:cc:56:9e:ed:
         8e:5d:a5:f7:90:a9:fa:5f:35:32:ce:3a:2f:f4:0c:e3:23
-----BEGIN CERTIFICATE-----
MIIB/jCCAaSgAwIBAgIBCjAKBggqhkjOPQQDAjCBnzEbMBkGA1UEAwwSUmVnaW9u
ZSBCYXNpbGljYXRhMQswCQYDVQQGEwJJVDEPMA0GA1UECAwGSXRhbGlhMRgwFgYD
VQQKDA9FLVZvdGluZyBzeXN0ZW0xIjAgBgNVBAsMGUUtVm90aW5nIHN5c3RlbSBh
dXRob3JpdHkxJDAiBgkqhkiG9w0BCQEWFUJhc2lsaWNhdGFAZXZvdGluZy5pdDAe
Fw0yMjA4MjYxNTE5MTBaFw0yMzA4MjYxNTE5MTBaME8xEjAQBgNVBAMMCUdlbmV2
aWV2ZTELMAkGA1UEBhMCSVQxDzANBgNVBAgMBkl0YWxpYTEbMBkGA1UECgwSUmVn
aW9uZSBCYXNpbGljYXRhMFYwEAYHKoZIzj0CAQYFK4EEAAoDQgAEN7tqm9i/09uK
lii2v/IxeVedUJunbk7e0f+DiuITaOp1GQeapsVwyA/vLIdxt+U8Cv3DAvNyxEAs
gBxchFsAMKMjMCEwDgYDVR0PAQH/BAQDAgWgMA8GA1UdEwEB/wQFMAMCAQMwCgYI
KoZIzj0EAwIDSAAwRQIhAKquUQMAdLhhqzULQjWnc3os/B1FnaqlveIoAnSpk8nr
AiBkuWnj2A+UC+S9GcxWnu2OXaX3kKn6XzUyzjov9AzjIw==
-----END CERTIFICATE-----
