Certificate:
    Data:
        Version: 3 (0x2)
        Serial Number: 37 (0x25)
        Signature Algorithm: ecdsa-with-SHA256
        Issuer: CN=Regione Liguria, C=IT, ST=Italia, O=E-Voting system, OU=E-Voting system authority/emailAddress=Liguria@evoting.it
        Validity
            Not Before: Aug 26 15:20:10 2022 GMT
            Not After : Aug 26 15:20:10 2023 GMT
        Subject: CN=George, C=IT, ST=Italia, O=Regione Liguria
        Subject Public Key Info:
            Public Key Algorithm: id-ecPublicKey
                Public-Key: (256 bit)
                pub:
                    04:eb:c7:e0:1d:ac:0a:7f:df:f3:c6:cf:00:6e:dd:
                    19:66:3e:43:5a:5c:43:47:ea:bb:b7:03:73:e9:0f:
                    8f:30:e5:41:ed:f2:e7:46:15:f4:56:54:5c:db:84:
                    b3:9e:fc:f6:5f:9f:62:cc:b6:16:ef:64:3e:78:91:
                    79:74:cb:b9:91
                ASN1 OID: secp256k1
        X509v3 extensions:
            X509v3 Key Usage: critical
                Digital Signature, Key Encipherment
            X509v3 Basic Constraints: critical
                CA:FALSE, pathlen:3
    Signature Algorithm: ecdsa-with-SHA256
         30:46:02:21:00:df:5b:45:e7:94:d8:01:15:97:ac:7b:ef:42:
         99:89:0d:08:75:b1:89:2e:c3:16:06:eb:4a:8b:1e:3f:ba:61:
         f7:02:21:00:d8:4b:d3:5d:c6:4d:cb:d2:02:1a:2d:b1:2d:77:
         67:11:8c:a6:d1:52:da:35:c7:34:6c:9f:6f:16:8a:f4:9d:58
-----BEGIN CERTIFICATE-----
MIIB8zCCAZigAwIBAgIBJTAKBggqhkjOPQQDAjCBmTEYMBYGA1UEAwwPUmVnaW9u
ZSBMaWd1cmlhMQswCQYDVQQGEwJJVDEPMA0GA1UECAwGSXRhbGlhMRgwFgYDVQQK
DA9FLVZvdGluZyBzeXN0ZW0xIjAgBgNVBAsMGUUtVm90aW5nIHN5c3RlbSBhdXRo
b3JpdHkxITAfBgkqhkiG9w0BCQEWEkxpZ3VyaWFAZXZvdGluZy5pdDAeFw0yMjA4
MjYxNTIwMTBaFw0yMzA4MjYxNTIwMTBaMEkxDzANBgNVBAMMBkdlb3JnZTELMAkG
A1UEBhMCSVQxDzANBgNVBAgMBkl0YWxpYTEYMBYGA1UECgwPUmVnaW9uZSBMaWd1
cmlhMFYwEAYHKoZIzj0CAQYFK4EEAAoDQgAE68fgHawKf9/zxs8Abt0ZZj5DWlxD
R+q7twNz6Q+PMOVB7fLnRhX0VlRc24Sznvz2X59izLYW72Q+eJF5dMu5kaMjMCEw
DgYDVR0PAQH/BAQDAgWgMA8GA1UdEwEB/wQFMAMCAQMwCgYIKoZIzj0EAwIDSQAw
RgIhAN9bReeU2AEVl6x770KZiQ0IdbGJLsMWButKix4/umH3AiEA2EvTXcZNy9IC
Gi2xLXdnEYym0VLaNcc0bJ9vFor0nVg=
-----END CERTIFICATE-----
