Certificate:
    Data:
        Version: 3 (0x2)
        Serial Number: 8 (0x8)
        Signature Algorithm: ecdsa-with-SHA256
        Issuer: CN=Regione Piemonte, C=IT, ST=Italia, O=E-Voting system, OU=E-Voting system authority/emailAddress=Piemonte@evoting.it
        Validity
            Not Before: Aug 26 15:18:56 2022 GMT
            Not After : Aug 26 15:18:56 2023 GMT
        Subject: CN=Georgina, C=IT, ST=Italia, O=Regione Piemonte
        Subject Public Key Info:
            Public Key Algorithm: id-ecPublicKey
                Public-Key: (256 bit)
                pub:
                    04:98:d8:7e:d6:ef:94:52:0b:7b:b8:4f:6d:cd:6e:
                    0b:d1:e6:57:f8:e7:8d:b3:10:5e:33:af:55:5c:a1:
                    b6:04:b4:fb:9d:23:86:ca:b8:44:90:03:92:53:c8:
                    8c:9d:df:13:fe:38:27:40:96:73:8b:45:5f:3a:54:
                    cb:29:86:c6:f5
                ASN1 OID: secp256k1
        X509v3 extensions:
            X509v3 Key Usage: critical
                Digital Signature, Key Encipherment
            X509v3 Basic Constraints: critical
                CA:FALSE, pathlen:3
    Signature Algorithm: ecdsa-with-SHA256
         30:45:02:20:55:2c:6b:2d:c3:ba:6c:13:4e:80:4c:e4:09:e1:
         09:48:38:f0:ed:82:a5:7f:ea:2b:52:43:5a:aa:a4:ad:fa:cd:
         02:21:00:e6:cd:b5:cd:3a:f6:6a:30:8c:52:2a:ea:88:cc:62:
         1c:33:75:73:77:af:ab:55:a9:b4:be:14:33:01:f6:e5:7c
-----BEGIN CERTIFICATE-----
MIIB9zCCAZ2gAwIBAgIBCDAKBggqhkjOPQQDAjCBmzEZMBcGA1UEAwwQUmVnaW9u
ZSBQaWVtb250ZTELMAkGA1UEBhMCSVQxDzANBgNVBAgMBkl0YWxpYTEYMBYGA1UE
CgwPRS1Wb3Rpbmcgc3lzdGVtMSIwIAYDVQQLDBlFLVZvdGluZyBzeXN0ZW0gYXV0
aG9yaXR5MSIwIAYJKoZIhvcNAQkBFhNQaWVtb250ZUBldm90aW5nLml0MB4XDTIy
MDgyNjE1MTg1NloXDTIzMDgyNjE1MTg1NlowTDERMA8GA1UEAwwIR2VvcmdpbmEx
CzAJBgNVBAYTAklUMQ8wDQYDVQQIDAZJdGFsaWExGTAXBgNVBAoMEFJlZ2lvbmUg
UGllbW9udGUwVjAQBgcqhkjOPQIBBgUrgQQACgNCAASY2H7W75RSC3u4T23NbgvR
5lf4542zEF4zr1VcobYEtPudI4bKuESQA5JTyIyd3xP+OCdAlnOLRV86VMsphsb1
oyMwITAOBgNVHQ8BAf8EBAMCBaAwDwYDVR0TAQH/BAUwAwIBAzAKBggqhkjOPQQD
AgNIADBFAiBVLGstw7psE06ATOQJ4QlIOPDtgqV/6itSQ1qqpK36zQIhAObNtc06
9mowjFIq6ojMYhwzdXN3r6tVqbS+FDMB9uV8
-----END CERTIFICATE-----
