Certificate:
    Data:
        Version: 3 (0x2)
        Serial Number: 10 (0xa)
        Signature Algorithm: ecdsa-with-SHA256
        Issuer: CN=Regione Friuli_Venezia_Giulia, C=IT, ST=Italia, O=E-Voting system, OU=E-Voting system authority/emailAddress=Friuli_Venezia_Giulia@evoting.it
        Validity
            Not Before: Aug 26 15:19:08 2022 GMT
            Not After : Aug 26 15:19:08 2023 GMT
        Subject: CN=Geraldine, C=IT, ST=Italia, O=Regione Friuli_Venezia_Giulia
        Subject Public Key Info:
            Public Key Algorithm: id-ecPublicKey
                Public-Key: (256 bit)
                pub:
                    04:e9:79:9f:71:48:1d:20:61:bd:40:5e:01:4a:ba:
                    0b:e1:5a:44:95:e4:93:83:51:3b:7c:15:5e:b6:1f:
                    d0:69:d1:81:7a:91:e4:fa:f6:89:47:d9:c5:d8:1a:
                    88:0b:f1:86:3b:15:90:34:02:fa:3b:21:86:e5:9e:
                    b8:81:37:ad:56
                ASN1 OID: secp256k1
        X509v3 extensions:
            X509v3 Key Usage: critical
                Digital Signature, Key Encipherment
            X509v3 Basic Constraints: critical
                CA:FALSE, pathlen:3
    Signature Algorithm: ecdsa-with-SHA256
         30:45:02:20:78:f9:39:80:61:00:93:88:d0:3f:11:17:88:4d:
         1c:af:66:d4:ee:00:ce:26:2c:2a:65:5b:ba:3a:c5:27:62:b5:
         02:21:00:d5:ea:e3:a7:62:42:31:36:43:d9:e5:d3:41:4e:65:
         f0:d4:18:bf:b7:50:26:72:36:15:27:2c:be:55:71:8d:dc
-----BEGIN CERTIFICATE-----
MIICHzCCAcWgAwIBAgIBCjAKBggqhkjOPQQDAjCBtTEmMCQGA1UEAwwdUmVnaW9u
ZSBGcml1bGlfVmVuZXppYV9HaXVsaWExCzAJBgNVBAYTAklUMQ8wDQYDVQQIDAZJ
dGFsaWExGDAWBgNVBAoMD0UtVm90aW5nIHN5c3RlbTEiMCAGA1UECwwZRS1Wb3Rp
bmcgc3lzdGVtIGF1dGhvcml0eTEvMC0GCSqGSIb3DQEJARYgRnJpdWxpX1ZlbmV6
aWFfR2l1bGlhQGV2b3RpbmcuaXQwHhcNMjIwODI2MTUxOTA4WhcNMjMwODI2MTUx
OTA4WjBaMRIwEAYDVQQDDAlHZXJhbGRpbmUxCzAJBgNVBAYTAklUMQ8wDQYDVQQI
DAZJdGFsaWExJjAkBgNVBAoMHVJlZ2lvbmUgRnJpdWxpX1ZlbmV6aWFfR2l1bGlh
MFYwEAYHKoZIzj0CAQYFK4EEAAoDQgAE6XmfcUgdIGG9QF4BSroL4VpEleSTg1E7
fBVeth/QadGBepHk+vaJR9nF2BqIC/GGOxWQNAL6OyGG5Z64gTetVqMjMCEwDgYD
VR0PAQH/BAQDAgWgMA8GA1UdEwEB/wQFMAMCAQMwCgYIKoZIzj0EAwIDSAAwRQIg
ePk5gGEAk4jQPxEXiE0cr2bU7gDOJiwqZVu6OsUnYrUCIQDV6uOnYkIxNkPZ5dNB
TmXw1Bi/t1AmcjYVJyy+VXGN3A==
-----END CERTIFICATE-----
