Certificate:
    Data:
        Version: 3 (0x2)
        Serial Number: 31 (0x1f)
        Signature Algorithm: ecdsa-with-SHA256
        Issuer: CN=Regione Calabria, C=IT, ST=Italia, O=E-Voting system, OU=E-Voting system authority/emailAddress=Calabria@evoting.it
        Validity
            Not Before: Aug 26 15:20:55 2022 GMT
            Not After : Aug 26 15:20:55 2023 GMT
        Subject: CN=Gerald, C=IT, ST=Italia, O=Regione Calabria
        Subject Public Key Info:
            Public Key Algorithm: id-ecPublicKey
                Public-Key: (256 bit)
                pub:
                    04:59:79:a0:d6:e9:6d:2a:34:40:bb:bf:5f:c1:c4:
                    b3:6f:65:df:e0:1a:10:ce:ef:69:30:d9:8b:58:d8:
                    a4:93:41:67:5a:a6:bb:89:b4:68:13:b6:a1:1e:24:
                    7b:a6:13:57:72:db:c0:83:74:51:fd:cd:8a:3d:e1:
                    28:f1:e3:38:e0
                ASN1 OID: secp256k1
        X509v3 extensions:
            X509v3 Key Usage: critical
                Digital Signature, Key Encipherment
            X509v3 Basic Constraints: critical
                CA:FALSE, pathlen:3
    Signature Algorithm: ecdsa-with-SHA256
         30:46:02:21:00:9f:9d:24:1d:ff:ff:a9:f7:7e:b7:21:19:d8:
         84:93:db:04:6e:fd:01:ae:49:48:aa:e8:b8:9f:39:2a:23:f0:
         fe:02:21:00:ff:c1:65:d3:c6:db:a1:32:b6:73:1f:1a:9b:ce:
         0a:49:cd:c8:0a:88:38:0c:b0:9d:07:32:f3:c7:67:dd:a3:34
-----BEGIN CERTIFICATE-----
MIIB9jCCAZugAwIBAgIBHzAKBggqhkjOPQQDAjCBmzEZMBcGA1UEAwwQUmVnaW9u
ZSBDYWxhYnJpYTELMAkGA1UEBhMCSVQxDzANBgNVBAgMBkl0YWxpYTEYMBYGA1UE
CgwPRS1Wb3Rpbmcgc3lzdGVtMSIwIAYDVQQLDBlFLVZvdGluZyBzeXN0ZW0gYXV0
aG9yaXR5MSIwIAYJKoZIhvcNAQkBFhNDYWxhYnJpYUBldm90aW5nLml0MB4XDTIy
MDgyNjE1MjA1NVoXDTIzMDgyNjE1MjA1NVowSjEPMA0GA1UEAwwGR2VyYWxkMQsw
CQYDVQQGEwJJVDEPMA0GA1UECAwGSXRhbGlhMRkwFwYDVQQKDBBSZWdpb25lIENh
bGFicmlhMFYwEAYHKoZIzj0CAQYFK4EEAAoDQgAEWXmg1ultKjRAu79fwcSzb2Xf
4BoQzu9pMNmLWNikk0FnWqa7ibRoE7ahHiR7phNXctvAg3RR/c2KPeEo8eM44KMj
MCEwDgYDVR0PAQH/BAQDAgWgMA8GA1UdEwEB/wQFMAMCAQMwCgYIKoZIzj0EAwID
SQAwRgIhAJ+dJB3//6n3frchGdiEk9sEbv0BrklIqui4nzkqI/D+AiEA/8Fl08bb
oTK2cx8am84KSc3ICog4DLCdBzLzx2fdozQ=
-----END CERTIFICATE-----
