Certificate:
    Data:
        Version: 3 (0x2)
        Serial Number: 24 (0x18)
        Signature Algorithm: ecdsa-with-SHA256
        Issuer: CN=Regione Basilicata, C=IT, ST=Italia, O=E-Voting system, OU=E-Voting system authority/emailAddress=Basilicata@evoting.it
        Validity
            Not Before: Aug  3 13:26:38 2022 GMT
            Not After : Aug  3 13:26:38 2023 GMT
        Subject: CN=Gerard, C=IT, ST=Italia, O=Regione Basilicata
        Subject Public Key Info:
            Public Key Algorithm: id-ecPublicKey
                Public-Key: (256 bit)
                pub:
                    04:29:df:e7:e7:66:b2:c5:ae:c5:8a:3c:56:2c:00:
                    b7:a0:f6:58:d2:0e:89:95:67:63:db:5f:f8:54:e7:
                    b8:cd:f8:8d:65:87:d4:d6:98:7f:29:8d:2f:d8:b2:
                    21:1f:df:4c:0b:dd:58:63:01:f6:0e:fe:68:2b:f3:
                    32:fb:35:02:f4
                ASN1 OID: prime256v1
                NIST CURVE: P-256
        X509v3 extensions:
            X509v3 Key Usage: critical
                Digital Signature, Key Encipherment
            X509v3 Basic Constraints: critical
                CA:FALSE, pathlen:3
    Signature Algorithm: ecdsa-with-SHA256
         30:45:02:20:78:9c:6b:35:e0:e2:a6:42:82:56:3d:0e:f0:06:
         9d:e6:4b:91:d8:76:ce:e8:3d:12:5c:6f:c9:c5:24:70:9f:f8:
         02:21:00:e9:32:f0:0d:ff:35:0e:30:e0:4d:d9:dc:3d:aa:0b:
         97:a6:33:3a:c4:0e:bf:76:28:d0:8a:2a:06:67:ed:65:44
-----BEGIN CERTIFICATE-----
MIIB/jCCAaSgAwIBAgIBGDAKBggqhkjOPQQDAjCBnzEbMBkGA1UEAwwSUmVnaW9u
ZSBCYXNpbGljYXRhMQswCQYDVQQGEwJJVDEPMA0GA1UECAwGSXRhbGlhMRgwFgYD
VQQKDA9FLVZvdGluZyBzeXN0ZW0xIjAgBgNVBAsMGUUtVm90aW5nIHN5c3RlbSBh
dXRob3JpdHkxJDAiBgkqhkiG9w0BCQEWFUJhc2lsaWNhdGFAZXZvdGluZy5pdDAe
Fw0yMjA4MDMxMzI2MzhaFw0yMzA4MDMxMzI2MzhaMEwxDzANBgNVBAMMBkdlcmFy
ZDELMAkGA1UEBhMCSVQxDzANBgNVBAgMBkl0YWxpYTEbMBkGA1UECgwSUmVnaW9u
ZSBCYXNpbGljYXRhMFkwEwYHKoZIzj0CAQYIKoZIzj0DAQcDQgAEKd/n52ayxa7F
ijxWLAC3oPZY0g6JlWdj21/4VOe4zfiNZYfU1ph/KY0v2LIhH99MC91YYwH2Dv5o
K/My+zUC9KMjMCEwDgYDVR0PAQH/BAQDAgWgMA8GA1UdEwEB/wQFMAMCAQMwCgYI
KoZIzj0EAwIDSAAwRQIgeJxrNeDipkKCVj0O8Aad5kuR2HbO6D0SXG/JxSRwn/gC
IQDpMvAN/zUOMOBN2dw9qguXpjM6xA6/dijQiioGZ+1lRA==
-----END CERTIFICATE-----
