Certificate:
    Data:
        Version: 3 (0x2)
        Serial Number: 27 (0x1b)
        Signature Algorithm: ecdsa-with-SHA256
        Issuer: CN=Regione Marche, C=IT, ST=Italia, O=E-Voting system, OU=E-Voting system authority/emailAddress=Marche@evoting.it
        Validity
            Not Before: Aug  3 13:27:12 2022 GMT
            Not After : Aug  3 13:27:12 2023 GMT
        Subject: CN=Geraldine, C=IT, ST=Italia, O=Regione Marche
        Subject Public Key Info:
            Public Key Algorithm: id-ecPublicKey
                Public-Key: (256 bit)
                pub:
                    04:76:f5:10:d7:47:3a:22:42:e4:ad:72:0f:65:eb:
                    55:cf:65:6d:fd:10:2a:43:fe:dd:9c:9b:eb:38:ea:
                    e2:8f:dd:e7:10:f2:24:7f:ab:ec:16:e3:5b:2d:58:
                    81:54:ee:6c:7b:3c:1b:8a:a6:a3:7b:9b:e6:b4:10:
                    28:df:c8:da:73
                ASN1 OID: prime256v1
                NIST CURVE: P-256
        X509v3 extensions:
            X509v3 Key Usage: critical
                Digital Signature, Key Encipherment
            X509v3 Basic Constraints: critical
                CA:FALSE, pathlen:3
    Signature Algorithm: ecdsa-with-SHA256
         30:44:02:20:43:b7:db:69:c6:e1:bd:8d:a9:88:e5:46:93:81:
         85:71:4a:94:42:99:a4:6c:32:a8:10:52:d5:9b:27:63:82:88:
         02:20:2c:f2:c0:21:44:72:0e:12:5d:cd:8f:06:38:14:6b:dc:
         04:61:9b:65:03:e9:33:84:64:cb:8d:59:53:58:94:a0
-----BEGIN CERTIFICATE-----
MIIB9DCCAZugAwIBAgIBGzAKBggqhkjOPQQDAjCBlzEXMBUGA1UEAwwOUmVnaW9u
ZSBNYXJjaGUxCzAJBgNVBAYTAklUMQ8wDQYDVQQIDAZJdGFsaWExGDAWBgNVBAoM
D0UtVm90aW5nIHN5c3RlbTEiMCAGA1UECwwZRS1Wb3Rpbmcgc3lzdGVtIGF1dGhv
cml0eTEgMB4GCSqGSIb3DQEJARYRTWFyY2hlQGV2b3RpbmcuaXQwHhcNMjIwODAz
MTMyNzEyWhcNMjMwODAzMTMyNzEyWjBLMRIwEAYDVQQDDAlHZXJhbGRpbmUxCzAJ
BgNVBAYTAklUMQ8wDQYDVQQIDAZJdGFsaWExFzAVBgNVBAoMDlJlZ2lvbmUgTWFy
Y2hlMFkwEwYHKoZIzj0CAQYIKoZIzj0DAQcDQgAEdvUQ10c6IkLkrXIPZetVz2Vt
/RAqQ/7dnJvrOOrij93nEPIkf6vsFuNbLViBVO5sezwbiqaje5vmtBAo38jac6Mj
MCEwDgYDVR0PAQH/BAQDAgWgMA8GA1UdEwEB/wQFMAMCAQMwCgYIKoZIzj0EAwID
RwAwRAIgQ7fbacbhvY2piOVGk4GFcUqUQpmkbDKoEFLVmydjgogCICzywCFEcg4S
Xc2PBjgUa9wEYZtlA+kzhGTLjVlTWJSg
-----END CERTIFICATE-----
