Certificate:
    Data:
        Version: 3 (0x2)
        Serial Number: 38 (0x26)
        Signature Algorithm: ecdsa-with-SHA256
        Issuer: CN=Regione Lombardia, C=IT, ST=Italia, O=E-Voting system, OU=E-Voting system authority/emailAddress=Lombardia@evoting.it
        Validity
            Not Before: Aug  3 13:27:55 2022 GMT
            Not After : Aug  3 13:27:55 2023 GMT
        Subject: CN=German, C=IT, ST=Italia, O=Regione Lombardia
        Subject Public Key Info:
            Public Key Algorithm: id-ecPublicKey
                Public-Key: (256 bit)
                pub:
                    04:c2:f9:7e:f8:b8:77:9c:51:97:a4:20:ce:a2:84:
                    10:0f:db:29:1e:3d:f2:14:53:71:7c:17:f1:e7:f0:
                    a6:8d:1a:dd:1b:66:e8:c9:e8:72:f2:7c:ad:30:fb:
                    34:dc:c9:49:56:d0:88:ac:52:35:b9:16:f0:ba:f0:
                    29:fb:be:22:ec
                ASN1 OID: prime256v1
                NIST CURVE: P-256
        X509v3 extensions:
            X509v3 Key Usage: critical
                Digital Signature, Key Encipherment
            X509v3 Basic Constraints: critical
                CA:FALSE, pathlen:3
    Signature Algorithm: ecdsa-with-SHA256
         30:46:02:21:00:f5:87:7a:d9:7a:b5:6b:f4:1c:07:f8:e8:de:
         4c:68:c6:30:35:7f:32:60:3b:75:88:b0:79:c4:9e:62:c0:3b:
         b8:02:21:00:bf:2e:6b:13:8c:f2:13:b2:ec:db:f0:30:1b:dc:
         4c:c7:16:36:a8:7c:73:07:95:2f:dc:9d:ab:96:66:27:87:c6
-----BEGIN CERTIFICATE-----
MIIB/DCCAaGgAwIBAgIBJjAKBggqhkjOPQQDAjCBnTEaMBgGA1UEAwwRUmVnaW9u
ZSBMb21iYXJkaWExCzAJBgNVBAYTAklUMQ8wDQYDVQQIDAZJdGFsaWExGDAWBgNV
BAoMD0UtVm90aW5nIHN5c3RlbTEiMCAGA1UECwwZRS1Wb3Rpbmcgc3lzdGVtIGF1
dGhvcml0eTEjMCEGCSqGSIb3DQEJARYUTG9tYmFyZGlhQGV2b3RpbmcuaXQwHhcN
MjIwODAzMTMyNzU1WhcNMjMwODAzMTMyNzU1WjBLMQ8wDQYDVQQDDAZHZXJtYW4x
CzAJBgNVBAYTAklUMQ8wDQYDVQQIDAZJdGFsaWExGjAYBgNVBAoMEVJlZ2lvbmUg
TG9tYmFyZGlhMFkwEwYHKoZIzj0CAQYIKoZIzj0DAQcDQgAEwvl++Lh3nFGXpCDO
ooQQD9spHj3yFFNxfBfx5/CmjRrdG2boyehy8nytMPs03MlJVtCIrFI1uRbwuvAp
+74i7KMjMCEwDgYDVR0PAQH/BAQDAgWgMA8GA1UdEwEB/wQFMAMCAQMwCgYIKoZI
zj0EAwIDSQAwRgIhAPWHetl6tWv0HAf46N5MaMYwNX8yYDt1iLB5xJ5iwDu4AiEA
vy5rE4zyE7Ls2/AwG9xMxxY2qHxzB5Uv3J2rlmYnh8Y=
-----END CERTIFICATE-----
