Certificate:
    Data:
        Version: 3 (0x2)
        Serial Number: 26 (0x1a)
        Signature Algorithm: ecdsa-with-SHA256
        Issuer: CN=Regione Marche, C=IT, ST=Italia, O=E-Voting system, OU=E-Voting system authority/emailAddress=Marche@evoting.it
        Validity
            Not Before: Aug 26 15:21:20 2022 GMT
            Not After : Aug 26 15:21:20 2023 GMT
        Subject: CN=Gertrude, C=IT, ST=Italia, O=Regione Marche
        Subject Public Key Info:
            Public Key Algorithm: id-ecPublicKey
                Public-Key: (256 bit)
                pub:
                    04:8a:5f:ec:d0:bf:9e:ec:7b:84:66:d5:01:60:34:
                    71:36:7e:fd:ab:c3:bb:4a:b2:ee:7b:fc:80:42:8a:
                    71:70:05:3e:fe:20:84:54:6d:73:60:f1:0b:fb:3b:
                    f0:9b:de:0e:36:6a:ef:4e:4b:26:c4:4a:20:16:5c:
                    83:b7:ff:b5:bd
                ASN1 OID: secp256k1
        X509v3 extensions:
            X509v3 Key Usage: critical
                Digital Signature, Key Encipherment
            X509v3 Basic Constraints: critical
                CA:FALSE, pathlen:3
    Signature Algorithm: ecdsa-with-SHA256
         30:45:02:20:72:16:55:fb:ec:e9:e1:33:cc:24:35:10:7f:e2:
         24:1b:b3:bd:0e:92:40:da:98:c9:8f:c8:cf:82:ce:aa:e1:bd:
         02:21:00:e4:8c:47:c5:74:3d:f4:20:62:cd:2b:66:9b:3c:a5:
         70:c4:0f:d7:44:cf:43:b4:cd:01:bf:e2:53:e0:55:91:30
-----BEGIN CERTIFICATE-----
MIIB8TCCAZegAwIBAgIBGjAKBggqhkjOPQQDAjCBlzEXMBUGA1UEAwwOUmVnaW9u
ZSBNYXJjaGUxCzAJBgNVBAYTAklUMQ8wDQYDVQQIDAZJdGFsaWExGDAWBgNVBAoM
D0UtVm90aW5nIHN5c3RlbTEiMCAGA1UECwwZRS1Wb3Rpbmcgc3lzdGVtIGF1dGhv
cml0eTEgMB4GCSqGSIb3DQEJARYRTWFyY2hlQGV2b3RpbmcuaXQwHhcNMjIwODI2
MTUyMTIwWhcNMjMwODI2MTUyMTIwWjBKMREwDwYDVQQDDAhHZXJ0cnVkZTELMAkG
A1UEBhMCSVQxDzANBgNVBAgMBkl0YWxpYTEXMBUGA1UECgwOUmVnaW9uZSBNYXJj
aGUwVjAQBgcqhkjOPQIBBgUrgQQACgNCAASKX+zQv57se4Rm1QFgNHE2fv2rw7tK
su57/IBCinFwBT7+IIRUbXNg8Qv7O/Cb3g42au9OSybESiAWXIO3/7W9oyMwITAO
BgNVHQ8BAf8EBAMCBaAwDwYDVR0TAQH/BAUwAwIBAzAKBggqhkjOPQQDAgNIADBF
AiByFlX77OnhM8wkNRB/4iQbs70OkkDamMmPyM+CzqrhvQIhAOSMR8V0PfQgYs0r
Zps8pXDED9dEz0O0zQG/4lPgVZEw
-----END CERTIFICATE-----
