Certificate:
    Data:
        Version: 3 (0x2)
        Serial Number: 20 (0x14)
        Signature Algorithm: ecdsa-with-SHA256
        Issuer: CN=Regione Emilia_Romagna, C=IT, ST=Italia, O=E-Voting system, OU=E-Voting system authority/emailAddress=Emilia_Romagna@evoting.it
        Validity
            Not Before: Aug  3 13:26:37 2022 GMT
            Not After : Aug  3 13:26:37 2023 GMT
        Subject: CN=Gidget, C=IT, ST=Italia, O=Regione Emilia_Romagna
        Subject Public Key Info:
            Public Key Algorithm: id-ecPublicKey
                Public-Key: (256 bit)
                pub:
                    04:38:39:32:7d:29:56:02:4a:70:4b:73:5e:64:87:
                    c8:96:3e:59:df:be:e7:9f:aa:52:1d:8c:66:d4:2e:
                    f5:45:8b:26:09:ac:70:1f:39:cb:90:f0:70:24:51:
                    76:8a:01:4c:4a:87:ac:0b:c6:a5:3e:50:bb:9e:52:
                    bb:42:df:79:45
                ASN1 OID: prime256v1
                NIST CURVE: P-256
        X509v3 extensions:
            X509v3 Key Usage: critical
                Digital Signature, Key Encipherment
            X509v3 Basic Constraints: critical
                CA:FALSE, pathlen:3
    Signature Algorithm: ecdsa-with-SHA256
         30:45:02:20:19:11:f3:df:22:37:ee:e9:53:5d:cf:0c:32:da:
         85:f7:ea:0e:8f:ec:1c:78:a0:6e:fa:7f:3e:c9:5c:39:c9:b4:
         02:21:00:f3:a1:96:ed:12:0a:2b:b9:46:19:58:8c:29:4e:2f:
         15:2c:81:50:42:28:34:9a:27:f0:b8:e6:d8:b1:16:87:61
-----BEGIN CERTIFICATE-----
MIICCjCCAbCgAwIBAgIBFDAKBggqhkjOPQQDAjCBpzEfMB0GA1UEAwwWUmVnaW9u
ZSBFbWlsaWFfUm9tYWduYTELMAkGA1UEBhMCSVQxDzANBgNVBAgMBkl0YWxpYTEY
MBYGA1UECgwPRS1Wb3Rpbmcgc3lzdGVtMSIwIAYDVQQLDBlFLVZvdGluZyBzeXN0
ZW0gYXV0aG9yaXR5MSgwJgYJKoZIhvcNAQkBFhlFbWlsaWFfUm9tYWduYUBldm90
aW5nLml0MB4XDTIyMDgwMzEzMjYzN1oXDTIzMDgwMzEzMjYzN1owUDEPMA0GA1UE
AwwGR2lkZ2V0MQswCQYDVQQGEwJJVDEPMA0GA1UECAwGSXRhbGlhMR8wHQYDVQQK
DBZSZWdpb25lIEVtaWxpYV9Sb21hZ25hMFkwEwYHKoZIzj0CAQYIKoZIzj0DAQcD
QgAEODkyfSlWAkpwS3NeZIfIlj5Z377nn6pSHYxm1C71RYsmCaxwHznLkPBwJFF2
igFMSoesC8alPlC7nlK7Qt95RaMjMCEwDgYDVR0PAQH/BAQDAgWgMA8GA1UdEwEB
/wQFMAMCAQMwCgYIKoZIzj0EAwIDSAAwRQIgGRHz3yI37ulTXc8MMtqF9+oOj+wc
eKBu+n8+yVw5ybQCIQDzoZbtEgoruUYZWIwpTi8VLIFQQig0mifwuObYsRaHYQ==
-----END CERTIFICATE-----
