Certificate:
    Data:
        Version: 3 (0x2)
        Serial Number: 15 (0xf)
        Signature Algorithm: ecdsa-with-SHA256
        Issuer: CN=Regione Puglia, C=IT, ST=Italia, O=E-Voting system, OU=E-Voting system authority/emailAddress=Puglia@evoting.it
        Validity
            Not Before: Aug 26 15:19:30 2022 GMT
            Not After : Aug 26 15:19:30 2023 GMT
        Subject: CN=Gilbert, C=IT, ST=Italia, O=Regione Puglia
        Subject Public Key Info:
            Public Key Algorithm: id-ecPublicKey
                Public-Key: (256 bit)
                pub:
                    04:93:31:ee:62:14:9e:86:11:7d:06:05:7e:0d:52:
                    83:5c:8c:bf:97:0e:fa:76:6e:d4:a5:8f:32:73:31:
                    e0:8c:c0:29:dc:92:58:b3:31:da:60:c8:9f:1c:97:
                    9f:fc:42:bd:5e:80:4f:6f:5a:da:a0:b3:84:c3:55:
                    16:14:6c:0a:79
                ASN1 OID: secp256k1
        X509v3 extensions:
            X509v3 Key Usage: critical
                Digital Signature, Key Encipherment
            X509v3 Basic Constraints: critical
                CA:FALSE, pathlen:3
    Signature Algorithm: ecdsa-with-SHA256
         30:45:02:20:41:26:70:ab:22:f8:9a:6e:69:49:90:3a:4c:f4:
         50:04:69:2e:7e:e3:e6:c0:ce:99:b8:83:f2:20:07:52:bb:bc:
         02:21:00:cc:06:25:47:0f:c0:bb:4b:58:1b:cd:f8:ee:c4:e1:
         71:18:00:56:94:61:b4:5b:90:9a:5c:30:85:98:23:c7:ed
-----BEGIN CERTIFICATE-----
MIIB8DCCAZagAwIBAgIBDzAKBggqhkjOPQQDAjCBlzEXMBUGA1UEAwwOUmVnaW9u
ZSBQdWdsaWExCzAJBgNVBAYTAklUMQ8wDQYDVQQIDAZJdGFsaWExGDAWBgNVBAoM
D0UtVm90aW5nIHN5c3RlbTEiMCAGA1UECwwZRS1Wb3Rpbmcgc3lzdGVtIGF1dGhv
cml0eTEgMB4GCSqGSIb3DQEJARYRUHVnbGlhQGV2b3RpbmcuaXQwHhcNMjIwODI2
MTUxOTMwWhcNMjMwODI2MTUxOTMwWjBJMRAwDgYDVQQDDAdHaWxiZXJ0MQswCQYD
VQQGEwJJVDEPMA0GA1UECAwGSXRhbGlhMRcwFQYDVQQKDA5SZWdpb25lIFB1Z2xp
YTBWMBAGByqGSM49AgEGBSuBBAAKA0IABJMx7mIUnoYRfQYFfg1Sg1yMv5cO+nZu
1KWPMnMx4IzAKdySWLMx2mDInxyXn/xCvV6AT29a2qCzhMNVFhRsCnmjIzAhMA4G
A1UdDwEB/wQEAwIFoDAPBgNVHRMBAf8EBTADAgEDMAoGCCqGSM49BAMCA0gAMEUC
IEEmcKsi+JpuaUmQOkz0UARpLn7j5sDOmbiD8iAHUru8AiEAzAYlRw/Au0tYG834
7sThcRgAVpRhtFuQmlwwhZgjx+0=
-----END CERTIFICATE-----
