Certificate:
    Data:
        Version: 3 (0x2)
        Serial Number: 29 (0x1d)
        Signature Algorithm: ecdsa-with-SHA256
        Issuer: CN=Regione Molise, C=IT, ST=Italia, O=E-Voting system, OU=E-Voting system authority/emailAddress=Molise@evoting.it
        Validity
            Not Before: Aug  3 13:27:14 2022 GMT
            Not After : Aug  3 13:27:14 2023 GMT
        Subject: CN=Gilberto, C=IT, ST=Italia, O=Regione Molise
        Subject Public Key Info:
            Public Key Algorithm: id-ecPublicKey
                Public-Key: (256 bit)
                pub:
                    04:d6:8a:b6:bf:49:9e:9d:c8:ab:e4:dd:8e:6b:88:
                    6d:07:b8:c7:fd:91:37:1a:14:cf:22:16:e1:aa:3d:
                    de:81:3c:ac:79:46:28:83:4f:49:4f:90:8b:0c:34:
                    79:b1:fb:9a:e0:84:5b:92:4a:4d:90:1a:9e:98:9e:
                    ec:97:4c:af:ef
                ASN1 OID: prime256v1
                NIST CURVE: P-256
        X509v3 extensions:
            X509v3 Key Usage: critical
                Digital Signature, Key Encipherment
            X509v3 Basic Constraints: critical
                CA:FALSE, pathlen:3
    Signature Algorithm: ecdsa-with-SHA256
         30:44:02:20:35:12:78:90:9b:4d:ea:d6:0f:85:c4:ae:69:15:
         42:1e:b0:2f:f2:d4:56:c3:ea:9f:dc:cc:52:e5:41:72:6a:a2:
         02:20:29:20:e3:fd:18:c4:07:03:fa:30:86:72:5e:0e:40:4d:
         e3:fb:1c:da:24:a7:c4:31:99:9c:92:30:23:a8:65:a3
-----BEGIN CERTIFICATE-----
MIIB8zCCAZqgAwIBAgIBHTAKBggqhkjOPQQDAjCBlzEXMBUGA1UEAwwOUmVnaW9u
ZSBNb2xpc2UxCzAJBgNVBAYTAklUMQ8wDQYDVQQIDAZJdGFsaWExGDAWBgNVBAoM
D0UtVm90aW5nIHN5c3RlbTEiMCAGA1UECwwZRS1Wb3Rpbmcgc3lzdGVtIGF1dGhv
cml0eTEgMB4GCSqGSIb3DQEJARYRTW9saXNlQGV2b3RpbmcuaXQwHhcNMjIwODAz
MTMyNzE0WhcNMjMwODAzMTMyNzE0WjBKMREwDwYDVQQDDAhHaWxiZXJ0bzELMAkG
A1UEBhMCSVQxDzANBgNVBAgMBkl0YWxpYTEXMBUGA1UECgwOUmVnaW9uZSBNb2xp
c2UwWTATBgcqhkjOPQIBBggqhkjOPQMBBwNCAATWira/SZ6dyKvk3Y5riG0HuMf9
kTcaFM8iFuGqPd6BPKx5RiiDT0lPkIsMNHmx+5rghFuSSk2QGp6YnuyXTK/voyMw
ITAOBgNVHQ8BAf8EBAMCBaAwDwYDVR0TAQH/BAUwAwIBAzAKBggqhkjOPQQDAgNH
ADBEAiA1EniQm03q1g+FxK5pFUIesC/y1FbD6p/czFLlQXJqogIgKSDj/RjEBwP6
MIZyXg5ATeP7HNokp8QxmZySMCOoZaM=
-----END CERTIFICATE-----
