Certificate:
    Data:
        Version: 3 (0x2)
        Serial Number: 23 (0x17)
        Signature Algorithm: ecdsa-with-SHA256
        Issuer: CN=Regione Basilicata, C=IT, ST=Italia, O=E-Voting system, OU=E-Voting system authority/emailAddress=Basilicata@evoting.it
        Validity
            Not Before: Aug 26 15:20:17 2022 GMT
            Not After : Aug 26 15:20:17 2023 GMT
        Subject: CN=Gina, C=IT, ST=Italia, O=Regione Basilicata
        Subject Public Key Info:
            Public Key Algorithm: id-ecPublicKey
                Public-Key: (256 bit)
                pub:
                    04:01:50:a7:73:db:39:84:c9:8d:6d:e5:86:cf:bb:
                    99:cd:d4:1b:a7:61:ae:1f:45:51:3b:dc:f4:b9:48:
                    d8:ac:e1:13:a6:5b:15:bb:e9:65:f3:39:2b:27:28:
                    a8:00:73:b2:ea:4e:d5:b1:48:58:83:db:46:1d:f1:
                    b5:cf:41:89:0f
                ASN1 OID: secp256k1
        X509v3 extensions:
            X509v3 Key Usage: critical
                Digital Signature, Key Encipherment
            X509v3 Basic Constraints: critical
                CA:FALSE, pathlen:3
    Signature Algorithm: ecdsa-with-SHA256
         30:46:02:21:00:f0:c4:2f:c5:0e:b7:b5:40:92:ca:ad:be:53:
         f4:20:68:fb:70:8b:e5:62:93:df:8e:d7:1b:a4:8c:15:0f:33:
         db:02:21:00:b7:37:de:eb:45:89:53:d1:81:2a:01:41:ae:0e:
         ba:06:4f:a1:d5:fd:3a:19:8a:00:26:01:94:0c:31:45:b6:58
-----BEGIN CERTIFICATE-----
MIIB+jCCAZ+gAwIBAgIBFzAKBggqhkjOPQQDAjCBnzEbMBkGA1UEAwwSUmVnaW9u
ZSBCYXNpbGljYXRhMQswCQYDVQQGEwJJVDEPMA0GA1UECAwGSXRhbGlhMRgwFgYD
VQQKDA9FLVZvdGluZyBzeXN0ZW0xIjAgBgNVBAsMGUUtVm90aW5nIHN5c3RlbSBh
dXRob3JpdHkxJDAiBgkqhkiG9w0BCQEWFUJhc2lsaWNhdGFAZXZvdGluZy5pdDAe
Fw0yMjA4MjYxNTIwMTdaFw0yMzA4MjYxNTIwMTdaMEoxDTALBgNVBAMMBEdpbmEx
CzAJBgNVBAYTAklUMQ8wDQYDVQQIDAZJdGFsaWExGzAZBgNVBAoMElJlZ2lvbmUg
QmFzaWxpY2F0YTBWMBAGByqGSM49AgEGBSuBBAAKA0IABAFQp3PbOYTJjW3lhs+7
mc3UG6dhrh9FUTvc9LlI2KzhE6ZbFbvpZfM5KycoqABzsupO1bFIWIPbRh3xtc9B
iQ+jIzAhMA4GA1UdDwEB/wQEAwIFoDAPBgNVHRMBAf8EBTADAgEDMAoGCCqGSM49
BAMCA0kAMEYCIQDwxC/FDre1QJLKrb5T9CBo+3CL5WKT347XG6SMFQ8z2wIhALc3
3utFiVPRgSoBQa4OugZPodX9OhmKACYBlAwxRbZY
-----END CERTIFICATE-----
