Certificate:
    Data:
        Version: 3 (0x2)
        Serial Number: 11 (0xb)
        Signature Algorithm: ecdsa-with-SHA256
        Issuer: CN=Regione Liguria, C=IT, ST=Italia, O=E-Voting system, OU=E-Voting system authority/emailAddress=Liguria@evoting.it
        Validity
            Not Before: Aug  3 13:26:08 2022 GMT
            Not After : Aug  3 13:26:08 2023 GMT
        Subject: CN=Gladis, C=IT, ST=Italia, O=Regione Liguria
        Subject Public Key Info:
            Public Key Algorithm: id-ecPublicKey
                Public-Key: (256 bit)
                pub:
                    04:17:82:2b:97:ec:3f:fd:9e:90:c0:fc:51:72:8b:
                    40:75:c4:cf:c7:86:64:88:4d:66:74:85:a3:ae:61:
                    ab:4f:d7:6f:00:68:e6:cc:ef:f5:2b:79:c9:70:10:
                    bc:1d:d8:2d:3e:65:67:39:9a:bd:b2:92:b0:f5:ed:
                    6b:a5:35:d0:93
                ASN1 OID: prime256v1
                NIST CURVE: P-256
        X509v3 extensions:
            X509v3 Key Usage: critical
                Digital Signature, Key Encipherment
            X509v3 Basic Constraints: critical
                CA:FALSE, pathlen:3
    Signature Algorithm: ecdsa-with-SHA256
         30:45:02:21:00:de:2f:18:24:cd:b2:fa:da:7a:87:ef:4b:d4:
         0f:1a:55:26:aa:db:81:cf:a6:9a:7b:d9:ac:bc:83:16:f8:6d:
         cb:02:20:35:69:cd:1b:fa:d0:9b:3b:bb:fb:9a:b6:14:1b:4e:
         92:cc:55:89:3b:e5:53:b9:d3:65:fc:78:75:47:3d:f7:e7
-----BEGIN CERTIFICATE-----
MIIB9TCCAZugAwIBAgIBCzAKBggqhkjOPQQDAjCBmTEYMBYGA1UEAwwPUmVnaW9u
ZSBMaWd1cmlhMQswCQYDVQQGEwJJVDEPMA0GA1UECAwGSXRhbGlhMRgwFgYDVQQK
DA9FLVZvdGluZyBzeXN0ZW0xIjAgBgNVBAsMGUUtVm90aW5nIHN5c3RlbSBhdXRo
b3JpdHkxITAfBgkqhkiG9w0BCQEWEkxpZ3VyaWFAZXZvdGluZy5pdDAeFw0yMjA4
MDMxMzI2MDhaFw0yMzA4MDMxMzI2MDhaMEkxDzANBgNVBAMMBkdsYWRpczELMAkG
A1UEBhMCSVQxDzANBgNVBAgMBkl0YWxpYTEYMBYGA1UECgwPUmVnaW9uZSBMaWd1
cmlhMFkwEwYHKoZIzj0CAQYIKoZIzj0DAQcDQgAEF4Irl+w//Z6QwPxRcotAdcTP
x4ZkiE1mdIWjrmGrT9dvAGjmzO/1K3nJcBC8HdgtPmVnOZq9spKw9e1rpTXQk6Mj
MCEwDgYDVR0PAQH/BAQDAgWgMA8GA1UdEwEB/wQFMAMCAQMwCgYIKoZIzj0EAwID
SAAwRQIhAN4vGCTNsvraeofvS9QPGlUmqtuBz6aae9msvIMW+G3LAiA1ac0b+tCb
O7v7mrYUG06SzFWJO+VTudNl/Hh1Rz335w==
-----END CERTIFICATE-----
