Certificate:
    Data:
        Version: 3 (0x2)
        Serial Number: 35 (0x23)
        Signature Algorithm: ecdsa-with-SHA256
        Issuer: CN=Regione Sardegna, C=IT, ST=Italia, O=E-Voting system, OU=E-Voting system authority/emailAddress=Sardegna@evoting.it
        Validity
            Not Before: Aug  3 13:28:05 2022 GMT
            Not After : Aug  3 13:28:05 2023 GMT
        Subject: CN=Gladys, C=IT, ST=Italia, O=Regione Sardegna
        Subject Public Key Info:
            Public Key Algorithm: id-ecPublicKey
                Public-Key: (256 bit)
                pub:
                    04:1b:fc:84:8f:56:b8:cd:03:22:84:7f:7a:75:ca:
                    e4:d6:89:64:20:51:2a:89:51:86:8d:0f:1a:86:93:
                    c0:9a:db:1a:93:83:2d:0b:2d:8d:f4:78:84:15:7b:
                    f2:0e:1a:45:04:34:ef:07:b8:91:5c:9a:df:08:a5:
                    00:88:cb:5b:9d
                ASN1 OID: prime256v1
                NIST CURVE: P-256
        X509v3 extensions:
            X509v3 Key Usage: critical
                Digital Signature, Key Encipherment
            X509v3 Basic Constraints: critical
                CA:FALSE, pathlen:3
    Signature Algorithm: ecdsa-with-SHA256
         30:45:02:20:74:6e:78:f4:84:18:dd:aa:1c:3d:18:d5:0a:9e:
         75:a5:0b:fc:c3:69:9b:3c:a4:04:aa:f3:a5:4f:8b:11:70:86:
         02:21:00:9b:aa:66:1e:f8:54:5b:54:82:18:a4:1f:e2:be:2a:
         d7:87:b9:94:b2:cb:a0:4a:07:5b:06:39:55:e2:4c:a9:3b
-----BEGIN CERTIFICATE-----
MIIB+DCCAZ6gAwIBAgIBIzAKBggqhkjOPQQDAjCBmzEZMBcGA1UEAwwQUmVnaW9u
ZSBTYXJkZWduYTELMAkGA1UEBhMCSVQxDzANBgNVBAgMBkl0YWxpYTEYMBYGA1UE
CgwPRS1Wb3Rpbmcgc3lzdGVtMSIwIAYDVQQLDBlFLVZvdGluZyBzeXN0ZW0gYXV0
aG9yaXR5MSIwIAYJKoZIhvcNAQkBFhNTYXJkZWduYUBldm90aW5nLml0MB4XDTIy
MDgwMzEzMjgwNVoXDTIzMDgwMzEzMjgwNVowSjEPMA0GA1UEAwwGR2xhZHlzMQsw
CQYDVQQGEwJJVDEPMA0GA1UECAwGSXRhbGlhMRkwFwYDVQQKDBBSZWdpb25lIFNh
cmRlZ25hMFkwEwYHKoZIzj0CAQYIKoZIzj0DAQcDQgAEG/yEj1a4zQMihH96dcrk
1olkIFEqiVGGjQ8ahpPAmtsak4MtCy2N9HiEFXvyDhpFBDTvB7iRXJrfCKUAiMtb
naMjMCEwDgYDVR0PAQH/BAQDAgWgMA8GA1UdEwEB/wQFMAMCAQMwCgYIKoZIzj0E
AwIDSAAwRQIgdG549IQY3aocPRjVCp51pQv8w2mbPKQEqvOlT4sRcIYCIQCbqmYe
+FRbVIIYpB/ivirXh7mUssugSgdbBjlV4kypOw==
-----END CERTIFICATE-----
