Certificate:
    Data:
        Version: 3 (0x2)
        Serial Number: 47 (0x2f)
        Signature Algorithm: ecdsa-with-SHA256
        Issuer: CN=Regione Molise, C=IT, ST=Italia, O=E-Voting system, OU=E-Voting system authority/emailAddress=Molise@evoting.it
        Validity
            Not Before: Aug 26 15:21:44 2022 GMT
            Not After : Aug 26 15:21:44 2023 GMT
        Subject: CN=Gladys, C=IT, ST=Italia, O=Regione Molise
        Subject Public Key Info:
            Public Key Algorithm: id-ecPublicKey
                Public-Key: (256 bit)
                pub:
                    04:ea:7b:03:31:fb:6c:e8:da:6a:be:72:61:84:dd:
                    4c:6b:c5:80:0b:ac:6c:46:bc:48:9a:5e:7c:ec:bc:
                    4a:2c:41:89:7b:c1:15:01:09:4f:d6:73:29:67:cb:
                    58:49:9d:59:a8:95:34:d6:47:e9:35:c9:25:14:27:
                    84:2a:71:f4:83
                ASN1 OID: secp256k1
        X509v3 extensions:
            X509v3 Key Usage: critical
                Digital Signature, Key Encipherment
            X509v3 Basic Constraints: critical
                CA:FALSE, pathlen:3
    Signature Algorithm: ecdsa-with-SHA256
         30:44:02:20:7d:87:96:28:aa:67:08:af:4a:fe:3d:57:55:74:
         d4:6d:ee:34:75:a3:b0:e7:9f:0c:bb:87:51:1d:de:cd:5c:8f:
         02:20:5c:90:b0:09:cf:d8:da:bc:f6:a1:58:a4:e1:ae:c1:9a:
         e3:ab:8b:e1:ed:16:ba:4b:db:86:3d:4a:11:2e:74:b3
-----BEGIN CERTIFICATE-----
MIIB7jCCAZWgAwIBAgIBLzAKBggqhkjOPQQDAjCBlzEXMBUGA1UEAwwOUmVnaW9u
ZSBNb2xpc2UxCzAJBgNVBAYTAklUMQ8wDQYDVQQIDAZJdGFsaWExGDAWBgNVBAoM
D0UtVm90aW5nIHN5c3RlbTEiMCAGA1UECwwZRS1Wb3Rpbmcgc3lzdGVtIGF1dGhv
cml0eTEgMB4GCSqGSIb3DQEJARYRTW9saXNlQGV2b3RpbmcuaXQwHhcNMjIwODI2
MTUyMTQ0WhcNMjMwODI2MTUyMTQ0WjBIMQ8wDQYDVQQDDAZHbGFkeXMxCzAJBgNV
BAYTAklUMQ8wDQYDVQQIDAZJdGFsaWExFzAVBgNVBAoMDlJlZ2lvbmUgTW9saXNl
MFYwEAYHKoZIzj0CAQYFK4EEAAoDQgAE6nsDMfts6NpqvnJhhN1Ma8WAC6xsRrxI
ml587LxKLEGJe8EVAQlP1nMpZ8tYSZ1ZqJU01kfpNcklFCeEKnH0g6MjMCEwDgYD
VR0PAQH/BAQDAgWgMA8GA1UdEwEB/wQFMAMCAQMwCgYIKoZIzj0EAwIDRwAwRAIg
fYeWKKpnCK9K/j1XVXTUbe40daOw558Mu4dRHd7NXI8CIFyQsAnP2Nq89qFYpOGu
wZrjq4vh7Ra6S9uGPUoRLnSz
-----END CERTIFICATE-----
