Certificate:
    Data:
        Version: 3 (0x2)
        Serial Number: 54 (0x36)
        Signature Algorithm: ecdsa-with-SHA256
        Issuer: CN=Regione Basilicata, C=IT, ST=Italia, O=E-Voting system, OU=E-Voting system authority/emailAddress=Basilicata@evoting.it
        Validity
            Not Before: Aug  3 13:28:38 2022 GMT
            Not After : Aug  3 13:28:38 2023 GMT
        Subject: CN=Glenda, C=IT, ST=Italia, O=Regione Basilicata
        Subject Public Key Info:
            Public Key Algorithm: id-ecPublicKey
                Public-Key: (256 bit)
                pub:
                    04:b8:08:6a:65:01:31:85:43:7f:62:34:44:12:ab:
                    89:62:f9:05:0b:2a:ac:61:bf:87:8f:f4:a3:07:5e:
                    6a:4e:12:9e:8d:9f:52:e3:91:b2:70:c1:e8:0f:1b:
                    64:17:88:3e:b3:01:52:01:90:12:81:33:bc:dd:2c:
                    08:b9:69:37:83
                ASN1 OID: prime256v1
                NIST CURVE: P-256
        X509v3 extensions:
            X509v3 Key Usage: critical
                Digital Signature, Key Encipherment
            X509v3 Basic Constraints: critical
                CA:FALSE, pathlen:3
    Signature Algorithm: ecdsa-with-SHA256
         30:44:02:20:6b:80:a6:c0:8d:1f:57:4e:99:76:4b:3e:02:87:
         ea:4c:63:84:91:f4:da:84:60:c2:d9:70:a4:a8:f7:af:48:c8:
         02:20:5e:58:f6:90:fe:4b:56:c9:a0:b4:25:e2:c2:c2:6f:99:
         e1:3d:3f:63:59:99:e1:b5:5a:fc:d1:ba:a6:f5:6e:62
-----BEGIN CERTIFICATE-----
MIIB/TCCAaSgAwIBAgIBNjAKBggqhkjOPQQDAjCBnzEbMBkGA1UEAwwSUmVnaW9u
ZSBCYXNpbGljYXRhMQswCQYDVQQGEwJJVDEPMA0GA1UECAwGSXRhbGlhMRgwFgYD
VQQKDA9FLVZvdGluZyBzeXN0ZW0xIjAgBgNVBAsMGUUtVm90aW5nIHN5c3RlbSBh
dXRob3JpdHkxJDAiBgkqhkiG9w0BCQEWFUJhc2lsaWNhdGFAZXZvdGluZy5pdDAe
Fw0yMjA4MDMxMzI4MzhaFw0yMzA4MDMxMzI4MzhaMEwxDzANBgNVBAMMBkdsZW5k
YTELMAkGA1UEBhMCSVQxDzANBgNVBAgMBkl0YWxpYTEbMBkGA1UECgwSUmVnaW9u
ZSBCYXNpbGljYXRhMFkwEwYHKoZIzj0CAQYIKoZIzj0DAQcDQgAEuAhqZQExhUN/
YjREEquJYvkFCyqsYb+Hj/SjB15qThKejZ9S45GycMHoDxtkF4g+swFSAZASgTO8
3SwIuWk3g6MjMCEwDgYDVR0PAQH/BAQDAgWgMA8GA1UdEwEB/wQFMAMCAQMwCgYI
KoZIzj0EAwIDRwAwRAIga4CmwI0fV06Zdks+AofqTGOEkfTahGDC2XCkqPevSMgC
IF5Y9pD+S1bJoLQl4sLCb5nhPT9jWZnhtVr80bqm9W5i
-----END CERTIFICATE-----
