Certificate:
    Data:
        Version: 3 (0x2)
        Serial Number: 44 (0x2c)
        Signature Algorithm: ecdsa-with-SHA256
        Issuer: CN=Regione Umbria, C=IT, ST=Italia, O=E-Voting system, OU=E-Voting system authority/emailAddress=Umbria@evoting.it
        Validity
            Not Before: Aug 26 15:21:07 2022 GMT
            Not After : Aug 26 15:21:07 2023 GMT
        Subject: CN=Glenda, C=IT, ST=Italia, O=Regione Umbria
        Subject Public Key Info:
            Public Key Algorithm: id-ecPublicKey
                Public-Key: (256 bit)
                pub:
                    04:b3:d5:9d:02:af:f3:23:da:d4:05:bc:ba:77:7d:
                    09:c4:7f:70:01:19:90:fd:14:af:6b:8d:f2:d9:06:
                    b4:85:b8:6d:35:5b:16:bb:57:c4:97:bd:84:ca:78:
                    88:62:fd:70:bf:6e:c7:81:d2:d3:48:40:e2:ee:68:
                    13:26:30:cb:49
                ASN1 OID: secp256k1
        X509v3 extensions:
            X509v3 Key Usage: critical
                Digital Signature, Key Encipherment
            X509v3 Basic Constraints: critical
                CA:FALSE, pathlen:3
    Signature Algorithm: ecdsa-with-SHA256
         30:46:02:21:00:ae:88:7e:5b:2c:36:14:90:13:bf:d0:e8:8f:
         76:ef:70:fb:27:68:1f:e4:8d:73:37:c6:26:fc:a3:b0:95:b3:
         cb:02:21:00:f5:21:21:62:4b:de:20:4a:55:a2:0e:82:d8:05:
         c6:42:e6:d7:f3:11:41:2d:f3:13:70:f3:81:91:d6:79:2f:8a
-----BEGIN CERTIFICATE-----
MIIB8DCCAZWgAwIBAgIBLDAKBggqhkjOPQQDAjCBlzEXMBUGA1UEAwwOUmVnaW9u
ZSBVbWJyaWExCzAJBgNVBAYTAklUMQ8wDQYDVQQIDAZJdGFsaWExGDAWBgNVBAoM
D0UtVm90aW5nIHN5c3RlbTEiMCAGA1UECwwZRS1Wb3Rpbmcgc3lzdGVtIGF1dGhv
cml0eTEgMB4GCSqGSIb3DQEJARYRVW1icmlhQGV2b3RpbmcuaXQwHhcNMjIwODI2
MTUyMTA3WhcNMjMwODI2MTUyMTA3WjBIMQ8wDQYDVQQDDAZHbGVuZGExCzAJBgNV
BAYTAklUMQ8wDQYDVQQIDAZJdGFsaWExFzAVBgNVBAoMDlJlZ2lvbmUgVW1icmlh
MFYwEAYHKoZIzj0CAQYFK4EEAAoDQgAEs9WdAq/zI9rUBby6d30JxH9wARmQ/RSv
a43y2Qa0hbhtNVsWu1fEl72EyniIYv1wv27HgdLTSEDi7mgTJjDLSaMjMCEwDgYD
VR0PAQH/BAQDAgWgMA8GA1UdEwEB/wQFMAMCAQMwCgYIKoZIzj0EAwIDSQAwRgIh
AK6IflssNhSQE7/Q6I9273D7J2gf5I1zN8Ym/KOwlbPLAiEA9SEhYkveIEpVog6C
2AXGQubX8xFBLfMTcPOBkdZ5L4o=
-----END CERTIFICATE-----
