Certificate:
    Data:
        Version: 3 (0x2)
        Serial Number: 38 (0x26)
        Signature Algorithm: ecdsa-with-SHA256
        Issuer: CN=Regione Puglia, C=IT, ST=Italia, O=E-Voting system, OU=E-Voting system authority/emailAddress=Puglia@evoting.it
        Validity
            Not Before: Aug  3 13:28:30 2022 GMT
            Not After : Aug  3 13:28:30 2023 GMT
        Subject: CN=Gloria, C=IT, ST=Italia, O=Regione Puglia
        Subject Public Key Info:
            Public Key Algorithm: id-ecPublicKey
                Public-Key: (256 bit)
                pub:
                    04:84:66:d9:d0:ca:e8:93:3e:ce:d8:88:a8:a9:94:
                    8f:6a:b5:86:93:1f:c4:1c:fb:d6:d7:d5:d0:99:ce:
                    17:f6:dd:5f:42:48:6d:c2:00:08:21:ae:9e:ef:aa:
                    18:cd:7f:82:b8:9a:74:e4:98:56:cb:c0:73:be:19:
                    0f:53:46:ea:7c
                ASN1 OID: prime256v1
                NIST CURVE: P-256
        X509v3 extensions:
            X509v3 Key Usage: critical
                Digital Signature, Key Encipherment
            X509v3 Basic Constraints: critical
                CA:FALSE, pathlen:3
    Signature Algorithm: ecdsa-with-SHA256
         30:45:02:20:56:c1:8f:08:1d:ec:b0:a0:eb:98:0c:b3:0f:63:
         dc:5d:51:70:96:7d:23:4b:a0:52:10:52:c1:5f:ac:2a:72:34:
         02:21:00:ac:20:f5:43:e3:6f:a3:56:72:c7:52:54:7a:17:60:
         10:38:03:e2:75:f4:75:47:ed:3b:a6:00:a1:72:e8:d7:4e
-----BEGIN CERTIFICATE-----
MIIB8jCCAZigAwIBAgIBJjAKBggqhkjOPQQDAjCBlzEXMBUGA1UEAwwOUmVnaW9u
ZSBQdWdsaWExCzAJBgNVBAYTAklUMQ8wDQYDVQQIDAZJdGFsaWExGDAWBgNVBAoM
D0UtVm90aW5nIHN5c3RlbTEiMCAGA1UECwwZRS1Wb3Rpbmcgc3lzdGVtIGF1dGhv
cml0eTEgMB4GCSqGSIb3DQEJARYRUHVnbGlhQGV2b3RpbmcuaXQwHhcNMjIwODAz
MTMyODMwWhcNMjMwODAzMTMyODMwWjBIMQ8wDQYDVQQDDAZHbG9yaWExCzAJBgNV
BAYTAklUMQ8wDQYDVQQIDAZJdGFsaWExFzAVBgNVBAoMDlJlZ2lvbmUgUHVnbGlh
MFkwEwYHKoZIzj0CAQYIKoZIzj0DAQcDQgAEhGbZ0Mrokz7O2IioqZSParWGkx/E
HPvW19XQmc4X9t1fQkhtwgAIIa6e76oYzX+CuJp05JhWy8BzvhkPU0bqfKMjMCEw
DgYDVR0PAQH/BAQDAgWgMA8GA1UdEwEB/wQFMAMCAQMwCgYIKoZIzj0EAwIDSAAw
RQIgVsGPCB3ssKDrmAyzD2PcXVFwln0jS6BSEFLBX6wqcjQCIQCsIPVD42+jVnLH
UlR6F2AQOAPidfR1R+07pgChcujXTg==
-----END CERTIFICATE-----
