Certificate:
    Data:
        Version: 3 (0x2)
        Serial Number: 28 (0x1c)
        Signature Algorithm: ecdsa-with-SHA256
        Issuer: CN=Regione Marche, C=IT, ST=Italia, O=E-Voting system, OU=E-Voting system authority/emailAddress=Marche@evoting.it
        Validity
            Not Before: Aug  3 13:27:13 2022 GMT
            Not After : Aug  3 13:27:13 2023 GMT
        Subject: CN=Gordon, C=IT, ST=Italia, O=Regione Marche
        Subject Public Key Info:
            Public Key Algorithm: id-ecPublicKey
                Public-Key: (256 bit)
                pub:
                    04:7d:90:59:2d:60:b2:c4:e6:67:51:b1:40:85:74:
                    85:d5:6e:a8:47:5d:ce:5d:cc:96:4e:36:90:aa:38:
                    6c:d7:c3:f1:05:70:4b:a6:bd:b4:11:9e:89:14:78:
                    c1:f1:03:c5:49:98:f6:98:bb:62:9c:59:f0:52:b8:
                    14:b8:f6:91:ae
                ASN1 OID: prime256v1
                NIST CURVE: P-256
        X509v3 extensions:
            X509v3 Key Usage: critical
                Digital Signature, Key Encipherment
            X509v3 Basic Constraints: critical
                CA:FALSE, pathlen:3
    Signature Algorithm: ecdsa-with-SHA256
         30:45:02:21:00:b3:9b:c4:6c:ad:8f:18:0f:74:ae:5b:9f:08:
         1e:ca:b9:ae:5e:2a:50:aa:39:e6:91:77:07:2d:d8:ed:fa:82:
         84:02:20:77:3d:49:fa:2f:79:94:80:f2:c9:6e:b3:c3:1d:ce:
         74:0c:c7:bd:8a:de:55:44:d4:d6:dd:9b:f4:6e:ca:d2:0e
-----BEGIN CERTIFICATE-----
MIIB8jCCAZigAwIBAgIBHDAKBggqhkjOPQQDAjCBlzEXMBUGA1UEAwwOUmVnaW9u
ZSBNYXJjaGUxCzAJBgNVBAYTAklUMQ8wDQYDVQQIDAZJdGFsaWExGDAWBgNVBAoM
D0UtVm90aW5nIHN5c3RlbTEiMCAGA1UECwwZRS1Wb3Rpbmcgc3lzdGVtIGF1dGhv
cml0eTEgMB4GCSqGSIb3DQEJARYRTWFyY2hlQGV2b3RpbmcuaXQwHhcNMjIwODAz
MTMyNzEzWhcNMjMwODAzMTMyNzEzWjBIMQ8wDQYDVQQDDAZHb3Jkb24xCzAJBgNV
BAYTAklUMQ8wDQYDVQQIDAZJdGFsaWExFzAVBgNVBAoMDlJlZ2lvbmUgTWFyY2hl
MFkwEwYHKoZIzj0CAQYIKoZIzj0DAQcDQgAEfZBZLWCyxOZnUbFAhXSF1W6oR13O
XcyWTjaQqjhs18PxBXBLpr20EZ6JFHjB8QPFSZj2mLtinFnwUrgUuPaRrqMjMCEw
DgYDVR0PAQH/BAQDAgWgMA8GA1UdEwEB/wQFMAMCAQMwCgYIKoZIzj0EAwIDSAAw
RQIhALObxGytjxgPdK5bnwgeyrmuXipQqjnmkXcHLdjt+oKEAiB3PUn6L3mUgPLJ
brPDHc50DMe9it5VRNTW3Zv0bsrSDg==
-----END CERTIFICATE-----
