Certificate:
    Data:
        Version: 3 (0x2)
        Serial Number: 41 (0x29)
        Signature Algorithm: ecdsa-with-SHA256
        Issuer: CN=Regione Basilicata, C=IT, ST=Italia, O=E-Voting system, OU=E-Voting system authority/emailAddress=Basilicata@evoting.it
        Validity
            Not Before: Aug 26 15:21:37 2022 GMT
            Not After : Aug 26 15:21:37 2023 GMT
        Subject: CN=Gracie, C=IT, ST=Italia, O=Regione Basilicata
        Subject Public Key Info:
            Public Key Algorithm: id-ecPublicKey
                Public-Key: (256 bit)
                pub:
                    04:de:21:c5:02:52:4c:1e:12:6a:c4:7e:53:bc:37:
                    35:c8:15:80:eb:ef:6f:7b:29:18:09:1d:40:cf:fd:
                    eb:e9:46:68:aa:56:9d:05:49:3f:56:54:ae:6b:92:
                    23:f7:96:9c:26:c4:f3:5a:15:dd:68:79:8d:f8:d3:
                    ce:3c:40:83:02
                ASN1 OID: secp256k1
        X509v3 extensions:
            X509v3 Key Usage: critical
                Digital Signature, Key Encipherment
            X509v3 Basic Constraints: critical
                CA:FALSE, pathlen:3
    Signature Algorithm: ecdsa-with-SHA256
         30:44:02:20:75:7b:d4:25:81:ee:22:12:34:e2:81:79:cf:04:
         d3:7b:15:36:55:89:c7:03:4b:8c:af:50:9e:16:f1:34:51:8a:
         02:20:54:f0:f5:ac:e6:df:90:b3:94:a3:74:4a:5b:13:db:01:
         c7:df:12:3f:ed:d5:1b:14:ae:0d:e2:2f:6b:47:c8:d9
-----BEGIN CERTIFICATE-----
MIIB+jCCAaGgAwIBAgIBKTAKBggqhkjOPQQDAjCBnzEbMBkGA1UEAwwSUmVnaW9u
ZSBCYXNpbGljYXRhMQswCQYDVQQGEwJJVDEPMA0GA1UECAwGSXRhbGlhMRgwFgYD
VQQKDA9FLVZvdGluZyBzeXN0ZW0xIjAgBgNVBAsMGUUtVm90aW5nIHN5c3RlbSBh
dXRob3JpdHkxJDAiBgkqhkiG9w0BCQEWFUJhc2lsaWNhdGFAZXZvdGluZy5pdDAe
Fw0yMjA4MjYxNTIxMzdaFw0yMzA4MjYxNTIxMzdaMEwxDzANBgNVBAMMBkdyYWNp
ZTELMAkGA1UEBhMCSVQxDzANBgNVBAgMBkl0YWxpYTEbMBkGA1UECgwSUmVnaW9u
ZSBCYXNpbGljYXRhMFYwEAYHKoZIzj0CAQYFK4EEAAoDQgAE3iHFAlJMHhJqxH5T
vDc1yBWA6+9veykYCR1Az/3r6UZoqladBUk/VlSua5Ij95acJsTzWhXdaHmN+NPO
PECDAqMjMCEwDgYDVR0PAQH/BAQDAgWgMA8GA1UdEwEB/wQFMAMCAQMwCgYIKoZI
zj0EAwIDRwAwRAIgdXvUJYHuIhI04oF5zwTTexU2VYnHA0uMr1CeFvE0UYoCIFTw
9azm35CzlKN0SlsT2wHH3xI/7dUbFK4N4i9rR8jZ
-----END CERTIFICATE-----
