Certificate:
    Data:
        Version: 3 (0x2)
        Serial Number: 3 (0x3)
        Signature Algorithm: ecdsa-with-SHA256
        Issuer: CN=Regione Liguria, C=IT, ST=Italia, O=E-Voting system, OU=E-Voting system authority/emailAddress=Liguria@evoting.it
        Validity
            Not Before: Aug  3 13:25:43 2022 GMT
            Not After : Aug  3 13:25:43 2023 GMT
        Subject: CN=Gracie, C=IT, ST=Italia, O=Regione Liguria
        Subject Public Key Info:
            Public Key Algorithm: id-ecPublicKey
                Public-Key: (256 bit)
                pub:
                    04:a4:f1:e7:92:ec:6d:b2:88:cc:00:87:7b:cc:bc:
                    7b:86:c4:1f:a1:02:68:0f:e0:92:de:6c:de:1c:4f:
                    c9:08:ab:05:71:1a:18:6c:94:8b:80:ce:56:2c:8c:
                    70:42:84:5c:ee:c8:b6:0c:c9:cd:09:94:4b:cb:33:
                    17:f7:9e:57:c7
                ASN1 OID: prime256v1
                NIST CURVE: P-256
        X509v3 extensions:
            X509v3 Key Usage: critical
                Digital Signature, Key Encipherment
            X509v3 Basic Constraints: critical
                CA:FALSE, pathlen:3
    Signature Algorithm: ecdsa-with-SHA256
         30:44:02:20:01:90:27:c9:bb:e0:aa:d8:ed:d3:fe:b2:91:a7:
         54:22:55:87:90:27:11:c4:b7:5c:c1:1c:c0:20:8e:e3:c4:5b:
         02:20:15:f8:0a:b0:b0:56:ff:f6:fd:6f:85:df:ff:f7:34:c7:
         90:3d:8c:22:87:d7:72:80:6e:c9:a8:89:3f:ef:82:e6
-----BEGIN CERTIFICATE-----
MIIB9DCCAZugAwIBAgIBAzAKBggqhkjOPQQDAjCBmTEYMBYGA1UEAwwPUmVnaW9u
ZSBMaWd1cmlhMQswCQYDVQQGEwJJVDEPMA0GA1UECAwGSXRhbGlhMRgwFgYDVQQK
DA9FLVZvdGluZyBzeXN0ZW0xIjAgBgNVBAsMGUUtVm90aW5nIHN5c3RlbSBhdXRo
b3JpdHkxITAfBgkqhkiG9w0BCQEWEkxpZ3VyaWFAZXZvdGluZy5pdDAeFw0yMjA4
MDMxMzI1NDNaFw0yMzA4MDMxMzI1NDNaMEkxDzANBgNVBAMMBkdyYWNpZTELMAkG
A1UEBhMCSVQxDzANBgNVBAgMBkl0YWxpYTEYMBYGA1UECgwPUmVnaW9uZSBMaWd1
cmlhMFkwEwYHKoZIzj0CAQYIKoZIzj0DAQcDQgAEpPHnkuxtsojMAId7zLx7hsQf
oQJoD+CS3mzeHE/JCKsFcRoYbJSLgM5WLIxwQoRc7si2DMnNCZRLyzMX955Xx6Mj
MCEwDgYDVR0PAQH/BAQDAgWgMA8GA1UdEwEB/wQFMAMCAQMwCgYIKoZIzj0EAwID
RwAwRAIgAZAnybvgqtjt0/6ykadUIlWHkCcRxLdcwRzAII7jxFsCIBX4CrCwVv/2
/W+F3//3NMeQPYwih9dygG7JqIk/74Lm
-----END CERTIFICATE-----
