Certificate:
    Data:
        Version: 3 (0x2)
        Serial Number: 14 (0xe)
        Signature Algorithm: ecdsa-with-SHA256
        Issuer: CN=Regione Veneto, C=IT, ST=Italia, O=E-Voting system, OU=E-Voting system authority/emailAddress=Veneto@evoting.it
        Validity
            Not Before: Aug 26 15:20:22 2022 GMT
            Not After : Aug 26 15:20:22 2023 GMT
        Subject: CN=Gregory, C=IT, ST=Italia, O=Regione Veneto
        Subject Public Key Info:
            Public Key Algorithm: id-ecPublicKey
                Public-Key: (256 bit)
                pub:
                    04:79:1c:f2:43:e8:34:91:dc:56:94:a5:d2:71:0c:
                    5f:30:3e:e4:a0:d9:82:9a:b9:c7:03:84:e5:49:32:
                    aa:ae:b3:06:78:c5:a2:d8:29:3d:83:04:53:10:3b:
                    f0:b7:c6:63:52:e0:8d:fd:ee:81:af:36:f5:8b:0f:
                    34:c0:2b:05:b9
                ASN1 OID: secp256k1
        X509v3 extensions:
            X509v3 Key Usage: critical
                Digital Signature, Key Encipherment
            X509v3 Basic Constraints: critical
                CA:FALSE, pathlen:3
    Signature Algorithm: ecdsa-with-SHA256
         30:46:02:21:00:a0:a3:2a:72:4e:0a:23:d6:16:33:7a:a7:f0:
         08:36:ca:2f:88:19:3c:02:66:c4:66:c3:12:75:d5:8e:29:84:
         5d:02:21:00:ab:69:7d:66:cf:22:59:75:51:4b:22:e7:85:8c:
         e5:5e:08:38:fe:3a:16:fe:e0:6e:2e:ac:92:de:c8:e7:ff:e6
-----BEGIN CERTIFICATE-----
MIIB8TCCAZagAwIBAgIBDjAKBggqhkjOPQQDAjCBlzEXMBUGA1UEAwwOUmVnaW9u
ZSBWZW5ldG8xCzAJBgNVBAYTAklUMQ8wDQYDVQQIDAZJdGFsaWExGDAWBgNVBAoM
D0UtVm90aW5nIHN5c3RlbTEiMCAGA1UECwwZRS1Wb3Rpbmcgc3lzdGVtIGF1dGhv
cml0eTEgMB4GCSqGSIb3DQEJARYRVmVuZXRvQGV2b3RpbmcuaXQwHhcNMjIwODI2
MTUyMDIyWhcNMjMwODI2MTUyMDIyWjBJMRAwDgYDVQQDDAdHcmVnb3J5MQswCQYD
VQQGEwJJVDEPMA0GA1UECAwGSXRhbGlhMRcwFQYDVQQKDA5SZWdpb25lIFZlbmV0
bzBWMBAGByqGSM49AgEGBSuBBAAKA0IABHkc8kPoNJHcVpSl0nEMXzA+5KDZgpq5
xwOE5Ukyqq6zBnjFotgpPYMEUxA78LfGY1Lgjf3uga829YsPNMArBbmjIzAhMA4G
A1UdDwEB/wQEAwIFoDAPBgNVHRMBAf8EBTADAgEDMAoGCCqGSM49BAMCA0kAMEYC
IQCgoypyTgoj1hYzeqfwCDbKL4gZPAJmxGbDEnXVjimEXQIhAKtpfWbPIll1UUsi
54WM5V4IOP46Fv7gbi6skt7I5//m
-----END CERTIFICATE-----
