Certificate:
    Data:
        Version: 3 (0x2)
        Serial Number: 39 (0x27)
        Signature Algorithm: ecdsa-with-SHA256
        Issuer: CN=Regione Toscana, C=IT, ST=Italia, O=E-Voting system, OU=E-Voting system authority/emailAddress=Toscana@evoting.it
        Validity
            Not Before: Aug  3 13:28:04 2022 GMT
            Not After : Aug  3 13:28:04 2023 GMT
        Subject: CN=Gregg, C=IT, ST=Italia, O=Regione Toscana
        Subject Public Key Info:
            Public Key Algorithm: id-ecPublicKey
                Public-Key: (256 bit)
                pub:
                    04:6d:48:f5:19:99:9b:65:e2:b8:f4:16:ca:06:66:
                    fa:4f:c6:d9:03:67:50:65:69:9b:52:c1:62:cc:d7:
                    22:5a:9f:78:45:ab:c8:50:d9:52:f7:c9:f6:ee:ec:
                    0c:33:ef:c4:95:d1:c7:dc:48:6a:ba:43:e5:df:12:
                    fc:aa:98:95:6d
                ASN1 OID: prime256v1
                NIST CURVE: P-256
        X509v3 extensions:
            X509v3 Key Usage: critical
                Digital Signature, Key Encipherment
            X509v3 Basic Constraints: critical
                CA:FALSE, pathlen:3
    Signature Algorithm: ecdsa-with-SHA256
         30:46:02:21:00:95:95:40:4b:7f:22:f5:25:18:e2:cd:da:e9:
         19:13:1e:23:15:05:50:50:c4:73:a6:77:31:d7:f1:d8:ae:41:
         f5:02:21:00:b2:6b:56:1f:53:db:60:02:fa:d2:11:80:c3:90:
         3b:f7:1b:34:b8:5d:6a:bb:c2:84:37:7c:75:62:ce:da:64:b6
-----BEGIN CERTIFICATE-----
MIIB9TCCAZqgAwIBAgIBJzAKBggqhkjOPQQDAjCBmTEYMBYGA1UEAwwPUmVnaW9u
ZSBUb3NjYW5hMQswCQYDVQQGEwJJVDEPMA0GA1UECAwGSXRhbGlhMRgwFgYDVQQK
DA9FLVZvdGluZyBzeXN0ZW0xIjAgBgNVBAsMGUUtVm90aW5nIHN5c3RlbSBhdXRo
b3JpdHkxITAfBgkqhkiG9w0BCQEWElRvc2NhbmFAZXZvdGluZy5pdDAeFw0yMjA4
MDMxMzI4MDRaFw0yMzA4MDMxMzI4MDRaMEgxDjAMBgNVBAMMBUdyZWdnMQswCQYD
VQQGEwJJVDEPMA0GA1UECAwGSXRhbGlhMRgwFgYDVQQKDA9SZWdpb25lIFRvc2Nh
bmEwWTATBgcqhkjOPQIBBggqhkjOPQMBBwNCAARtSPUZmZtl4rj0FsoGZvpPxtkD
Z1BlaZtSwWLM1yJan3hFq8hQ2VL3yfbu7Awz78SV0cfcSGq6Q+XfEvyqmJVtoyMw
ITAOBgNVHQ8BAf8EBAMCBaAwDwYDVR0TAQH/BAUwAwIBAzAKBggqhkjOPQQDAgNJ
ADBGAiEAlZVAS38i9SUY4s3a6RkTHiMVBVBQxHOmdzHX8diuQfUCIQCya1YfU9tg
AvrSEYDDkDv3GzS4XWq7woQ3fHViztpktg==
-----END CERTIFICATE-----
