Certificate:
    Data:
        Version: 3 (0x2)
        Serial Number: 27 (0x1b)
        Signature Algorithm: ecdsa-with-SHA256
        Issuer: CN=Regione Veneto, C=IT, ST=Italia, O=E-Voting system, OU=E-Voting system authority/emailAddress=Veneto@evoting.it
        Validity
            Not Before: Aug 26 15:21:13 2022 GMT
            Not After : Aug 26 15:21:13 2023 GMT
        Subject: CN=Gregg, C=IT, ST=Italia, O=Regione Veneto
        Subject Public Key Info:
            Public Key Algorithm: id-ecPublicKey
                Public-Key: (256 bit)
                pub:
                    04:5d:94:23:ac:cf:ab:c1:20:2c:69:bc:45:79:34:
                    9c:ee:be:57:dd:c9:7f:a7:b9:c2:b2:54:97:a3:f6:
                    f1:24:64:e8:dc:3f:ed:dd:47:8d:ab:2d:62:29:6c:
                    f8:3e:b4:a7:4a:09:ca:46:6c:38:1d:59:9c:e0:5c:
                    99:8a:71:d3:c0
                ASN1 OID: secp256k1
        X509v3 extensions:
            X509v3 Key Usage: critical
                Digital Signature, Key Encipherment
            X509v3 Basic Constraints: critical
                CA:FALSE, pathlen:3
    Signature Algorithm: ecdsa-with-SHA256
         30:45:02:21:00:d1:0a:71:c1:c8:86:ba:32:af:1a:a7:88:9e:
         e0:79:96:5e:87:7c:66:3d:bc:e6:81:de:a8:cf:1f:8b:22:ee:
         98:02:20:3b:95:ff:57:93:aa:4e:4d:6c:3a:57:13:b8:46:70:
         41:f0:de:2b:67:28:ac:6d:37:cf:9a:63:63:7e:ac:9b:b6
-----BEGIN CERTIFICATE-----
MIIB7jCCAZSgAwIBAgIBGzAKBggqhkjOPQQDAjCBlzEXMBUGA1UEAwwOUmVnaW9u
ZSBWZW5ldG8xCzAJBgNVBAYTAklUMQ8wDQYDVQQIDAZJdGFsaWExGDAWBgNVBAoM
D0UtVm90aW5nIHN5c3RlbTEiMCAGA1UECwwZRS1Wb3Rpbmcgc3lzdGVtIGF1dGhv
cml0eTEgMB4GCSqGSIb3DQEJARYRVmVuZXRvQGV2b3RpbmcuaXQwHhcNMjIwODI2
MTUyMTEzWhcNMjMwODI2MTUyMTEzWjBHMQ4wDAYDVQQDDAVHcmVnZzELMAkGA1UE
BhMCSVQxDzANBgNVBAgMBkl0YWxpYTEXMBUGA1UECgwOUmVnaW9uZSBWZW5ldG8w
VjAQBgcqhkjOPQIBBgUrgQQACgNCAARdlCOsz6vBICxpvEV5NJzuvlfdyX+nucKy
VJej9vEkZOjcP+3dR42rLWIpbPg+tKdKCcpGbDgdWZzgXJmKcdPAoyMwITAOBgNV
HQ8BAf8EBAMCBaAwDwYDVR0TAQH/BAUwAwIBAzAKBggqhkjOPQQDAgNIADBFAiEA
0QpxwciGujKvGqeInuB5ll6HfGY9vOaB3qjPH4si7pgCIDuV/1eTqk5NbDpXE7hG
cEHw3itnKKxtN8+aY2N+rJu2
-----END CERTIFICATE-----
