Certificate:
    Data:
        Version: 3 (0x2)
        Serial Number: 5 (0x5)
        Signature Algorithm: ecdsa-with-SHA256
        Issuer: CN=Regione Liguria, C=IT, ST=Italia, O=E-Voting system, OU=E-Voting system authority/emailAddress=Liguria@evoting.it
        Validity
            Not Before: Aug 26 15:18:35 2022 GMT
            Not After : Aug 26 15:18:35 2023 GMT
        Subject: CN=Greg, C=IT, ST=Italia, O=Regione Liguria
        Subject Public Key Info:
            Public Key Algorithm: id-ecPublicKey
                Public-Key: (256 bit)
                pub:
                    04:71:6a:d6:1a:32:a8:5b:ab:3b:de:67:94:3f:28:
                    5b:63:c8:95:ec:92:65:0d:e9:a0:e6:a7:45:ca:b4:
                    c3:f4:ae:3e:8a:c6:3c:72:60:09:16:d5:50:2e:cb:
                    d4:25:0e:8f:02:cf:b9:be:bb:02:ca:5f:6e:ca:58:
                    ed:08:ce:c4:86
                ASN1 OID: secp256k1
        X509v3 extensions:
            X509v3 Key Usage: critical
                Digital Signature, Key Encipherment
            X509v3 Basic Constraints: critical
                CA:FALSE, pathlen:3
    Signature Algorithm: ecdsa-with-SHA256
         30:45:02:21:00:e7:c7:8d:e4:02:cb:0c:69:e3:69:c3:92:6a:
         9d:0b:6e:2b:3f:62:50:1e:42:cc:ec:78:dc:61:0f:09:c2:bf:
         a4:02:20:7a:f1:4e:c4:14:fb:1c:33:b2:67:4e:ad:e6:a2:15:
         c7:21:4e:1f:5e:a4:d0:1d:c2:56:5e:6f:13:57:03:08:ba
-----BEGIN CERTIFICATE-----
MIIB8DCCAZagAwIBAgIBBTAKBggqhkjOPQQDAjCBmTEYMBYGA1UEAwwPUmVnaW9u
ZSBMaWd1cmlhMQswCQYDVQQGEwJJVDEPMA0GA1UECAwGSXRhbGlhMRgwFgYDVQQK
DA9FLVZvdGluZyBzeXN0ZW0xIjAgBgNVBAsMGUUtVm90aW5nIHN5c3RlbSBhdXRo
b3JpdHkxITAfBgkqhkiG9w0BCQEWEkxpZ3VyaWFAZXZvdGluZy5pdDAeFw0yMjA4
MjYxNTE4MzVaFw0yMzA4MjYxNTE4MzVaMEcxDTALBgNVBAMMBEdyZWcxCzAJBgNV
BAYTAklUMQ8wDQYDVQQIDAZJdGFsaWExGDAWBgNVBAoMD1JlZ2lvbmUgTGlndXJp
YTBWMBAGByqGSM49AgEGBSuBBAAKA0IABHFq1hoyqFurO95nlD8oW2PIleySZQ3p
oOanRcq0w/SuPorGPHJgCRbVUC7L1CUOjwLPub67AspfbspY7QjOxIajIzAhMA4G
A1UdDwEB/wQEAwIFoDAPBgNVHRMBAf8EBTADAgEDMAoGCCqGSM49BAMCA0gAMEUC
IQDnx43kAssMaeNpw5JqnQtuKz9iUB5CzOx43GEPCcK/pAIgevFOxBT7HDOyZ06t
5qIVxyFOH16k0B3CVl5vE1cDCLo=
-----END CERTIFICATE-----
