Certificate:
    Data:
        Version: 3 (0x2)
        Serial Number: 26 (0x1a)
        Signature Algorithm: ecdsa-with-SHA256
        Issuer: CN=Regione Puglia, C=IT, ST=Italia, O=E-Voting system, OU=E-Voting system authority/emailAddress=Puglia@evoting.it
        Validity
            Not Before: Aug  3 13:27:26 2022 GMT
            Not After : Aug  3 13:27:26 2023 GMT
        Subject: CN=Grover, C=IT, ST=Italia, O=Regione Puglia
        Subject Public Key Info:
            Public Key Algorithm: id-ecPublicKey
                Public-Key: (256 bit)
                pub:
                    04:08:1c:43:48:70:d1:0d:5b:71:5e:b8:58:22:c4:
                    46:82:34:91:94:c0:9c:71:e6:ad:ef:9e:7c:77:5a:
                    e1:f9:8c:7b:72:0c:c3:0d:07:0f:a9:bd:7e:55:75:
                    b8:64:86:9b:c4:5a:86:90:e6:92:3c:40:e5:ae:82:
                    d7:b3:04:fd:a7
                ASN1 OID: prime256v1
                NIST CURVE: P-256
        X509v3 extensions:
            X509v3 Key Usage: critical
                Digital Signature, Key Encipherment
            X509v3 Basic Constraints: critical
                CA:FALSE, pathlen:3
    Signature Algorithm: ecdsa-with-SHA256
         30:46:02:21:00:9c:59:ef:5f:ae:45:4b:05:f5:23:1c:07:aa:
         48:e6:52:bd:75:b3:a8:85:94:42:d1:35:61:4d:eb:e8:08:cd:
         9f:02:21:00:f8:51:51:a8:91:49:64:d8:d8:b2:e0:bc:b3:c4:
         07:7c:a1:68:31:85:93:d8:b2:19:a9:ef:00:36:04:98:2d:a0
-----BEGIN CERTIFICATE-----
MIIB8zCCAZigAwIBAgIBGjAKBggqhkjOPQQDAjCBlzEXMBUGA1UEAwwOUmVnaW9u
ZSBQdWdsaWExCzAJBgNVBAYTAklUMQ8wDQYDVQQIDAZJdGFsaWExGDAWBgNVBAoM
D0UtVm90aW5nIHN5c3RlbTEiMCAGA1UECwwZRS1Wb3Rpbmcgc3lzdGVtIGF1dGhv
cml0eTEgMB4GCSqGSIb3DQEJARYRUHVnbGlhQGV2b3RpbmcuaXQwHhcNMjIwODAz
MTMyNzI2WhcNMjMwODAzMTMyNzI2WjBIMQ8wDQYDVQQDDAZHcm92ZXIxCzAJBgNV
BAYTAklUMQ8wDQYDVQQIDAZJdGFsaWExFzAVBgNVBAoMDlJlZ2lvbmUgUHVnbGlh
MFkwEwYHKoZIzj0CAQYIKoZIzj0DAQcDQgAECBxDSHDRDVtxXrhYIsRGgjSRlMCc
ceat7558d1rh+Yx7cgzDDQcPqb1+VXW4ZIabxFqGkOaSPEDlroLXswT9p6MjMCEw
DgYDVR0PAQH/BAQDAgWgMA8GA1UdEwEB/wQFMAMCAQMwCgYIKoZIzj0EAwIDSQAw
RgIhAJxZ71+uRUsF9SMcB6pI5lK9dbOohZRC0TVhTevoCM2fAiEA+FFRqJFJZNjY
suC8s8QHfKFoMYWT2LIZqe8ANgSYLaA=
-----END CERTIFICATE-----
