Certificate:
    Data:
        Version: 3 (0x2)
        Serial Number: 39 (0x27)
        Signature Algorithm: ecdsa-with-SHA256
        Issuer: CN=Regione Lazio, C=IT, ST=Italia, O=E-Voting system, OU=E-Voting system authority/emailAddress=Lazio@evoting.it
        Validity
            Not Before: Aug 26 15:21:17 2022 GMT
            Not After : Aug 26 15:21:17 2023 GMT
        Subject: CN=Guadalupe, C=IT, ST=Italia, O=Regione Lazio
        Subject Public Key Info:
            Public Key Algorithm: id-ecPublicKey
                Public-Key: (256 bit)
                pub:
                    04:49:5a:28:67:82:6f:8f:21:3f:89:f6:76:0d:8d:
                    10:b3:b4:4c:78:a2:4b:0a:df:62:2f:05:e5:a1:01:
                    5d:b4:5c:19:25:8f:1e:87:9f:fe:71:31:c2:ff:41:
                    be:56:53:91:e6:1c:e6:54:3c:e5:95:a1:02:b9:65:
                    bb:30:6f:0c:64
                ASN1 OID: secp256k1
        X509v3 extensions:
            X509v3 Key Usage: critical
                Digital Signature, Key Encipherment
            X509v3 Basic Constraints: critical
                CA:FALSE, pathlen:3
    Signature Algorithm: ecdsa-with-SHA256
         30:45:02:20:25:33:9c:86:5c:05:b3:03:c4:26:ec:a9:40:36:
         b5:c1:55:64:4b:3e:73:34:33:4e:47:4a:fd:f5:2d:27:5b:8f:
         02:21:00:bf:83:0a:64:2e:94:e0:db:e3:a7:17:85:0d:a1:26:
         6a:17:e3:2b:63:fc:f3:57:a0:59:d9:67:29:88:e1:73:d6
-----BEGIN CERTIFICATE-----
MIIB7zCCAZWgAwIBAgIBJzAKBggqhkjOPQQDAjCBlTEWMBQGA1UEAwwNUmVnaW9u
ZSBMYXppbzELMAkGA1UEBhMCSVQxDzANBgNVBAgMBkl0YWxpYTEYMBYGA1UECgwP
RS1Wb3Rpbmcgc3lzdGVtMSIwIAYDVQQLDBlFLVZvdGluZyBzeXN0ZW0gYXV0aG9y
aXR5MR8wHQYJKoZIhvcNAQkBFhBMYXppb0Bldm90aW5nLml0MB4XDTIyMDgyNjE1
MjExN1oXDTIzMDgyNjE1MjExN1owSjESMBAGA1UEAwwJR3VhZGFsdXBlMQswCQYD
VQQGEwJJVDEPMA0GA1UECAwGSXRhbGlhMRYwFAYDVQQKDA1SZWdpb25lIExhemlv
MFYwEAYHKoZIzj0CAQYFK4EEAAoDQgAESVooZ4JvjyE/ifZ2DY0Qs7RMeKJLCt9i
LwXloQFdtFwZJY8eh5/+cTHC/0G+VlOR5hzmVDzllaECuWW7MG8MZKMjMCEwDgYD
VR0PAQH/BAQDAgWgMA8GA1UdEwEB/wQFMAMCAQMwCgYIKoZIzj0EAwIDSAAwRQIg
JTOchlwFswPEJuypQDa1wVVkSz5zNDNOR0r99S0nW48CIQC/gwpkLpTg2+OnF4UN
oSZqF+MrY/zzV6BZ2WcpiOFz1g==
-----END CERTIFICATE-----
