Certificate:
    Data:
        Version: 3 (0x2)
        Serial Number: 36 (0x24)
        Signature Algorithm: ecdsa-with-SHA256
        Issuer: CN=Regione Marche, C=IT, ST=Italia, O=E-Voting system, OU=E-Voting system authority/emailAddress=Marche@evoting.it
        Validity
            Not Before: Aug  3 13:27:46 2022 GMT
            Not After : Aug  3 13:27:46 2023 GMT
        Subject: CN=Gwen, C=IT, ST=Italia, O=Regione Marche
        Subject Public Key Info:
            Public Key Algorithm: id-ecPublicKey
                Public-Key: (256 bit)
                pub:
                    04:f0:a8:a0:95:46:03:c1:20:98:1a:12:82:4b:95:
                    1b:a0:a6:31:df:95:f2:88:01:ef:e0:e5:1a:6f:b8:
                    14:69:1b:e9:96:93:2c:3a:5f:ec:b0:82:e1:8a:8c:
                    72:22:41:40:c2:f3:da:e2:92:9c:52:da:3a:3e:ee:
                    60:fe:31:db:a6
                ASN1 OID: prime256v1
                NIST CURVE: P-256
        X509v3 extensions:
            X509v3 Key Usage: critical
                Digital Signature, Key Encipherment
            X509v3 Basic Constraints: critical
                CA:FALSE, pathlen:3
    Signature Algorithm: ecdsa-with-SHA256
         30:44:02:20:4a:80:6c:46:6d:61:20:58:22:44:ac:b3:90:b5:
         01:8e:1e:09:20:60:9a:9a:65:12:59:28:68:ca:da:91:59:39:
         02:20:3e:9a:53:66:37:e7:18:46:87:bc:df:b8:1a:e1:d6:62:
         d4:57:a8:17:4f:d8:12:d3:d5:da:03:0d:e1:9b:10:d8
-----BEGIN CERTIFICATE-----
MIIB7zCCAZagAwIBAgIBJDAKBggqhkjOPQQDAjCBlzEXMBUGA1UEAwwOUmVnaW9u
ZSBNYXJjaGUxCzAJBgNVBAYTAklUMQ8wDQYDVQQIDAZJdGFsaWExGDAWBgNVBAoM
D0UtVm90aW5nIHN5c3RlbTEiMCAGA1UECwwZRS1Wb3Rpbmcgc3lzdGVtIGF1dGhv
cml0eTEgMB4GCSqGSIb3DQEJARYRTWFyY2hlQGV2b3RpbmcuaXQwHhcNMjIwODAz
MTMyNzQ2WhcNMjMwODAzMTMyNzQ2WjBGMQ0wCwYDVQQDDARHd2VuMQswCQYDVQQG
EwJJVDEPMA0GA1UECAwGSXRhbGlhMRcwFQYDVQQKDA5SZWdpb25lIE1hcmNoZTBZ
MBMGByqGSM49AgEGCCqGSM49AwEHA0IABPCooJVGA8EgmBoSgkuVG6CmMd+V8ogB
7+DlGm+4FGkb6ZaTLDpf7LCC4YqMciJBQMLz2uKSnFLaOj7uYP4x26ajIzAhMA4G
A1UdDwEB/wQEAwIFoDAPBgNVHRMBAf8EBTADAgEDMAoGCCqGSM49BAMCA0cAMEQC
IEqAbEZtYSBYIkSss5C1AY4eCSBgmpplElkoaMrakVk5AiA+mlNmN+cYRoe837ga
4dZi1FeoF0/YEtPV2gMN4ZsQ2A==
-----END CERTIFICATE-----
