Certificate:
    Data:
        Version: 3 (0x2)
        Serial Number: 33 (0x21)
        Signature Algorithm: ecdsa-with-SHA256
        Issuer: CN=Regione Campania, C=IT, ST=Italia, O=E-Voting system, OU=E-Voting system authority/emailAddress=Campania@evoting.it
        Validity
            Not Before: Aug 26 15:20:43 2022 GMT
            Not After : Aug 26 15:20:43 2023 GMT
        Subject: CN=Hailey, C=IT, ST=Italia, O=Regione Campania
        Subject Public Key Info:
            Public Key Algorithm: id-ecPublicKey
                Public-Key: (256 bit)
                pub:
                    04:c9:2e:c4:c8:a7:4d:05:13:cf:d3:f6:93:34:15:
                    08:76:4c:a9:a4:bc:53:ab:a2:64:f1:f3:96:88:ec:
                    40:c4:39:0c:94:3e:30:2b:31:5a:34:64:79:f4:04:
                    3b:e0:f4:c6:c0:87:60:c6:b7:c0:d3:6c:bd:b6:d2:
                    6d:5d:74:58:c6
                ASN1 OID: secp256k1
        X509v3 extensions:
            X509v3 Key Usage: critical
                Digital Signature, Key Encipherment
            X509v3 Basic Constraints: critical
                CA:FALSE, pathlen:3
    Signature Algorithm: ecdsa-with-SHA256
         30:46:02:21:00:f1:af:07:eb:f3:62:70:6c:b5:fa:be:2b:d9:
         11:6b:02:98:85:c6:57:bd:9f:36:51:fb:fe:89:bb:4f:73:c4:
         c4:02:21:00:e0:74:f7:6f:1e:f9:a9:a2:a8:68:4f:e7:04:b2:
         d0:fe:ab:85:19:c1:03:36:7a:e3:90:2e:f2:19:1b:dc:c0:b3
-----BEGIN CERTIFICATE-----
MIIB9jCCAZugAwIBAgIBITAKBggqhkjOPQQDAjCBmzEZMBcGA1UEAwwQUmVnaW9u
ZSBDYW1wYW5pYTELMAkGA1UEBhMCSVQxDzANBgNVBAgMBkl0YWxpYTEYMBYGA1UE
CgwPRS1Wb3Rpbmcgc3lzdGVtMSIwIAYDVQQLDBlFLVZvdGluZyBzeXN0ZW0gYXV0
aG9yaXR5MSIwIAYJKoZIhvcNAQkBFhNDYW1wYW5pYUBldm90aW5nLml0MB4XDTIy
MDgyNjE1MjA0M1oXDTIzMDgyNjE1MjA0M1owSjEPMA0GA1UEAwwGSGFpbGV5MQsw
CQYDVQQGEwJJVDEPMA0GA1UECAwGSXRhbGlhMRkwFwYDVQQKDBBSZWdpb25lIENh
bXBhbmlhMFYwEAYHKoZIzj0CAQYFK4EEAAoDQgAEyS7EyKdNBRPP0/aTNBUIdkyp
pLxTq6Jk8fOWiOxAxDkMlD4wKzFaNGR59AQ74PTGwIdgxrfA02y9ttJtXXRYxqMj
MCEwDgYDVR0PAQH/BAQDAgWgMA8GA1UdEwEB/wQFMAMCAQMwCgYIKoZIzj0EAwID
SQAwRgIhAPGvB+vzYnBstfq+K9kRawKYhcZXvZ82Ufv+ibtPc8TEAiEA4HT3bx75
qaKoaE/nBLLQ/quFGcEDNnrjkC7yGRvcwLM=
-----END CERTIFICATE-----
