Certificate:
    Data:
        Version: 3 (0x2)
        Serial Number: 3 (0x3)
        Signature Algorithm: ecdsa-with-SHA256
        Issuer: CN=Regione Veneto, C=IT, ST=Italia, O=E-Voting system, OU=E-Voting system authority/emailAddress=Veneto@evoting.it
        Validity
            Not Before: Aug 26 15:18:43 2022 GMT
            Not After : Aug 26 15:18:43 2023 GMT
        Subject: CN=Harold, C=IT, ST=Italia, O=Regione Veneto
        Subject Public Key Info:
            Public Key Algorithm: id-ecPublicKey
                Public-Key: (256 bit)
                pub:
                    04:13:ee:26:2b:d3:cf:13:1c:30:fa:44:6f:ae:d2:
                    f7:7d:bd:69:72:85:ea:17:24:9b:45:8d:f1:6c:b7:
                    91:54:85:ca:df:ff:26:a0:cd:11:81:3a:13:5f:54:
                    92:ca:a1:be:b1:38:6c:0d:24:68:a9:c4:11:ac:ab:
                    d4:2e:f0:a9:98
                ASN1 OID: secp256k1
        X509v3 extensions:
            X509v3 Key Usage: critical
                Digital Signature, Key Encipherment
            X509v3 Basic Constraints: critical
                CA:FALSE, pathlen:3
    Signature Algorithm: ecdsa-with-SHA256
         30:44:02:20:27:87:6f:03:92:cf:f3:6f:b9:c7:1f:89:de:7a:
         87:f2:0b:b3:df:a7:1f:5c:6f:06:74:0e:ad:71:c4:e0:b0:0a:
         02:20:04:ec:02:3b:17:fd:a2:e2:4f:02:73:36:0b:b4:51:07:
         e4:4f:59:d3:04:e4:46:75:da:62:fd:52:8f:d5:83:d7
-----BEGIN CERTIFICATE-----
MIIB7jCCAZWgAwIBAgIBAzAKBggqhkjOPQQDAjCBlzEXMBUGA1UEAwwOUmVnaW9u
ZSBWZW5ldG8xCzAJBgNVBAYTAklUMQ8wDQYDVQQIDAZJdGFsaWExGDAWBgNVBAoM
D0UtVm90aW5nIHN5c3RlbTEiMCAGA1UECwwZRS1Wb3Rpbmcgc3lzdGVtIGF1dGhv
cml0eTEgMB4GCSqGSIb3DQEJARYRVmVuZXRvQGV2b3RpbmcuaXQwHhcNMjIwODI2
MTUxODQzWhcNMjMwODI2MTUxODQzWjBIMQ8wDQYDVQQDDAZIYXJvbGQxCzAJBgNV
BAYTAklUMQ8wDQYDVQQIDAZJdGFsaWExFzAVBgNVBAoMDlJlZ2lvbmUgVmVuZXRv
MFYwEAYHKoZIzj0CAQYFK4EEAAoDQgAEE+4mK9PPExww+kRvrtL3fb1pcoXqFySb
RY3xbLeRVIXK3/8moM0RgToTX1SSyqG+sThsDSRoqcQRrKvULvCpmKMjMCEwDgYD
VR0PAQH/BAQDAgWgMA8GA1UdEwEB/wQFMAMCAQMwCgYIKoZIzj0EAwIDRwAwRAIg
J4dvA5LP82+5xx+J3nqH8guz36cfXG8GdA6tccTgsAoCIATsAjsX/aLiTwJzNgu0
UQfkT1nTBORGddpi/VKP1YPX
-----END CERTIFICATE-----
