Certificate:
    Data:
        Version: 3 (0x2)
        Serial Number: 35 (0x23)
        Signature Algorithm: ecdsa-with-SHA256
        Issuer: CN=Regione Umbria, C=IT, ST=Italia, O=E-Voting system, OU=E-Voting system authority/emailAddress=Umbria@evoting.it
        Validity
            Not Before: Aug 26 15:20:52 2022 GMT
            Not After : Aug 26 15:20:52 2023 GMT
        Subject: CN=Harriet, C=IT, ST=Italia, O=Regione Umbria
        Subject Public Key Info:
            Public Key Algorithm: id-ecPublicKey
                Public-Key: (256 bit)
                pub:
                    04:85:2b:d2:cd:08:60:70:fa:af:52:33:21:02:e2:
                    84:c3:4a:3b:10:28:2f:83:93:4d:9d:de:58:cd:8d:
                    2c:64:6a:45:2e:e7:4f:55:8f:c0:3e:10:05:cf:bc:
                    0e:59:fa:3a:fe:4f:7a:0d:7a:ba:6b:74:90:53:8b:
                    2a:63:53:aa:19
                ASN1 OID: secp256k1
        X509v3 extensions:
            X509v3 Key Usage: critical
                Digital Signature, Key Encipherment
            X509v3 Basic Constraints: critical
                CA:FALSE, pathlen:3
    Signature Algorithm: ecdsa-with-SHA256
         30:44:02:20:01:4e:65:90:17:a8:c4:41:da:82:35:92:4f:1e:
         1c:dd:39:d9:70:bf:a7:2f:7b:15:67:43:88:00:4b:7c:d4:b8:
         02:20:26:d6:35:9f:48:fa:da:45:d0:94:68:42:8f:0d:76:44:
         9b:e1:84:60:55:87:8d:4c:aa:3e:05:07:80:61:3c:18
-----BEGIN CERTIFICATE-----
MIIB7zCCAZagAwIBAgIBIzAKBggqhkjOPQQDAjCBlzEXMBUGA1UEAwwOUmVnaW9u
ZSBVbWJyaWExCzAJBgNVBAYTAklUMQ8wDQYDVQQIDAZJdGFsaWExGDAWBgNVBAoM
D0UtVm90aW5nIHN5c3RlbTEiMCAGA1UECwwZRS1Wb3Rpbmcgc3lzdGVtIGF1dGhv
cml0eTEgMB4GCSqGSIb3DQEJARYRVW1icmlhQGV2b3RpbmcuaXQwHhcNMjIwODI2
MTUyMDUyWhcNMjMwODI2MTUyMDUyWjBJMRAwDgYDVQQDDAdIYXJyaWV0MQswCQYD
VQQGEwJJVDEPMA0GA1UECAwGSXRhbGlhMRcwFQYDVQQKDA5SZWdpb25lIFVtYnJp
YTBWMBAGByqGSM49AgEGBSuBBAAKA0IABIUr0s0IYHD6r1IzIQLihMNKOxAoL4OT
TZ3eWM2NLGRqRS7nT1WPwD4QBc+8Dln6Ov5Peg16umt0kFOLKmNTqhmjIzAhMA4G
A1UdDwEB/wQEAwIFoDAPBgNVHRMBAf8EBTADAgEDMAoGCCqGSM49BAMCA0cAMEQC
IAFOZZAXqMRB2oI1kk8eHN052XC/py97FWdDiABLfNS4AiAm1jWfSPraRdCUaEKP
DXZEm+GEYFWHjUyqPgUHgGE8GA==
-----END CERTIFICATE-----
