Certificate:
    Data:
        Version: 3 (0x2)
        Serial Number: 36 (0x24)
        Signature Algorithm: ecdsa-with-SHA256
        Issuer: CN=Regione Campania, C=IT, ST=Italia, O=E-Voting system, OU=E-Voting system authority/emailAddress=Campania@evoting.it
        Validity
            Not Before: Aug  3 13:27:41 2022 GMT
            Not After : Aug  3 13:27:41 2023 GMT
        Subject: CN=Harriette, C=IT, ST=Italia, O=Regione Campania
        Subject Public Key Info:
            Public Key Algorithm: id-ecPublicKey
                Public-Key: (256 bit)
                pub:
                    04:73:f9:2e:9e:76:b0:86:cf:8e:19:10:90:69:4e:
                    8b:b7:74:ec:a2:a6:29:5b:23:d6:63:e2:da:f5:94:
                    bb:57:1f:02:ed:86:06:e9:f6:09:74:55:72:76:0f:
                    0a:02:de:75:38:47:07:ef:e6:59:d8:93:f3:03:2c:
                    b1:b6:94:e3:c4
                ASN1 OID: prime256v1
                NIST CURVE: P-256
        X509v3 extensions:
            X509v3 Key Usage: critical
                Digital Signature, Key Encipherment
            X509v3 Basic Constraints: critical
                CA:FALSE, pathlen:3
    Signature Algorithm: ecdsa-with-SHA256
         30:44:02:20:58:f9:23:9c:78:89:ff:70:11:08:35:4a:2c:d8:
         66:87:e7:43:b4:2d:02:28:a3:37:74:1d:5e:d9:85:6a:0d:41:
         02:20:62:2c:1c:90:9d:90:17:3e:a5:17:72:96:d2:89:31:37:
         7e:d2:9e:a9:6f:32:32:08:9c:46:51:2b:34:ed:83:bd
-----BEGIN CERTIFICATE-----
MIIB+jCCAaGgAwIBAgIBJDAKBggqhkjOPQQDAjCBmzEZMBcGA1UEAwwQUmVnaW9u
ZSBDYW1wYW5pYTELMAkGA1UEBhMCSVQxDzANBgNVBAgMBkl0YWxpYTEYMBYGA1UE
CgwPRS1Wb3Rpbmcgc3lzdGVtMSIwIAYDVQQLDBlFLVZvdGluZyBzeXN0ZW0gYXV0
aG9yaXR5MSIwIAYJKoZIhvcNAQkBFhNDYW1wYW5pYUBldm90aW5nLml0MB4XDTIy
MDgwMzEzMjc0MVoXDTIzMDgwMzEzMjc0MVowTTESMBAGA1UEAwwJSGFycmlldHRl
MQswCQYDVQQGEwJJVDEPMA0GA1UECAwGSXRhbGlhMRkwFwYDVQQKDBBSZWdpb25l
IENhbXBhbmlhMFkwEwYHKoZIzj0CAQYIKoZIzj0DAQcDQgAEc/kunnawhs+OGRCQ
aU6Lt3TsoqYpWyPWY+La9ZS7Vx8C7YYG6fYJdFVydg8KAt51OEcH7+ZZ2JPzAyyx
tpTjxKMjMCEwDgYDVR0PAQH/BAQDAgWgMA8GA1UdEwEB/wQFMAMCAQMwCgYIKoZI
zj0EAwIDRwAwRAIgWPkjnHiJ/3ARCDVKLNhmh+dDtC0CKKM3dB1e2YVqDUECIGIs
HJCdkBc+pRdyltKJMTd+0p6pbzIyCJxGUSs07YO9
-----END CERTIFICATE-----
