Certificate:
    Data:
        Version: 3 (0x2)
        Serial Number: 14 (0xe)
        Signature Algorithm: ecdsa-with-SHA256
        Issuer: CN=Regione Emilia_Romagna, C=IT, ST=Italia, O=E-Voting system, OU=E-Voting system authority/emailAddress=Emilia_Romagna@evoting.it
        Validity
            Not Before: Aug 26 15:19:24 2022 GMT
            Not After : Aug 26 15:19:24 2023 GMT
        Subject: CN=Harry, C=IT, ST=Italia, O=Regione Emilia_Romagna
        Subject Public Key Info:
            Public Key Algorithm: id-ecPublicKey
                Public-Key: (256 bit)
                pub:
                    04:a2:23:c7:ff:3e:b2:91:74:90:06:91:d1:ef:df:
                    ec:bd:56:db:26:44:2d:15:0f:c8:59:93:3d:20:ea:
                    69:d3:bc:38:c7:a5:cb:87:75:99:98:a9:6d:42:a9:
                    f4:d5:60:fd:78:eb:55:4a:c4:ec:cc:64:61:d6:77:
                    ec:0e:e2:7d:fc
                ASN1 OID: secp256k1
        X509v3 extensions:
            X509v3 Key Usage: critical
                Digital Signature, Key Encipherment
            X509v3 Basic Constraints: critical
                CA:FALSE, pathlen:3
    Signature Algorithm: ecdsa-with-SHA256
         30:44:02:20:21:aa:0e:04:f4:17:3f:83:0c:35:02:0b:76:c5:
         e1:54:6f:fd:9b:44:6a:98:ae:37:2d:0d:4a:bc:ed:80:6a:6a:
         02:20:60:0d:47:e7:5e:aa:1d:6a:18:b5:cc:31:71:9a:01:90:
         ad:89:a7:a0:d1:b9:93:78:1a:0c:70:57:08:77:9e:3a
-----BEGIN CERTIFICATE-----
MIICBTCCAaygAwIBAgIBDjAKBggqhkjOPQQDAjCBpzEfMB0GA1UEAwwWUmVnaW9u
ZSBFbWlsaWFfUm9tYWduYTELMAkGA1UEBhMCSVQxDzANBgNVBAgMBkl0YWxpYTEY
MBYGA1UECgwPRS1Wb3Rpbmcgc3lzdGVtMSIwIAYDVQQLDBlFLVZvdGluZyBzeXN0
ZW0gYXV0aG9yaXR5MSgwJgYJKoZIhvcNAQkBFhlFbWlsaWFfUm9tYWduYUBldm90
aW5nLml0MB4XDTIyMDgyNjE1MTkyNFoXDTIzMDgyNjE1MTkyNFowTzEOMAwGA1UE
AwwFSGFycnkxCzAJBgNVBAYTAklUMQ8wDQYDVQQIDAZJdGFsaWExHzAdBgNVBAoM
FlJlZ2lvbmUgRW1pbGlhX1JvbWFnbmEwVjAQBgcqhkjOPQIBBgUrgQQACgNCAASi
I8f/PrKRdJAGkdHv3+y9VtsmRC0VD8hZkz0g6mnTvDjHpcuHdZmYqW1CqfTVYP14
61VKxOzMZGHWd+wO4n38oyMwITAOBgNVHQ8BAf8EBAMCBaAwDwYDVR0TAQH/BAUw
AwIBAzAKBggqhkjOPQQDAgNHADBEAiAhqg4E9Bc/gww1Agt2xeFUb/2bRGqYrjct
DUq87YBqagIgYA1H516qHWoYtcwxcZoBkK2Jp6DRuZN4GgxwVwh3njo=
-----END CERTIFICATE-----
