Certificate:
    Data:
        Version: 3 (0x2)
        Serial Number: 50 (0x32)
        Signature Algorithm: ecdsa-with-SHA256
        Issuer: CN=Regione Molise, C=IT, ST=Italia, O=E-Voting system, OU=E-Voting system authority/emailAddress=Molise@evoting.it
        Validity
            Not Before: Aug 26 15:21:50 2022 GMT
            Not After : Aug 26 15:21:50 2023 GMT
        Subject: CN=Hazel, C=IT, ST=Italia, O=Regione Molise
        Subject Public Key Info:
            Public Key Algorithm: id-ecPublicKey
                Public-Key: (256 bit)
                pub:
                    04:0a:ac:16:8b:66:b4:fb:7d:ea:94:50:8b:47:58:
                    7e:e1:14:40:59:07:5a:1a:64:7a:43:0b:f6:56:77:
                    a4:ab:f4:03:6e:36:17:78:62:8d:04:52:e5:39:a4:
                    dd:13:1d:7a:50:e7:44:bb:96:d0:2f:d1:03:bf:77:
                    b0:e5:9d:fe:50
                ASN1 OID: secp256k1
        X509v3 extensions:
            X509v3 Key Usage: critical
                Digital Signature, Key Encipherment
            X509v3 Basic Constraints: critical
                CA:FALSE, pathlen:3
    Signature Algorithm: ecdsa-with-SHA256
         30:45:02:21:00:9f:07:38:09:7a:70:e4:24:29:c5:0c:c2:5c:
         7f:54:34:69:e6:63:a7:2b:c9:21:2b:57:61:9c:63:7a:8b:00:
         6c:02:20:73:83:f8:38:83:2b:97:55:ce:f6:46:5b:5a:21:47:
         1a:3c:f9:99:97:e5:d2:21:75:3b:34:6d:07:f2:15:1f:d8
-----BEGIN CERTIFICATE-----
MIIB7jCCAZSgAwIBAgIBMjAKBggqhkjOPQQDAjCBlzEXMBUGA1UEAwwOUmVnaW9u
ZSBNb2xpc2UxCzAJBgNVBAYTAklUMQ8wDQYDVQQIDAZJdGFsaWExGDAWBgNVBAoM
D0UtVm90aW5nIHN5c3RlbTEiMCAGA1UECwwZRS1Wb3Rpbmcgc3lzdGVtIGF1dGhv
cml0eTEgMB4GCSqGSIb3DQEJARYRTW9saXNlQGV2b3RpbmcuaXQwHhcNMjIwODI2
MTUyMTUwWhcNMjMwODI2MTUyMTUwWjBHMQ4wDAYDVQQDDAVIYXplbDELMAkGA1UE
BhMCSVQxDzANBgNVBAgMBkl0YWxpYTEXMBUGA1UECgwOUmVnaW9uZSBNb2xpc2Uw
VjAQBgcqhkjOPQIBBgUrgQQACgNCAAQKrBaLZrT7feqUUItHWH7hFEBZB1oaZHpD
C/ZWd6Sr9ANuNhd4Yo0EUuU5pN0THXpQ50S7ltAv0QO/d7Dlnf5QoyMwITAOBgNV
HQ8BAf8EBAMCBaAwDwYDVR0TAQH/BAUwAwIBAzAKBggqhkjOPQQDAgNIADBFAiEA
nwc4CXpw5CQpxQzCXH9UNGnmY6crySErV2GcY3qLAGwCIHOD+DiDK5dVzvZGW1oh
Rxo8+ZmX5dIhdTs0bQfyFR/Y
-----END CERTIFICATE-----
