Certificate:
    Data:
        Version: 3 (0x2)
        Serial Number: 23 (0x17)
        Signature Algorithm: ecdsa-with-SHA256
        Issuer: CN=Regione Campania, C=IT, ST=Italia, O=E-Voting system, OU=E-Voting system authority/emailAddress=Campania@evoting.it
        Validity
            Not Before: Aug 26 15:19:53 2022 GMT
            Not After : Aug 26 15:19:53 2023 GMT
        Subject: CN=Heather, C=IT, ST=Italia, O=Regione Campania
        Subject Public Key Info:
            Public Key Algorithm: id-ecPublicKey
                Public-Key: (256 bit)
                pub:
                    04:9b:95:78:f9:0b:f3:e3:62:3e:61:64:ba:b9:7a:
                    1d:a6:ae:ad:9a:16:2a:06:f3:dd:95:c9:b0:13:0b:
                    1a:18:e6:cd:56:97:a0:7d:9f:9c:ac:dc:4d:17:09:
                    28:3b:a4:cc:d2:ba:ba:9d:99:7b:a2:b8:78:0f:7a:
                    42:0e:95:fc:80
                ASN1 OID: secp256k1
        X509v3 extensions:
            X509v3 Key Usage: critical
                Digital Signature, Key Encipherment
            X509v3 Basic Constraints: critical
                CA:FALSE, pathlen:3
    Signature Algorithm: ecdsa-with-SHA256
         30:46:02:21:00:a7:b7:92:91:a0:bd:ff:63:2a:20:4e:98:c0:
         7d:38:db:60:ed:a2:cf:cb:ce:fc:e5:d7:b2:ed:38:a6:a4:b1:
         ab:02:21:00:f7:68:f7:b1:3d:6f:64:7a:41:ed:ab:7f:14:7e:
         a2:f7:3c:fe:1b:e2:d8:e7:93:45:0f:aa:35:2d:b5:a7:50:04
-----BEGIN CERTIFICATE-----
MIIB9zCCAZygAwIBAgIBFzAKBggqhkjOPQQDAjCBmzEZMBcGA1UEAwwQUmVnaW9u
ZSBDYW1wYW5pYTELMAkGA1UEBhMCSVQxDzANBgNVBAgMBkl0YWxpYTEYMBYGA1UE
CgwPRS1Wb3Rpbmcgc3lzdGVtMSIwIAYDVQQLDBlFLVZvdGluZyBzeXN0ZW0gYXV0
aG9yaXR5MSIwIAYJKoZIhvcNAQkBFhNDYW1wYW5pYUBldm90aW5nLml0MB4XDTIy
MDgyNjE1MTk1M1oXDTIzMDgyNjE1MTk1M1owSzEQMA4GA1UEAwwHSGVhdGhlcjEL
MAkGA1UEBhMCSVQxDzANBgNVBAgMBkl0YWxpYTEZMBcGA1UECgwQUmVnaW9uZSBD
YW1wYW5pYTBWMBAGByqGSM49AgEGBSuBBAAKA0IABJuVePkL8+NiPmFkurl6Haau
rZoWKgbz3ZXJsBMLGhjmzVaXoH2fnKzcTRcJKDukzNK6up2Ze6K4eA96Qg6V/ICj
IzAhMA4GA1UdDwEB/wQEAwIFoDAPBgNVHRMBAf8EBTADAgEDMAoGCCqGSM49BAMC
A0kAMEYCIQCnt5KRoL3/YyogTpjAfTjbYO2iz8vO/OXXsu04pqSxqwIhAPdo97E9
b2R6Qe2rfxR+ovc8/hvi2OeTRQ+qNS21p1AE
-----END CERTIFICATE-----
