Certificate:
    Data:
        Version: 3 (0x2)
        Serial Number: 17 (0x11)
        Signature Algorithm: ecdsa-with-SHA256
        Issuer: CN=Regione Valle_d_Aosta, C=IT, ST=Italia, O=E-Voting system, OU=E-Voting system authority/emailAddress=Valle_d_Aosta@evoting.it
        Validity
            Not Before: Aug  3 13:26:28 2022 GMT
            Not After : Aug  3 13:26:28 2023 GMT
        Subject: CN=Heath, C=IT, ST=Italia, O=Regione Valle_d_Aosta
        Subject Public Key Info:
            Public Key Algorithm: id-ecPublicKey
                Public-Key: (256 bit)
                pub:
                    04:eb:f1:07:a9:60:d6:e7:25:1f:95:e1:9b:ff:3b:
                    df:13:09:7c:0c:c4:6c:cf:ee:55:fe:6e:fe:52:89:
                    83:2f:bb:34:61:5c:f2:6f:a2:7d:17:ce:9d:7c:1d:
                    26:08:64:43:58:94:5d:c4:5f:73:9f:3a:1e:10:ee:
                    cc:d0:66:3b:3c
                ASN1 OID: prime256v1
                NIST CURVE: P-256
        X509v3 extensions:
            X509v3 Key Usage: critical
                Digital Signature, Key Encipherment
            X509v3 Basic Constraints: critical
                CA:FALSE, pathlen:3
    Signature Algorithm: ecdsa-with-SHA256
         30:46:02:21:00:8f:64:32:98:44:dc:b7:55:a0:82:c5:65:33:
         16:af:98:ca:a7:bf:3e:dd:a3:9b:59:3f:df:de:a6:d6:ce:16:
         d9:02:21:00:bc:ae:b9:55:1a:14:62:d1:07:de:b4:45:4f:47:
         fd:50:8a:0c:1b:39:f6:42:62:61:72:2d:f5:01:84:bb:c8:2a
-----BEGIN CERTIFICATE-----
MIICBzCCAaygAwIBAgIBETAKBggqhkjOPQQDAjCBpTEeMBwGA1UEAwwVUmVnaW9u
ZSBWYWxsZV9kX0Fvc3RhMQswCQYDVQQGEwJJVDEPMA0GA1UECAwGSXRhbGlhMRgw
FgYDVQQKDA9FLVZvdGluZyBzeXN0ZW0xIjAgBgNVBAsMGUUtVm90aW5nIHN5c3Rl
bSBhdXRob3JpdHkxJzAlBgkqhkiG9w0BCQEWGFZhbGxlX2RfQW9zdGFAZXZvdGlu
Zy5pdDAeFw0yMjA4MDMxMzI2MjhaFw0yMzA4MDMxMzI2MjhaME4xDjAMBgNVBAMM
BUhlYXRoMQswCQYDVQQGEwJJVDEPMA0GA1UECAwGSXRhbGlhMR4wHAYDVQQKDBVS
ZWdpb25lIFZhbGxlX2RfQW9zdGEwWTATBgcqhkjOPQIBBggqhkjOPQMBBwNCAATr
8QepYNbnJR+V4Zv/O98TCXwMxGzP7lX+bv5SiYMvuzRhXPJvon0Xzp18HSYIZENY
lF3EX3OfOh4Q7szQZjs8oyMwITAOBgNVHQ8BAf8EBAMCBaAwDwYDVR0TAQH/BAUw
AwIBAzAKBggqhkjOPQQDAgNJADBGAiEAj2QymETct1WggsVlMxavmMqnvz7do5tZ
P9/eptbOFtkCIQC8rrlVGhRi0QfetEVPR/1QigwbOfZCYmFyLfUBhLvIKg==
-----END CERTIFICATE-----
