Certificate:
    Data:
        Version: 3 (0x2)
        Serial Number: 59 (0x3b)
        Signature Algorithm: ecdsa-with-SHA256
        Issuer: CN=Regione Puglia, C=IT, ST=Italia, O=E-Voting system, OU=E-Voting system authority/emailAddress=Puglia@evoting.it
        Validity
            Not Before: Aug 26 15:21:42 2022 GMT
            Not After : Aug 26 15:21:42 2023 GMT
        Subject: CN=Hector, C=IT, ST=Italia, O=Regione Puglia
        Subject Public Key Info:
            Public Key Algorithm: id-ecPublicKey
                Public-Key: (256 bit)
                pub:
                    04:53:f3:11:ec:8b:3e:88:f2:40:fa:9a:ea:47:23:
                    4a:36:af:11:53:dd:85:36:b1:13:af:ab:91:44:24:
                    75:44:15:72:a6:4f:0e:41:85:39:95:ef:88:75:05:
                    d9:18:7f:8f:92:b0:0a:da:21:f7:94:4b:b7:45:c8:
                    94:85:9b:77:1c
                ASN1 OID: secp256k1
        X509v3 extensions:
            X509v3 Key Usage: critical
                Digital Signature, Key Encipherment
            X509v3 Basic Constraints: critical
                CA:FALSE, pathlen:3
    Signature Algorithm: ecdsa-with-SHA256
         30:45:02:21:00:e7:78:c9:e4:8c:8c:fa:ba:ed:b3:96:a3:72:
         bf:2c:43:ae:18:7f:fd:b6:1a:5b:1d:cd:36:cc:19:b1:f3:da:
         37:02:20:40:ad:f9:c3:59:c1:7b:3f:59:ee:74:51:77:7f:4e:
         a3:f1:5d:b7:07:4f:78:83:21:ef:12:73:1c:1d:8c:a8:c5
-----BEGIN CERTIFICATE-----
MIIB7zCCAZWgAwIBAgIBOzAKBggqhkjOPQQDAjCBlzEXMBUGA1UEAwwOUmVnaW9u
ZSBQdWdsaWExCzAJBgNVBAYTAklUMQ8wDQYDVQQIDAZJdGFsaWExGDAWBgNVBAoM
D0UtVm90aW5nIHN5c3RlbTEiMCAGA1UECwwZRS1Wb3Rpbmcgc3lzdGVtIGF1dGhv
cml0eTEgMB4GCSqGSIb3DQEJARYRUHVnbGlhQGV2b3RpbmcuaXQwHhcNMjIwODI2
MTUyMTQyWhcNMjMwODI2MTUyMTQyWjBIMQ8wDQYDVQQDDAZIZWN0b3IxCzAJBgNV
BAYTAklUMQ8wDQYDVQQIDAZJdGFsaWExFzAVBgNVBAoMDlJlZ2lvbmUgUHVnbGlh
MFYwEAYHKoZIzj0CAQYFK4EEAAoDQgAEU/MR7Is+iPJA+prqRyNKNq8RU92FNrET
r6uRRCR1RBVypk8OQYU5le+IdQXZGH+PkrAK2iH3lEu3RciUhZt3HKMjMCEwDgYD
VR0PAQH/BAQDAgWgMA8GA1UdEwEB/wQFMAMCAQMwCgYIKoZIzj0EAwIDSAAwRQIh
AOd4yeSMjPq67bOWo3K/LEOuGH/9thpbHc02zBmx89o3AiBArfnDWcF7P1nudFF3
f06j8V23B094gyHvEnMcHYyoxQ==
-----END CERTIFICATE-----
