Certificate:
    Data:
        Version: 3 (0x2)
        Serial Number: 7 (0x7)
        Signature Algorithm: ecdsa-with-SHA256
        Issuer: CN=Regione Sicilia, C=IT, ST=Italia, O=E-Voting system, OU=E-Voting system authority/emailAddress=Sicilia@evoting.it
        Validity
            Not Before: Aug 26 15:18:45 2022 GMT
            Not After : Aug 26 15:18:45 2023 GMT
        Subject: CN=Heidi, C=IT, ST=Italia, O=Regione Sicilia
        Subject Public Key Info:
            Public Key Algorithm: id-ecPublicKey
                Public-Key: (256 bit)
                pub:
                    04:fa:a4:52:8e:4e:8e:0c:2b:f2:24:b0:6c:3a:8a:
                    de:08:36:a1:a8:88:4c:c4:54:bb:53:ff:3f:d6:80:
                    fc:f4:5e:94:1a:e6:77:32:90:6b:20:d6:ae:5a:b9:
                    42:66:7b:f5:49:15:79:5b:6c:61:38:bd:90:34:d7:
                    ce:e9:99:6b:3c
                ASN1 OID: secp256k1
        X509v3 extensions:
            X509v3 Key Usage: critical
                Digital Signature, Key Encipherment
            X509v3 Basic Constraints: critical
                CA:FALSE, pathlen:3
    Signature Algorithm: ecdsa-with-SHA256
         30:45:02:20:69:a8:20:03:5c:94:a7:09:f9:9b:49:3d:e8:d2:
         b9:2d:34:bc:d2:69:88:86:69:65:ba:15:87:be:ef:54:6b:97:
         02:21:00:98:4c:fe:a3:7c:2c:99:47:aa:ee:47:3b:1a:7c:02:
         c8:8a:2f:6e:29:b1:fe:39:09:fd:5e:f4:0d:fb:29:f2:d9
-----BEGIN CERTIFICATE-----
MIIB8TCCAZegAwIBAgIBBzAKBggqhkjOPQQDAjCBmTEYMBYGA1UEAwwPUmVnaW9u
ZSBTaWNpbGlhMQswCQYDVQQGEwJJVDEPMA0GA1UECAwGSXRhbGlhMRgwFgYDVQQK
DA9FLVZvdGluZyBzeXN0ZW0xIjAgBgNVBAsMGUUtVm90aW5nIHN5c3RlbSBhdXRo
b3JpdHkxITAfBgkqhkiG9w0BCQEWElNpY2lsaWFAZXZvdGluZy5pdDAeFw0yMjA4
MjYxNTE4NDVaFw0yMzA4MjYxNTE4NDVaMEgxDjAMBgNVBAMMBUhlaWRpMQswCQYD
VQQGEwJJVDEPMA0GA1UECAwGSXRhbGlhMRgwFgYDVQQKDA9SZWdpb25lIFNpY2ls
aWEwVjAQBgcqhkjOPQIBBgUrgQQACgNCAAT6pFKOTo4MK/IksGw6it4INqGoiEzE
VLtT/z/WgPz0XpQa5ncykGsg1q5auUJme/VJFXlbbGE4vZA0187pmWs8oyMwITAO
BgNVHQ8BAf8EBAMCBaAwDwYDVR0TAQH/BAUwAwIBAzAKBggqhkjOPQQDAgNIADBF
AiBpqCADXJSnCfmbST3o0rktNLzSaYiGaWW6FYe+71RrlwIhAJhM/qN8LJlHqu5H
Oxp8AsiKL24psf45Cf1e9A37KfLZ
-----END CERTIFICATE-----
