Certificate:
    Data:
        Version: 3 (0x2)
        Serial Number: 43 (0x2b)
        Signature Algorithm: ecdsa-with-SHA256
        Issuer: CN=Regione Sicilia, C=IT, ST=Italia, O=E-Voting system, OU=E-Voting system authority/emailAddress=Sicilia@evoting.it
        Validity
            Not Before: Aug 26 15:20:56 2022 GMT
            Not After : Aug 26 15:20:56 2023 GMT
        Subject: CN=Helen, C=IT, ST=Italia, O=Regione Sicilia
        Subject Public Key Info:
            Public Key Algorithm: id-ecPublicKey
                Public-Key: (256 bit)
                pub:
                    04:e0:cd:52:97:87:d9:1b:e9:3e:d3:66:9b:83:e3:
                    76:8d:0d:bc:a4:ab:29:11:5a:52:4e:1f:20:6c:b2:
                    be:a0:23:e2:7c:5a:bd:c1:66:cb:1c:3a:8b:e1:9c:
                    05:86:40:01:44:f1:23:b4:06:a4:31:a9:cb:95:c3:
                    17:7d:88:b5:e2
                ASN1 OID: secp256k1
        X509v3 extensions:
            X509v3 Key Usage: critical
                Digital Signature, Key Encipherment
            X509v3 Basic Constraints: critical
                CA:FALSE, pathlen:3
    Signature Algorithm: ecdsa-with-SHA256
         30:45:02:21:00:95:f0:71:d8:16:cb:c3:d9:ef:d0:d6:59:db:
         d8:81:17:fc:ad:a0:1c:4b:62:df:c6:34:a6:d9:5a:e0:b6:c2:
         ea:02:20:5f:78:cd:04:86:d8:b5:3d:72:1e:1a:fa:1e:09:d8:
         6b:d4:7b:5e:cb:09:93:77:c5:b3:42:fa:d6:67:cf:15:5b
-----BEGIN CERTIFICATE-----
MIIB8TCCAZegAwIBAgIBKzAKBggqhkjOPQQDAjCBmTEYMBYGA1UEAwwPUmVnaW9u
ZSBTaWNpbGlhMQswCQYDVQQGEwJJVDEPMA0GA1UECAwGSXRhbGlhMRgwFgYDVQQK
DA9FLVZvdGluZyBzeXN0ZW0xIjAgBgNVBAsMGUUtVm90aW5nIHN5c3RlbSBhdXRo
b3JpdHkxITAfBgkqhkiG9w0BCQEWElNpY2lsaWFAZXZvdGluZy5pdDAeFw0yMjA4
MjYxNTIwNTZaFw0yMzA4MjYxNTIwNTZaMEgxDjAMBgNVBAMMBUhlbGVuMQswCQYD
VQQGEwJJVDEPMA0GA1UECAwGSXRhbGlhMRgwFgYDVQQKDA9SZWdpb25lIFNpY2ls
aWEwVjAQBgcqhkjOPQIBBgUrgQQACgNCAATgzVKXh9kb6T7TZpuD43aNDbykqykR
WlJOHyBssr6gI+J8Wr3BZsscOovhnAWGQAFE8SO0BqQxqcuVwxd9iLXioyMwITAO
BgNVHQ8BAf8EBAMCBaAwDwYDVR0TAQH/BAUwAwIBAzAKBggqhkjOPQQDAgNIADBF
AiEAlfBx2BbLw9nv0NZZ29iBF/ytoBxLYt/GNKbZWuC2wuoCIF94zQSG2LU9ch4a
+h4J2GvUe17LCZN3xbNC+tZnzxVb
-----END CERTIFICATE-----
