Certificate:
    Data:
        Version: 3 (0x2)
        Serial Number: 10 (0xa)
        Signature Algorithm: ecdsa-with-SHA256
        Issuer: CN=Regione Calabria, C=IT, ST=Italia, O=E-Voting system, OU=E-Voting system authority/emailAddress=Calabria@evoting.it
        Validity
            Not Before: Aug 26 15:19:22 2022 GMT
            Not After : Aug 26 15:19:22 2023 GMT
        Subject: CN=Henry, C=IT, ST=Italia, O=Regione Calabria
        Subject Public Key Info:
            Public Key Algorithm: id-ecPublicKey
                Public-Key: (256 bit)
                pub:
                    04:e2:a3:18:68:9c:0f:53:29:f8:e9:8a:7b:4b:c7:
                    ba:32:f2:ea:f4:cf:9d:6c:ca:87:ec:90:6e:ab:d4:
                    65:80:f0:36:ba:b3:e5:0b:ac:3e:4f:5a:f8:35:97:
                    52:8c:ee:e7:71:b4:07:d9:ea:47:84:64:ac:ee:31:
                    35:31:0d:f0:4e
                ASN1 OID: secp256k1
        X509v3 extensions:
            X509v3 Key Usage: critical
                Digital Signature, Key Encipherment
            X509v3 Basic Constraints: critical
                CA:FALSE, pathlen:3
    Signature Algorithm: ecdsa-with-SHA256
         30:44:02:20:48:7c:99:cc:b8:3d:62:6e:15:84:00:52:1c:5a:
         2f:57:45:ff:c6:6a:8c:48:53:dd:e1:4c:fc:b1:65:cf:b8:4e:
         02:20:43:e3:f0:c7:51:64:a9:18:ea:03:0d:22:20:96:3a:c7:
         c5:7e:bb:fd:6a:27:d5:9c:44:1d:e8:8b:fc:af:4f:8d
-----BEGIN CERTIFICATE-----
MIIB8zCCAZqgAwIBAgIBCjAKBggqhkjOPQQDAjCBmzEZMBcGA1UEAwwQUmVnaW9u
ZSBDYWxhYnJpYTELMAkGA1UEBhMCSVQxDzANBgNVBAgMBkl0YWxpYTEYMBYGA1UE
CgwPRS1Wb3Rpbmcgc3lzdGVtMSIwIAYDVQQLDBlFLVZvdGluZyBzeXN0ZW0gYXV0
aG9yaXR5MSIwIAYJKoZIhvcNAQkBFhNDYWxhYnJpYUBldm90aW5nLml0MB4XDTIy
MDgyNjE1MTkyMloXDTIzMDgyNjE1MTkyMlowSTEOMAwGA1UEAwwFSGVucnkxCzAJ
BgNVBAYTAklUMQ8wDQYDVQQIDAZJdGFsaWExGTAXBgNVBAoMEFJlZ2lvbmUgQ2Fs
YWJyaWEwVjAQBgcqhkjOPQIBBgUrgQQACgNCAATioxhonA9TKfjpintLx7oy8ur0
z51syofskG6r1GWA8Da6s+ULrD5PWvg1l1KM7udxtAfZ6keEZKzuMTUxDfBOoyMw
ITAOBgNVHQ8BAf8EBAMCBaAwDwYDVR0TAQH/BAUwAwIBAzAKBggqhkjOPQQDAgNH
ADBEAiBIfJnMuD1ibhWEAFIcWi9XRf/GaoxIU93hTPyxZc+4TgIgQ+Pwx1FkqRjq
Aw0iIJY6x8V+u/1qJ9WcRB3oi/yvT40=
-----END CERTIFICATE-----
