Certificate:
    Data:
        Version: 3 (0x2)
        Serial Number: 40 (0x28)
        Signature Algorithm: ecdsa-with-SHA256
        Issuer: CN=Regione Campania, C=IT, ST=Italia, O=E-Voting system, OU=E-Voting system authority/emailAddress=Campania@evoting.it
        Validity
            Not Before: Aug 26 15:21:12 2022 GMT
            Not After : Aug 26 15:21:12 2023 GMT
        Subject: CN=Herbert, C=IT, ST=Italia, O=Regione Campania
        Subject Public Key Info:
            Public Key Algorithm: id-ecPublicKey
                Public-Key: (256 bit)
                pub:
                    04:36:ef:1f:6c:79:94:ba:08:b7:cf:f4:ce:99:76:
                    a3:a4:14:02:50:fd:bb:d0:f2:32:ec:fa:2c:44:aa:
                    19:79:67:9c:6a:40:63:5c:90:1b:aa:60:c0:d2:dd:
                    4f:bd:7a:0e:5f:be:78:d5:0e:19:59:0b:2e:72:20:
                    da:53:79:97:e6
                ASN1 OID: secp256k1
        X509v3 extensions:
            X509v3 Key Usage: critical
                Digital Signature, Key Encipherment
            X509v3 Basic Constraints: critical
                CA:FALSE, pathlen:3
    Signature Algorithm: ecdsa-with-SHA256
         30:46:02:21:00:e7:7b:e2:a3:c7:55:c6:ba:b2:80:4f:c4:2d:
         5f:2b:68:7c:c3:14:9e:b8:e4:b9:6c:0a:ee:26:4d:4a:79:c0:
         11:02:21:00:c0:62:47:f4:a8:e8:44:35:f6:12:35:00:62:60:
         b3:e1:3e:fd:32:ee:d6:d7:96:19:97:f6:96:5e:70:85:18:b5
-----BEGIN CERTIFICATE-----
MIIB9zCCAZygAwIBAgIBKDAKBggqhkjOPQQDAjCBmzEZMBcGA1UEAwwQUmVnaW9u
ZSBDYW1wYW5pYTELMAkGA1UEBhMCSVQxDzANBgNVBAgMBkl0YWxpYTEYMBYGA1UE
CgwPRS1Wb3Rpbmcgc3lzdGVtMSIwIAYDVQQLDBlFLVZvdGluZyBzeXN0ZW0gYXV0
aG9yaXR5MSIwIAYJKoZIhvcNAQkBFhNDYW1wYW5pYUBldm90aW5nLml0MB4XDTIy
MDgyNjE1MjExMloXDTIzMDgyNjE1MjExMlowSzEQMA4GA1UEAwwHSGVyYmVydDEL
MAkGA1UEBhMCSVQxDzANBgNVBAgMBkl0YWxpYTEZMBcGA1UECgwQUmVnaW9uZSBD
YW1wYW5pYTBWMBAGByqGSM49AgEGBSuBBAAKA0IABDbvH2x5lLoIt8/0zpl2o6QU
AlD9u9DyMuz6LESqGXlnnGpAY1yQG6pgwNLdT716Dl++eNUOGVkLLnIg2lN5l+aj
IzAhMA4GA1UdDwEB/wQEAwIFoDAPBgNVHRMBAf8EBTADAgEDMAoGCCqGSM49BAMC
A0kAMEYCIQDne+Kjx1XGurKAT8QtXytofMMUnrjkuWwK7iZNSnnAEQIhAMBiR/So
6EQ19hI1AGJgs+E+/TLu1teWGZf2ll5whRi1
-----END CERTIFICATE-----
