Certificate:
    Data:
        Version: 3 (0x2)
        Serial Number: 24 (0x18)
        Signature Algorithm: ecdsa-with-SHA256
        Issuer: CN=Regione Liguria, C=IT, ST=Italia, O=E-Voting system, OU=E-Voting system authority/emailAddress=Liguria@evoting.it
        Validity
            Not Before: Aug  3 13:26:48 2022 GMT
            Not After : Aug  3 13:26:48 2023 GMT
        Subject: CN=Herman, C=IT, ST=Italia, O=Regione Liguria
        Subject Public Key Info:
            Public Key Algorithm: id-ecPublicKey
                Public-Key: (256 bit)
                pub:
                    04:72:15:87:80:c4:79:d6:75:e3:ce:8b:25:60:31:
                    35:92:7f:ed:d8:bb:5d:a3:11:99:ab:75:67:30:da:
                    72:d8:c8:95:11:28:f3:9e:f7:50:46:33:df:2b:4d:
                    c1:5a:c6:1c:7b:bd:03:4d:fe:b0:dd:eb:1e:85:55:
                    ff:5f:b2:0e:2c
                ASN1 OID: prime256v1
                NIST CURVE: P-256
        X509v3 extensions:
            X509v3 Key Usage: critical
                Digital Signature, Key Encipherment
            X509v3 Basic Constraints: critical
                CA:FALSE, pathlen:3
    Signature Algorithm: ecdsa-with-SHA256
         30:45:02:21:00:91:33:d4:cb:5a:0e:dd:f2:ea:01:aa:11:d6:
         1c:2b:09:67:07:cb:d2:11:2a:00:e8:c1:16:29:75:76:84:53:
         5a:02:20:07:ac:3b:d4:89:22:b2:22:7b:45:0f:e4:95:c3:41:
         b0:2d:53:d9:4f:a9:bb:84:e8:e3:ab:b4:34:06:f2:ec:71
-----BEGIN CERTIFICATE-----
MIIB9TCCAZugAwIBAgIBGDAKBggqhkjOPQQDAjCBmTEYMBYGA1UEAwwPUmVnaW9u
ZSBMaWd1cmlhMQswCQYDVQQGEwJJVDEPMA0GA1UECAwGSXRhbGlhMRgwFgYDVQQK
DA9FLVZvdGluZyBzeXN0ZW0xIjAgBgNVBAsMGUUtVm90aW5nIHN5c3RlbSBhdXRo
b3JpdHkxITAfBgkqhkiG9w0BCQEWEkxpZ3VyaWFAZXZvdGluZy5pdDAeFw0yMjA4
MDMxMzI2NDhaFw0yMzA4MDMxMzI2NDhaMEkxDzANBgNVBAMMBkhlcm1hbjELMAkG
A1UEBhMCSVQxDzANBgNVBAgMBkl0YWxpYTEYMBYGA1UECgwPUmVnaW9uZSBMaWd1
cmlhMFkwEwYHKoZIzj0CAQYIKoZIzj0DAQcDQgAEchWHgMR51nXjzoslYDE1kn/t
2LtdoxGZq3VnMNpy2MiVESjznvdQRjPfK03BWsYce70DTf6w3esehVX/X7IOLKMj
MCEwDgYDVR0PAQH/BAQDAgWgMA8GA1UdEwEB/wQFMAMCAQMwCgYIKoZIzj0EAwID
SAAwRQIhAJEz1MtaDt3y6gGqEdYcKwlnB8vSESoA6MEWKXV2hFNaAiAHrDvUiSKy
IntFD+SVw0GwLVPZT6m7hOjjq7Q0BvLscQ==
-----END CERTIFICATE-----
