Certificate:
    Data:
        Version: 3 (0x2)
        Serial Number: 37 (0x25)
        Signature Algorithm: ecdsa-with-SHA256
        Issuer: CN=Regione Sicilia, C=IT, ST=Italia, O=E-Voting system, OU=E-Voting system authority/emailAddress=Sicilia@evoting.it
        Validity
            Not Before: Aug 26 15:20:39 2022 GMT
            Not After : Aug 26 15:20:39 2023 GMT
        Subject: CN=Herman, C=IT, ST=Italia, O=Regione Sicilia
        Subject Public Key Info:
            Public Key Algorithm: id-ecPublicKey
                Public-Key: (256 bit)
                pub:
                    04:3d:7f:67:da:ca:2a:c8:06:b8:88:d2:1e:3d:13:
                    22:5f:e4:5c:29:d6:f1:75:e5:e9:a8:b8:aa:fb:80:
                    52:24:2c:a5:31:bd:b3:4a:19:31:6e:36:f9:b7:0b:
                    7e:c6:31:30:e9:96:6f:cc:b9:c6:03:8b:82:4d:49:
                    60:8e:cc:ff:68
                ASN1 OID: secp256k1
        X509v3 extensions:
            X509v3 Key Usage: critical
                Digital Signature, Key Encipherment
            X509v3 Basic Constraints: critical
                CA:FALSE, pathlen:3
    Signature Algorithm: ecdsa-with-SHA256
         30:45:02:20:79:a8:43:50:af:d7:c5:86:e8:8b:17:45:c3:03:
         72:e1:4c:95:c5:08:17:8b:39:29:e0:7f:2e:7a:bf:d0:1f:dc:
         02:21:00:db:1f:a5:be:61:12:31:09:e2:41:2c:39:5c:d9:68:
         fb:96:e7:ed:06:a9:78:8c:e5:79:84:1d:6c:1d:e8:ff:6b
-----BEGIN CERTIFICATE-----
MIIB8jCCAZigAwIBAgIBJTAKBggqhkjOPQQDAjCBmTEYMBYGA1UEAwwPUmVnaW9u
ZSBTaWNpbGlhMQswCQYDVQQGEwJJVDEPMA0GA1UECAwGSXRhbGlhMRgwFgYDVQQK
DA9FLVZvdGluZyBzeXN0ZW0xIjAgBgNVBAsMGUUtVm90aW5nIHN5c3RlbSBhdXRo
b3JpdHkxITAfBgkqhkiG9w0BCQEWElNpY2lsaWFAZXZvdGluZy5pdDAeFw0yMjA4
MjYxNTIwMzlaFw0yMzA4MjYxNTIwMzlaMEkxDzANBgNVBAMMBkhlcm1hbjELMAkG
A1UEBhMCSVQxDzANBgNVBAgMBkl0YWxpYTEYMBYGA1UECgwPUmVnaW9uZSBTaWNp
bGlhMFYwEAYHKoZIzj0CAQYFK4EEAAoDQgAEPX9n2soqyAa4iNIePRMiX+RcKdbx
deXpqLiq+4BSJCylMb2zShkxbjb5twt+xjEw6ZZvzLnGA4uCTUlgjsz/aKMjMCEw
DgYDVR0PAQH/BAQDAgWgMA8GA1UdEwEB/wQFMAMCAQMwCgYIKoZIzj0EAwIDSAAw
RQIgeahDUK/XxYboixdFwwNy4UyVxQgXizkp4H8uer/QH9wCIQDbH6W+YRIxCeJB
LDlc2Wj7luftBql4jOV5hB1sHej/aw==
-----END CERTIFICATE-----
