Certificate:
    Data:
        Version: 3 (0x2)
        Serial Number: 29 (0x1d)
        Signature Algorithm: ecdsa-with-SHA256
        Issuer: CN=Regione Trentino_Alto_Adige, C=IT, ST=Italia, O=E-Voting system, OU=E-Voting system authority/emailAddress=Trentino_Alto_Adige@evoting.it
        Validity
            Not Before: Aug  3 13:27:47 2022 GMT
            Not After : Aug  3 13:27:47 2023 GMT
        Subject: CN=Hester, C=IT, ST=Italia, O=Regione Trentino_Alto_Adige
        Subject Public Key Info:
            Public Key Algorithm: id-ecPublicKey
                Public-Key: (256 bit)
                pub:
                    04:cd:6f:38:2c:21:02:30:f9:c3:2c:8c:e0:fd:ba:
                    13:3b:32:62:f4:3b:02:af:17:68:8a:bc:0c:ae:aa:
                    22:07:3f:6b:13:f3:62:e1:a1:dd:7e:bf:b3:35:9d:
                    d0:a2:85:16:ce:46:fc:0c:d2:c2:de:15:ba:fb:13:
                    ca:ee:5d:7b:00
                ASN1 OID: prime256v1
                NIST CURVE: P-256
        X509v3 extensions:
            X509v3 Key Usage: critical
                Digital Signature, Key Encipherment
            X509v3 Basic Constraints: critical
                CA:FALSE, pathlen:3
    Signature Algorithm: ecdsa-with-SHA256
         30:45:02:21:00:d8:7b:db:93:42:7f:81:57:33:06:4b:82:3a:
         92:a8:62:fa:cc:af:65:b8:f7:f9:7e:f9:96:a4:c0:5f:0c:ab:
         77:02:20:1e:86:ec:51:50:5e:80:ee:1d:ac:8c:56:a3:e4:b2:
         e6:c7:fb:8e:8e:bf:70:05:40:db:f9:5e:e1:fe:34:94:46
-----BEGIN CERTIFICATE-----
MIICGTCCAb+gAwIBAgIBHTAKBggqhkjOPQQDAjCBsTEkMCIGA1UEAwwbUmVnaW9u
ZSBUcmVudGlub19BbHRvX0FkaWdlMQswCQYDVQQGEwJJVDEPMA0GA1UECAwGSXRh
bGlhMRgwFgYDVQQKDA9FLVZvdGluZyBzeXN0ZW0xIjAgBgNVBAsMGUUtVm90aW5n
IHN5c3RlbSBhdXRob3JpdHkxLTArBgkqhkiG9w0BCQEWHlRyZW50aW5vX0FsdG9f
QWRpZ2VAZXZvdGluZy5pdDAeFw0yMjA4MDMxMzI3NDdaFw0yMzA4MDMxMzI3NDda
MFUxDzANBgNVBAMMBkhlc3RlcjELMAkGA1UEBhMCSVQxDzANBgNVBAgMBkl0YWxp
YTEkMCIGA1UECgwbUmVnaW9uZSBUcmVudGlub19BbHRvX0FkaWdlMFkwEwYHKoZI
zj0CAQYIKoZIzj0DAQcDQgAEzW84LCECMPnDLIzg/boTOzJi9DsCrxdoirwMrqoi
Bz9rE/Ni4aHdfr+zNZ3QooUWzkb8DNLC3hW6+xPK7l17AKMjMCEwDgYDVR0PAQH/
BAQDAgWgMA8GA1UdEwEB/wQFMAMCAQMwCgYIKoZIzj0EAwIDSAAwRQIhANh725NC
f4FXMwZLgjqSqGL6zK9luPf5fvmWpMBfDKt3AiAehuxRUF6A7h2sjFaj5LLmx/uO
jr9wBUDb+V7h/jSURg==
-----END CERTIFICATE-----
