Certificate:
    Data:
        Version: 3 (0x2)
        Serial Number: 19 (0x13)
        Signature Algorithm: ecdsa-with-SHA256
        Issuer: CN=Regione Valle_d_Aosta, C=IT, ST=Italia, O=E-Voting system, OU=E-Voting system authority/emailAddress=Valle_d_Aosta@evoting.it
        Validity
            Not Before: Aug  3 13:26:32 2022 GMT
            Not After : Aug  3 13:26:32 2023 GMT
        Subject: CN=Hildegard, C=IT, ST=Italia, O=Regione Valle_d_Aosta
        Subject Public Key Info:
            Public Key Algorithm: id-ecPublicKey
                Public-Key: (256 bit)
                pub:
                    04:c2:4c:a7:91:80:d7:7c:43:ff:cf:33:a9:1e:57:
                    72:76:16:f4:45:b2:d9:8a:28:b9:78:12:79:cc:f9:
                    2c:ea:db:46:5e:d5:aa:3d:24:56:88:06:02:4b:d3:
                    78:cb:54:ee:15:85:39:a3:c2:cc:1c:b1:c8:93:8e:
                    c1:a3:70:2c:f5
                ASN1 OID: prime256v1
                NIST CURVE: P-256
        X509v3 extensions:
            X509v3 Key Usage: critical
                Digital Signature, Key Encipherment
            X509v3 Basic Constraints: critical
                CA:FALSE, pathlen:3
    Signature Algorithm: ecdsa-with-SHA256
         30:45:02:21:00:a1:c1:98:8e:1b:8e:70:89:e8:72:56:71:66:
         0e:55:85:73:9c:b1:c8:13:43:62:0a:d2:3f:bb:23:8e:f2:e1:
         87:02:20:18:87:f4:f4:1f:e0:58:a3:40:1d:6c:4b:c5:61:44:
         4e:46:77:7a:96:2e:36:06:7f:f1:ae:0f:a0:03:79:56:b6
-----BEGIN CERTIFICATE-----
MIICCjCCAbCgAwIBAgIBEzAKBggqhkjOPQQDAjCBpTEeMBwGA1UEAwwVUmVnaW9u
ZSBWYWxsZV9kX0Fvc3RhMQswCQYDVQQGEwJJVDEPMA0GA1UECAwGSXRhbGlhMRgw
FgYDVQQKDA9FLVZvdGluZyBzeXN0ZW0xIjAgBgNVBAsMGUUtVm90aW5nIHN5c3Rl
bSBhdXRob3JpdHkxJzAlBgkqhkiG9w0BCQEWGFZhbGxlX2RfQW9zdGFAZXZvdGlu
Zy5pdDAeFw0yMjA4MDMxMzI2MzJaFw0yMzA4MDMxMzI2MzJaMFIxEjAQBgNVBAMM
CUhpbGRlZ2FyZDELMAkGA1UEBhMCSVQxDzANBgNVBAgMBkl0YWxpYTEeMBwGA1UE
CgwVUmVnaW9uZSBWYWxsZV9kX0Fvc3RhMFkwEwYHKoZIzj0CAQYIKoZIzj0DAQcD
QgAEwkynkYDXfEP/zzOpHldydhb0RbLZiii5eBJ5zPks6ttGXtWqPSRWiAYCS9N4
y1TuFYU5o8LMHLHIk47Bo3As9aMjMCEwDgYDVR0PAQH/BAQDAgWgMA8GA1UdEwEB
/wQFMAMCAQMwCgYIKoZIzj0EAwIDSAAwRQIhAKHBmI4bjnCJ6HJWcWYOVYVznLHI
E0NiCtI/uyOO8uGHAiAYh/T0H+BYo0AdbEvFYURORnd6li42Bn/xrg+gA3lWtg==
-----END CERTIFICATE-----
