Certificate:
    Data:
        Version: 3 (0x2)
        Serial Number: 23 (0x17)
        Signature Algorithm: ecdsa-with-SHA256
        Issuer: CN=Regione Puglia, C=IT, ST=Italia, O=E-Voting system, OU=E-Voting system authority/emailAddress=Puglia@evoting.it
        Validity
            Not Before: Aug 26 15:20:01 2022 GMT
            Not After : Aug 26 15:20:01 2023 GMT
        Subject: CN=Hillary, C=IT, ST=Italia, O=Regione Puglia
        Subject Public Key Info:
            Public Key Algorithm: id-ecPublicKey
                Public-Key: (256 bit)
                pub:
                    04:bf:5c:2f:3b:dd:c6:91:ae:91:3a:cb:b9:f7:7d:
                    a5:85:6f:d1:58:ee:bc:2f:1a:b3:dc:22:70:38:c3:
                    48:0e:bf:4a:78:5e:e2:f5:8c:aa:35:40:ac:79:6b:
                    99:73:80:e9:24:58:0e:45:bc:0d:74:f9:84:2d:52:
                    bd:f7:43:bf:19
                ASN1 OID: secp256k1
        X509v3 extensions:
            X509v3 Key Usage: critical
                Digital Signature, Key Encipherment
            X509v3 Basic Constraints: critical
                CA:FALSE, pathlen:3
    Signature Algorithm: ecdsa-with-SHA256
         30:46:02:21:00:c1:e0:92:25:55:1d:ab:d7:c9:22:8c:68:ce:
         01:f7:3d:fc:14:d0:c8:78:3d:d0:cf:a1:c4:63:3d:e4:a7:59:
         48:02:21:00:b3:47:fe:60:fe:0b:c3:ad:3d:7a:27:33:50:38:
         4c:fa:64:05:9a:d7:a7:04:ac:e7:58:f0:dc:9a:67:41:de:7a
-----BEGIN CERTIFICATE-----
MIIB8TCCAZagAwIBAgIBFzAKBggqhkjOPQQDAjCBlzEXMBUGA1UEAwwOUmVnaW9u
ZSBQdWdsaWExCzAJBgNVBAYTAklUMQ8wDQYDVQQIDAZJdGFsaWExGDAWBgNVBAoM
D0UtVm90aW5nIHN5c3RlbTEiMCAGA1UECwwZRS1Wb3Rpbmcgc3lzdGVtIGF1dGhv
cml0eTEgMB4GCSqGSIb3DQEJARYRUHVnbGlhQGV2b3RpbmcuaXQwHhcNMjIwODI2
MTUyMDAxWhcNMjMwODI2MTUyMDAxWjBJMRAwDgYDVQQDDAdIaWxsYXJ5MQswCQYD
VQQGEwJJVDEPMA0GA1UECAwGSXRhbGlhMRcwFQYDVQQKDA5SZWdpb25lIFB1Z2xp
YTBWMBAGByqGSM49AgEGBSuBBAAKA0IABL9cLzvdxpGukTrLufd9pYVv0VjuvC8a
s9wicDjDSA6/Snhe4vWMqjVArHlrmXOA6SRYDkW8DXT5hC1SvfdDvxmjIzAhMA4G
A1UdDwEB/wQEAwIFoDAPBgNVHRMBAf8EBTADAgEDMAoGCCqGSM49BAMCA0kAMEYC
IQDB4JIlVR2r18kijGjOAfc9/BTQyHg90M+hxGM95KdZSAIhALNH/mD+C8OtPXon
M1A4TPpkBZrXpwSs51jw3JpnQd56
-----END CERTIFICATE-----
