Certificate:
    Data:
        Version: 3 (0x2)
        Serial Number: 24 (0x18)
        Signature Algorithm: ecdsa-with-SHA256
        Issuer: CN=Regione Puglia, C=IT, ST=Italia, O=E-Voting system, OU=E-Voting system authority/emailAddress=Puglia@evoting.it
        Validity
            Not Before: Aug  3 13:27:16 2022 GMT
            Not After : Aug  3 13:27:16 2023 GMT
        Subject: CN=Hillary, C=IT, ST=Italia, O=Regione Puglia
        Subject Public Key Info:
            Public Key Algorithm: id-ecPublicKey
                Public-Key: (256 bit)
                pub:
                    04:3f:1c:c5:f6:69:fd:2c:70:de:63:1d:dc:0e:d4:
                    5a:d2:2f:0c:82:c2:e7:60:a2:62:63:09:bf:37:5a:
                    55:83:a8:b5:9c:1d:fe:4e:d6:57:ba:c4:ed:5a:4a:
                    b0:2c:b0:71:83:f3:8c:bc:db:81:6b:fc:61:c5:18:
                    a7:5e:38:c4:ae
                ASN1 OID: prime256v1
                NIST CURVE: P-256
        X509v3 extensions:
            X509v3 Key Usage: critical
                Digital Signature, Key Encipherment
            X509v3 Basic Constraints: critical
                CA:FALSE, pathlen:3
    Signature Algorithm: ecdsa-with-SHA256
         30:45:02:21:00:e6:cf:7a:46:07:99:04:cc:78:d2:e4:ee:96:
         c3:ba:60:a3:64:d9:2f:99:18:ed:6f:5d:eb:1d:d7:e6:fb:21:
         d7:02:20:5b:63:f9:0c:ed:1a:4b:b3:2b:e7:75:a2:53:24:cc:
         aa:81:7d:3f:e4:0c:58:96:06:4b:84:d5:d6:0c:58:3c:d2
-----BEGIN CERTIFICATE-----
MIIB8zCCAZmgAwIBAgIBGDAKBggqhkjOPQQDAjCBlzEXMBUGA1UEAwwOUmVnaW9u
ZSBQdWdsaWExCzAJBgNVBAYTAklUMQ8wDQYDVQQIDAZJdGFsaWExGDAWBgNVBAoM
D0UtVm90aW5nIHN5c3RlbTEiMCAGA1UECwwZRS1Wb3Rpbmcgc3lzdGVtIGF1dGhv
cml0eTEgMB4GCSqGSIb3DQEJARYRUHVnbGlhQGV2b3RpbmcuaXQwHhcNMjIwODAz
MTMyNzE2WhcNMjMwODAzMTMyNzE2WjBJMRAwDgYDVQQDDAdIaWxsYXJ5MQswCQYD
VQQGEwJJVDEPMA0GA1UECAwGSXRhbGlhMRcwFQYDVQQKDA5SZWdpb25lIFB1Z2xp
YTBZMBMGByqGSM49AgEGCCqGSM49AwEHA0IABD8cxfZp/Sxw3mMd3A7UWtIvDILC
52CiYmMJvzdaVYOotZwd/k7WV7rE7VpKsCywcYPzjLzbgWv8YcUYp144xK6jIzAh
MA4GA1UdDwEB/wQEAwIFoDAPBgNVHRMBAf8EBTADAgEDMAoGCCqGSM49BAMCA0gA
MEUCIQDmz3pGB5kEzHjS5O6Ww7pgo2TZL5kY7W9d6x3X5vsh1wIgW2P5DO0aS7Mr
53WiUyTMqoF9P+QMWJYGS4TV1gxYPNI=
-----END CERTIFICATE-----
