Certificate:
    Data:
        Version: 3 (0x2)
        Serial Number: 59 (0x3b)
        Signature Algorithm: ecdsa-with-SHA256
        Issuer: CN=Regione Piemonte, C=IT, ST=Italia, O=E-Voting system, OU=E-Voting system authority/emailAddress=Piemonte@evoting.it
        Validity
            Not Before: Aug  3 13:28:11 2022 GMT
            Not After : Aug  3 13:28:11 2023 GMT
        Subject: CN=Hilton, C=IT, ST=Italia, O=Regione Piemonte
        Subject Public Key Info:
            Public Key Algorithm: id-ecPublicKey
                Public-Key: (256 bit)
                pub:
                    04:51:a9:f8:fd:5a:0c:b7:56:5e:0f:a1:ab:31:f4:
                    b4:f0:cb:61:59:65:d0:92:f4:fb:1a:8d:aa:04:a4:
                    cb:3b:ac:8e:77:81:bb:25:aa:3d:c6:d8:a6:18:ea:
                    1d:ed:37:b4:c6:80:64:88:86:aa:8f:74:1a:79:0a:
                    b4:1c:0c:69:1f
                ASN1 OID: prime256v1
                NIST CURVE: P-256
        X509v3 extensions:
            X509v3 Key Usage: critical
                Digital Signature, Key Encipherment
            X509v3 Basic Constraints: critical
                CA:FALSE, pathlen:3
    Signature Algorithm: ecdsa-with-SHA256
         30:46:02:21:00:c6:e7:dc:39:53:8d:25:29:9e:a0:3f:ec:5e:
         07:f8:c8:4c:75:16:b1:f8:07:69:61:27:43:46:d8:01:43:5c:
         6c:02:21:00:88:b4:ad:06:9b:ba:1b:cc:8d:86:38:86:de:dd:
         96:66:f7:17:2e:e1:ce:df:8d:7e:b9:3e:5d:ee:f1:2a:4c:16
-----BEGIN CERTIFICATE-----
MIIB+TCCAZ6gAwIBAgIBOzAKBggqhkjOPQQDAjCBmzEZMBcGA1UEAwwQUmVnaW9u
ZSBQaWVtb250ZTELMAkGA1UEBhMCSVQxDzANBgNVBAgMBkl0YWxpYTEYMBYGA1UE
CgwPRS1Wb3Rpbmcgc3lzdGVtMSIwIAYDVQQLDBlFLVZvdGluZyBzeXN0ZW0gYXV0
aG9yaXR5MSIwIAYJKoZIhvcNAQkBFhNQaWVtb250ZUBldm90aW5nLml0MB4XDTIy
MDgwMzEzMjgxMVoXDTIzMDgwMzEzMjgxMVowSjEPMA0GA1UEAwwGSGlsdG9uMQsw
CQYDVQQGEwJJVDEPMA0GA1UECAwGSXRhbGlhMRkwFwYDVQQKDBBSZWdpb25lIFBp
ZW1vbnRlMFkwEwYHKoZIzj0CAQYIKoZIzj0DAQcDQgAEUan4/VoMt1ZeD6GrMfS0
8MthWWXQkvT7Go2qBKTLO6yOd4G7Jao9xtimGOod7Te0xoBkiIaqj3QaeQq0HAxp
H6MjMCEwDgYDVR0PAQH/BAQDAgWgMA8GA1UdEwEB/wQFMAMCAQMwCgYIKoZIzj0E
AwIDSQAwRgIhAMbn3DlTjSUpnqA/7F4H+MhMdRax+AdpYSdDRtgBQ1xsAiEAiLSt
Bpu6G8yNhjiG3t2WZvcXLuHO341+uT5d7vEqTBY=
-----END CERTIFICATE-----
