Certificate:
    Data:
        Version: 3 (0x2)
        Serial Number: 54 (0x36)
        Signature Algorithm: ecdsa-with-SHA256
        Issuer: CN=Regione Umbria, C=IT, ST=Italia, O=E-Voting system, OU=E-Voting system authority/emailAddress=Umbria@evoting.it
        Validity
            Not Before: Aug 26 15:21:36 2022 GMT
            Not After : Aug 26 15:21:36 2023 GMT
        Subject: CN=Holly, C=IT, ST=Italia, O=Regione Umbria
        Subject Public Key Info:
            Public Key Algorithm: id-ecPublicKey
                Public-Key: (256 bit)
                pub:
                    04:ff:77:14:a4:ed:ee:82:35:b6:ef:9b:7a:98:de:
                    6e:e9:ee:a7:c3:b3:71:b5:a0:81:c6:3b:89:70:ff:
                    9e:ed:07:a1:70:5f:cb:dd:46:c5:f1:96:5c:02:d3:
                    db:ab:b6:aa:a0:74:2b:40:bd:e0:4d:7f:4b:49:bd:
                    cc:b3:43:47:c5
                ASN1 OID: secp256k1
        X509v3 extensions:
            X509v3 Key Usage: critical
                Digital Signature, Key Encipherment
            X509v3 Basic Constraints: critical
                CA:FALSE, pathlen:3
    Signature Algorithm: ecdsa-with-SHA256
         30:45:02:21:00:fe:53:ed:bc:0c:35:09:8d:4f:8c:ca:52:13:
         c5:e1:e8:4d:21:59:b3:d0:bd:45:91:b0:5b:ff:f2:f6:cc:82:
         44:02:20:33:89:22:b2:f8:1f:29:8f:a1:4c:e1:6b:02:24:e7:
         ad:ec:55:39:b5:e3:11:99:b6:f8:da:4e:05:4a:5a:c6:3d
-----BEGIN CERTIFICATE-----
MIIB7jCCAZSgAwIBAgIBNjAKBggqhkjOPQQDAjCBlzEXMBUGA1UEAwwOUmVnaW9u
ZSBVbWJyaWExCzAJBgNVBAYTAklUMQ8wDQYDVQQIDAZJdGFsaWExGDAWBgNVBAoM
D0UtVm90aW5nIHN5c3RlbTEiMCAGA1UECwwZRS1Wb3Rpbmcgc3lzdGVtIGF1dGhv
cml0eTEgMB4GCSqGSIb3DQEJARYRVW1icmlhQGV2b3RpbmcuaXQwHhcNMjIwODI2
MTUyMTM2WhcNMjMwODI2MTUyMTM2WjBHMQ4wDAYDVQQDDAVIb2xseTELMAkGA1UE
BhMCSVQxDzANBgNVBAgMBkl0YWxpYTEXMBUGA1UECgwOUmVnaW9uZSBVbWJyaWEw
VjAQBgcqhkjOPQIBBgUrgQQACgNCAAT/dxSk7e6CNbbvm3qY3m7p7qfDs3G1oIHG
O4lw/57tB6FwX8vdRsXxllwC09urtqqgdCtAveBNf0tJvcyzQ0fFoyMwITAOBgNV
HQ8BAf8EBAMCBaAwDwYDVR0TAQH/BAUwAwIBAzAKBggqhkjOPQQDAgNIADBFAiEA
/lPtvAw1CY1PjMpSE8Xh6E0hWbPQvUWRsFv/8vbMgkQCIDOJIrL4HymPoUzhawIk
563sVTm14xGZtvjaTgVKWsY9
-----END CERTIFICATE-----
