Certificate:
    Data:
        Version: 3 (0x2)
        Serial Number: 38 (0x26)
        Signature Algorithm: ecdsa-with-SHA256
        Issuer: CN=Regione Sardegna, C=IT, ST=Italia, O=E-Voting system, OU=E-Voting system authority/emailAddress=Sardegna@evoting.it
        Validity
            Not Before: Aug  3 13:28:13 2022 GMT
            Not After : Aug  3 13:28:13 2023 GMT
        Subject: CN=Holli, C=IT, ST=Italia, O=Regione Sardegna
        Subject Public Key Info:
            Public Key Algorithm: id-ecPublicKey
                Public-Key: (256 bit)
                pub:
                    04:29:f1:a7:91:39:81:96:94:bf:5c:86:ac:5c:60:
                    82:b0:d9:dd:8e:c7:ff:1a:58:5d:be:8e:3c:22:d1:
                    31:e0:4b:c3:4a:f2:0c:f3:d1:19:25:1f:b1:18:ec:
                    5b:9b:d3:41:d0:5b:f2:58:10:87:a4:af:94:9d:89:
                    bc:23:21:e1:24
                ASN1 OID: prime256v1
                NIST CURVE: P-256
        X509v3 extensions:
            X509v3 Key Usage: critical
                Digital Signature, Key Encipherment
            X509v3 Basic Constraints: critical
                CA:FALSE, pathlen:3
    Signature Algorithm: ecdsa-with-SHA256
         30:44:02:20:51:a0:a2:df:6d:e1:4c:48:35:3e:2e:69:a2:33:
         ff:8f:a1:e5:74:18:d6:45:af:c6:b2:d9:df:25:01:db:1c:4b:
         02:20:39:4f:ab:22:40:c9:8f:8a:39:c3:b0:58:dc:84:ab:2c:
         67:e2:c7:e1:00:94:52:40:3f:04:4e:e9:2d:48:65:ae
-----BEGIN CERTIFICATE-----
MIIB9jCCAZ2gAwIBAgIBJjAKBggqhkjOPQQDAjCBmzEZMBcGA1UEAwwQUmVnaW9u
ZSBTYXJkZWduYTELMAkGA1UEBhMCSVQxDzANBgNVBAgMBkl0YWxpYTEYMBYGA1UE
CgwPRS1Wb3Rpbmcgc3lzdGVtMSIwIAYDVQQLDBlFLVZvdGluZyBzeXN0ZW0gYXV0
aG9yaXR5MSIwIAYJKoZIhvcNAQkBFhNTYXJkZWduYUBldm90aW5nLml0MB4XDTIy
MDgwMzEzMjgxM1oXDTIzMDgwMzEzMjgxM1owSTEOMAwGA1UEAwwFSG9sbGkxCzAJ
BgNVBAYTAklUMQ8wDQYDVQQIDAZJdGFsaWExGTAXBgNVBAoMEFJlZ2lvbmUgU2Fy
ZGVnbmEwWTATBgcqhkjOPQIBBggqhkjOPQMBBwNCAAQp8aeROYGWlL9chqxcYIKw
2d2Ox/8aWF2+jjwi0THgS8NK8gzz0RklH7EY7Fub00HQW/JYEIekr5SdibwjIeEk
oyMwITAOBgNVHQ8BAf8EBAMCBaAwDwYDVR0TAQH/BAUwAwIBAzAKBggqhkjOPQQD
AgNHADBEAiBRoKLfbeFMSDU+LmmiM/+PoeV0GNZFr8ay2d8lAdscSwIgOU+rIkDJ
j4o5w7BY3ISrLGfix+EAlFJAPwRO6S1IZa4=
-----END CERTIFICATE-----
