Certificate:
    Data:
        Version: 3 (0x2)
        Serial Number: 12 (0xc)
        Signature Algorithm: ecdsa-with-SHA256
        Issuer: CN=Regione Lombardia, C=IT, ST=Italia, O=E-Voting system, OU=E-Voting system authority/emailAddress=Lombardia@evoting.it
        Validity
            Not Before: Aug  3 13:26:21 2022 GMT
            Not After : Aug  3 13:26:21 2023 GMT
        Subject: CN=Homer, C=IT, ST=Italia, O=Regione Lombardia
        Subject Public Key Info:
            Public Key Algorithm: id-ecPublicKey
                Public-Key: (256 bit)
                pub:
                    04:59:08:85:44:01:f1:94:fa:02:e3:6a:2c:d3:38:
                    53:5e:7f:a9:c5:bf:fd:60:ff:ff:5e:1b:da:63:ab:
                    56:f0:4c:46:93:80:55:ff:eb:1d:d0:51:e2:26:0a:
                    02:c5:97:bb:c1:69:40:6f:39:cc:46:cf:2f:1a:51:
                    ef:48:d4:06:68
                ASN1 OID: prime256v1
                NIST CURVE: P-256
        X509v3 extensions:
            X509v3 Key Usage: critical
                Digital Signature, Key Encipherment
            X509v3 Basic Constraints: critical
                CA:FALSE, pathlen:3
    Signature Algorithm: ecdsa-with-SHA256
         30:44:02:20:67:ae:a8:c8:9b:81:fe:a0:40:4b:98:72:4d:f6:
         ca:72:42:15:6e:6d:38:b6:42:0b:1e:80:b8:f0:ff:27:84:3d:
         02:20:5f:37:4f:43:02:97:67:59:df:c2:72:32:65:20:7f:7b:
         26:58:6d:a0:26:de:de:60:33:91:af:e0:ae:c9:99:37
-----BEGIN CERTIFICATE-----
MIIB+TCCAaCgAwIBAgIBDDAKBggqhkjOPQQDAjCBnTEaMBgGA1UEAwwRUmVnaW9u
ZSBMb21iYXJkaWExCzAJBgNVBAYTAklUMQ8wDQYDVQQIDAZJdGFsaWExGDAWBgNV
BAoMD0UtVm90aW5nIHN5c3RlbTEiMCAGA1UECwwZRS1Wb3Rpbmcgc3lzdGVtIGF1
dGhvcml0eTEjMCEGCSqGSIb3DQEJARYUTG9tYmFyZGlhQGV2b3RpbmcuaXQwHhcN
MjIwODAzMTMyNjIxWhcNMjMwODAzMTMyNjIxWjBKMQ4wDAYDVQQDDAVIb21lcjEL
MAkGA1UEBhMCSVQxDzANBgNVBAgMBkl0YWxpYTEaMBgGA1UECgwRUmVnaW9uZSBM
b21iYXJkaWEwWTATBgcqhkjOPQIBBggqhkjOPQMBBwNCAARZCIVEAfGU+gLjaizT
OFNef6nFv/1g//9eG9pjq1bwTEaTgFX/6x3QUeImCgLFl7vBaUBvOcxGzy8aUe9I
1AZooyMwITAOBgNVHQ8BAf8EBAMCBaAwDwYDVR0TAQH/BAUwAwIBAzAKBggqhkjO
PQQDAgNHADBEAiBnrqjIm4H+oEBLmHJN9spyQhVubTi2QgsegLjw/yeEPQIgXzdP
QwKXZ1nfwnIyZSB/eyZYbaAm3t5gM5Gv4K7JmTc=
-----END CERTIFICATE-----
