Certificate:
    Data:
        Version: 3 (0x2)
        Serial Number: 38 (0x26)
        Signature Algorithm: ecdsa-with-SHA256
        Issuer: CN=Regione Valle_d_Aosta, C=IT, ST=Italia, O=E-Voting system, OU=E-Voting system authority/emailAddress=Valle_d_Aosta@evoting.it
        Validity
            Not Before: Aug 26 15:20:55 2022 GMT
            Not After : Aug 26 15:20:55 2023 GMT
        Subject: CN=Howard, C=IT, ST=Italia, O=Regione Valle_d_Aosta
        Subject Public Key Info:
            Public Key Algorithm: id-ecPublicKey
                Public-Key: (256 bit)
                pub:
                    04:3b:b0:98:45:47:c3:f3:47:3e:29:05:df:30:1a:
                    31:db:5e:a0:82:fc:5f:76:e3:e0:cb:02:ec:04:44:
                    b7:2b:68:b9:0d:f6:54:d5:c3:c1:18:26:bd:6e:23:
                    b2:e7:79:31:3b:20:3a:08:57:f4:77:76:b3:65:57:
                    99:e0:e6:a6:66
                ASN1 OID: secp256k1
        X509v3 extensions:
            X509v3 Key Usage: critical
                Digital Signature, Key Encipherment
            X509v3 Basic Constraints: critical
                CA:FALSE, pathlen:3
    Signature Algorithm: ecdsa-with-SHA256
         30:46:02:21:00:e0:cf:18:ef:7c:a8:5c:7b:f5:90:b4:f1:84:
         00:38:b4:8c:82:e6:37:08:8a:4b:95:7d:92:c6:e3:45:94:4b:
         92:02:21:00:ee:c1:52:e5:3e:0f:a2:b6:24:41:3a:91:f3:f1:
         9d:e9:c3:52:51:18:1a:ef:e0:42:53:52:2e:4e:b4:71:9c:fb
-----BEGIN CERTIFICATE-----
MIICBTCCAaqgAwIBAgIBJjAKBggqhkjOPQQDAjCBpTEeMBwGA1UEAwwVUmVnaW9u
ZSBWYWxsZV9kX0Fvc3RhMQswCQYDVQQGEwJJVDEPMA0GA1UECAwGSXRhbGlhMRgw
FgYDVQQKDA9FLVZvdGluZyBzeXN0ZW0xIjAgBgNVBAsMGUUtVm90aW5nIHN5c3Rl
bSBhdXRob3JpdHkxJzAlBgkqhkiG9w0BCQEWGFZhbGxlX2RfQW9zdGFAZXZvdGlu
Zy5pdDAeFw0yMjA4MjYxNTIwNTVaFw0yMzA4MjYxNTIwNTVaME8xDzANBgNVBAMM
Bkhvd2FyZDELMAkGA1UEBhMCSVQxDzANBgNVBAgMBkl0YWxpYTEeMBwGA1UECgwV
UmVnaW9uZSBWYWxsZV9kX0Fvc3RhMFYwEAYHKoZIzj0CAQYFK4EEAAoDQgAEO7CY
RUfD80c+KQXfMBox216ggvxfduPgywLsBES3K2i5DfZU1cPBGCa9biOy53kxOyA6
CFf0d3azZVeZ4OamZqMjMCEwDgYDVR0PAQH/BAQDAgWgMA8GA1UdEwEB/wQFMAMC
AQMwCgYIKoZIzj0EAwIDSQAwRgIhAODPGO98qFx79ZC08YQAOLSMguY3CIpLlX2S
xuNFlEuSAiEA7sFS5T4PorYkQTqR8/Gd6cNSURga7+BCU1IuTrRxnPs=
-----END CERTIFICATE-----
