Certificate:
    Data:
        Version: 3 (0x2)
        Serial Number: 6 (0x6)
        Signature Algorithm: ecdsa-with-SHA256
        Issuer: CN=Regione Emilia_Romagna, C=IT, ST=Italia, O=E-Voting system, OU=E-Voting system authority/emailAddress=Emilia_Romagna@evoting.it
        Validity
            Not Before: Aug 26 15:18:36 2022 GMT
            Not After : Aug 26 15:18:36 2023 GMT
        Subject: CN=Ian, C=IT, ST=Italia, O=Regione Emilia_Romagna
        Subject Public Key Info:
            Public Key Algorithm: id-ecPublicKey
                Public-Key: (256 bit)
                pub:
                    04:1d:9d:2c:56:81:6d:12:57:52:78:74:7a:68:09:
                    05:3e:f6:98:38:89:a2:f5:f1:31:ab:de:41:2b:56:
                    62:57:fa:a8:dd:1a:6a:7a:ae:34:af:1d:48:0f:fc:
                    23:77:87:ce:b1:e7:7d:15:35:aa:0c:b1:0d:e3:e9:
                    8b:6c:81:19:f0
                ASN1 OID: secp256k1
        X509v3 extensions:
            X509v3 Key Usage: critical
                Digital Signature, Key Encipherment
            X509v3 Basic Constraints: critical
                CA:FALSE, pathlen:3
    Signature Algorithm: ecdsa-with-SHA256
         30:45:02:21:00:a6:38:5e:86:ec:23:b0:e5:71:d1:ef:ab:fa:
         82:36:74:1a:a0:44:a6:2d:f0:81:92:86:02:0c:bf:62:4a:74:
         19:02:20:42:84:bd:1a:05:73:7c:44:67:12:b1:39:cb:d4:a9:
         6d:f8:66:c2:88:e3:48:2e:c6:01:c3:bd:8f:eb:47:eb:6e
-----BEGIN CERTIFICATE-----
MIICBDCCAaqgAwIBAgIBBjAKBggqhkjOPQQDAjCBpzEfMB0GA1UEAwwWUmVnaW9u
ZSBFbWlsaWFfUm9tYWduYTELMAkGA1UEBhMCSVQxDzANBgNVBAgMBkl0YWxpYTEY
MBYGA1UECgwPRS1Wb3Rpbmcgc3lzdGVtMSIwIAYDVQQLDBlFLVZvdGluZyBzeXN0
ZW0gYXV0aG9yaXR5MSgwJgYJKoZIhvcNAQkBFhlFbWlsaWFfUm9tYWduYUBldm90
aW5nLml0MB4XDTIyMDgyNjE1MTgzNloXDTIzMDgyNjE1MTgzNlowTTEMMAoGA1UE
AwwDSWFuMQswCQYDVQQGEwJJVDEPMA0GA1UECAwGSXRhbGlhMR8wHQYDVQQKDBZS
ZWdpb25lIEVtaWxpYV9Sb21hZ25hMFYwEAYHKoZIzj0CAQYFK4EEAAoDQgAEHZ0s
VoFtEldSeHR6aAkFPvaYOImi9fExq95BK1ZiV/qo3Rpqeq40rx1ID/wjd4fOsed9
FTWqDLEN4+mLbIEZ8KMjMCEwDgYDVR0PAQH/BAQDAgWgMA8GA1UdEwEB/wQFMAMC
AQMwCgYIKoZIzj0EAwIDSAAwRQIhAKY4XobsI7DlcdHvq/qCNnQaoESmLfCBkoYC
DL9iSnQZAiBChL0aBXN8RGcSsTnL1Klt+GbCiONILsYBw72P60frbg==
-----END CERTIFICATE-----
