Certificate:
    Data:
        Version: 3 (0x2)
        Serial Number: 15 (0xf)
        Signature Algorithm: ecdsa-with-SHA256
        Issuer: CN=Regione Piemonte, C=IT, ST=Italia, O=E-Voting system, OU=E-Voting system authority/emailAddress=Piemonte@evoting.it
        Validity
            Not Before: Aug 26 15:19:37 2022 GMT
            Not After : Aug 26 15:19:37 2023 GMT
        Subject: CN=Ida, C=IT, ST=Italia, O=Regione Piemonte
        Subject Public Key Info:
            Public Key Algorithm: id-ecPublicKey
                Public-Key: (256 bit)
                pub:
                    04:73:63:3d:c1:95:aa:6b:cd:a7:34:1c:f2:19:68:
                    0e:68:7c:99:1f:09:d7:2b:d2:49:c0:e5:38:fd:fd:
                    51:72:07:2a:df:62:36:68:9b:7b:77:73:97:c3:33:
                    ba:ae:a7:1d:9d:37:9d:00:57:fc:13:db:58:ee:17:
                    8b:1b:bd:20:1c
                ASN1 OID: secp256k1
        X509v3 extensions:
            X509v3 Key Usage: critical
                Digital Signature, Key Encipherment
            X509v3 Basic Constraints: critical
                CA:FALSE, pathlen:3
    Signature Algorithm: ecdsa-with-SHA256
         30:44:02:20:35:20:f6:88:4c:ea:56:63:40:84:b6:cc:1f:a2:
         0e:d9:a6:dd:2a:38:ae:eb:9d:15:0d:44:01:44:a2:4f:c4:91:
         02:20:38:30:b6:a1:da:19:80:ae:6f:65:44:cb:49:73:2f:47:
         d6:e6:26:f0:ea:e4:8b:9a:4e:06:81:45:13:21:e6:f4
-----BEGIN CERTIFICATE-----
MIIB8TCCAZigAwIBAgIBDzAKBggqhkjOPQQDAjCBmzEZMBcGA1UEAwwQUmVnaW9u
ZSBQaWVtb250ZTELMAkGA1UEBhMCSVQxDzANBgNVBAgMBkl0YWxpYTEYMBYGA1UE
CgwPRS1Wb3Rpbmcgc3lzdGVtMSIwIAYDVQQLDBlFLVZvdGluZyBzeXN0ZW0gYXV0
aG9yaXR5MSIwIAYJKoZIhvcNAQkBFhNQaWVtb250ZUBldm90aW5nLml0MB4XDTIy
MDgyNjE1MTkzN1oXDTIzMDgyNjE1MTkzN1owRzEMMAoGA1UEAwwDSWRhMQswCQYD
VQQGEwJJVDEPMA0GA1UECAwGSXRhbGlhMRkwFwYDVQQKDBBSZWdpb25lIFBpZW1v
bnRlMFYwEAYHKoZIzj0CAQYFK4EEAAoDQgAEc2M9wZWqa82nNBzyGWgOaHyZHwnX
K9JJwOU4/f1Rcgcq32I2aJt7d3OXwzO6rqcdnTedAFf8E9tY7heLG70gHKMjMCEw
DgYDVR0PAQH/BAQDAgWgMA8GA1UdEwEB/wQFMAMCAQMwCgYIKoZIzj0EAwIDRwAw
RAIgNSD2iEzqVmNAhLbMH6IO2abdKjiu650VDUQBRKJPxJECIDgwtqHaGYCub2VE
y0lzL0fW5ibw6uSLmk4GgUUTIeb0
-----END CERTIFICATE-----
