Certificate:
    Data:
        Version: 3 (0x2)
        Serial Number: 46 (0x2e)
        Signature Algorithm: ecdsa-with-SHA256
        Issuer: CN=Regione Umbria, C=IT, ST=Italia, O=E-Voting system, OU=E-Voting system authority/emailAddress=Umbria@evoting.it
        Validity
            Not Before: Aug 26 15:21:16 2022 GMT
            Not After : Aug 26 15:21:16 2023 GMT
        Subject: CN=Idalia, C=IT, ST=Italia, O=Regione Umbria
        Subject Public Key Info:
            Public Key Algorithm: id-ecPublicKey
                Public-Key: (256 bit)
                pub:
                    04:e3:8e:b2:2c:18:7e:f6:b1:14:53:5d:69:d5:85:
                    64:9b:83:ac:b3:37:49:1a:d4:da:04:d3:1c:fa:37:
                    9c:74:ce:26:29:3e:9a:a9:55:5f:04:b5:8d:1c:5f:
                    3a:7a:e2:f7:4d:c0:7f:93:78:7f:5e:48:b6:95:dc:
                    32:d6:23:e8:28
                ASN1 OID: secp256k1
        X509v3 extensions:
            X509v3 Key Usage: critical
                Digital Signature, Key Encipherment
            X509v3 Basic Constraints: critical
                CA:FALSE, pathlen:3
    Signature Algorithm: ecdsa-with-SHA256
         30:46:02:21:00:d3:a3:2a:0b:8b:21:e1:5e:6e:8f:b3:5a:c5:
         22:4b:0d:46:34:f3:8c:28:2c:39:ec:3e:50:9a:b0:ae:3f:83:
         13:02:21:00:9c:13:a4:0f:4c:fc:0d:61:64:67:a0:c2:84:92:
         8f:88:18:61:0c:df:aa:7e:91:a0:69:40:55:bf:6b:16:9d:4f
-----BEGIN CERTIFICATE-----
MIIB8DCCAZWgAwIBAgIBLjAKBggqhkjOPQQDAjCBlzEXMBUGA1UEAwwOUmVnaW9u
ZSBVbWJyaWExCzAJBgNVBAYTAklUMQ8wDQYDVQQIDAZJdGFsaWExGDAWBgNVBAoM
D0UtVm90aW5nIHN5c3RlbTEiMCAGA1UECwwZRS1Wb3Rpbmcgc3lzdGVtIGF1dGhv
cml0eTEgMB4GCSqGSIb3DQEJARYRVW1icmlhQGV2b3RpbmcuaXQwHhcNMjIwODI2
MTUyMTE2WhcNMjMwODI2MTUyMTE2WjBIMQ8wDQYDVQQDDAZJZGFsaWExCzAJBgNV
BAYTAklUMQ8wDQYDVQQIDAZJdGFsaWExFzAVBgNVBAoMDlJlZ2lvbmUgVW1icmlh
MFYwEAYHKoZIzj0CAQYFK4EEAAoDQgAE446yLBh+9rEUU11p1YVkm4OsszdJGtTa
BNMc+jecdM4mKT6aqVVfBLWNHF86euL3TcB/k3h/Xki2ldwy1iPoKKMjMCEwDgYD
VR0PAQH/BAQDAgWgMA8GA1UdEwEB/wQFMAMCAQMwCgYIKoZIzj0EAwIDSQAwRgIh
ANOjKguLIeFebo+zWsUiSw1GNPOMKCw57D5QmrCuP4MTAiEAnBOkD0z8DWFkZ6DC
hJKPiBhhDN+qfpGgaUBVv2sWnU8=
-----END CERTIFICATE-----
