Certificate:
    Data:
        Version: 3 (0x2)
        Serial Number: 30 (0x1e)
        Signature Algorithm: ecdsa-with-SHA256
        Issuer: CN=Regione Emilia_Romagna, C=IT, ST=Italia, O=E-Voting system, OU=E-Voting system authority/emailAddress=Emilia_Romagna@evoting.it
        Validity
            Not Before: Aug  3 13:27:21 2022 GMT
            Not After : Aug  3 13:27:21 2023 GMT
        Subject: CN=Illa, C=IT, ST=Italia, O=Regione Emilia_Romagna
        Subject Public Key Info:
            Public Key Algorithm: id-ecPublicKey
                Public-Key: (256 bit)
                pub:
                    04:10:6c:38:a5:ca:e8:5e:68:65:28:2b:a4:27:92:
                    52:c4:b5:37:e6:72:9d:d6:0e:3d:03:43:74:aa:d7:
                    1f:19:a5:3c:f5:fa:df:a4:4c:df:03:ff:51:7d:e8:
                    96:79:f9:c1:27:aa:22:ee:25:45:0a:b7:b2:24:8f:
                    76:9c:02:57:65
                ASN1 OID: prime256v1
                NIST CURVE: P-256
        X509v3 extensions:
            X509v3 Key Usage: critical
                Digital Signature, Key Encipherment
            X509v3 Basic Constraints: critical
                CA:FALSE, pathlen:3
    Signature Algorithm: ecdsa-with-SHA256
         30:44:02:20:21:d8:1a:f9:24:6f:4f:fb:2f:ab:54:a0:e8:0f:
         25:a1:2a:d5:c7:cf:4e:3d:c1:8c:f7:24:82:b6:40:f5:8c:85:
         02:20:4d:fe:2f:b5:6f:db:9c:df:74:b4:30:5d:cc:3a:3c:48:
         91:f6:30:27:34:1e:5f:aa:2d:be:24:b5:de:f9:ed:64
-----BEGIN CERTIFICATE-----
MIICBzCCAa6gAwIBAgIBHjAKBggqhkjOPQQDAjCBpzEfMB0GA1UEAwwWUmVnaW9u
ZSBFbWlsaWFfUm9tYWduYTELMAkGA1UEBhMCSVQxDzANBgNVBAgMBkl0YWxpYTEY
MBYGA1UECgwPRS1Wb3Rpbmcgc3lzdGVtMSIwIAYDVQQLDBlFLVZvdGluZyBzeXN0
ZW0gYXV0aG9yaXR5MSgwJgYJKoZIhvcNAQkBFhlFbWlsaWFfUm9tYWduYUBldm90
aW5nLml0MB4XDTIyMDgwMzEzMjcyMVoXDTIzMDgwMzEzMjcyMVowTjENMAsGA1UE
AwwESWxsYTELMAkGA1UEBhMCSVQxDzANBgNVBAgMBkl0YWxpYTEfMB0GA1UECgwW
UmVnaW9uZSBFbWlsaWFfUm9tYWduYTBZMBMGByqGSM49AgEGCCqGSM49AwEHA0IA
BBBsOKXK6F5oZSgrpCeSUsS1N+ZyndYOPQNDdKrXHxmlPPX636RM3wP/UX3olnn5
wSeqIu4lRQq3siSPdpwCV2WjIzAhMA4GA1UdDwEB/wQEAwIFoDAPBgNVHRMBAf8E
BTADAgEDMAoGCCqGSM49BAMCA0cAMEQCICHYGvkkb0/7L6tUoOgPJaEq1cfPTj3B
jPckgrZA9YyFAiBN/i+1b9uc33S0MF3MOjxIkfYwJzQeX6otviS13vntZA==
-----END CERTIFICATE-----
