Certificate:
    Data:
        Version: 3 (0x2)
        Serial Number: 32 (0x20)
        Signature Algorithm: ecdsa-with-SHA256
        Issuer: CN=Regione Liguria, C=IT, ST=Italia, O=E-Voting system, OU=E-Voting system authority/emailAddress=Liguria@evoting.it
        Validity
            Not Before: Aug  3 13:27:15 2022 GMT
            Not After : Aug  3 13:27:15 2023 GMT
        Subject: CN=Ima, C=IT, ST=Italia, O=Regione Liguria
        Subject Public Key Info:
            Public Key Algorithm: id-ecPublicKey
                Public-Key: (256 bit)
                pub:
                    04:26:66:2d:bc:64:af:36:d7:9a:3c:5d:f3:72:18:
                    9e:17:b5:19:29:0c:97:06:aa:a9:7b:b7:5c:99:f8:
                    55:c8:cd:e1:34:88:67:77:9e:b1:4b:4b:eb:d7:0b:
                    f9:9d:ee:02:06:cf:1b:84:39:3a:63:a2:bf:cf:31:
                    a6:a0:5b:02:e5
                ASN1 OID: prime256v1
                NIST CURVE: P-256
        X509v3 extensions:
            X509v3 Key Usage: critical
                Digital Signature, Key Encipherment
            X509v3 Basic Constraints: critical
                CA:FALSE, pathlen:3
    Signature Algorithm: ecdsa-with-SHA256
         30:45:02:21:00:9e:ed:96:8c:72:38:89:02:89:ca:5d:be:49:
         f8:9f:3b:dd:e5:1e:66:02:46:b7:8b:4f:6b:39:4a:9e:9f:5b:
         58:02:20:36:6e:db:70:72:5f:87:28:f8:e3:6f:85:c7:c1:a8:
         fc:8a:99:db:3c:5d:02:b1:a1:cd:ba:1e:ea:71:e3:bf:73
-----BEGIN CERTIFICATE-----
MIIB8jCCAZigAwIBAgIBIDAKBggqhkjOPQQDAjCBmTEYMBYGA1UEAwwPUmVnaW9u
ZSBMaWd1cmlhMQswCQYDVQQGEwJJVDEPMA0GA1UECAwGSXRhbGlhMRgwFgYDVQQK
DA9FLVZvdGluZyBzeXN0ZW0xIjAgBgNVBAsMGUUtVm90aW5nIHN5c3RlbSBhdXRo
b3JpdHkxITAfBgkqhkiG9w0BCQEWEkxpZ3VyaWFAZXZvdGluZy5pdDAeFw0yMjA4
MDMxMzI3MTVaFw0yMzA4MDMxMzI3MTVaMEYxDDAKBgNVBAMMA0ltYTELMAkGA1UE
BhMCSVQxDzANBgNVBAgMBkl0YWxpYTEYMBYGA1UECgwPUmVnaW9uZSBMaWd1cmlh
MFkwEwYHKoZIzj0CAQYIKoZIzj0DAQcDQgAEJmYtvGSvNteaPF3zchieF7UZKQyX
Bqqpe7dcmfhVyM3hNIhnd56xS0vr1wv5ne4CBs8bhDk6Y6K/zzGmoFsC5aMjMCEw
DgYDVR0PAQH/BAQDAgWgMA8GA1UdEwEB/wQFMAMCAQMwCgYIKoZIzj0EAwIDSAAw
RQIhAJ7tloxyOIkCicpdvkn4nzvd5R5mAka3i09rOUqen1tYAiA2bttwcl+HKPjj
b4XHwaj8ipnbPF0CsaHNuh7qceO/cw==
-----END CERTIFICATE-----
