Certificate:
    Data:
        Version: 3 (0x2)
        Serial Number: 47 (0x2f)
        Signature Algorithm: ecdsa-with-SHA256
        Issuer: CN=Regione Trentino_Alto_Adige, C=IT, ST=Italia, O=E-Voting system, OU=E-Voting system authority/emailAddress=Trentino_Alto_Adige@evoting.it
        Validity
            Not Before: Aug  3 13:28:47 2022 GMT
            Not After : Aug  3 13:28:47 2023 GMT
        Subject: CN=Imogene, C=IT, ST=Italia, O=Regione Trentino_Alto_Adige
        Subject Public Key Info:
            Public Key Algorithm: id-ecPublicKey
                Public-Key: (256 bit)
                pub:
                    04:d0:d8:54:4d:cc:05:b7:3f:cb:e0:bd:4c:05:7c:
                    2e:95:9f:ae:4f:8d:e9:5c:a2:b7:36:5d:00:74:12:
                    1f:28:03:d3:8a:18:da:75:53:f1:60:9c:8b:fc:d2:
                    58:1f:8c:39:8e:3b:70:40:b6:8d:56:57:96:1e:b7:
                    af:d4:e8:32:06
                ASN1 OID: prime256v1
                NIST CURVE: P-256
        X509v3 extensions:
            X509v3 Key Usage: critical
                Digital Signature, Key Encipherment
            X509v3 Basic Constraints: critical
                CA:FALSE, pathlen:3
    Signature Algorithm: ecdsa-with-SHA256
         30:45:02:21:00:8e:d6:c2:a1:01:4b:6b:26:ce:6f:bc:2a:82:
         19:0b:62:f6:48:ac:6a:a0:9b:c4:0e:0d:c2:3a:d8:66:87:52:
         be:02:20:6c:87:10:30:ae:e3:35:37:8e:d3:7d:fe:92:95:90:
         19:82:5d:60:37:42:78:34:5b:b5:df:c5:5d:2c:dd:f6:02
-----BEGIN CERTIFICATE-----
MIICGjCCAcCgAwIBAgIBLzAKBggqhkjOPQQDAjCBsTEkMCIGA1UEAwwbUmVnaW9u
ZSBUcmVudGlub19BbHRvX0FkaWdlMQswCQYDVQQGEwJJVDEPMA0GA1UECAwGSXRh
bGlhMRgwFgYDVQQKDA9FLVZvdGluZyBzeXN0ZW0xIjAgBgNVBAsMGUUtVm90aW5n
IHN5c3RlbSBhdXRob3JpdHkxLTArBgkqhkiG9w0BCQEWHlRyZW50aW5vX0FsdG9f
QWRpZ2VAZXZvdGluZy5pdDAeFw0yMjA4MDMxMzI4NDdaFw0yMzA4MDMxMzI4NDda
MFYxEDAOBgNVBAMMB0ltb2dlbmUxCzAJBgNVBAYTAklUMQ8wDQYDVQQIDAZJdGFs
aWExJDAiBgNVBAoMG1JlZ2lvbmUgVHJlbnRpbm9fQWx0b19BZGlnZTBZMBMGByqG
SM49AgEGCCqGSM49AwEHA0IABNDYVE3MBbc/y+C9TAV8LpWfrk+N6VyitzZdAHQS
HygD04oY2nVT8WCci/zSWB+MOY47cEC2jVZXlh63r9ToMgajIzAhMA4GA1UdDwEB
/wQEAwIFoDAPBgNVHRMBAf8EBTADAgEDMAoGCCqGSM49BAMCA0gAMEUCIQCO1sKh
AUtrJs5vvCqCGQti9kisaqCbxA4NwjrYZodSvgIgbIcQMK7jNTeO033+kpWQGYJd
YDdCeDRbtd/FXSzd9gI=
-----END CERTIFICATE-----
