Certificate:
    Data:
        Version: 3 (0x2)
        Serial Number: 10 (0xa)
        Signature Algorithm: ecdsa-with-SHA256
        Issuer: CN=Regione Toscana, C=IT, ST=Italia, O=E-Voting system, OU=E-Voting system authority/emailAddress=Toscana@evoting.it
        Validity
            Not Before: Aug 26 15:19:22 2022 GMT
            Not After : Aug 26 15:19:22 2023 GMT
        Subject: CN=Ingrid, C=IT, ST=Italia, O=Regione Toscana
        Subject Public Key Info:
            Public Key Algorithm: id-ecPublicKey
                Public-Key: (256 bit)
                pub:
                    04:15:cc:2d:bd:a0:ec:ed:d2:7a:21:97:9c:51:c0:
                    e9:7a:6a:52:90:3c:3a:c6:3b:3d:23:de:07:c3:13:
                    6f:5c:f7:bb:20:3e:25:34:04:16:89:1f:54:ac:f5:
                    d0:18:06:2f:41:ce:68:7d:9d:8b:36:d4:90:2b:25:
                    e1:d3:3d:16:e4
                ASN1 OID: secp256k1
        X509v3 extensions:
            X509v3 Key Usage: critical
                Digital Signature, Key Encipherment
            X509v3 Basic Constraints: critical
                CA:FALSE, pathlen:3
    Signature Algorithm: ecdsa-with-SHA256
         30:45:02:21:00:f2:06:be:42:a7:52:a7:a6:a7:de:b8:f6:79:
         11:d1:f9:40:5e:83:dd:e7:0e:b4:8f:fb:74:71:6a:01:04:a9:
         a3:02:20:33:eb:78:2b:dd:be:92:ba:51:e7:6e:a1:66:06:c0:
         6c:c8:a5:98:ac:4c:3f:a5:7b:10:6f:7b:0f:4c:67:b9:ab
-----BEGIN CERTIFICATE-----
MIIB8jCCAZigAwIBAgIBCjAKBggqhkjOPQQDAjCBmTEYMBYGA1UEAwwPUmVnaW9u
ZSBUb3NjYW5hMQswCQYDVQQGEwJJVDEPMA0GA1UECAwGSXRhbGlhMRgwFgYDVQQK
DA9FLVZvdGluZyBzeXN0ZW0xIjAgBgNVBAsMGUUtVm90aW5nIHN5c3RlbSBhdXRo
b3JpdHkxITAfBgkqhkiG9w0BCQEWElRvc2NhbmFAZXZvdGluZy5pdDAeFw0yMjA4
MjYxNTE5MjJaFw0yMzA4MjYxNTE5MjJaMEkxDzANBgNVBAMMBkluZ3JpZDELMAkG
A1UEBhMCSVQxDzANBgNVBAgMBkl0YWxpYTEYMBYGA1UECgwPUmVnaW9uZSBUb3Nj
YW5hMFYwEAYHKoZIzj0CAQYFK4EEAAoDQgAEFcwtvaDs7dJ6IZecUcDpempSkDw6
xjs9I94HwxNvXPe7ID4lNAQWiR9UrPXQGAYvQc5ofZ2LNtSQKyXh0z0W5KMjMCEw
DgYDVR0PAQH/BAQDAgWgMA8GA1UdEwEB/wQFMAMCAQMwCgYIKoZIzj0EAwIDSAAw
RQIhAPIGvkKnUqemp9649nkR0flAXoPd5w60j/t0cWoBBKmjAiAz63gr3b6SulHn
bqFmBsBsyKWYrEw/pXsQb3sPTGe5qw==
-----END CERTIFICATE-----
