Certificate:
    Data:
        Version: 3 (0x2)
        Serial Number: 25 (0x19)
        Signature Algorithm: ecdsa-with-SHA256
        Issuer: CN=Regione Molise, C=IT, ST=Italia, O=E-Voting system, OU=E-Voting system authority/emailAddress=Molise@evoting.it
        Validity
            Not Before: Aug 26 15:20:24 2022 GMT
            Not After : Aug 26 15:20:24 2023 GMT
        Subject: CN=Irma, C=IT, ST=Italia, O=Regione Molise
        Subject Public Key Info:
            Public Key Algorithm: id-ecPublicKey
                Public-Key: (256 bit)
                pub:
                    04:47:7b:0a:7b:19:b8:07:e0:94:af:80:ab:a3:e1:
                    ab:72:12:bf:ce:7a:35:aa:37:12:31:fc:44:88:ee:
                    ed:83:37:aa:72:ed:dd:2b:14:9a:b8:0f:6d:b1:e2:
                    a0:e8:93:2f:a6:f9:89:b1:77:1a:35:fe:80:a8:ae:
                    28:31:94:4f:f0
                ASN1 OID: secp256k1
        X509v3 extensions:
            X509v3 Key Usage: critical
                Digital Signature, Key Encipherment
            X509v3 Basic Constraints: critical
                CA:FALSE, pathlen:3
    Signature Algorithm: ecdsa-with-SHA256
         30:44:02:20:20:05:f5:f4:ae:e0:dd:ee:21:1e:5e:0c:a1:d3:
         1f:1b:0e:cb:1a:bf:29:fd:40:d6:ab:fc:c6:bf:42:1c:9c:5a:
         02:20:67:68:bc:09:b8:0a:5a:46:90:b2:20:cc:b7:9e:1f:b2:
         ea:fd:de:bd:3b:bf:89:c4:56:79:63:c6:c2:6b:6d:c8
-----BEGIN CERTIFICATE-----
MIIB7DCCAZOgAwIBAgIBGTAKBggqhkjOPQQDAjCBlzEXMBUGA1UEAwwOUmVnaW9u
ZSBNb2xpc2UxCzAJBgNVBAYTAklUMQ8wDQYDVQQIDAZJdGFsaWExGDAWBgNVBAoM
D0UtVm90aW5nIHN5c3RlbTEiMCAGA1UECwwZRS1Wb3Rpbmcgc3lzdGVtIGF1dGhv
cml0eTEgMB4GCSqGSIb3DQEJARYRTW9saXNlQGV2b3RpbmcuaXQwHhcNMjIwODI2
MTUyMDI0WhcNMjMwODI2MTUyMDI0WjBGMQ0wCwYDVQQDDARJcm1hMQswCQYDVQQG
EwJJVDEPMA0GA1UECAwGSXRhbGlhMRcwFQYDVQQKDA5SZWdpb25lIE1vbGlzZTBW
MBAGByqGSM49AgEGBSuBBAAKA0IABEd7CnsZuAfglK+Aq6Phq3ISv856Nao3EjH8
RIju7YM3qnLt3SsUmrgPbbHioOiTL6b5ibF3GjX+gKiuKDGUT/CjIzAhMA4GA1Ud
DwEB/wQEAwIFoDAPBgNVHRMBAf8EBTADAgEDMAoGCCqGSM49BAMCA0cAMEQCICAF
9fSu4N3uIR5eDKHTHxsOyxq/Kf1A1qv8xr9CHJxaAiBnaLwJuApaRpCyIMy3nh+y
6v3evTu/icRWeWPGwmttyA==
-----END CERTIFICATE-----
