Certificate:
    Data:
        Version: 3 (0x2)
        Serial Number: 23 (0x17)
        Signature Algorithm: ecdsa-with-SHA256
        Issuer: CN=Regione Trentino_Alto_Adige, C=IT, ST=Italia, O=E-Voting system, OU=E-Voting system authority/emailAddress=Trentino_Alto_Adige@evoting.it
        Validity
            Not Before: Aug  3 13:27:22 2022 GMT
            Not After : Aug  3 13:27:22 2023 GMT
        Subject: CN=Irvin, C=IT, ST=Italia, O=Regione Trentino_Alto_Adige
        Subject Public Key Info:
            Public Key Algorithm: id-ecPublicKey
                Public-Key: (256 bit)
                pub:
                    04:91:e9:77:38:7a:66:7f:51:79:f5:ac:b4:06:0f:
                    13:ba:99:38:6a:27:6b:e8:2c:bb:04:1c:af:ae:42:
                    d0:f4:2b:dd:ea:36:5a:7c:b7:76:cd:e9:e8:a6:5f:
                    d6:e0:a4:02:bc:d3:18:0d:d8:bc:88:f1:da:fe:54:
                    6c:17:c3:d5:1c
                ASN1 OID: prime256v1
                NIST CURVE: P-256
        X509v3 extensions:
            X509v3 Key Usage: critical
                Digital Signature, Key Encipherment
            X509v3 Basic Constraints: critical
                CA:FALSE, pathlen:3
    Signature Algorithm: ecdsa-with-SHA256
         30:46:02:21:00:e6:67:aa:a4:a7:63:22:71:ee:9c:4e:b1:21:
         14:a2:dd:6c:c7:c2:ae:76:2d:44:5f:4d:7d:74:78:aa:da:6c:
         62:02:21:00:b3:0f:8d:3d:fd:37:0a:32:5e:e6:86:65:58:c7:
         46:a9:a5:1a:84:a4:e6:8d:a4:53:68:e2:09:46:31:3b:c5:2d
-----BEGIN CERTIFICATE-----
MIICGTCCAb6gAwIBAgIBFzAKBggqhkjOPQQDAjCBsTEkMCIGA1UEAwwbUmVnaW9u
ZSBUcmVudGlub19BbHRvX0FkaWdlMQswCQYDVQQGEwJJVDEPMA0GA1UECAwGSXRh
bGlhMRgwFgYDVQQKDA9FLVZvdGluZyBzeXN0ZW0xIjAgBgNVBAsMGUUtVm90aW5n
IHN5c3RlbSBhdXRob3JpdHkxLTArBgkqhkiG9w0BCQEWHlRyZW50aW5vX0FsdG9f
QWRpZ2VAZXZvdGluZy5pdDAeFw0yMjA4MDMxMzI3MjJaFw0yMzA4MDMxMzI3MjJa
MFQxDjAMBgNVBAMMBUlydmluMQswCQYDVQQGEwJJVDEPMA0GA1UECAwGSXRhbGlh
MSQwIgYDVQQKDBtSZWdpb25lIFRyZW50aW5vX0FsdG9fQWRpZ2UwWTATBgcqhkjO
PQIBBggqhkjOPQMBBwNCAASR6Xc4emZ/UXn1rLQGDxO6mThqJ2voLLsEHK+uQtD0
K93qNlp8t3bN6eimX9bgpAK80xgN2LyI8dr+VGwXw9UcoyMwITAOBgNVHQ8BAf8E
BAMCBaAwDwYDVR0TAQH/BAUwAwIBAzAKBggqhkjOPQQDAgNJADBGAiEA5meqpKdj
InHunE6xIRSi3WzHwq52LURfTX10eKrabGICIQCzD409/TcKMl7mhmVYx0appRqE
pOaNpFNo4glGMTvFLQ==
-----END CERTIFICATE-----
