Certificate:
    Data:
        Version: 3 (0x2)
        Serial Number: 51 (0x33)
        Signature Algorithm: ecdsa-with-SHA256
        Issuer: CN=Regione Umbria, C=IT, ST=Italia, O=E-Voting system, OU=E-Voting system authority/emailAddress=Umbria@evoting.it
        Validity
            Not Before: Aug 26 15:21:31 2022 GMT
            Not After : Aug 26 15:21:31 2023 GMT
        Subject: CN=Irvin, C=IT, ST=Italia, O=Regione Umbria
        Subject Public Key Info:
            Public Key Algorithm: id-ecPublicKey
                Public-Key: (256 bit)
                pub:
                    04:44:cd:a6:b6:0c:3f:1c:89:3b:b6:14:fa:ef:96:
                    2b:ea:5d:9b:e5:6e:bb:28:db:38:cd:7f:25:f2:36:
                    52:1a:d6:1b:51:05:17:16:87:8c:ad:2a:15:29:01:
                    b9:18:df:3c:db:a6:2c:6d:cb:99:95:5c:8a:c5:4b:
                    4b:2c:df:0a:bd
                ASN1 OID: secp256k1
        X509v3 extensions:
            X509v3 Key Usage: critical
                Digital Signature, Key Encipherment
            X509v3 Basic Constraints: critical
                CA:FALSE, pathlen:3
    Signature Algorithm: ecdsa-with-SHA256
         30:45:02:20:68:93:91:d3:66:62:16:e4:2d:40:56:99:29:3f:
         d7:13:c0:f6:be:3e:ff:6f:a6:b0:8d:3d:2e:98:64:fa:57:fe:
         02:21:00:f4:e8:be:7a:23:28:21:b7:73:26:d6:e6:88:91:77:
         68:6f:5a:a6:9e:92:1d:bc:81:04:b6:88:5a:3f:cc:3b:46
-----BEGIN CERTIFICATE-----
MIIB7jCCAZSgAwIBAgIBMzAKBggqhkjOPQQDAjCBlzEXMBUGA1UEAwwOUmVnaW9u
ZSBVbWJyaWExCzAJBgNVBAYTAklUMQ8wDQYDVQQIDAZJdGFsaWExGDAWBgNVBAoM
D0UtVm90aW5nIHN5c3RlbTEiMCAGA1UECwwZRS1Wb3Rpbmcgc3lzdGVtIGF1dGhv
cml0eTEgMB4GCSqGSIb3DQEJARYRVW1icmlhQGV2b3RpbmcuaXQwHhcNMjIwODI2
MTUyMTMxWhcNMjMwODI2MTUyMTMxWjBHMQ4wDAYDVQQDDAVJcnZpbjELMAkGA1UE
BhMCSVQxDzANBgNVBAgMBkl0YWxpYTEXMBUGA1UECgwOUmVnaW9uZSBVbWJyaWEw
VjAQBgcqhkjOPQIBBgUrgQQACgNCAAREzaa2DD8ciTu2FPrvlivqXZvlbrso2zjN
fyXyNlIa1htRBRcWh4ytKhUpAbkY3zzbpixty5mVXIrFS0ss3wq9oyMwITAOBgNV
HQ8BAf8EBAMCBaAwDwYDVR0TAQH/BAUwAwIBAzAKBggqhkjOPQQDAgNIADBFAiBo
k5HTZmIW5C1AVpkpP9cTwPa+Pv9vprCNPS6YZPpX/gIhAPTovnojKCG3cybW5oiR
d2hvWqaekh28gQS2iFo/zDtG
-----END CERTIFICATE-----
