Certificate:
    Data:
        Version: 3 (0x2)
        Serial Number: 42 (0x2a)
        Signature Algorithm: ecdsa-with-SHA256
        Issuer: CN=Regione Valle_d_Aosta, C=IT, ST=Italia, O=E-Voting system, OU=E-Voting system authority/emailAddress=Valle_d_Aosta@evoting.it
        Validity
            Not Before: Aug 26 15:21:03 2022 GMT
            Not After : Aug 26 15:21:03 2023 GMT
        Subject: CN=Isaac, C=IT, ST=Italia, O=Regione Valle_d_Aosta
        Subject Public Key Info:
            Public Key Algorithm: id-ecPublicKey
                Public-Key: (256 bit)
                pub:
                    04:8d:2f:e5:a3:e8:45:67:57:12:de:b2:63:bc:cb:
                    ad:03:d2:71:31:c9:48:62:a5:f4:95:d3:a2:44:7d:
                    ff:25:7a:60:5b:a1:05:6f:03:fb:f2:1e:ff:ff:21:
                    21:5a:e9:f9:c2:cc:b9:b7:c3:c9:26:7e:34:7d:28:
                    1a:7f:06:57:24
                ASN1 OID: secp256k1
        X509v3 extensions:
            X509v3 Key Usage: critical
                Digital Signature, Key Encipherment
            X509v3 Basic Constraints: critical
                CA:FALSE, pathlen:3
    Signature Algorithm: ecdsa-with-SHA256
         30:46:02:21:00:ed:bd:61:54:23:93:22:8c:64:65:19:7c:a4:
         24:03:2f:88:0f:61:45:30:01:57:63:c3:ae:94:6d:bf:f8:26:
         96:02:21:00:c5:9a:c5:0b:db:e5:f6:8a:ad:eb:95:5e:37:9c:
         77:bd:e4:0b:99:92:fe:7d:f2:02:ba:61:ff:46:af:de:67:9a
-----BEGIN CERTIFICATE-----
MIICBDCCAamgAwIBAgIBKjAKBggqhkjOPQQDAjCBpTEeMBwGA1UEAwwVUmVnaW9u
ZSBWYWxsZV9kX0Fvc3RhMQswCQYDVQQGEwJJVDEPMA0GA1UECAwGSXRhbGlhMRgw
FgYDVQQKDA9FLVZvdGluZyBzeXN0ZW0xIjAgBgNVBAsMGUUtVm90aW5nIHN5c3Rl
bSBhdXRob3JpdHkxJzAlBgkqhkiG9w0BCQEWGFZhbGxlX2RfQW9zdGFAZXZvdGlu
Zy5pdDAeFw0yMjA4MjYxNTIxMDNaFw0yMzA4MjYxNTIxMDNaME4xDjAMBgNVBAMM
BUlzYWFjMQswCQYDVQQGEwJJVDEPMA0GA1UECAwGSXRhbGlhMR4wHAYDVQQKDBVS
ZWdpb25lIFZhbGxlX2RfQW9zdGEwVjAQBgcqhkjOPQIBBgUrgQQACgNCAASNL+Wj
6EVnVxLesmO8y60D0nExyUhipfSV06JEff8lemBboQVvA/vyHv//ISFa6fnCzLm3
w8kmfjR9KBp/BlckoyMwITAOBgNVHQ8BAf8EBAMCBaAwDwYDVR0TAQH/BAUwAwIB
AzAKBggqhkjOPQQDAgNJADBGAiEA7b1hVCOTIoxkZRl8pCQDL4gPYUUwAVdjw66U
bb/4JpYCIQDFmsUL2+X2iq3rlV43nHe95AuZkv598gK6Yf9Gr95nmg==
-----END CERTIFICATE-----
