Certificate:
    Data:
        Version: 3 (0x2)
        Serial Number: 38 (0x26)
        Signature Algorithm: ecdsa-with-SHA256
        Issuer: CN=Regione Campania, C=IT, ST=Italia, O=E-Voting system, OU=E-Voting system authority/emailAddress=Campania@evoting.it
        Validity
            Not Before: Aug  3 13:27:42 2022 GMT
            Not After : Aug  3 13:27:42 2023 GMT
        Subject: CN=Israel, C=IT, ST=Italia, O=Regione Campania
        Subject Public Key Info:
            Public Key Algorithm: id-ecPublicKey
                Public-Key: (256 bit)
                pub:
                    04:58:3a:49:f9:2a:56:38:47:bb:14:ab:5c:be:96:
                    3e:61:37:b4:60:62:44:e6:01:58:37:df:f0:8d:b1:
                    bd:0a:a3:a5:35:97:57:a6:5e:41:44:d8:43:2e:37:
                    5a:be:46:c7:bd:33:12:dd:bb:ae:55:4e:38:4a:0b:
                    10:06:b5:80:87
                ASN1 OID: prime256v1
                NIST CURVE: P-256
        X509v3 extensions:
            X509v3 Key Usage: critical
                Digital Signature, Key Encipherment
            X509v3 Basic Constraints: critical
                CA:FALSE, pathlen:3
    Signature Algorithm: ecdsa-with-SHA256
         30:45:02:20:05:2b:7c:ef:56:43:fd:93:22:8e:68:2a:2d:a9:
         b8:c2:b1:2d:8b:d6:fb:94:ff:c6:f1:3a:99:d4:7d:4e:57:87:
         02:21:00:d6:47:c0:19:f6:d0:94:8f:08:23:79:7d:6b:d6:5c:
         9d:bd:72:20:14:f9:f2:ac:f4:c5:ec:b7:56:cf:8c:01:bd
-----BEGIN CERTIFICATE-----
MIIB+DCCAZ6gAwIBAgIBJjAKBggqhkjOPQQDAjCBmzEZMBcGA1UEAwwQUmVnaW9u
ZSBDYW1wYW5pYTELMAkGA1UEBhMCSVQxDzANBgNVBAgMBkl0YWxpYTEYMBYGA1UE
CgwPRS1Wb3Rpbmcgc3lzdGVtMSIwIAYDVQQLDBlFLVZvdGluZyBzeXN0ZW0gYXV0
aG9yaXR5MSIwIAYJKoZIhvcNAQkBFhNDYW1wYW5pYUBldm90aW5nLml0MB4XDTIy
MDgwMzEzMjc0MloXDTIzMDgwMzEzMjc0MlowSjEPMA0GA1UEAwwGSXNyYWVsMQsw
CQYDVQQGEwJJVDEPMA0GA1UECAwGSXRhbGlhMRkwFwYDVQQKDBBSZWdpb25lIENh
bXBhbmlhMFkwEwYHKoZIzj0CAQYIKoZIzj0DAQcDQgAEWDpJ+SpWOEe7FKtcvpY+
YTe0YGJE5gFYN9/wjbG9CqOlNZdXpl5BRNhDLjdavkbHvTMS3buuVU44SgsQBrWA
h6MjMCEwDgYDVR0PAQH/BAQDAgWgMA8GA1UdEwEB/wQFMAMCAQMwCgYIKoZIzj0E
AwIDSAAwRQIgBSt871ZD/ZMijmgqLam4wrEti9b7lP/G8TqZ1H1OV4cCIQDWR8AZ
9tCUjwgjeX1r1lydvXIgFPnyrPTF7LdWz4wBvQ==
-----END CERTIFICATE-----
