Certificate:
    Data:
        Version: 3 (0x2)
        Serial Number: 31 (0x1f)
        Signature Algorithm: ecdsa-with-SHA256
        Issuer: CN=Regione Campania, C=IT, ST=Italia, O=E-Voting system, OU=E-Voting system authority/emailAddress=Campania@evoting.it
        Validity
            Not Before: Aug 26 15:20:36 2022 GMT
            Not After : Aug 26 15:20:36 2023 GMT
        Subject: CN=Jackie, C=IT, ST=Italia, O=Regione Campania
        Subject Public Key Info:
            Public Key Algorithm: id-ecPublicKey
                Public-Key: (256 bit)
                pub:
                    04:ce:26:fc:9d:be:fa:d5:dd:f8:de:5f:6f:dd:08:
                    33:7f:39:cf:16:91:cc:ae:9f:04:76:2e:66:e9:0a:
                    4d:b8:4f:cb:d9:ea:2c:af:5d:65:86:9c:b9:c4:38:
                    c7:61:e0:55:60:60:fd:65:59:b7:6d:94:5b:3a:87:
                    75:89:f1:15:3b
                ASN1 OID: secp256k1
        X509v3 extensions:
            X509v3 Key Usage: critical
                Digital Signature, Key Encipherment
            X509v3 Basic Constraints: critical
                CA:FALSE, pathlen:3
    Signature Algorithm: ecdsa-with-SHA256
         30:44:02:20:61:cb:74:3d:f0:e5:c4:6c:26:10:ac:64:45:4f:
         49:76:03:3a:4c:71:d1:8e:01:e0:9f:6e:82:cd:32:7f:dd:b7:
         02:20:3d:dd:23:bc:44:4b:bb:bc:a5:93:7a:a1:59:c1:2b:8e:
         07:42:46:b4:35:b9:57:b2:e0:91:b7:68:f5:a9:7f:95
-----BEGIN CERTIFICATE-----
MIIB9DCCAZugAwIBAgIBHzAKBggqhkjOPQQDAjCBmzEZMBcGA1UEAwwQUmVnaW9u
ZSBDYW1wYW5pYTELMAkGA1UEBhMCSVQxDzANBgNVBAgMBkl0YWxpYTEYMBYGA1UE
CgwPRS1Wb3Rpbmcgc3lzdGVtMSIwIAYDVQQLDBlFLVZvdGluZyBzeXN0ZW0gYXV0
aG9yaXR5MSIwIAYJKoZIhvcNAQkBFhNDYW1wYW5pYUBldm90aW5nLml0MB4XDTIy
MDgyNjE1MjAzNloXDTIzMDgyNjE1MjAzNlowSjEPMA0GA1UEAwwGSmFja2llMQsw
CQYDVQQGEwJJVDEPMA0GA1UECAwGSXRhbGlhMRkwFwYDVQQKDBBSZWdpb25lIENh
bXBhbmlhMFYwEAYHKoZIzj0CAQYFK4EEAAoDQgAEzib8nb761d343l9v3QgzfznP
FpHMrp8Edi5m6QpNuE/L2eosr11lhpy5xDjHYeBVYGD9ZVm3bZRbOod1ifEVO6Mj
MCEwDgYDVR0PAQH/BAQDAgWgMA8GA1UdEwEB/wQFMAMCAQMwCgYIKoZIzj0EAwID
RwAwRAIgYct0PfDlxGwmEKxkRU9JdgM6THHRjgHgn26CzTJ/3bcCID3dI7xES7u8
pZN6oVnBK44HQka0NblXsuCRt2j1qX+V
-----END CERTIFICATE-----
