Certificate:
    Data:
        Version: 3 (0x2)
        Serial Number: 27 (0x1b)
        Signature Algorithm: ecdsa-with-SHA256
        Issuer: CN=Regione Basilicata, C=IT, ST=Italia, O=E-Voting system, OU=E-Voting system authority/emailAddress=Basilicata@evoting.it
        Validity
            Not Before: Aug 26 15:20:29 2022 GMT
            Not After : Aug 26 15:20:29 2023 GMT
        Subject: CN=Jack, C=IT, ST=Italia, O=Regione Basilicata
        Subject Public Key Info:
            Public Key Algorithm: id-ecPublicKey
                Public-Key: (256 bit)
                pub:
                    04:b4:b6:aa:97:0f:6b:95:6f:5c:57:05:fd:48:e3:
                    d6:6f:12:cb:ad:a2:e2:60:7f:a5:a6:54:7e:d9:f8:
                    1c:7b:ef:46:38:bb:ee:9a:5a:00:7f:d1:d7:0b:47:
                    87:7f:58:92:0a:f2:90:05:8b:1d:da:6c:fc:01:4d:
                    69:be:89:f1:2b
                ASN1 OID: secp256k1
        X509v3 extensions:
            X509v3 Key Usage: critical
                Digital Signature, Key Encipherment
            X509v3 Basic Constraints: critical
                CA:FALSE, pathlen:3
    Signature Algorithm: ecdsa-with-SHA256
         30:45:02:20:67:09:1e:80:a5:52:90:05:66:ca:6d:a5:b5:54:
         a3:5b:fa:60:08:ba:29:4a:30:b3:6f:66:48:ee:e9:b9:f3:92:
         02:21:00:c0:eb:25:be:56:f5:12:89:70:7f:c4:b6:1a:94:a5:
         59:07:fc:c3:a7:f3:f8:37:f5:c2:9d:2c:7d:0e:e3:11:e9
-----BEGIN CERTIFICATE-----
MIIB+TCCAZ+gAwIBAgIBGzAKBggqhkjOPQQDAjCBnzEbMBkGA1UEAwwSUmVnaW9u
ZSBCYXNpbGljYXRhMQswCQYDVQQGEwJJVDEPMA0GA1UECAwGSXRhbGlhMRgwFgYD
VQQKDA9FLVZvdGluZyBzeXN0ZW0xIjAgBgNVBAsMGUUtVm90aW5nIHN5c3RlbSBh
dXRob3JpdHkxJDAiBgkqhkiG9w0BCQEWFUJhc2lsaWNhdGFAZXZvdGluZy5pdDAe
Fw0yMjA4MjYxNTIwMjlaFw0yMzA4MjYxNTIwMjlaMEoxDTALBgNVBAMMBEphY2sx
CzAJBgNVBAYTAklUMQ8wDQYDVQQIDAZJdGFsaWExGzAZBgNVBAoMElJlZ2lvbmUg
QmFzaWxpY2F0YTBWMBAGByqGSM49AgEGBSuBBAAKA0IABLS2qpcPa5VvXFcF/Ujj
1m8Sy62i4mB/paZUftn4HHvvRji77ppaAH/R1wtHh39YkgrykAWLHdps/AFNab6J
8SujIzAhMA4GA1UdDwEB/wQEAwIFoDAPBgNVHRMBAf8EBTADAgEDMAoGCCqGSM49
BAMCA0gAMEUCIGcJHoClUpAFZsptpbVUo1v6YAi6KUows29mSO7pufOSAiEAwOsl
vlb1Eolwf8S2GpSlWQf8w6fz+Df1wp0sfQ7jEek=
-----END CERTIFICATE-----
