Certificate:
    Data:
        Version: 3 (0x2)
        Serial Number: 12 (0xc)
        Signature Algorithm: ecdsa-with-SHA256
        Issuer: CN=Regione Sicilia, C=IT, ST=Italia, O=E-Voting system, OU=E-Voting system authority/emailAddress=Sicilia@evoting.it
        Validity
            Not Before: Aug 26 15:19:17 2022 GMT
            Not After : Aug 26 15:19:17 2023 GMT
        Subject: CN=Jacob, C=IT, ST=Italia, O=Regione Sicilia
        Subject Public Key Info:
            Public Key Algorithm: id-ecPublicKey
                Public-Key: (256 bit)
                pub:
                    04:9c:16:b6:31:68:52:75:66:37:98:10:ec:25:a4:
                    c9:93:89:00:0b:a3:86:c7:0c:cf:84:b1:a3:1c:86:
                    7a:12:57:c2:41:28:95:ba:66:07:6a:35:84:93:b2:
                    d3:fd:1f:9b:d4:b7:2c:96:a9:ff:31:3f:04:2b:37:
                    1d:95:56:21:d0
                ASN1 OID: secp256k1
        X509v3 extensions:
            X509v3 Key Usage: critical
                Digital Signature, Key Encipherment
            X509v3 Basic Constraints: critical
                CA:FALSE, pathlen:3
    Signature Algorithm: ecdsa-with-SHA256
         30:44:02:20:5c:dd:75:ef:b7:b3:87:70:41:17:5b:6a:da:dc:
         02:ed:9b:ca:ca:9c:b1:d1:2d:65:be:c3:a7:ad:7d:52:50:2c:
         02:20:02:7a:c1:b4:f4:23:49:d4:e7:53:57:59:ce:e4:44:14:
         fe:3c:ca:3d:25:33:8e:36:48:23:c0:25:43:9a:2b:d7
-----BEGIN CERTIFICATE-----
MIIB8DCCAZegAwIBAgIBDDAKBggqhkjOPQQDAjCBmTEYMBYGA1UEAwwPUmVnaW9u
ZSBTaWNpbGlhMQswCQYDVQQGEwJJVDEPMA0GA1UECAwGSXRhbGlhMRgwFgYDVQQK
DA9FLVZvdGluZyBzeXN0ZW0xIjAgBgNVBAsMGUUtVm90aW5nIHN5c3RlbSBhdXRo
b3JpdHkxITAfBgkqhkiG9w0BCQEWElNpY2lsaWFAZXZvdGluZy5pdDAeFw0yMjA4
MjYxNTE5MTdaFw0yMzA4MjYxNTE5MTdaMEgxDjAMBgNVBAMMBUphY29iMQswCQYD
VQQGEwJJVDEPMA0GA1UECAwGSXRhbGlhMRgwFgYDVQQKDA9SZWdpb25lIFNpY2ls
aWEwVjAQBgcqhkjOPQIBBgUrgQQACgNCAAScFrYxaFJ1ZjeYEOwlpMmTiQALo4bH
DM+EsaMchnoSV8JBKJW6ZgdqNYSTstP9H5vUtyyWqf8xPwQrNx2VViHQoyMwITAO
BgNVHQ8BAf8EBAMCBaAwDwYDVR0TAQH/BAUwAwIBAzAKBggqhkjOPQQDAgNHADBE
AiBc3XXvt7OHcEEXW2ra3ALtm8rKnLHRLWW+w6etfVJQLAIgAnrBtPQjSdTnU1dZ
zuREFP48yj0lM442SCPAJUOaK9c=
-----END CERTIFICATE-----
