Certificate:
    Data:
        Version: 3 (0x2)
        Serial Number: 25 (0x19)
        Signature Algorithm: ecdsa-with-SHA256
        Issuer: CN=Regione Marche, C=IT, ST=Italia, O=E-Voting system, OU=E-Voting system authority/emailAddress=Marche@evoting.it
        Validity
            Not Before: Aug 26 15:21:04 2022 GMT
            Not After : Aug 26 15:21:04 2023 GMT
        Subject: CN=Jacqueline, C=IT, ST=Italia, O=Regione Marche
        Subject Public Key Info:
            Public Key Algorithm: id-ecPublicKey
                Public-Key: (256 bit)
                pub:
                    04:2c:a9:90:5a:f0:1f:f7:ae:e7:4b:59:9e:ed:00:
                    1f:80:f2:b8:02:a0:54:e8:7a:31:6f:e4:2c:73:77:
                    bb:18:3f:9e:25:e9:35:82:96:cc:0d:99:cb:a9:be:
                    ed:75:24:f2:f0:a3:ec:96:fc:e6:0b:ba:19:7c:29:
                    a4:06:b1:3b:15
                ASN1 OID: secp256k1
        X509v3 extensions:
            X509v3 Key Usage: critical
                Digital Signature, Key Encipherment
            X509v3 Basic Constraints: critical
                CA:FALSE, pathlen:3
    Signature Algorithm: ecdsa-with-SHA256
         30:46:02:21:00:db:22:58:a9:54:21:18:a1:84:57:c6:56:91:
         88:13:c7:5f:b2:d3:f4:93:4c:ab:34:d3:c1:8b:cc:9f:73:6e:
         cb:02:21:00:ee:ef:f1:e0:4e:11:39:17:78:d2:ac:9d:a1:4e:
         44:79:7a:7f:dc:5b:b8:8e:d2:af:58:cb:60:1a:6c:03:f4:81
-----BEGIN CERTIFICATE-----
MIIB9DCCAZmgAwIBAgIBGTAKBggqhkjOPQQDAjCBlzEXMBUGA1UEAwwOUmVnaW9u
ZSBNYXJjaGUxCzAJBgNVBAYTAklUMQ8wDQYDVQQIDAZJdGFsaWExGDAWBgNVBAoM
D0UtVm90aW5nIHN5c3RlbTEiMCAGA1UECwwZRS1Wb3Rpbmcgc3lzdGVtIGF1dGhv
cml0eTEgMB4GCSqGSIb3DQEJARYRTWFyY2hlQGV2b3RpbmcuaXQwHhcNMjIwODI2
MTUyMTA0WhcNMjMwODI2MTUyMTA0WjBMMRMwEQYDVQQDDApKYWNxdWVsaW5lMQsw
CQYDVQQGEwJJVDEPMA0GA1UECAwGSXRhbGlhMRcwFQYDVQQKDA5SZWdpb25lIE1h
cmNoZTBWMBAGByqGSM49AgEGBSuBBAAKA0IABCypkFrwH/eu50tZnu0AH4DyuAKg
VOh6MW/kLHN3uxg/niXpNYKWzA2Zy6m+7XUk8vCj7Jb85gu6GXwppAaxOxWjIzAh
MA4GA1UdDwEB/wQEAwIFoDAPBgNVHRMBAf8EBTADAgEDMAoGCCqGSM49BAMCA0kA
MEYCIQDbIlipVCEYoYRXxlaRiBPHX7LT9JNMqzTTwYvMn3NuywIhAO7v8eBOETkX
eNKsnaFORHl6f9xbuI7Sr1jLYBpsA/SB
-----END CERTIFICATE-----
