Certificate:
    Data:
        Version: 3 (0x2)
        Serial Number: 43 (0x2b)
        Signature Algorithm: ecdsa-with-SHA256
        Issuer: CN=Regione Basilicata, C=IT, ST=Italia, O=E-Voting system, OU=E-Voting system authority/emailAddress=Basilicata@evoting.it
        Validity
            Not Before: Aug  3 13:28:00 2022 GMT
            Not After : Aug  3 13:28:00 2023 GMT
        Subject: CN=Jacqueline, C=IT, ST=Italia, O=Regione Basilicata
        Subject Public Key Info:
            Public Key Algorithm: id-ecPublicKey
                Public-Key: (256 bit)
                pub:
                    04:19:53:57:44:2d:86:34:19:43:c0:71:c8:33:b4:
                    fe:40:1f:d4:54:6b:fa:70:3f:0b:59:df:2f:f2:fc:
                    62:17:8f:f9:75:31:54:5c:95:cc:bc:ce:d4:95:7c:
                    9c:4a:f1:4c:b8:98:ed:f3:f8:47:50:db:e8:1c:bf:
                    38:e4:0d:78:3d
                ASN1 OID: prime256v1
                NIST CURVE: P-256
        X509v3 extensions:
            X509v3 Key Usage: critical
                Digital Signature, Key Encipherment
            X509v3 Basic Constraints: critical
                CA:FALSE, pathlen:3
    Signature Algorithm: ecdsa-with-SHA256
         30:45:02:20:4a:ff:a1:95:b7:0c:53:66:85:c8:a1:3d:b5:83:
         72:81:32:a2:0d:4e:77:7d:f6:63:a0:fc:5d:39:fd:2d:1d:28:
         02:21:00:f9:f6:24:c1:78:c3:75:e5:0c:00:71:62:a2:eb:6f:
         e7:55:58:8b:0d:16:28:e4:0f:a3:29:a7:e8:a1:a8:24:03
-----BEGIN CERTIFICATE-----
MIICAjCCAaigAwIBAgIBKzAKBggqhkjOPQQDAjCBnzEbMBkGA1UEAwwSUmVnaW9u
ZSBCYXNpbGljYXRhMQswCQYDVQQGEwJJVDEPMA0GA1UECAwGSXRhbGlhMRgwFgYD
VQQKDA9FLVZvdGluZyBzeXN0ZW0xIjAgBgNVBAsMGUUtVm90aW5nIHN5c3RlbSBh
dXRob3JpdHkxJDAiBgkqhkiG9w0BCQEWFUJhc2lsaWNhdGFAZXZvdGluZy5pdDAe
Fw0yMjA4MDMxMzI4MDBaFw0yMzA4MDMxMzI4MDBaMFAxEzARBgNVBAMMCkphY3F1
ZWxpbmUxCzAJBgNVBAYTAklUMQ8wDQYDVQQIDAZJdGFsaWExGzAZBgNVBAoMElJl
Z2lvbmUgQmFzaWxpY2F0YTBZMBMGByqGSM49AgEGCCqGSM49AwEHA0IABBlTV0Qt
hjQZQ8BxyDO0/kAf1FRr+nA/C1nfL/L8YheP+XUxVFyVzLzO1JV8nErxTLiY7fP4
R1Db6By/OOQNeD2jIzAhMA4GA1UdDwEB/wQEAwIFoDAPBgNVHRMBAf8EBTADAgED
MAoGCCqGSM49BAMCA0gAMEUCIEr/oZW3DFNmhcihPbWDcoEyog1Od332Y6D8XTn9
LR0oAiEA+fYkwXjDdeUMAHFioutv51VYiw0WKOQPoymn6KGoJAM=
-----END CERTIFICATE-----
