Certificate:
    Data:
        Version: 3 (0x2)
        Serial Number: 33 (0x21)
        Signature Algorithm: ecdsa-with-SHA256
        Issuer: CN=Regione Lombardia, C=IT, ST=Italia, O=E-Voting system, OU=E-Voting system authority/emailAddress=Lombardia@evoting.it
        Validity
            Not Before: Aug 26 15:20:38 2022 GMT
            Not After : Aug 26 15:20:38 2023 GMT
        Subject: CN=Jaime, C=IT, ST=Italia, O=Regione Lombardia
        Subject Public Key Info:
            Public Key Algorithm: id-ecPublicKey
                Public-Key: (256 bit)
                pub:
                    04:da:21:18:86:48:b5:06:b1:db:f6:77:d1:a2:85:
                    13:25:bb:cb:b7:9a:4d:15:8e:7f:89:91:24:da:9a:
                    db:e8:d8:73:05:2d:9b:6e:44:b8:4f:ed:65:59:c9:
                    93:95:a6:c4:98:b7:42:3b:c2:c0:1b:b2:18:7b:49:
                    90:42:d3:55:a5
                ASN1 OID: secp256k1
        X509v3 extensions:
            X509v3 Key Usage: critical
                Digital Signature, Key Encipherment
            X509v3 Basic Constraints: critical
                CA:FALSE, pathlen:3
    Signature Algorithm: ecdsa-with-SHA256
         30:45:02:20:22:bf:80:5f:91:59:de:99:92:08:0e:0d:f7:39:
         c3:73:cd:5e:a8:d5:cb:89:8c:9d:a7:79:a6:53:53:9b:18:d2:
         02:21:00:82:13:2f:21:88:d1:a1:d5:5e:36:42:d1:28:b0:7e:
         b1:65:cb:2c:47:c0:fe:dc:b5:f5:74:3b:f6:9f:04:3b:05
-----BEGIN CERTIFICATE-----
MIIB9zCCAZ2gAwIBAgIBITAKBggqhkjOPQQDAjCBnTEaMBgGA1UEAwwRUmVnaW9u
ZSBMb21iYXJkaWExCzAJBgNVBAYTAklUMQ8wDQYDVQQIDAZJdGFsaWExGDAWBgNV
BAoMD0UtVm90aW5nIHN5c3RlbTEiMCAGA1UECwwZRS1Wb3Rpbmcgc3lzdGVtIGF1
dGhvcml0eTEjMCEGCSqGSIb3DQEJARYUTG9tYmFyZGlhQGV2b3RpbmcuaXQwHhcN
MjIwODI2MTUyMDM4WhcNMjMwODI2MTUyMDM4WjBKMQ4wDAYDVQQDDAVKYWltZTEL
MAkGA1UEBhMCSVQxDzANBgNVBAgMBkl0YWxpYTEaMBgGA1UECgwRUmVnaW9uZSBM
b21iYXJkaWEwVjAQBgcqhkjOPQIBBgUrgQQACgNCAATaIRiGSLUGsdv2d9GihRMl
u8u3mk0Vjn+JkSTamtvo2HMFLZtuRLhP7WVZyZOVpsSYt0I7wsAbshh7SZBC01Wl
oyMwITAOBgNVHQ8BAf8EBAMCBaAwDwYDVR0TAQH/BAUwAwIBAzAKBggqhkjOPQQD
AgNIADBFAiAiv4BfkVnemZIIDg33OcNzzV6o1cuJjJ2neaZTU5sY0gIhAIITLyGI
0aHVXjZC0SiwfrFlyyxHwP7ctfV0O/afBDsF
-----END CERTIFICATE-----
