Certificate:
    Data:
        Version: 3 (0x2)
        Serial Number: 28 (0x1c)
        Signature Algorithm: ecdsa-with-SHA256
        Issuer: CN=Regione Abruzzo, C=IT, ST=Italia, O=E-Voting system, OU=E-Voting system authority/emailAddress=Abruzzo@evoting.it
        Validity
            Not Before: Aug 26 15:20:39 2022 GMT
            Not After : Aug 26 15:20:39 2023 GMT
        Subject: CN=Jake, C=IT, ST=Italia, O=Regione Abruzzo
        Subject Public Key Info:
            Public Key Algorithm: id-ecPublicKey
                Public-Key: (256 bit)
                pub:
                    04:49:5f:d6:af:a8:c5:ea:75:bc:07:e7:ce:3f:e8:
                    35:b6:65:a5:10:b0:8b:04:c9:3f:ce:8a:2e:4e:79:
                    74:e1:f1:95:36:7f:5d:fb:f4:70:78:44:a1:3e:61:
                    2d:f4:87:ea:8c:0a:a0:27:8d:bf:9b:d7:23:ee:63:
                    f9:ad:b2:7c:18
                ASN1 OID: secp256k1
        X509v3 extensions:
            X509v3 Key Usage: critical
                Digital Signature, Key Encipherment
            X509v3 Basic Constraints: critical
                CA:FALSE, pathlen:3
    Signature Algorithm: ecdsa-with-SHA256
         30:44:02:20:60:28:68:1a:ae:ca:c1:4d:04:2b:9a:8d:50:3c:
         1e:6d:1a:f1:60:45:a8:da:d6:77:23:90:84:2d:af:3d:4a:a4:
         02:20:64:99:e6:25:38:9e:4b:08:ae:b7:34:85:14:d6:f3:3f:
         f5:7a:a3:6d:3a:d5:06:f5:d1:12:16:1e:0b:9a:e0:0f
-----BEGIN CERTIFICATE-----
MIIB7zCCAZagAwIBAgIBHDAKBggqhkjOPQQDAjCBmTEYMBYGA1UEAwwPUmVnaW9u
ZSBBYnJ1enpvMQswCQYDVQQGEwJJVDEPMA0GA1UECAwGSXRhbGlhMRgwFgYDVQQK
DA9FLVZvdGluZyBzeXN0ZW0xIjAgBgNVBAsMGUUtVm90aW5nIHN5c3RlbSBhdXRo
b3JpdHkxITAfBgkqhkiG9w0BCQEWEkFicnV6em9AZXZvdGluZy5pdDAeFw0yMjA4
MjYxNTIwMzlaFw0yMzA4MjYxNTIwMzlaMEcxDTALBgNVBAMMBEpha2UxCzAJBgNV
BAYTAklUMQ8wDQYDVQQIDAZJdGFsaWExGDAWBgNVBAoMD1JlZ2lvbmUgQWJydXp6
bzBWMBAGByqGSM49AgEGBSuBBAAKA0IABElf1q+oxep1vAfnzj/oNbZlpRCwiwTJ
P86KLk55dOHxlTZ/Xfv0cHhEoT5hLfSH6owKoCeNv5vXI+5j+a2yfBijIzAhMA4G
A1UdDwEB/wQEAwIFoDAPBgNVHRMBAf8EBTADAgEDMAoGCCqGSM49BAMCA0cAMEQC
IGAoaBquysFNBCuajVA8Hm0a8WBFqNrWdyOQhC2vPUqkAiBkmeYlOJ5LCK63NIUU
1vM/9XqjbTrVBvXREhYeC5rgDw==
-----END CERTIFICATE-----
