Certificate:
    Data:
        Version: 3 (0x2)
        Serial Number: 34 (0x22)
        Signature Algorithm: ecdsa-with-SHA256
        Issuer: CN=Regione Marche, C=IT, ST=Italia, O=E-Voting system, OU=E-Voting system authority/emailAddress=Marche@evoting.it
        Validity
            Not Before: Aug 26 15:21:48 2022 GMT
            Not After : Aug 26 15:21:48 2023 GMT
        Subject: CN=Jamaal, C=IT, ST=Italia, O=Regione Marche
        Subject Public Key Info:
            Public Key Algorithm: id-ecPublicKey
                Public-Key: (256 bit)
                pub:
                    04:e3:c9:2b:d0:98:d9:a3:7b:14:49:ce:f8:f5:e3:
                    11:97:9f:30:79:13:b2:fb:c8:b9:87:08:93:69:4b:
                    7d:50:f0:d3:c3:93:07:4e:fa:b3:22:13:17:cc:d9:
                    5e:f9:f0:39:72:78:4e:da:2c:3f:5b:a6:6b:83:74:
                    5a:98:09:c6:80
                ASN1 OID: secp256k1
        X509v3 extensions:
            X509v3 Key Usage: critical
                Digital Signature, Key Encipherment
            X509v3 Basic Constraints: critical
                CA:FALSE, pathlen:3
    Signature Algorithm: ecdsa-with-SHA256
         30:46:02:21:00:df:c5:5d:4e:7b:5a:56:29:b3:29:eb:db:13:
         26:7d:31:0a:57:44:9b:ca:37:f6:55:63:5a:aa:58:f2:d8:1d:
         86:02:21:00:a2:54:5b:66:c1:ca:69:68:29:90:b3:0c:fd:b4:
         49:2e:99:21:55:8f:e8:7e:1d:e0:34:39:49:0f:bd:89:a9:00
-----BEGIN CERTIFICATE-----
MIIB8DCCAZWgAwIBAgIBIjAKBggqhkjOPQQDAjCBlzEXMBUGA1UEAwwOUmVnaW9u
ZSBNYXJjaGUxCzAJBgNVBAYTAklUMQ8wDQYDVQQIDAZJdGFsaWExGDAWBgNVBAoM
D0UtVm90aW5nIHN5c3RlbTEiMCAGA1UECwwZRS1Wb3Rpbmcgc3lzdGVtIGF1dGhv
cml0eTEgMB4GCSqGSIb3DQEJARYRTWFyY2hlQGV2b3RpbmcuaXQwHhcNMjIwODI2
MTUyMTQ4WhcNMjMwODI2MTUyMTQ4WjBIMQ8wDQYDVQQDDAZKYW1hYWwxCzAJBgNV
BAYTAklUMQ8wDQYDVQQIDAZJdGFsaWExFzAVBgNVBAoMDlJlZ2lvbmUgTWFyY2hl
MFYwEAYHKoZIzj0CAQYFK4EEAAoDQgAE48kr0JjZo3sUSc749eMRl58weROy+8i5
hwiTaUt9UPDTw5MHTvqzIhMXzNle+fA5cnhO2iw/W6Zrg3RamAnGgKMjMCEwDgYD
VR0PAQH/BAQDAgWgMA8GA1UdEwEB/wQFMAMCAQMwCgYIKoZIzj0EAwIDSQAwRgIh
AN/FXU57WlYpsynr2xMmfTEKV0Sbyjf2VWNaqljy2B2GAiEAolRbZsHKaWgpkLMM
/bRJLpkhVY/ofh3gNDlJD72JqQA=
-----END CERTIFICATE-----
