Certificate:
    Data:
        Version: 3 (0x2)
        Serial Number: 22 (0x16)
        Signature Algorithm: ecdsa-with-SHA256
        Issuer: CN=Regione Campania, C=IT, ST=Italia, O=E-Voting system, OU=E-Voting system authority/emailAddress=Campania@evoting.it
        Validity
            Not Before: Aug 26 15:19:43 2022 GMT
            Not After : Aug 26 15:19:43 2023 GMT
        Subject: CN=James, C=IT, ST=Italia, O=Regione Campania
        Subject Public Key Info:
            Public Key Algorithm: id-ecPublicKey
                Public-Key: (256 bit)
                pub:
                    04:00:be:f5:0f:dc:16:4f:98:62:8b:87:94:8a:f2:
                    3e:5c:bd:3a:ea:6f:b5:5a:cc:b7:61:f8:7a:98:a8:
                    c6:a1:c5:af:b7:16:f8:7c:ec:3b:c8:ba:eb:7f:1f:
                    b0:f3:12:85:6b:f5:b7:01:f7:50:93:03:84:2e:e5:
                    ab:94:f7:58:89
                ASN1 OID: secp256k1
        X509v3 extensions:
            X509v3 Key Usage: critical
                Digital Signature, Key Encipherment
            X509v3 Basic Constraints: critical
                CA:FALSE, pathlen:3
    Signature Algorithm: ecdsa-with-SHA256
         30:44:02:20:43:f9:2c:a0:3b:f9:9b:fd:2a:b0:23:72:71:2c:
         70:63:3e:7b:a0:64:e1:46:49:55:0c:5a:c8:48:6d:e5:c5:aa:
         02:20:18:c3:6d:f0:13:dd:95:87:ff:57:80:82:40:1f:e8:49:
         85:1f:d6:5c:6e:39:78:d4:96:99:eb:ed:2f:b5:57:5f
-----BEGIN CERTIFICATE-----
MIIB8zCCAZqgAwIBAgIBFjAKBggqhkjOPQQDAjCBmzEZMBcGA1UEAwwQUmVnaW9u
ZSBDYW1wYW5pYTELMAkGA1UEBhMCSVQxDzANBgNVBAgMBkl0YWxpYTEYMBYGA1UE
CgwPRS1Wb3Rpbmcgc3lzdGVtMSIwIAYDVQQLDBlFLVZvdGluZyBzeXN0ZW0gYXV0
aG9yaXR5MSIwIAYJKoZIhvcNAQkBFhNDYW1wYW5pYUBldm90aW5nLml0MB4XDTIy
MDgyNjE1MTk0M1oXDTIzMDgyNjE1MTk0M1owSTEOMAwGA1UEAwwFSmFtZXMxCzAJ
BgNVBAYTAklUMQ8wDQYDVQQIDAZJdGFsaWExGTAXBgNVBAoMEFJlZ2lvbmUgQ2Ft
cGFuaWEwVjAQBgcqhkjOPQIBBgUrgQQACgNCAAQAvvUP3BZPmGKLh5SK8j5cvTrq
b7VazLdh+HqYqMahxa+3Fvh87DvIuut/H7DzEoVr9bcB91CTA4Qu5auU91iJoyMw
ITAOBgNVHQ8BAf8EBAMCBaAwDwYDVR0TAQH/BAUwAwIBAzAKBggqhkjOPQQDAgNH
ADBEAiBD+SygO/mb/SqwI3JxLHBjPnugZOFGSVUMWshIbeXFqgIgGMNt8BPdlYf/
V4CCQB/oSYUf1lxuOXjUlpnr7S+1V18=
-----END CERTIFICATE-----
