Certificate:
    Data:
        Version: 3 (0x2)
        Serial Number: 35 (0x23)
        Signature Algorithm: ecdsa-with-SHA256
        Issuer: CN=Regione Basilicata, C=IT, ST=Italia, O=E-Voting system, OU=E-Voting system authority/emailAddress=Basilicata@evoting.it
        Validity
            Not Before: Aug  3 13:27:21 2022 GMT
            Not After : Aug  3 13:27:21 2023 GMT
        Subject: CN=James, C=IT, ST=Italia, O=Regione Basilicata
        Subject Public Key Info:
            Public Key Algorithm: id-ecPublicKey
                Public-Key: (256 bit)
                pub:
                    04:ec:5f:3b:66:8a:72:d4:05:e1:0e:12:ef:a5:2a:
                    09:a1:ec:f0:fe:87:fb:c8:41:56:f6:11:37:36:cf:
                    c4:10:5d:88:eb:81:a6:d8:20:9d:e5:e9:3d:11:3f:
                    2b:be:04:69:85:47:a7:4c:26:70:6b:08:91:5e:fd:
                    51:70:6a:ee:91
                ASN1 OID: prime256v1
                NIST CURVE: P-256
        X509v3 extensions:
            X509v3 Key Usage: critical
                Digital Signature, Key Encipherment
            X509v3 Basic Constraints: critical
                CA:FALSE, pathlen:3
    Signature Algorithm: ecdsa-with-SHA256
         30:45:02:21:00:f6:f1:11:7c:e3:bf:2e:f5:2d:3f:b7:26:3d:
         56:e1:da:1e:07:86:cb:cd:c5:29:b4:15:e9:b6:54:d6:1f:1e:
         56:02:20:61:77:af:53:bd:b0:d1:4c:82:9f:9d:2e:2b:3e:7a:
         82:34:79:f4:a8:26:ea:a9:ac:50:e3:42:ac:9c:7e:17:d7
-----BEGIN CERTIFICATE-----
MIIB/TCCAaOgAwIBAgIBIzAKBggqhkjOPQQDAjCBnzEbMBkGA1UEAwwSUmVnaW9u
ZSBCYXNpbGljYXRhMQswCQYDVQQGEwJJVDEPMA0GA1UECAwGSXRhbGlhMRgwFgYD
VQQKDA9FLVZvdGluZyBzeXN0ZW0xIjAgBgNVBAsMGUUtVm90aW5nIHN5c3RlbSBh
dXRob3JpdHkxJDAiBgkqhkiG9w0BCQEWFUJhc2lsaWNhdGFAZXZvdGluZy5pdDAe
Fw0yMjA4MDMxMzI3MjFaFw0yMzA4MDMxMzI3MjFaMEsxDjAMBgNVBAMMBUphbWVz
MQswCQYDVQQGEwJJVDEPMA0GA1UECAwGSXRhbGlhMRswGQYDVQQKDBJSZWdpb25l
IEJhc2lsaWNhdGEwWTATBgcqhkjOPQIBBggqhkjOPQMBBwNCAATsXztminLUBeEO
Eu+lKgmh7PD+h/vIQVb2ETc2z8QQXYjrgabYIJ3l6T0RPyu+BGmFR6dMJnBrCJFe
/VFwau6RoyMwITAOBgNVHQ8BAf8EBAMCBaAwDwYDVR0TAQH/BAUwAwIBAzAKBggq
hkjOPQQDAgNIADBFAiEA9vERfOO/LvUtP7cmPVbh2h4HhsvNxSm0Fem2VNYfHlYC
IGF3r1O9sNFMgp+dLis+eoI0efSoJuqprFDjQqycfhfX
-----END CERTIFICATE-----
