Certificate:
    Data:
        Version: 3 (0x2)
        Serial Number: 46 (0x2e)
        Signature Algorithm: ecdsa-with-SHA256
        Issuer: CN=Regione Campania, C=IT, ST=Italia, O=E-Voting system, OU=E-Voting system authority/emailAddress=Campania@evoting.it
        Validity
            Not Before: Aug 26 15:21:44 2022 GMT
            Not After : Aug 26 15:21:44 2023 GMT
        Subject: CN=Jamie, C=IT, ST=Italia, O=Regione Campania
        Subject Public Key Info:
            Public Key Algorithm: id-ecPublicKey
                Public-Key: (256 bit)
                pub:
                    04:5f:b5:11:55:fb:30:22:13:3d:f1:a2:cc:66:01:
                    80:ff:cd:8f:82:ba:9c:40:4f:74:93:f2:69:99:0d:
                    34:11:05:17:4c:2a:26:36:2b:a6:6e:e2:c1:2a:0d:
                    6a:fc:9a:b3:35:5f:e6:08:90:9a:c4:d9:1a:50:71:
                    cb:de:3b:31:88
                ASN1 OID: secp256k1
        X509v3 extensions:
            X509v3 Key Usage: critical
                Digital Signature, Key Encipherment
            X509v3 Basic Constraints: critical
                CA:FALSE, pathlen:3
    Signature Algorithm: ecdsa-with-SHA256
         30:46:02:21:00:ae:7a:73:17:ff:b4:d4:71:32:ef:aa:e2:7a:
         30:b7:8c:cb:6d:c0:05:39:ab:15:56:1a:dc:c4:3a:d0:8d:e0:
         44:02:21:00:91:2e:2d:bd:2f:1f:69:43:45:9e:fd:61:88:b8:
         6d:f3:56:24:48:b6:c9:ee:dd:fe:2a:6a:4c:24:ea:cf:fe:36
-----BEGIN CERTIFICATE-----
MIIB9TCCAZqgAwIBAgIBLjAKBggqhkjOPQQDAjCBmzEZMBcGA1UEAwwQUmVnaW9u
ZSBDYW1wYW5pYTELMAkGA1UEBhMCSVQxDzANBgNVBAgMBkl0YWxpYTEYMBYGA1UE
CgwPRS1Wb3Rpbmcgc3lzdGVtMSIwIAYDVQQLDBlFLVZvdGluZyBzeXN0ZW0gYXV0
aG9yaXR5MSIwIAYJKoZIhvcNAQkBFhNDYW1wYW5pYUBldm90aW5nLml0MB4XDTIy
MDgyNjE1MjE0NFoXDTIzMDgyNjE1MjE0NFowSTEOMAwGA1UEAwwFSmFtaWUxCzAJ
BgNVBAYTAklUMQ8wDQYDVQQIDAZJdGFsaWExGTAXBgNVBAoMEFJlZ2lvbmUgQ2Ft
cGFuaWEwVjAQBgcqhkjOPQIBBgUrgQQACgNCAARftRFV+zAiEz3xosxmAYD/zY+C
upxAT3ST8mmZDTQRBRdMKiY2K6Zu4sEqDWr8mrM1X+YIkJrE2RpQccveOzGIoyMw
ITAOBgNVHQ8BAf8EBAMCBaAwDwYDVR0TAQH/BAUwAwIBAzAKBggqhkjOPQQDAgNJ
ADBGAiEArnpzF/+01HEy76riejC3jMttwAU5qxVWGtzEOtCN4EQCIQCRLi29Lx9p
Q0We/WGIuG3zViRItsnu3f4qakwk6s/+Ng==
-----END CERTIFICATE-----
