Certificate:
    Data:
        Version: 3 (0x2)
        Serial Number: 21 (0x15)
        Signature Algorithm: ecdsa-with-SHA256
        Issuer: CN=Regione Umbria, C=IT, ST=Italia, O=E-Voting system, OU=E-Voting system authority/emailAddress=Umbria@evoting.it
        Validity
            Not Before: Aug 26 15:19:53 2022 GMT
            Not After : Aug 26 15:19:53 2023 GMT
        Subject: CN=Jan, C=IT, ST=Italia, O=Regione Umbria
        Subject Public Key Info:
            Public Key Algorithm: id-ecPublicKey
                Public-Key: (256 bit)
                pub:
                    04:5d:ab:f5:23:13:84:88:4e:eb:09:bc:de:c8:a2:
                    21:93:9a:e3:4b:10:c2:4f:9e:0f:a9:54:51:d7:39:
                    29:32:63:5d:7b:ec:f0:82:51:20:32:3b:17:dc:f5:
                    14:fb:fe:ba:43:46:48:89:c8:cf:67:07:f5:38:2e:
                    09:87:ef:33:95
                ASN1 OID: secp256k1
        X509v3 extensions:
            X509v3 Key Usage: critical
                Digital Signature, Key Encipherment
            X509v3 Basic Constraints: critical
                CA:FALSE, pathlen:3
    Signature Algorithm: ecdsa-with-SHA256
         30:45:02:21:00:8f:51:18:89:27:ec:c8:fa:3c:29:26:7d:8e:
         83:d8:c4:4f:b4:a1:45:9a:b0:02:cf:ee:77:72:a1:07:03:c0:
         ca:02:20:04:c2:68:b9:4d:e8:ed:be:f3:ed:cd:9a:b4:9c:4b:
         ef:4a:92:0b:56:13:b9:00:37:d0:88:ff:ab:a7:07:2c:44
-----BEGIN CERTIFICATE-----
MIIB7DCCAZKgAwIBAgIBFTAKBggqhkjOPQQDAjCBlzEXMBUGA1UEAwwOUmVnaW9u
ZSBVbWJyaWExCzAJBgNVBAYTAklUMQ8wDQYDVQQIDAZJdGFsaWExGDAWBgNVBAoM
D0UtVm90aW5nIHN5c3RlbTEiMCAGA1UECwwZRS1Wb3Rpbmcgc3lzdGVtIGF1dGhv
cml0eTEgMB4GCSqGSIb3DQEJARYRVW1icmlhQGV2b3RpbmcuaXQwHhcNMjIwODI2
MTUxOTUzWhcNMjMwODI2MTUxOTUzWjBFMQwwCgYDVQQDDANKYW4xCzAJBgNVBAYT
AklUMQ8wDQYDVQQIDAZJdGFsaWExFzAVBgNVBAoMDlJlZ2lvbmUgVW1icmlhMFYw
EAYHKoZIzj0CAQYFK4EEAAoDQgAEXav1IxOEiE7rCbzeyKIhk5rjSxDCT54PqVRR
1zkpMmNde+zwglEgMjsX3PUU+/66Q0ZIicjPZwf1OC4Jh+8zlaMjMCEwDgYDVR0P
AQH/BAQDAgWgMA8GA1UdEwEB/wQFMAMCAQMwCgYIKoZIzj0EAwIDSAAwRQIhAI9R
GIkn7Mj6PCkmfY6D2MRPtKFFmrACz+53cqEHA8DKAiAEwmi5TejtvvPtzZq0nEvv
SpILVhO5ADfQiP+rpwcsRA==
-----END CERTIFICATE-----
