Certificate:
    Data:
        Version: 3 (0x2)
        Serial Number: 5 (0x5)
        Signature Algorithm: ecdsa-with-SHA256
        Issuer: CN=Regione Emilia_Romagna, C=IT, ST=Italia, O=E-Voting system, OU=E-Voting system authority/emailAddress=Emilia_Romagna@evoting.it
        Validity
            Not Before: Aug  3 13:25:54 2022 GMT
            Not After : Aug  3 13:25:54 2023 GMT
        Subject: CN=Jan, C=IT, ST=Italia, O=Regione Emilia_Romagna
        Subject Public Key Info:
            Public Key Algorithm: id-ecPublicKey
                Public-Key: (256 bit)
                pub:
                    04:50:f6:ca:a7:25:fd:6e:00:4b:03:31:bd:0e:cc:
                    77:9c:05:7a:9d:18:57:81:55:77:23:ef:84:50:5b:
                    ca:e8:b3:98:25:de:00:b5:86:cf:fb:5a:63:13:7f:
                    5b:2e:cf:38:d4:4a:4a:c5:1f:1e:c3:1b:00:e9:9e:
                    18:50:14:a5:31
                ASN1 OID: prime256v1
                NIST CURVE: P-256
        X509v3 extensions:
            X509v3 Key Usage: critical
                Digital Signature, Key Encipherment
            X509v3 Basic Constraints: critical
                CA:FALSE, pathlen:3
    Signature Algorithm: ecdsa-with-SHA256
         30:46:02:21:00:b2:9a:c9:93:7b:b6:20:e4:65:31:46:78:43:
         54:d9:87:9a:b9:2f:0f:65:d3:9a:25:0d:dc:d8:49:8f:8d:1d:
         60:02:21:00:91:1c:20:f4:61:ed:f0:12:1a:41:00:78:ee:ff:
         69:d5:09:e6:07:f2:00:6c:58:bd:42:98:f5:35:2a:2f:df:1e
-----BEGIN CERTIFICATE-----
MIICCDCCAa2gAwIBAgIBBTAKBggqhkjOPQQDAjCBpzEfMB0GA1UEAwwWUmVnaW9u
ZSBFbWlsaWFfUm9tYWduYTELMAkGA1UEBhMCSVQxDzANBgNVBAgMBkl0YWxpYTEY
MBYGA1UECgwPRS1Wb3Rpbmcgc3lzdGVtMSIwIAYDVQQLDBlFLVZvdGluZyBzeXN0
ZW0gYXV0aG9yaXR5MSgwJgYJKoZIhvcNAQkBFhlFbWlsaWFfUm9tYWduYUBldm90
aW5nLml0MB4XDTIyMDgwMzEzMjU1NFoXDTIzMDgwMzEzMjU1NFowTTEMMAoGA1UE
AwwDSmFuMQswCQYDVQQGEwJJVDEPMA0GA1UECAwGSXRhbGlhMR8wHQYDVQQKDBZS
ZWdpb25lIEVtaWxpYV9Sb21hZ25hMFkwEwYHKoZIzj0CAQYIKoZIzj0DAQcDQgAE
UPbKpyX9bgBLAzG9Dsx3nAV6nRhXgVV3I++EUFvK6LOYJd4AtYbP+1pjE39bLs84
1EpKxR8ewxsA6Z4YUBSlMaMjMCEwDgYDVR0PAQH/BAQDAgWgMA8GA1UdEwEB/wQF
MAMCAQMwCgYIKoZIzj0EAwIDSQAwRgIhALKayZN7tiDkZTFGeENU2YeauS8PZdOa
JQ3c2EmPjR1gAiEAkRwg9GHt8BIaQQB47v9p1QnmB/IAbFi9Qpj1NSov3x4=
-----END CERTIFICATE-----
