Certificate:
    Data:
        Version: 3 (0x2)
        Serial Number: 47 (0x2f)
        Signature Algorithm: ecdsa-with-SHA256
        Issuer: CN=Regione Liguria, C=IT, ST=Italia, O=E-Voting system, OU=E-Voting system authority/emailAddress=Liguria@evoting.it
        Validity
            Not Before: Aug  3 13:28:17 2022 GMT
            Not After : Aug  3 13:28:17 2023 GMT
        Subject: CN=Janette, C=IT, ST=Italia, O=Regione Liguria
        Subject Public Key Info:
            Public Key Algorithm: id-ecPublicKey
                Public-Key: (256 bit)
                pub:
                    04:ef:af:6f:e4:d9:bb:6b:b1:93:0f:9d:11:af:4d:
                    16:11:77:e1:78:9c:84:91:bd:92:b0:f3:b4:3f:10:
                    eb:cb:a7:97:a8:e6:d1:69:95:54:cd:3e:80:27:67:
                    7d:75:26:2e:c1:32:ce:09:ac:b8:af:2b:df:7b:de:
                    30:3e:6f:9c:20
                ASN1 OID: prime256v1
                NIST CURVE: P-256
        X509v3 extensions:
            X509v3 Key Usage: critical
                Digital Signature, Key Encipherment
            X509v3 Basic Constraints: critical
                CA:FALSE, pathlen:3
    Signature Algorithm: ecdsa-with-SHA256
         30:44:02:20:56:38:b6:fd:1b:85:48:af:db:f3:50:02:89:4e:
         fc:46:d2:e6:9b:7f:e1:1c:73:4d:a2:3e:a4:f0:af:ee:92:8f:
         02:20:32:c1:70:20:a7:16:4d:56:bb:75:15:37:d4:33:70:f8:
         1a:64:d8:1a:85:1a:cc:ec:1f:f4:08:b6:ba:47:00:0a
-----BEGIN CERTIFICATE-----
MIIB9TCCAZygAwIBAgIBLzAKBggqhkjOPQQDAjCBmTEYMBYGA1UEAwwPUmVnaW9u
ZSBMaWd1cmlhMQswCQYDVQQGEwJJVDEPMA0GA1UECAwGSXRhbGlhMRgwFgYDVQQK
DA9FLVZvdGluZyBzeXN0ZW0xIjAgBgNVBAsMGUUtVm90aW5nIHN5c3RlbSBhdXRo
b3JpdHkxITAfBgkqhkiG9w0BCQEWEkxpZ3VyaWFAZXZvdGluZy5pdDAeFw0yMjA4
MDMxMzI4MTdaFw0yMzA4MDMxMzI4MTdaMEoxEDAOBgNVBAMMB0phbmV0dGUxCzAJ
BgNVBAYTAklUMQ8wDQYDVQQIDAZJdGFsaWExGDAWBgNVBAoMD1JlZ2lvbmUgTGln
dXJpYTBZMBMGByqGSM49AgEGCCqGSM49AwEHA0IABO+vb+TZu2uxkw+dEa9NFhF3
4XichJG9krDztD8Q68unl6jm0WmVVM0+gCdnfXUmLsEyzgmsuK8r33veMD5vnCCj
IzAhMA4GA1UdDwEB/wQEAwIFoDAPBgNVHRMBAf8EBTADAgEDMAoGCCqGSM49BAMC
A0cAMEQCIFY4tv0bhUiv2/NQAolO/EbS5pt/4RxzTaI+pPCv7pKPAiAywXAgpxZN
Vrt1FTfUM3D4GmTYGoUazOwf9Ai2ukcACg==
-----END CERTIFICATE-----
