Certificate:
    Data:
        Version: 3 (0x2)
        Serial Number: 21 (0x15)
        Signature Algorithm: ecdsa-with-SHA256
        Issuer: CN=Regione Campania, C=IT, ST=Italia, O=E-Voting system, OU=E-Voting system authority/emailAddress=Campania@evoting.it
        Validity
            Not Before: Aug 26 15:19:38 2022 GMT
            Not After : Aug 26 15:19:38 2023 GMT
        Subject: CN=Janice, C=IT, ST=Italia, O=Regione Campania
        Subject Public Key Info:
            Public Key Algorithm: id-ecPublicKey
                Public-Key: (256 bit)
                pub:
                    04:08:b6:1e:2f:97:48:8e:4d:07:cc:a5:b2:6d:92:
                    75:69:da:11:9a:f7:26:35:28:5a:65:52:f5:54:3a:
                    6a:5a:a4:39:c2:ad:eb:e3:c1:cb:5e:70:81:d8:1e:
                    5f:56:96:56:49:5a:59:33:33:fe:11:2e:cb:d6:cf:
                    f5:cc:b3:c9:22
                ASN1 OID: secp256k1
        X509v3 extensions:
            X509v3 Key Usage: critical
                Digital Signature, Key Encipherment
            X509v3 Basic Constraints: critical
                CA:FALSE, pathlen:3
    Signature Algorithm: ecdsa-with-SHA256
         30:46:02:21:00:a5:92:bf:04:95:c5:1e:67:3b:a0:bd:ca:6c:
         60:7a:73:f3:b3:a7:38:97:e1:07:8e:31:ad:98:4a:62:4e:01:
         42:02:21:00:a2:51:87:74:e0:c2:24:f4:90:ec:d3:99:a4:87:
         8c:95:44:95:bd:a9:21:97:3d:81:a5:5e:59:56:45:28:cd:3e
-----BEGIN CERTIFICATE-----
MIIB9jCCAZugAwIBAgIBFTAKBggqhkjOPQQDAjCBmzEZMBcGA1UEAwwQUmVnaW9u
ZSBDYW1wYW5pYTELMAkGA1UEBhMCSVQxDzANBgNVBAgMBkl0YWxpYTEYMBYGA1UE
CgwPRS1Wb3Rpbmcgc3lzdGVtMSIwIAYDVQQLDBlFLVZvdGluZyBzeXN0ZW0gYXV0
aG9yaXR5MSIwIAYJKoZIhvcNAQkBFhNDYW1wYW5pYUBldm90aW5nLml0MB4XDTIy
MDgyNjE1MTkzOFoXDTIzMDgyNjE1MTkzOFowSjEPMA0GA1UEAwwGSmFuaWNlMQsw
CQYDVQQGEwJJVDEPMA0GA1UECAwGSXRhbGlhMRkwFwYDVQQKDBBSZWdpb25lIENh
bXBhbmlhMFYwEAYHKoZIzj0CAQYFK4EEAAoDQgAECLYeL5dIjk0HzKWybZJ1adoR
mvcmNShaZVL1VDpqWqQ5wq3r48HLXnCB2B5fVpZWSVpZMzP+ES7L1s/1zLPJIqMj
MCEwDgYDVR0PAQH/BAQDAgWgMA8GA1UdEwEB/wQFMAMCAQMwCgYIKoZIzj0EAwID
SQAwRgIhAKWSvwSVxR5nO6C9ymxgenPzs6c4l+EHjjGtmEpiTgFCAiEAolGHdODC
JPSQ7NOZpIeMlUSVvakhlz2BpV5ZVkUozT4=
-----END CERTIFICATE-----
