Certificate:
    Data:
        Version: 3 (0x2)
        Serial Number: 11 (0xb)
        Signature Algorithm: ecdsa-with-SHA256
        Issuer: CN=Regione Calabria, C=IT, ST=Italia, O=E-Voting system, OU=E-Voting system authority/emailAddress=Calabria@evoting.it
        Validity
            Not Before: Aug 26 15:19:23 2022 GMT
            Not After : Aug 26 15:19:23 2023 GMT
        Subject: CN=Janie, C=IT, ST=Italia, O=Regione Calabria
        Subject Public Key Info:
            Public Key Algorithm: id-ecPublicKey
                Public-Key: (256 bit)
                pub:
                    04:06:bb:9a:a4:a8:f9:48:87:9e:8b:a3:2a:c5:39:
                    80:0c:48:80:4a:8e:47:76:73:80:3d:6a:cc:3f:2a:
                    b5:26:30:67:ca:ba:f9:59:26:2d:b4:d3:9c:62:58:
                    97:5e:7e:c4:bf:0b:2f:a3:76:d2:9e:50:fc:85:09:
                    9d:75:13:cb:03
                ASN1 OID: secp256k1
        X509v3 extensions:
            X509v3 Key Usage: critical
                Digital Signature, Key Encipherment
            X509v3 Basic Constraints: critical
                CA:FALSE, pathlen:3
    Signature Algorithm: ecdsa-with-SHA256
         30:45:02:21:00:d8:ae:66:23:b4:79:9d:ac:70:11:ad:f4:91:
         b0:58:16:50:d5:fb:1e:4c:0d:bb:87:3f:d1:40:48:fb:9f:5e:
         56:02:20:46:2a:5b:fa:94:9a:04:de:f4:ee:f9:59:e1:7b:2b:
         a9:23:19:81:b1:61:2a:a0:2f:93:3e:dc:b4:5f:3e:55:e9
-----BEGIN CERTIFICATE-----
MIIB9DCCAZqgAwIBAgIBCzAKBggqhkjOPQQDAjCBmzEZMBcGA1UEAwwQUmVnaW9u
ZSBDYWxhYnJpYTELMAkGA1UEBhMCSVQxDzANBgNVBAgMBkl0YWxpYTEYMBYGA1UE
CgwPRS1Wb3Rpbmcgc3lzdGVtMSIwIAYDVQQLDBlFLVZvdGluZyBzeXN0ZW0gYXV0
aG9yaXR5MSIwIAYJKoZIhvcNAQkBFhNDYWxhYnJpYUBldm90aW5nLml0MB4XDTIy
MDgyNjE1MTkyM1oXDTIzMDgyNjE1MTkyM1owSTEOMAwGA1UEAwwFSmFuaWUxCzAJ
BgNVBAYTAklUMQ8wDQYDVQQIDAZJdGFsaWExGTAXBgNVBAoMEFJlZ2lvbmUgQ2Fs
YWJyaWEwVjAQBgcqhkjOPQIBBgUrgQQACgNCAAQGu5qkqPlIh56LoyrFOYAMSIBK
jkd2c4A9asw/KrUmMGfKuvlZJi2005xiWJdefsS/Cy+jdtKeUPyFCZ11E8sDoyMw
ITAOBgNVHQ8BAf8EBAMCBaAwDwYDVR0TAQH/BAUwAwIBAzAKBggqhkjOPQQDAgNI
ADBFAiEA2K5mI7R5naxwEa30kbBYFlDV+x5MDbuHP9FASPufXlYCIEYqW/qUmgTe
9O75WeF7K6kjGYGxYSqgL5M+3LRfPlXp
-----END CERTIFICATE-----
