Certificate:
    Data:
        Version: 3 (0x2)
        Serial Number: 16 (0x10)
        Signature Algorithm: ecdsa-with-SHA256
        Issuer: CN=Regione Molise, C=IT, ST=Italia, O=E-Voting system, OU=E-Voting system authority/emailAddress=Molise@evoting.it
        Validity
            Not Before: Aug  3 13:26:26 2022 GMT
            Not After : Aug  3 13:26:26 2023 GMT
        Subject: CN=Jared, C=IT, ST=Italia, O=Regione Molise
        Subject Public Key Info:
            Public Key Algorithm: id-ecPublicKey
                Public-Key: (256 bit)
                pub:
                    04:94:be:2f:aa:00:cc:e1:63:09:64:84:30:55:84:
                    e1:e3:4c:f3:ca:ea:ec:d3:af:40:15:e4:50:3e:97:
                    e0:5d:2b:40:d2:5b:3e:bc:ff:08:3e:c1:31:08:cb:
                    7c:3a:cd:0b:64:05:28:34:2c:ef:df:3f:eb:b8:eb:
                    49:94:74:70:c7
                ASN1 OID: prime256v1
                NIST CURVE: P-256
        X509v3 extensions:
            X509v3 Key Usage: critical
                Digital Signature, Key Encipherment
            X509v3 Basic Constraints: critical
                CA:FALSE, pathlen:3
    Signature Algorithm: ecdsa-with-SHA256
         30:46:02:21:00:e9:5a:a8:9d:b8:cc:86:32:43:f6:ba:e2:8b:
         18:43:b9:15:00:dd:b1:20:a9:3f:e3:58:12:e5:b9:a7:26:21:
         c1:02:21:00:fa:7b:50:02:59:37:f4:d1:ce:b7:bd:07:df:52:
         9b:19:ab:b8:6b:df:ec:7f:5b:d3:f8:d9:8d:bc:0f:79:43:67
-----BEGIN CERTIFICATE-----
MIIB8jCCAZegAwIBAgIBEDAKBggqhkjOPQQDAjCBlzEXMBUGA1UEAwwOUmVnaW9u
ZSBNb2xpc2UxCzAJBgNVBAYTAklUMQ8wDQYDVQQIDAZJdGFsaWExGDAWBgNVBAoM
D0UtVm90aW5nIHN5c3RlbTEiMCAGA1UECwwZRS1Wb3Rpbmcgc3lzdGVtIGF1dGhv
cml0eTEgMB4GCSqGSIb3DQEJARYRTW9saXNlQGV2b3RpbmcuaXQwHhcNMjIwODAz
MTMyNjI2WhcNMjMwODAzMTMyNjI2WjBHMQ4wDAYDVQQDDAVKYXJlZDELMAkGA1UE
BhMCSVQxDzANBgNVBAgMBkl0YWxpYTEXMBUGA1UECgwOUmVnaW9uZSBNb2xpc2Uw
WTATBgcqhkjOPQIBBggqhkjOPQMBBwNCAASUvi+qAMzhYwlkhDBVhOHjTPPK6uzT
r0AV5FA+l+BdK0DSWz68/wg+wTEIy3w6zQtkBSg0LO/fP+u460mUdHDHoyMwITAO
BgNVHQ8BAf8EBAMCBaAwDwYDVR0TAQH/BAUwAwIBAzAKBggqhkjOPQQDAgNJADBG
AiEA6VqonbjMhjJD9rriixhDuRUA3bEgqT/jWBLluacmIcECIQD6e1ACWTf00c63
vQffUpsZq7hr3+x/W9P42Y28D3lDZw==
-----END CERTIFICATE-----
