Certificate:
    Data:
        Version: 3 (0x2)
        Serial Number: 23 (0x17)
        Signature Algorithm: ecdsa-with-SHA256
        Issuer: CN=Regione Lazio, C=IT, ST=Italia, O=E-Voting system, OU=E-Voting system authority/emailAddress=Lazio@evoting.it
        Validity
            Not Before: Aug 26 15:19:49 2022 GMT
            Not After : Aug 26 15:19:49 2023 GMT
        Subject: CN=Jared, C=IT, ST=Italia, O=Regione Lazio
        Subject Public Key Info:
            Public Key Algorithm: id-ecPublicKey
                Public-Key: (256 bit)
                pub:
                    04:4c:55:36:92:7b:3c:90:24:4c:47:87:ad:f1:80:
                    5c:55:c6:0c:11:71:80:20:19:70:b4:0e:43:36:04:
                    88:18:f6:88:bc:fe:c7:59:0c:1c:b7:24:6d:be:1b:
                    af:e6:45:41:41:f2:cb:7f:e9:01:f7:1b:bc:07:fb:
                    00:7a:d9:cc:bf
                ASN1 OID: secp256k1
        X509v3 extensions:
            X509v3 Key Usage: critical
                Digital Signature, Key Encipherment
            X509v3 Basic Constraints: critical
                CA:FALSE, pathlen:3
    Signature Algorithm: ecdsa-with-SHA256
         30:45:02:20:12:c0:87:ed:25:6a:20:cd:bf:53:d9:48:dd:d4:
         94:c5:32:52:3f:f2:f1:e2:0b:44:88:5b:78:0d:15:85:46:19:
         02:21:00:8b:bc:67:85:1f:7a:66:27:82:8d:64:23:f5:a7:ca:
         cb:ac:72:fd:8e:f5:f2:88:af:f5:1e:5e:74:84:d9:38:ba
-----BEGIN CERTIFICATE-----
MIIB6zCCAZGgAwIBAgIBFzAKBggqhkjOPQQDAjCBlTEWMBQGA1UEAwwNUmVnaW9u
ZSBMYXppbzELMAkGA1UEBhMCSVQxDzANBgNVBAgMBkl0YWxpYTEYMBYGA1UECgwP
RS1Wb3Rpbmcgc3lzdGVtMSIwIAYDVQQLDBlFLVZvdGluZyBzeXN0ZW0gYXV0aG9y
aXR5MR8wHQYJKoZIhvcNAQkBFhBMYXppb0Bldm90aW5nLml0MB4XDTIyMDgyNjE1
MTk0OVoXDTIzMDgyNjE1MTk0OVowRjEOMAwGA1UEAwwFSmFyZWQxCzAJBgNVBAYT
AklUMQ8wDQYDVQQIDAZJdGFsaWExFjAUBgNVBAoMDVJlZ2lvbmUgTGF6aW8wVjAQ
BgcqhkjOPQIBBgUrgQQACgNCAARMVTaSezyQJExHh63xgFxVxgwRcYAgGXC0DkM2
BIgY9oi8/sdZDBy3JG2+G6/mRUFB8st/6QH3G7wH+wB62cy/oyMwITAOBgNVHQ8B
Af8EBAMCBaAwDwYDVR0TAQH/BAUwAwIBAzAKBggqhkjOPQQDAgNIADBFAiASwIft
JWogzb9T2Ujd1JTFMlI/8vHiC0SIW3gNFYVGGQIhAIu8Z4UfemYngo1kI/Wnysus
cv2O9fKIr/UeXnSE2Ti6
-----END CERTIFICATE-----
