Certificate:
    Data:
        Version: 3 (0x2)
        Serial Number: 32 (0x20)
        Signature Algorithm: ecdsa-with-SHA256
        Issuer: CN=Regione Piemonte, C=IT, ST=Italia, O=E-Voting system, OU=E-Voting system authority/emailAddress=Piemonte@evoting.it
        Validity
            Not Before: Aug 26 15:20:40 2022 GMT
            Not After : Aug 26 15:20:40 2023 GMT
        Subject: CN=Jason, C=IT, ST=Italia, O=Regione Piemonte
        Subject Public Key Info:
            Public Key Algorithm: id-ecPublicKey
                Public-Key: (256 bit)
                pub:
                    04:64:4c:1e:b8:f3:13:61:0a:3a:c1:64:e6:88:90:
                    a9:db:fd:7c:7b:47:0a:34:6b:bc:37:fd:09:99:94:
                    30:f2:3e:92:4d:ed:2f:80:e6:89:a3:4f:76:15:85:
                    5f:00:18:f6:85:6d:98:5e:0f:56:34:7b:48:36:6c:
                    2f:c5:9b:ea:05
                ASN1 OID: secp256k1
        X509v3 extensions:
            X509v3 Key Usage: critical
                Digital Signature, Key Encipherment
            X509v3 Basic Constraints: critical
                CA:FALSE, pathlen:3
    Signature Algorithm: ecdsa-with-SHA256
         30:45:02:21:00:9b:d1:0d:b0:f2:77:08:a3:6f:5e:81:d1:e8:
         5c:cc:d0:c1:2a:10:0d:4a:7e:a9:a7:9f:f2:54:f3:1b:7a:ef:
         72:02:20:0a:d2:e4:e4:09:8a:9e:f2:61:37:a5:12:aa:09:36:
         59:44:3c:52:50:a4:b2:32:e8:2b:82:08:c6:93:bc:33:d6
-----BEGIN CERTIFICATE-----
MIIB9DCCAZqgAwIBAgIBIDAKBggqhkjOPQQDAjCBmzEZMBcGA1UEAwwQUmVnaW9u
ZSBQaWVtb250ZTELMAkGA1UEBhMCSVQxDzANBgNVBAgMBkl0YWxpYTEYMBYGA1UE
CgwPRS1Wb3Rpbmcgc3lzdGVtMSIwIAYDVQQLDBlFLVZvdGluZyBzeXN0ZW0gYXV0
aG9yaXR5MSIwIAYJKoZIhvcNAQkBFhNQaWVtb250ZUBldm90aW5nLml0MB4XDTIy
MDgyNjE1MjA0MFoXDTIzMDgyNjE1MjA0MFowSTEOMAwGA1UEAwwFSmFzb24xCzAJ
BgNVBAYTAklUMQ8wDQYDVQQIDAZJdGFsaWExGTAXBgNVBAoMEFJlZ2lvbmUgUGll
bW9udGUwVjAQBgcqhkjOPQIBBgUrgQQACgNCAARkTB648xNhCjrBZOaIkKnb/Xx7
Rwo0a7w3/QmZlDDyPpJN7S+A5omjT3YVhV8AGPaFbZheD1Y0e0g2bC/Fm+oFoyMw
ITAOBgNVHQ8BAf8EBAMCBaAwDwYDVR0TAQH/BAUwAwIBAzAKBggqhkjOPQQDAgNI
ADBFAiEAm9ENsPJ3CKNvXoHR6FzM0MEqEA1Kfqmnn/JU8xt673ICIArS5OQJip7y
YTelEqoJNllEPFJQpLIy6CuCCMaTvDPW
-----END CERTIFICATE-----
