Certificate:
    Data:
        Version: 3 (0x2)
        Serial Number: 1 (0x1)
        Signature Algorithm: ecdsa-with-SHA256
        Issuer: CN=Regione Veneto, C=IT, ST=Italia, O=E-Voting system, OU=E-Voting system authority/emailAddress=Veneto@evoting.it
        Validity
            Not Before: Aug 26 15:18:35 2022 GMT
            Not After : Aug 26 15:18:35 2023 GMT
        Subject: CN=Javier, C=IT, ST=Italia, O=Regione Veneto
        Subject Public Key Info:
            Public Key Algorithm: id-ecPublicKey
                Public-Key: (256 bit)
                pub:
                    04:4b:e5:48:a8:12:af:36:45:93:f9:f6:a3:9d:70:
                    18:26:a7:8e:c1:0f:2c:54:04:bf:65:a0:35:f7:f0:
                    fa:63:91:8f:d2:76:fc:e4:47:64:1d:f2:f5:5a:5e:
                    8f:ed:79:b1:4c:6a:97:dc:46:b6:4c:58:de:98:7e:
                    9d:aa:c5:b7:84
                ASN1 OID: secp256k1
        X509v3 extensions:
            X509v3 Key Usage: critical
                Digital Signature, Key Encipherment
            X509v3 Basic Constraints: critical
                CA:FALSE, pathlen:3
    Signature Algorithm: ecdsa-with-SHA256
         30:46:02:21:00:da:36:5c:f3:2a:05:47:f5:5e:95:6e:58:a0:
         3d:d5:ca:6d:de:89:ee:f2:36:78:7a:05:db:a6:1b:9f:bb:c3:
         a7:02:21:00:c9:91:96:62:75:c3:9f:cf:48:97:d1:17:74:6d:
         cc:62:10:db:bf:56:d8:d3:b5:e4:84:83:45:53:30:8c:1d:b2
-----BEGIN CERTIFICATE-----
MIIB8DCCAZWgAwIBAgIBATAKBggqhkjOPQQDAjCBlzEXMBUGA1UEAwwOUmVnaW9u
ZSBWZW5ldG8xCzAJBgNVBAYTAklUMQ8wDQYDVQQIDAZJdGFsaWExGDAWBgNVBAoM
D0UtVm90aW5nIHN5c3RlbTEiMCAGA1UECwwZRS1Wb3Rpbmcgc3lzdGVtIGF1dGhv
cml0eTEgMB4GCSqGSIb3DQEJARYRVmVuZXRvQGV2b3RpbmcuaXQwHhcNMjIwODI2
MTUxODM1WhcNMjMwODI2MTUxODM1WjBIMQ8wDQYDVQQDDAZKYXZpZXIxCzAJBgNV
BAYTAklUMQ8wDQYDVQQIDAZJdGFsaWExFzAVBgNVBAoMDlJlZ2lvbmUgVmVuZXRv
MFYwEAYHKoZIzj0CAQYFK4EEAAoDQgAES+VIqBKvNkWT+fajnXAYJqeOwQ8sVAS/
ZaA19/D6Y5GP0nb85EdkHfL1Wl6P7XmxTGqX3Ea2TFjemH6dqsW3hKMjMCEwDgYD
VR0PAQH/BAQDAgWgMA8GA1UdEwEB/wQFMAMCAQMwCgYIKoZIzj0EAwIDSQAwRgIh
ANo2XPMqBUf1XpVuWKA91cpt3onu8jZ4egXbphufu8OnAiEAyZGWYnXDn89Il9EX
dG3MYhDbv1bY07XkhINFUzCMHbI=
-----END CERTIFICATE-----
