Certificate:
    Data:
        Version: 3 (0x2)
        Serial Number: 3 (0x3)
        Signature Algorithm: ecdsa-with-SHA256
        Issuer: CN=Regione Piemonte, C=IT, ST=Italia, O=E-Voting system, OU=E-Voting system authority/emailAddress=Piemonte@evoting.it
        Validity
            Not Before: Aug 26 15:18:31 2022 GMT
            Not After : Aug 26 15:18:31 2023 GMT
        Subject: CN=Jay, C=IT, ST=Italia, O=Regione Piemonte
        Subject Public Key Info:
            Public Key Algorithm: id-ecPublicKey
                Public-Key: (256 bit)
                pub:
                    04:e8:7e:c1:13:0a:84:e5:c4:f7:9f:ea:90:a4:5c:
                    28:eb:4e:ea:5b:c5:5d:81:8b:69:c0:ce:6c:37:52:
                    39:46:e3:2a:99:e8:58:a8:02:fa:92:1f:67:ad:de:
                    d1:58:c4:ae:0d:89:f7:8f:69:ad:27:21:06:6c:2f:
                    f6:16:ea:49:e8
                ASN1 OID: secp256k1
        X509v3 extensions:
            X509v3 Key Usage: critical
                Digital Signature, Key Encipherment
            X509v3 Basic Constraints: critical
                CA:FALSE, pathlen:3
    Signature Algorithm: ecdsa-with-SHA256
         30:46:02:21:00:d3:9c:11:ee:3e:74:8b:2a:6f:41:c0:15:6d:
         b9:af:17:e7:bb:41:87:f9:dc:16:ac:7c:ba:88:fe:6f:cb:3f:
         a5:02:21:00:a5:f0:81:a5:fd:16:8a:44:0e:6d:98:fb:13:96:
         c5:83:51:d5:f6:91:31:c7:4d:4c:b7:1a:a9:58:90:18:28:23
-----BEGIN CERTIFICATE-----
MIIB8zCCAZigAwIBAgIBAzAKBggqhkjOPQQDAjCBmzEZMBcGA1UEAwwQUmVnaW9u
ZSBQaWVtb250ZTELMAkGA1UEBhMCSVQxDzANBgNVBAgMBkl0YWxpYTEYMBYGA1UE
CgwPRS1Wb3Rpbmcgc3lzdGVtMSIwIAYDVQQLDBlFLVZvdGluZyBzeXN0ZW0gYXV0
aG9yaXR5MSIwIAYJKoZIhvcNAQkBFhNQaWVtb250ZUBldm90aW5nLml0MB4XDTIy
MDgyNjE1MTgzMVoXDTIzMDgyNjE1MTgzMVowRzEMMAoGA1UEAwwDSmF5MQswCQYD
VQQGEwJJVDEPMA0GA1UECAwGSXRhbGlhMRkwFwYDVQQKDBBSZWdpb25lIFBpZW1v
bnRlMFYwEAYHKoZIzj0CAQYFK4EEAAoDQgAE6H7BEwqE5cT3n+qQpFwo607qW8Vd
gYtpwM5sN1I5RuMqmehYqAL6kh9nrd7RWMSuDYn3j2mtJyEGbC/2FupJ6KMjMCEw
DgYDVR0PAQH/BAQDAgWgMA8GA1UdEwEB/wQFMAMCAQMwCgYIKoZIzj0EAwIDSQAw
RgIhANOcEe4+dIsqb0HAFW25rxfnu0GH+dwWrHy6iP5vyz+lAiEApfCBpf0WikQO
bZj7E5bFg1HV9pExx01MtxqpWJAYKCM=
-----END CERTIFICATE-----
