Certificate:
    Data:
        Version: 3 (0x2)
        Serial Number: 44 (0x2c)
        Signature Algorithm: ecdsa-with-SHA256
        Issuer: CN=Regione Emilia_Romagna, C=IT, ST=Italia, O=E-Voting system, OU=E-Voting system authority/emailAddress=Emilia_Romagna@evoting.it
        Validity
            Not Before: Aug  3 13:28:33 2022 GMT
            Not After : Aug  3 13:28:33 2023 GMT
        Subject: CN=Jayson, C=IT, ST=Italia, O=Regione Emilia_Romagna
        Subject Public Key Info:
            Public Key Algorithm: id-ecPublicKey
                Public-Key: (256 bit)
                pub:
                    04:2f:23:c4:eb:0e:4e:47:f0:ac:a4:37:31:4b:2b:
                    2e:64:d8:0b:00:02:61:11:ef:68:f5:5e:4c:a5:1c:
                    db:f3:71:67:f3:58:e2:5e:a5:f8:4d:22:3f:19:2d:
                    e0:f8:90:17:3c:33:ee:39:51:10:44:66:42:14:3a:
                    68:51:17:83:2c
                ASN1 OID: prime256v1
                NIST CURVE: P-256
        X509v3 extensions:
            X509v3 Key Usage: critical
                Digital Signature, Key Encipherment
            X509v3 Basic Constraints: critical
                CA:FALSE, pathlen:3
    Signature Algorithm: ecdsa-with-SHA256
         30:44:02:20:35:75:38:86:b9:d6:dc:a7:84:f5:84:b2:a8:0d:
         d4:50:fc:d2:3b:59:76:28:c8:e7:0b:57:8b:28:bc:29:17:a7:
         02:20:47:53:29:34:05:fc:4b:f9:61:d8:4f:af:ec:ba:40:b1:
         23:c8:7f:78:20:3c:4f:32:cc:3b:81:f6:d1:a7:7f:bd
-----BEGIN CERTIFICATE-----
MIICCTCCAbCgAwIBAgIBLDAKBggqhkjOPQQDAjCBpzEfMB0GA1UEAwwWUmVnaW9u
ZSBFbWlsaWFfUm9tYWduYTELMAkGA1UEBhMCSVQxDzANBgNVBAgMBkl0YWxpYTEY
MBYGA1UECgwPRS1Wb3Rpbmcgc3lzdGVtMSIwIAYDVQQLDBlFLVZvdGluZyBzeXN0
ZW0gYXV0aG9yaXR5MSgwJgYJKoZIhvcNAQkBFhlFbWlsaWFfUm9tYWduYUBldm90
aW5nLml0MB4XDTIyMDgwMzEzMjgzM1oXDTIzMDgwMzEzMjgzM1owUDEPMA0GA1UE
AwwGSmF5c29uMQswCQYDVQQGEwJJVDEPMA0GA1UECAwGSXRhbGlhMR8wHQYDVQQK
DBZSZWdpb25lIEVtaWxpYV9Sb21hZ25hMFkwEwYHKoZIzj0CAQYIKoZIzj0DAQcD
QgAELyPE6w5OR/CspDcxSysuZNgLAAJhEe9o9V5MpRzb83Fn81jiXqX4TSI/GS3g
+JAXPDPuOVEQRGZCFDpoUReDLKMjMCEwDgYDVR0PAQH/BAQDAgWgMA8GA1UdEwEB
/wQFMAMCAQMwCgYIKoZIzj0EAwIDRwAwRAIgNXU4hrnW3KeE9YSyqA3UUPzSO1l2
KMjnC1eLKLwpF6cCIEdTKTQF/Ev5YdhPr+y6QLEjyH94IDxPMsw7gfbRp3+9
-----END CERTIFICATE-----
