Certificate:
    Data:
        Version: 3 (0x2)
        Serial Number: 34 (0x22)
        Signature Algorithm: ecdsa-with-SHA256
        Issuer: CN=Regione Molise, C=IT, ST=Italia, O=E-Voting system, OU=E-Voting system authority/emailAddress=Molise@evoting.it
        Validity
            Not Before: Aug  3 13:27:42 2022 GMT
            Not After : Aug  3 13:27:42 2023 GMT
        Subject: CN=Jeanette, C=IT, ST=Italia, O=Regione Molise
        Subject Public Key Info:
            Public Key Algorithm: id-ecPublicKey
                Public-Key: (256 bit)
                pub:
                    04:60:cb:ee:d4:97:78:8f:d2:d7:a0:54:6c:83:b1:
                    c9:57:2f:a6:5d:24:58:97:ae:59:22:90:63:72:db:
                    73:56:98:30:af:fe:f4:91:7d:da:ae:d8:89:c7:29:
                    af:1c:e1:dd:d5:54:c7:2d:b1:88:76:99:30:aa:1b:
                    1a:95:dc:11:d3
                ASN1 OID: prime256v1
                NIST CURVE: P-256
        X509v3 extensions:
            X509v3 Key Usage: critical
                Digital Signature, Key Encipherment
            X509v3 Basic Constraints: critical
                CA:FALSE, pathlen:3
    Signature Algorithm: ecdsa-with-SHA256
         30:44:02:20:5c:8a:61:d3:01:7d:20:92:af:b9:b2:44:26:0b:
         cc:b5:08:aa:04:f4:29:4b:f7:91:fd:e7:9d:a9:27:5a:85:5e:
         02:20:46:85:d4:90:b2:9d:13:52:d6:64:3c:34:8b:e6:02:76:
         7c:54:cd:0b:4d:8f:57:ab:09:c7:02:fe:7b:2e:7a:08
-----BEGIN CERTIFICATE-----
MIIB8zCCAZqgAwIBAgIBIjAKBggqhkjOPQQDAjCBlzEXMBUGA1UEAwwOUmVnaW9u
ZSBNb2xpc2UxCzAJBgNVBAYTAklUMQ8wDQYDVQQIDAZJdGFsaWExGDAWBgNVBAoM
D0UtVm90aW5nIHN5c3RlbTEiMCAGA1UECwwZRS1Wb3Rpbmcgc3lzdGVtIGF1dGhv
cml0eTEgMB4GCSqGSIb3DQEJARYRTW9saXNlQGV2b3RpbmcuaXQwHhcNMjIwODAz
MTMyNzQyWhcNMjMwODAzMTMyNzQyWjBKMREwDwYDVQQDDAhKZWFuZXR0ZTELMAkG
A1UEBhMCSVQxDzANBgNVBAgMBkl0YWxpYTEXMBUGA1UECgwOUmVnaW9uZSBNb2xp
c2UwWTATBgcqhkjOPQIBBggqhkjOPQMBBwNCAARgy+7Ul3iP0tegVGyDsclXL6Zd
JFiXrlkikGNy23NWmDCv/vSRfdqu2InHKa8c4d3VVMctsYh2mTCqGxqV3BHToyMw
ITAOBgNVHQ8BAf8EBAMCBaAwDwYDVR0TAQH/BAUwAwIBAzAKBggqhkjOPQQDAgNH
ADBEAiBcimHTAX0gkq+5skQmC8y1CKoE9ClL95H9552pJ1qFXgIgRoXUkLKdE1LW
ZDw0i+YCdnxUzQtNj1erCccC/nsuegg=
-----END CERTIFICATE-----
