Certificate:
    Data:
        Version: 3 (0x2)
        Serial Number: 1 (0x1)
        Signature Algorithm: ecdsa-with-SHA256
        Issuer: CN=Regione Puglia, C=IT, ST=Italia, O=E-Voting system, OU=E-Voting system authority/emailAddress=Puglia@evoting.it
        Validity
            Not Before: Aug 26 15:18:27 2022 GMT
            Not After : Aug 26 15:18:27 2023 GMT
        Subject: CN=Jeannette, C=IT, ST=Italia, O=Regione Puglia
        Subject Public Key Info:
            Public Key Algorithm: id-ecPublicKey
                Public-Key: (256 bit)
                pub:
                    04:b7:2f:0b:38:7e:d1:17:bf:7d:12:e3:36:17:e9:
                    e9:08:ab:28:92:22:02:ff:04:7b:69:3e:ea:cd:0b:
                    e9:34:4a:ea:c1:d7:7a:79:81:96:cf:cc:99:72:6e:
                    27:19:72:07:95:d1:c2:52:ca:57:68:74:4f:30:03:
                    e1:97:b3:52:f2
                ASN1 OID: secp256k1
        X509v3 extensions:
            X509v3 Key Usage: critical
                Digital Signature, Key Encipherment
            X509v3 Basic Constraints: critical
                CA:FALSE, pathlen:3
    Signature Algorithm: ecdsa-with-SHA256
         30:46:02:21:00:b1:6d:63:9a:f2:a1:e1:66:67:ac:e1:d9:2d:
         51:53:28:51:4a:cc:55:54:bf:d4:8c:1f:97:d5:02:d4:87:37:
         e6:02:21:00:b4:10:d7:c3:30:89:64:81:dc:9d:87:c6:55:90:
         ad:dc:fd:92:aa:60:94:9b:a0:c5:77:27:d8:18:a8:b0:73:d6
-----BEGIN CERTIFICATE-----
MIIB8zCCAZigAwIBAgIBATAKBggqhkjOPQQDAjCBlzEXMBUGA1UEAwwOUmVnaW9u
ZSBQdWdsaWExCzAJBgNVBAYTAklUMQ8wDQYDVQQIDAZJdGFsaWExGDAWBgNVBAoM
D0UtVm90aW5nIHN5c3RlbTEiMCAGA1UECwwZRS1Wb3Rpbmcgc3lzdGVtIGF1dGhv
cml0eTEgMB4GCSqGSIb3DQEJARYRUHVnbGlhQGV2b3RpbmcuaXQwHhcNMjIwODI2
MTUxODI3WhcNMjMwODI2MTUxODI3WjBLMRIwEAYDVQQDDAlKZWFubmV0dGUxCzAJ
BgNVBAYTAklUMQ8wDQYDVQQIDAZJdGFsaWExFzAVBgNVBAoMDlJlZ2lvbmUgUHVn
bGlhMFYwEAYHKoZIzj0CAQYFK4EEAAoDQgAEty8LOH7RF799EuM2F+npCKsokiIC
/wR7aT7qzQvpNErqwdd6eYGWz8yZcm4nGXIHldHCUspXaHRPMAPhl7NS8qMjMCEw
DgYDVR0PAQH/BAQDAgWgMA8GA1UdEwEB/wQFMAMCAQMwCgYIKoZIzj0EAwIDSQAw
RgIhALFtY5ryoeFmZ6zh2S1RUyhRSsxVVL/UjB+X1QLUhzfmAiEAtBDXwzCJZIHc
nYfGVZCt3P2SqmCUm6DFdyfYGKiwc9Y=
-----END CERTIFICATE-----
