Certificate:
    Data:
        Version: 3 (0x2)
        Serial Number: 43 (0x2b)
        Signature Algorithm: ecdsa-with-SHA256
        Issuer: CN=Regione Liguria, C=IT, ST=Italia, O=E-Voting system, OU=E-Voting system authority/emailAddress=Liguria@evoting.it
        Validity
            Not Before: Aug 26 15:20:43 2022 GMT
            Not After : Aug 26 15:20:43 2023 GMT
        Subject: CN=Jeanette, C=IT, ST=Italia, O=Regione Liguria
        Subject Public Key Info:
            Public Key Algorithm: id-ecPublicKey
                Public-Key: (256 bit)
                pub:
                    04:25:c5:6f:77:b3:7d:72:64:79:47:1f:43:4d:48:
                    68:8b:a6:ff:e3:dc:f9:91:d1:55:e0:25:8a:fd:41:
                    05:76:03:90:76:73:71:81:8d:93:84:9c:7a:fc:2f:
                    44:ce:fb:8e:63:1c:ee:0e:a1:fd:e7:ef:87:a2:c6:
                    f3:69:5c:3e:43
                ASN1 OID: secp256k1
        X509v3 extensions:
            X509v3 Key Usage: critical
                Digital Signature, Key Encipherment
            X509v3 Basic Constraints: critical
                CA:FALSE, pathlen:3
    Signature Algorithm: ecdsa-with-SHA256
         30:46:02:21:00:c3:cb:17:c5:81:4d:8f:1f:62:b5:82:e4:6d:
         8d:e0:98:73:ec:06:f1:23:5f:3b:19:66:41:17:b7:f4:24:54:
         ae:02:21:00:f2:7d:26:d9:5f:ab:49:4a:61:7e:f4:5e:f2:ea:
         73:1a:91:90:a1:df:d6:86:43:34:cf:d4:cf:57:49:67:9d:4d
-----BEGIN CERTIFICATE-----
MIIB9TCCAZqgAwIBAgIBKzAKBggqhkjOPQQDAjCBmTEYMBYGA1UEAwwPUmVnaW9u
ZSBMaWd1cmlhMQswCQYDVQQGEwJJVDEPMA0GA1UECAwGSXRhbGlhMRgwFgYDVQQK
DA9FLVZvdGluZyBzeXN0ZW0xIjAgBgNVBAsMGUUtVm90aW5nIHN5c3RlbSBhdXRo
b3JpdHkxITAfBgkqhkiG9w0BCQEWEkxpZ3VyaWFAZXZvdGluZy5pdDAeFw0yMjA4
MjYxNTIwNDNaFw0yMzA4MjYxNTIwNDNaMEsxETAPBgNVBAMMCEplYW5ldHRlMQsw
CQYDVQQGEwJJVDEPMA0GA1UECAwGSXRhbGlhMRgwFgYDVQQKDA9SZWdpb25lIExp
Z3VyaWEwVjAQBgcqhkjOPQIBBgUrgQQACgNCAAQlxW93s31yZHlHH0NNSGiLpv/j
3PmR0VXgJYr9QQV2A5B2c3GBjZOEnHr8L0TO+45jHO4Oof3n74eixvNpXD5DoyMw
ITAOBgNVHQ8BAf8EBAMCBaAwDwYDVR0TAQH/BAUwAwIBAzAKBggqhkjOPQQDAgNJ
ADBGAiEAw8sXxYFNjx9itYLkbY3gmHPsBvEjXzsZZkEXt/QkVK4CIQDyfSbZX6tJ
SmF+9F7y6nMakZCh39aGQzTP1M9XSWedTQ==
-----END CERTIFICATE-----
