Certificate:
    Data:
        Version: 3 (0x2)
        Serial Number: 26 (0x1a)
        Signature Algorithm: ecdsa-with-SHA256
        Issuer: CN=Regione Lombardia, C=IT, ST=Italia, O=E-Voting system, OU=E-Voting system authority/emailAddress=Lombardia@evoting.it
        Validity
            Not Before: Aug  3 13:26:58 2022 GMT
            Not After : Aug  3 13:26:58 2023 GMT
        Subject: CN=Jeannette, C=IT, ST=Italia, O=Regione Lombardia
        Subject Public Key Info:
            Public Key Algorithm: id-ecPublicKey
                Public-Key: (256 bit)
                pub:
                    04:95:f2:ae:c8:cd:ea:9b:2e:16:4c:cb:bd:83:89:
                    4b:fc:5a:b7:e9:52:a8:88:cf:88:67:38:88:b8:d6:
                    0e:f2:31:29:6f:43:13:9f:00:6e:23:b6:aa:42:35:
                    ad:06:0b:60:67:07:de:42:0c:bd:10:e6:41:04:0b:
                    fa:10:0a:e9:ef
                ASN1 OID: prime256v1
                NIST CURVE: P-256
        X509v3 extensions:
            X509v3 Key Usage: critical
                Digital Signature, Key Encipherment
            X509v3 Basic Constraints: critical
                CA:FALSE, pathlen:3
    Signature Algorithm: ecdsa-with-SHA256
         30:45:02:20:4e:e3:df:45:df:02:d1:76:b9:41:e3:b4:85:57:
         54:52:c0:0d:1c:94:be:93:0c:16:3c:4e:f7:78:c6:84:44:bd:
         02:21:00:de:6e:d2:b3:17:a5:cb:13:b5:f1:ac:2d:01:e4:20:
         19:07:1e:dd:70:c2:b1:99:70:1a:0a:8d:8b:62:e7:4c:a7
-----BEGIN CERTIFICATE-----
MIIB/jCCAaSgAwIBAgIBGjAKBggqhkjOPQQDAjCBnTEaMBgGA1UEAwwRUmVnaW9u
ZSBMb21iYXJkaWExCzAJBgNVBAYTAklUMQ8wDQYDVQQIDAZJdGFsaWExGDAWBgNV
BAoMD0UtVm90aW5nIHN5c3RlbTEiMCAGA1UECwwZRS1Wb3Rpbmcgc3lzdGVtIGF1
dGhvcml0eTEjMCEGCSqGSIb3DQEJARYUTG9tYmFyZGlhQGV2b3RpbmcuaXQwHhcN
MjIwODAzMTMyNjU4WhcNMjMwODAzMTMyNjU4WjBOMRIwEAYDVQQDDAlKZWFubmV0
dGUxCzAJBgNVBAYTAklUMQ8wDQYDVQQIDAZJdGFsaWExGjAYBgNVBAoMEVJlZ2lv
bmUgTG9tYmFyZGlhMFkwEwYHKoZIzj0CAQYIKoZIzj0DAQcDQgAElfKuyM3qmy4W
TMu9g4lL/Fq36VKoiM+IZziIuNYO8jEpb0MTnwBuI7aqQjWtBgtgZwfeQgy9EOZB
BAv6EArp76MjMCEwDgYDVR0PAQH/BAQDAgWgMA8GA1UdEwEB/wQFMAMCAQMwCgYI
KoZIzj0EAwIDSAAwRQIgTuPfRd8C0Xa5QeO0hVdUUsANHJS+kwwWPE73eMaERL0C
IQDebtKzF6XLE7XxrC0B5CAZBx7dcMKxmXAaCo2LYudMpw==
-----END CERTIFICATE-----
