Certificate:
    Data:
        Version: 3 (0x2)
        Serial Number: 2 (0x2)
        Signature Algorithm: ecdsa-with-SHA256
        Issuer: CN=Regione Emilia_Romagna, C=IT, ST=Italia, O=E-Voting system, OU=E-Voting system authority/emailAddress=Emilia_Romagna@evoting.it
        Validity
            Not Before: Aug 26 15:18:27 2022 GMT
            Not After : Aug 26 15:18:27 2023 GMT
        Subject: CN=Jeanmarie, C=IT, ST=Italia, O=Regione Emilia_Romagna
        Subject Public Key Info:
            Public Key Algorithm: id-ecPublicKey
                Public-Key: (256 bit)
                pub:
                    04:bf:c3:d2:d7:a5:6b:7b:7e:86:65:38:61:74:9f:
                    c0:07:e1:40:42:4d:cd:5d:fd:50:57:ad:ae:78:64:
                    f6:61:fb:0e:2b:ea:ef:12:7d:5d:c7:8a:b7:48:e2:
                    d2:42:6f:22:ef:99:e0:35:ee:ca:18:7e:1b:72:ab:
                    e2:bd:63:bd:6a
                ASN1 OID: secp256k1
        X509v3 extensions:
            X509v3 Key Usage: critical
                Digital Signature, Key Encipherment
            X509v3 Basic Constraints: critical
                CA:FALSE, pathlen:3
    Signature Algorithm: ecdsa-with-SHA256
         30:46:02:21:00:cb:7c:37:88:0f:24:f4:56:aa:e1:76:c8:fe:
         17:98:96:ea:61:25:ce:8c:2e:0c:a5:fe:6f:5a:66:0e:06:14:
         ca:02:21:00:93:08:a7:97:61:02:be:ef:3c:9f:cc:f7:34:7c:
         ae:d9:d5:fd:1d:82:76:9b:24:73:c9:cf:af:df:e3:6a:32:f1
-----BEGIN CERTIFICATE-----
MIICCzCCAbCgAwIBAgIBAjAKBggqhkjOPQQDAjCBpzEfMB0GA1UEAwwWUmVnaW9u
ZSBFbWlsaWFfUm9tYWduYTELMAkGA1UEBhMCSVQxDzANBgNVBAgMBkl0YWxpYTEY
MBYGA1UECgwPRS1Wb3Rpbmcgc3lzdGVtMSIwIAYDVQQLDBlFLVZvdGluZyBzeXN0
ZW0gYXV0aG9yaXR5MSgwJgYJKoZIhvcNAQkBFhlFbWlsaWFfUm9tYWduYUBldm90
aW5nLml0MB4XDTIyMDgyNjE1MTgyN1oXDTIzMDgyNjE1MTgyN1owUzESMBAGA1UE
AwwJSmVhbm1hcmllMQswCQYDVQQGEwJJVDEPMA0GA1UECAwGSXRhbGlhMR8wHQYD
VQQKDBZSZWdpb25lIEVtaWxpYV9Sb21hZ25hMFYwEAYHKoZIzj0CAQYFK4EEAAoD
QgAEv8PS16Vre36GZThhdJ/AB+FAQk3NXf1QV62ueGT2YfsOK+rvEn1dx4q3SOLS
Qm8i75ngNe7KGH4bcqvivWO9aqMjMCEwDgYDVR0PAQH/BAQDAgWgMA8GA1UdEwEB
/wQFMAMCAQMwCgYIKoZIzj0EAwIDSQAwRgIhAMt8N4gPJPRWquF2yP4XmJbqYSXO
jC4Mpf5vWmYOBhTKAiEAkwinl2ECvu88n8z3NHyu2dX9HYJ2myRzyc+v3+NqMvE=
-----END CERTIFICATE-----
