Certificate:
    Data:
        Version: 3 (0x2)
        Serial Number: 38 (0x26)
        Signature Algorithm: ecdsa-with-SHA256
        Issuer: CN=Regione Abruzzo, C=IT, ST=Italia, O=E-Voting system, OU=E-Voting system authority/emailAddress=Abruzzo@evoting.it
        Validity
            Not Before: Aug 26 15:21:00 2022 GMT
            Not After : Aug 26 15:21:00 2023 GMT
        Subject: CN=Jeanne, C=IT, ST=Italia, O=Regione Abruzzo
        Subject Public Key Info:
            Public Key Algorithm: id-ecPublicKey
                Public-Key: (256 bit)
                pub:
                    04:fc:2d:b5:fe:a8:f1:23:44:94:05:50:a0:2c:e1:
                    ac:b9:7a:82:58:8c:5f:53:a1:d9:9e:71:4f:96:bf:
                    4c:a1:a9:e7:e8:01:31:a9:94:68:74:47:ea:7e:bb:
                    54:22:ee:e3:cb:53:92:28:a3:93:55:70:34:8e:6e:
                    69:0e:d4:1d:b7
                ASN1 OID: secp256k1
        X509v3 extensions:
            X509v3 Key Usage: critical
                Digital Signature, Key Encipherment
            X509v3 Basic Constraints: critical
                CA:FALSE, pathlen:3
    Signature Algorithm: ecdsa-with-SHA256
         30:46:02:21:00:b5:18:70:db:ee:20:3c:0f:87:10:3f:3d:15:
         4d:76:77:47:e8:eb:08:f7:05:ec:f3:c9:e8:b0:e6:80:53:85:
         70:02:21:00:c4:38:9c:bf:7c:17:9e:51:8d:82:1d:2d:07:64:
         ea:40:38:51:45:5e:1d:d5:c4:3a:0a:dd:e5:0e:87:39:c5:ff
-----BEGIN CERTIFICATE-----
MIIB8zCCAZigAwIBAgIBJjAKBggqhkjOPQQDAjCBmTEYMBYGA1UEAwwPUmVnaW9u
ZSBBYnJ1enpvMQswCQYDVQQGEwJJVDEPMA0GA1UECAwGSXRhbGlhMRgwFgYDVQQK
DA9FLVZvdGluZyBzeXN0ZW0xIjAgBgNVBAsMGUUtVm90aW5nIHN5c3RlbSBhdXRo
b3JpdHkxITAfBgkqhkiG9w0BCQEWEkFicnV6em9AZXZvdGluZy5pdDAeFw0yMjA4
MjYxNTIxMDBaFw0yMzA4MjYxNTIxMDBaMEkxDzANBgNVBAMMBkplYW5uZTELMAkG
A1UEBhMCSVQxDzANBgNVBAgMBkl0YWxpYTEYMBYGA1UECgwPUmVnaW9uZSBBYnJ1
enpvMFYwEAYHKoZIzj0CAQYFK4EEAAoDQgAE/C21/qjxI0SUBVCgLOGsuXqCWIxf
U6HZnnFPlr9Moann6AExqZRodEfqfrtUIu7jy1OSKKOTVXA0jm5pDtQdt6MjMCEw
DgYDVR0PAQH/BAQDAgWgMA8GA1UdEwEB/wQFMAMCAQMwCgYIKoZIzj0EAwIDSQAw
RgIhALUYcNvuIDwPhxA/PRVNdndH6OsI9wXs88nosOaAU4VwAiEAxDicv3wXnlGN
gh0tB2TqQDhRRV4d1cQ6Ct3lDoc5xf8=
-----END CERTIFICATE-----
