Certificate:
    Data:
        Version: 3 (0x2)
        Serial Number: 44 (0x2c)
        Signature Algorithm: ecdsa-with-SHA256
        Issuer: CN=Regione Piemonte, C=IT, ST=Italia, O=E-Voting system, OU=E-Voting system authority/emailAddress=Piemonte@evoting.it
        Validity
            Not Before: Aug 26 15:21:22 2022 GMT
            Not After : Aug 26 15:21:22 2023 GMT
        Subject: CN=Jean, C=IT, ST=Italia, O=Regione Piemonte
        Subject Public Key Info:
            Public Key Algorithm: id-ecPublicKey
                Public-Key: (256 bit)
                pub:
                    04:2c:fb:c5:ee:bc:9c:46:64:00:5e:b5:ff:b9:19:
                    7e:11:0e:c9:29:35:79:be:34:27:2e:94:7d:ff:38:
                    11:f7:e0:0f:8c:35:e2:c5:ea:e4:dd:67:93:d4:bd:
                    46:20:a7:6f:1f:03:f0:65:66:ab:82:d2:aa:49:82:
                    1d:f5:4f:c9:e6
                ASN1 OID: secp256k1
        X509v3 extensions:
            X509v3 Key Usage: critical
                Digital Signature, Key Encipherment
            X509v3 Basic Constraints: critical
                CA:FALSE, pathlen:3
    Signature Algorithm: ecdsa-with-SHA256
         30:44:02:20:79:ec:33:ff:89:8c:a7:68:07:3f:3e:7f:9b:06:
         18:48:03:8f:c0:b9:55:a6:04:e6:ca:a0:10:55:5b:05:a2:4e:
         02:20:27:7c:15:91:98:fd:16:1b:b0:d3:8c:5c:84:74:55:a0:
         5b:49:e7:c9:1e:22:f3:a4:85:42:e7:c1:4e:bd:b9:ff
-----BEGIN CERTIFICATE-----
MIIB8jCCAZmgAwIBAgIBLDAKBggqhkjOPQQDAjCBmzEZMBcGA1UEAwwQUmVnaW9u
ZSBQaWVtb250ZTELMAkGA1UEBhMCSVQxDzANBgNVBAgMBkl0YWxpYTEYMBYGA1UE
CgwPRS1Wb3Rpbmcgc3lzdGVtMSIwIAYDVQQLDBlFLVZvdGluZyBzeXN0ZW0gYXV0
aG9yaXR5MSIwIAYJKoZIhvcNAQkBFhNQaWVtb250ZUBldm90aW5nLml0MB4XDTIy
MDgyNjE1MjEyMloXDTIzMDgyNjE1MjEyMlowSDENMAsGA1UEAwwESmVhbjELMAkG
A1UEBhMCSVQxDzANBgNVBAgMBkl0YWxpYTEZMBcGA1UECgwQUmVnaW9uZSBQaWVt
b250ZTBWMBAGByqGSM49AgEGBSuBBAAKA0IABCz7xe68nEZkAF61/7kZfhEOySk1
eb40Jy6Uff84EffgD4w14sXq5N1nk9S9RiCnbx8D8GVmq4LSqkmCHfVPyeajIzAh
MA4GA1UdDwEB/wQEAwIFoDAPBgNVHRMBAf8EBTADAgEDMAoGCCqGSM49BAMCA0cA
MEQCIHnsM/+JjKdoBz8+f5sGGEgDj8C5VaYE5sqgEFVbBaJOAiAnfBWRmP0WG7DT
jFyEdFWgW0nnyR4i86SFQufBTr25/w==
-----END CERTIFICATE-----
