Certificate:
    Data:
        Version: 3 (0x2)
        Serial Number: 36 (0x24)
        Signature Algorithm: ecdsa-with-SHA256
        Issuer: CN=Regione Umbria, C=IT, ST=Italia, O=E-Voting system, OU=E-Voting system authority/emailAddress=Umbria@evoting.it
        Validity
            Not Before: Aug 26 15:20:54 2022 GMT
            Not After : Aug 26 15:20:54 2023 GMT
        Subject: CN=Jeffery, C=IT, ST=Italia, O=Regione Umbria
        Subject Public Key Info:
            Public Key Algorithm: id-ecPublicKey
                Public-Key: (256 bit)
                pub:
                    04:fc:5c:7b:e3:f0:f3:be:65:25:89:e4:91:e1:8d:
                    44:d0:a4:e5:14:5c:23:fd:15:3a:bb:76:60:f1:8a:
                    ee:fc:aa:73:87:02:3c:dd:60:ec:c1:95:7c:c2:c2:
                    bf:7d:d3:3f:4f:c5:e7:8a:ac:c2:e8:d9:1f:38:0a:
                    5a:8f:38:d2:45
                ASN1 OID: secp256k1
        X509v3 extensions:
            X509v3 Key Usage: critical
                Digital Signature, Key Encipherment
            X509v3 Basic Constraints: critical
                CA:FALSE, pathlen:3
    Signature Algorithm: ecdsa-with-SHA256
         30:45:02:21:00:87:51:01:f5:54:a1:00:ee:87:9f:04:ee:92:
         c5:e9:6b:14:f5:fd:e4:7e:75:b3:7c:5f:a7:75:88:30:63:43:
         98:02:20:08:75:b5:0e:8c:72:9d:f5:8c:ed:8b:4e:f5:38:c6:
         63:33:60:78:7d:76:4f:82:36:ae:96:99:fa:ac:38:5e:87
-----BEGIN CERTIFICATE-----
MIIB8DCCAZagAwIBAgIBJDAKBggqhkjOPQQDAjCBlzEXMBUGA1UEAwwOUmVnaW9u
ZSBVbWJyaWExCzAJBgNVBAYTAklUMQ8wDQYDVQQIDAZJdGFsaWExGDAWBgNVBAoM
D0UtVm90aW5nIHN5c3RlbTEiMCAGA1UECwwZRS1Wb3Rpbmcgc3lzdGVtIGF1dGhv
cml0eTEgMB4GCSqGSIb3DQEJARYRVW1icmlhQGV2b3RpbmcuaXQwHhcNMjIwODI2
MTUyMDU0WhcNMjMwODI2MTUyMDU0WjBJMRAwDgYDVQQDDAdKZWZmZXJ5MQswCQYD
VQQGEwJJVDEPMA0GA1UECAwGSXRhbGlhMRcwFQYDVQQKDA5SZWdpb25lIFVtYnJp
YTBWMBAGByqGSM49AgEGBSuBBAAKA0IABPxce+Pw875lJYnkkeGNRNCk5RRcI/0V
Ort2YPGK7vyqc4cCPN1g7MGVfMLCv33TP0/F54qswujZHzgKWo840kWjIzAhMA4G
A1UdDwEB/wQEAwIFoDAPBgNVHRMBAf8EBTADAgEDMAoGCCqGSM49BAMCA0gAMEUC
IQCHUQH1VKEA7oefBO6SxelrFPX95H51s3xfp3WIMGNDmAIgCHW1DoxynfWM7YtO
9TjGYzNgeH12T4I2rpaZ+qw4Xoc=
-----END CERTIFICATE-----
