Certificate:
    Data:
        Version: 3 (0x2)
        Serial Number: 19 (0x13)
        Signature Algorithm: ecdsa-with-SHA256
        Issuer: CN=Regione Campania, C=IT, ST=Italia, O=E-Voting system, OU=E-Voting system authority/emailAddress=Campania@evoting.it
        Validity
            Not Before: Aug 26 15:19:28 2022 GMT
            Not After : Aug 26 15:19:28 2023 GMT
        Subject: CN=Jeff, C=IT, ST=Italia, O=Regione Campania
        Subject Public Key Info:
            Public Key Algorithm: id-ecPublicKey
                Public-Key: (256 bit)
                pub:
                    04:59:39:1d:d8:30:65:1c:94:c6:ee:2a:06:31:53:
                    ff:e9:9c:47:45:2e:d2:59:31:f5:aa:74:78:04:0a:
                    9a:86:c7:d5:06:cc:b2:1c:89:a7:57:fe:2b:4f:34:
                    76:33:ba:78:13:16:4f:9f:6c:74:35:1b:df:10:68:
                    12:70:c2:e9:b0
                ASN1 OID: secp256k1
        X509v3 extensions:
            X509v3 Key Usage: critical
                Digital Signature, Key Encipherment
            X509v3 Basic Constraints: critical
                CA:FALSE, pathlen:3
    Signature Algorithm: ecdsa-with-SHA256
         30:44:02:20:54:07:58:b1:4c:ce:e9:b9:ce:5e:fc:62:e1:87:
         01:ad:8c:a5:8f:09:11:e2:60:c2:d2:fa:a5:aa:46:0f:4e:0c:
         02:20:4e:15:ca:72:49:fe:ce:b1:ef:de:fc:5f:b9:b2:eb:7f:
         75:de:ba:03:ed:eb:c7:ff:d1:15:c4:8c:a3:2c:ae:92
-----BEGIN CERTIFICATE-----
MIIB8jCCAZmgAwIBAgIBEzAKBggqhkjOPQQDAjCBmzEZMBcGA1UEAwwQUmVnaW9u
ZSBDYW1wYW5pYTELMAkGA1UEBhMCSVQxDzANBgNVBAgMBkl0YWxpYTEYMBYGA1UE
CgwPRS1Wb3Rpbmcgc3lzdGVtMSIwIAYDVQQLDBlFLVZvdGluZyBzeXN0ZW0gYXV0
aG9yaXR5MSIwIAYJKoZIhvcNAQkBFhNDYW1wYW5pYUBldm90aW5nLml0MB4XDTIy
MDgyNjE1MTkyOFoXDTIzMDgyNjE1MTkyOFowSDENMAsGA1UEAwwESmVmZjELMAkG
A1UEBhMCSVQxDzANBgNVBAgMBkl0YWxpYTEZMBcGA1UECgwQUmVnaW9uZSBDYW1w
YW5pYTBWMBAGByqGSM49AgEGBSuBBAAKA0IABFk5HdgwZRyUxu4qBjFT/+mcR0Uu
0lkx9ap0eAQKmobH1QbMshyJp1f+K080djO6eBMWT59sdDUb3xBoEnDC6bCjIzAh
MA4GA1UdDwEB/wQEAwIFoDAPBgNVHRMBAf8EBTADAgEDMAoGCCqGSM49BAMCA0cA
MEQCIFQHWLFMzum5zl78YuGHAa2MpY8JEeJgwtL6papGD04MAiBOFcpySf7Ose/e
/F+5sut/dd66A+3rx//RFcSMoyyukg==
-----END CERTIFICATE-----
