Certificate:
    Data:
        Version: 3 (0x2)
        Serial Number: 28 (0x1c)
        Signature Algorithm: ecdsa-with-SHA256
        Issuer: CN=Regione Trentino_Alto_Adige, C=IT, ST=Italia, O=E-Voting system, OU=E-Voting system authority/emailAddress=Trentino_Alto_Adige@evoting.it
        Validity
            Not Before: Aug  3 13:27:37 2022 GMT
            Not After : Aug  3 13:27:37 2023 GMT
        Subject: CN=Jeffry, C=IT, ST=Italia, O=Regione Trentino_Alto_Adige
        Subject Public Key Info:
            Public Key Algorithm: id-ecPublicKey
                Public-Key: (256 bit)
                pub:
                    04:e4:1d:03:77:3e:08:b2:d8:70:a8:4e:bd:68:95:
                    c5:f5:43:96:90:60:80:a8:a6:49:47:84:46:23:72:
                    2b:54:94:99:98:0d:d2:b1:f0:81:40:ac:18:b0:ea:
                    63:3a:d3:41:4e:c1:09:64:bd:31:3b:a7:89:2e:69:
                    6b:a2:82:04:4d
                ASN1 OID: prime256v1
                NIST CURVE: P-256
        X509v3 extensions:
            X509v3 Key Usage: critical
                Digital Signature, Key Encipherment
            X509v3 Basic Constraints: critical
                CA:FALSE, pathlen:3
    Signature Algorithm: ecdsa-with-SHA256
         30:45:02:21:00:ce:de:95:a5:09:b9:39:a6:1c:b4:fa:62:b7:
         56:d4:96:6e:2c:4c:22:ad:ac:b7:6e:fe:5c:2e:5f:b5:a5:fb:
         a4:02:20:1e:bb:ae:ff:9f:d8:99:99:a4:0f:b0:c2:a4:b5:67:
         ca:18:55:e2:dd:d2:50:60:a9:8a:bc:17:9f:81:49:48:9d
-----BEGIN CERTIFICATE-----
MIICGTCCAb+gAwIBAgIBHDAKBggqhkjOPQQDAjCBsTEkMCIGA1UEAwwbUmVnaW9u
ZSBUcmVudGlub19BbHRvX0FkaWdlMQswCQYDVQQGEwJJVDEPMA0GA1UECAwGSXRh
bGlhMRgwFgYDVQQKDA9FLVZvdGluZyBzeXN0ZW0xIjAgBgNVBAsMGUUtVm90aW5n
IHN5c3RlbSBhdXRob3JpdHkxLTArBgkqhkiG9w0BCQEWHlRyZW50aW5vX0FsdG9f
QWRpZ2VAZXZvdGluZy5pdDAeFw0yMjA4MDMxMzI3MzdaFw0yMzA4MDMxMzI3Mzda
MFUxDzANBgNVBAMMBkplZmZyeTELMAkGA1UEBhMCSVQxDzANBgNVBAgMBkl0YWxp
YTEkMCIGA1UECgwbUmVnaW9uZSBUcmVudGlub19BbHRvX0FkaWdlMFkwEwYHKoZI
zj0CAQYIKoZIzj0DAQcDQgAE5B0Ddz4IsthwqE69aJXF9UOWkGCAqKZJR4RGI3Ir
VJSZmA3SsfCBQKwYsOpjOtNBTsEJZL0xO6eJLmlrooIETaMjMCEwDgYDVR0PAQH/
BAQDAgWgMA8GA1UdEwEB/wQFMAMCAQMwCgYIKoZIzj0EAwIDSAAwRQIhAM7elaUJ
uTmmHLT6YrdW1JZuLEwiray3bv5cLl+1pfukAiAeu67/n9iZmaQPsMKktWfKGFXi
3dJQYKmKvBefgUlInQ==
-----END CERTIFICATE-----
