Certificate:
    Data:
        Version: 3 (0x2)
        Serial Number: 6 (0x6)
        Signature Algorithm: ecdsa-with-SHA256
        Issuer: CN=Regione Piemonte, C=IT, ST=Italia, O=E-Voting system, OU=E-Voting system authority/emailAddress=Piemonte@evoting.it
        Validity
            Not Before: Aug 26 15:18:50 2022 GMT
            Not After : Aug 26 15:18:50 2023 GMT
        Subject: CN=Jeffrey, C=IT, ST=Italia, O=Regione Piemonte
        Subject Public Key Info:
            Public Key Algorithm: id-ecPublicKey
                Public-Key: (256 bit)
                pub:
                    04:bb:2b:8c:72:2e:9a:d6:f5:1f:b3:af:93:1c:55:
                    e5:4f:11:ed:45:4c:44:aa:6c:ef:6d:c0:3d:96:06:
                    1d:a7:c6:81:05:55:3f:c0:6d:d1:77:9b:e8:3e:32:
                    8c:1a:6b:e2:a9:ab:44:21:98:5f:98:39:ba:31:4e:
                    5c:6a:f1:37:9f
                ASN1 OID: secp256k1
        X509v3 extensions:
            X509v3 Key Usage: critical
                Digital Signature, Key Encipherment
            X509v3 Basic Constraints: critical
                CA:FALSE, pathlen:3
    Signature Algorithm: ecdsa-with-SHA256
         30:44:02:20:09:ac:10:4d:93:47:91:24:a7:b7:85:1a:97:2b:
         b7:d6:b4:41:43:d1:36:9b:7a:06:0a:3f:e7:d4:1c:ca:65:be:
         02:20:3d:6e:c3:90:0a:6a:57:17:c6:d9:ef:e3:95:c0:d2:1d:
         55:db:2f:9b:91:f3:af:7c:76:63:28:cd:30:9b:93:85
-----BEGIN CERTIFICATE-----
MIIB9TCCAZygAwIBAgIBBjAKBggqhkjOPQQDAjCBmzEZMBcGA1UEAwwQUmVnaW9u
ZSBQaWVtb250ZTELMAkGA1UEBhMCSVQxDzANBgNVBAgMBkl0YWxpYTEYMBYGA1UE
CgwPRS1Wb3Rpbmcgc3lzdGVtMSIwIAYDVQQLDBlFLVZvdGluZyBzeXN0ZW0gYXV0
aG9yaXR5MSIwIAYJKoZIhvcNAQkBFhNQaWVtb250ZUBldm90aW5nLml0MB4XDTIy
MDgyNjE1MTg1MFoXDTIzMDgyNjE1MTg1MFowSzEQMA4GA1UEAwwHSmVmZnJleTEL
MAkGA1UEBhMCSVQxDzANBgNVBAgMBkl0YWxpYTEZMBcGA1UECgwQUmVnaW9uZSBQ
aWVtb250ZTBWMBAGByqGSM49AgEGBSuBBAAKA0IABLsrjHIumtb1H7OvkxxV5U8R
7UVMRKps723APZYGHafGgQVVP8Bt0Xeb6D4yjBpr4qmrRCGYX5g5ujFOXGrxN5+j
IzAhMA4GA1UdDwEB/wQEAwIFoDAPBgNVHRMBAf8EBTADAgEDMAoGCCqGSM49BAMC
A0cAMEQCIAmsEE2TR5Ekp7eFGpcrt9a0QUPRNpt6Bgo/59QcymW+AiA9bsOQCmpX
F8bZ7+OVwNIdVdsvm5Hzr3x2YyjNMJuThQ==
-----END CERTIFICATE-----
