Certificate:
    Data:
        Version: 3 (0x2)
        Serial Number: 34 (0x22)
        Signature Algorithm: ecdsa-with-SHA256
        Issuer: CN=Regione Abruzzo, C=IT, ST=Italia, O=E-Voting system, OU=E-Voting system authority/emailAddress=Abruzzo@evoting.it
        Validity
            Not Before: Aug  3 13:27:17 2022 GMT
            Not After : Aug  3 13:27:17 2023 GMT
        Subject: CN=Jennie, C=IT, ST=Italia, O=Regione Abruzzo
        Subject Public Key Info:
            Public Key Algorithm: id-ecPublicKey
                Public-Key: (256 bit)
                pub:
                    04:21:cb:d5:6c:e2:9c:e7:72:72:b1:c3:ab:7d:3a:
                    02:99:f1:40:6d:56:f8:d9:25:0a:90:72:cb:f1:51:
                    49:c9:77:e3:96:68:20:2d:d3:af:8c:2e:6f:74:37:
                    14:06:17:f2:e8:51:19:35:c0:08:43:fe:84:7d:2a:
                    2c:b5:18:b9:35
                ASN1 OID: prime256v1
                NIST CURVE: P-256
        X509v3 extensions:
            X509v3 Key Usage: critical
                Digital Signature, Key Encipherment
            X509v3 Basic Constraints: critical
                CA:FALSE, pathlen:3
    Signature Algorithm: ecdsa-with-SHA256
         30:45:02:21:00:a4:4e:38:d2:e5:e1:5c:93:f8:15:3e:34:13:
         40:a3:f8:91:4f:1e:b7:79:7d:be:9d:22:94:d9:d8:f7:74:a5:
         28:02:20:0b:2d:92:6a:a5:05:e6:45:0d:46:43:a8:16:53:2a:
         e3:73:36:63:94:46:38:a0:45:a4:a6:a5:a4:5c:27:f9:5a
-----BEGIN CERTIFICATE-----
MIIB9TCCAZugAwIBAgIBIjAKBggqhkjOPQQDAjCBmTEYMBYGA1UEAwwPUmVnaW9u
ZSBBYnJ1enpvMQswCQYDVQQGEwJJVDEPMA0GA1UECAwGSXRhbGlhMRgwFgYDVQQK
DA9FLVZvdGluZyBzeXN0ZW0xIjAgBgNVBAsMGUUtVm90aW5nIHN5c3RlbSBhdXRo
b3JpdHkxITAfBgkqhkiG9w0BCQEWEkFicnV6em9AZXZvdGluZy5pdDAeFw0yMjA4
MDMxMzI3MTdaFw0yMzA4MDMxMzI3MTdaMEkxDzANBgNVBAMMBkplbm5pZTELMAkG
A1UEBhMCSVQxDzANBgNVBAgMBkl0YWxpYTEYMBYGA1UECgwPUmVnaW9uZSBBYnJ1
enpvMFkwEwYHKoZIzj0CAQYIKoZIzj0DAQcDQgAEIcvVbOKc53JyscOrfToCmfFA
bVb42SUKkHLL8VFJyXfjlmggLdOvjC5vdDcUBhfy6FEZNcAIQ/6EfSostRi5NaMj
MCEwDgYDVR0PAQH/BAQDAgWgMA8GA1UdEwEB/wQFMAMCAQMwCgYIKoZIzj0EAwID
SAAwRQIhAKROONLl4VyT+BU+NBNAo/iRTx63eX2+nSKU2dj3dKUoAiALLZJqpQXm
RQ1GQ6gWUyrjczZjlEY4oEWkpqWkXCf5Wg==
-----END CERTIFICATE-----
