Certificate:
    Data:
        Version: 3 (0x2)
        Serial Number: 45 (0x2d)
        Signature Algorithm: ecdsa-with-SHA256
        Issuer: CN=Regione Puglia, C=IT, ST=Italia, O=E-Voting system, OU=E-Voting system authority/emailAddress=Puglia@evoting.it
        Validity
            Not Before: Aug  3 13:28:51 2022 GMT
            Not After : Aug  3 13:28:51 2023 GMT
        Subject: CN=Jenny, C=IT, ST=Italia, O=Regione Puglia
        Subject Public Key Info:
            Public Key Algorithm: id-ecPublicKey
                Public-Key: (256 bit)
                pub:
                    04:3f:fc:1f:61:94:28:53:88:8b:8d:17:c2:4f:df:
                    82:fe:a0:d1:30:32:2c:3f:b8:4d:8c:d9:c1:cf:69:
                    04:20:d6:0f:86:c8:9e:a8:23:ff:b9:5d:86:e2:d8:
                    a4:37:87:14:68:97:59:2c:ef:1c:b9:01:4b:8c:f7:
                    3e:71:d2:eb:07
                ASN1 OID: prime256v1
                NIST CURVE: P-256
        X509v3 extensions:
            X509v3 Key Usage: critical
                Digital Signature, Key Encipherment
            X509v3 Basic Constraints: critical
                CA:FALSE, pathlen:3
    Signature Algorithm: ecdsa-with-SHA256
         30:45:02:20:71:ef:53:ec:2c:2b:97:66:c2:04:31:29:d2:59:
         38:f8:ed:36:2b:81:22:2d:c4:b2:bf:24:2e:af:06:06:a1:e0:
         02:21:00:83:03:42:6f:66:87:cc:13:b6:65:f6:13:31:a1:e4:
         5d:8d:97:fa:7b:12:97:66:97:30:5f:b3:fa:ad:0c:68:a3
-----BEGIN CERTIFICATE-----
MIIB8TCCAZegAwIBAgIBLTAKBggqhkjOPQQDAjCBlzEXMBUGA1UEAwwOUmVnaW9u
ZSBQdWdsaWExCzAJBgNVBAYTAklUMQ8wDQYDVQQIDAZJdGFsaWExGDAWBgNVBAoM
D0UtVm90aW5nIHN5c3RlbTEiMCAGA1UECwwZRS1Wb3Rpbmcgc3lzdGVtIGF1dGhv
cml0eTEgMB4GCSqGSIb3DQEJARYRUHVnbGlhQGV2b3RpbmcuaXQwHhcNMjIwODAz
MTMyODUxWhcNMjMwODAzMTMyODUxWjBHMQ4wDAYDVQQDDAVKZW5ueTELMAkGA1UE
BhMCSVQxDzANBgNVBAgMBkl0YWxpYTEXMBUGA1UECgwOUmVnaW9uZSBQdWdsaWEw
WTATBgcqhkjOPQIBBggqhkjOPQMBBwNCAAQ//B9hlChTiIuNF8JP34L+oNEwMiw/
uE2M2cHPaQQg1g+GyJ6oI/+5XYbi2KQ3hxRol1ks7xy5AUuM9z5x0usHoyMwITAO
BgNVHQ8BAf8EBAMCBaAwDwYDVR0TAQH/BAUwAwIBAzAKBggqhkjOPQQDAgNIADBF
AiBx71PsLCuXZsIEMSnSWTj47TYrgSItxLK/JC6vBgah4AIhAIMDQm9mh8wTtmX2
EzGh5F2Nl/p7EpdmlzBfs/qtDGij
-----END CERTIFICATE-----
