Certificate:
    Data:
        Version: 3 (0x2)
        Serial Number: 45 (0x2d)
        Signature Algorithm: ecdsa-with-SHA256
        Issuer: CN=Regione Abruzzo, C=IT, ST=Italia, O=E-Voting system, OU=E-Voting system authority/emailAddress=Abruzzo@evoting.it
        Validity
            Not Before: Aug 26 15:21:29 2022 GMT
            Not After : Aug 26 15:21:29 2023 GMT
        Subject: CN=Jennifer, C=IT, ST=Italia, O=Regione Abruzzo
        Subject Public Key Info:
            Public Key Algorithm: id-ecPublicKey
                Public-Key: (256 bit)
                pub:
                    04:25:84:e6:00:d4:df:27:8c:59:60:36:09:8d:e3:
                    e5:d2:09:ef:2c:3e:e3:6b:58:2e:0e:b7:4b:5c:32:
                    ea:81:9c:d8:5b:4a:4e:3f:75:a8:8c:0b:04:bb:a3:
                    e5:f8:33:3f:cc:a4:52:d5:bc:30:b5:98:28:1d:91:
                    46:22:e0:c8:65
                ASN1 OID: secp256k1
        X509v3 extensions:
            X509v3 Key Usage: critical
                Digital Signature, Key Encipherment
            X509v3 Basic Constraints: critical
                CA:FALSE, pathlen:3
    Signature Algorithm: ecdsa-with-SHA256
         30:45:02:20:32:24:ca:df:c7:86:0a:94:f7:b7:c4:f2:ad:ca:
         5e:28:3c:17:56:97:fa:1e:b6:79:b5:3f:3f:38:aa:b1:2d:6c:
         02:21:00:93:89:52:cf:aa:09:9e:1f:62:eb:0a:fa:2d:93:dd:
         47:b4:5a:7e:9f:f7:a1:d9:f2:1f:cc:8f:b4:7e:21:90:b5
-----BEGIN CERTIFICATE-----
MIIB9DCCAZqgAwIBAgIBLTAKBggqhkjOPQQDAjCBmTEYMBYGA1UEAwwPUmVnaW9u
ZSBBYnJ1enpvMQswCQYDVQQGEwJJVDEPMA0GA1UECAwGSXRhbGlhMRgwFgYDVQQK
DA9FLVZvdGluZyBzeXN0ZW0xIjAgBgNVBAsMGUUtVm90aW5nIHN5c3RlbSBhdXRo
b3JpdHkxITAfBgkqhkiG9w0BCQEWEkFicnV6em9AZXZvdGluZy5pdDAeFw0yMjA4
MjYxNTIxMjlaFw0yMzA4MjYxNTIxMjlaMEsxETAPBgNVBAMMCEplbm5pZmVyMQsw
CQYDVQQGEwJJVDEPMA0GA1UECAwGSXRhbGlhMRgwFgYDVQQKDA9SZWdpb25lIEFi
cnV6em8wVjAQBgcqhkjOPQIBBgUrgQQACgNCAAQlhOYA1N8njFlgNgmN4+XSCe8s
PuNrWC4Ot0tcMuqBnNhbSk4/daiMCwS7o+X4Mz/MpFLVvDC1mCgdkUYi4MhloyMw
ITAOBgNVHQ8BAf8EBAMCBaAwDwYDVR0TAQH/BAUwAwIBAzAKBggqhkjOPQQDAgNI
ADBFAiAyJMrfx4YKlPe3xPKtyl4oPBdWl/oetnm1Pz84qrEtbAIhAJOJUs+qCZ4f
YusK+i2T3Ue0Wn6f96HZ8h/Mj7R+IZC1
-----END CERTIFICATE-----
