Certificate:
    Data:
        Version: 3 (0x2)
        Serial Number: 53 (0x35)
        Signature Algorithm: ecdsa-with-SHA256
        Issuer: CN=Regione Trentino_Alto_Adige, C=IT, ST=Italia, O=E-Voting system, OU=E-Voting system authority/emailAddress=Trentino_Alto_Adige@evoting.it
        Validity
            Not Before: Aug 26 15:21:41 2022 GMT
            Not After : Aug 26 15:21:41 2023 GMT
        Subject: CN=Jerald, C=IT, ST=Italia, O=Regione Trentino_Alto_Adige
        Subject Public Key Info:
            Public Key Algorithm: id-ecPublicKey
                Public-Key: (256 bit)
                pub:
                    04:bf:4b:18:dc:1a:84:df:f6:4c:32:9a:c1:b1:1c:
                    76:db:d2:49:d0:d6:3b:93:41:f6:44:56:e8:60:ab:
                    2a:07:c8:26:92:d5:04:83:bd:2b:66:8a:be:b6:5b:
                    42:7b:4f:ee:b4:1f:12:c3:78:fa:ce:92:a2:8e:dd:
                    e7:73:21:18:7d
                ASN1 OID: secp256k1
        X509v3 extensions:
            X509v3 Key Usage: critical
                Digital Signature, Key Encipherment
            X509v3 Basic Constraints: critical
                CA:FALSE, pathlen:3
    Signature Algorithm: ecdsa-with-SHA256
         30:45:02:21:00:a6:fc:b3:7d:9e:1a:81:75:75:49:35:f1:29:
         cf:3d:36:fe:5a:e3:a5:74:97:c1:20:a6:49:ac:08:45:be:12:
         7b:02:20:64:17:ef:87:6b:fe:a2:eb:06:5b:2d:14:39:62:c1:
         d1:9c:e3:9b:f3:b3:56:6e:74:1e:4c:2e:8e:f6:90:ab:87
-----BEGIN CERTIFICATE-----
MIICFjCCAbygAwIBAgIBNTAKBggqhkjOPQQDAjCBsTEkMCIGA1UEAwwbUmVnaW9u
ZSBUcmVudGlub19BbHRvX0FkaWdlMQswCQYDVQQGEwJJVDEPMA0GA1UECAwGSXRh
bGlhMRgwFgYDVQQKDA9FLVZvdGluZyBzeXN0ZW0xIjAgBgNVBAsMGUUtVm90aW5n
IHN5c3RlbSBhdXRob3JpdHkxLTArBgkqhkiG9w0BCQEWHlRyZW50aW5vX0FsdG9f
QWRpZ2VAZXZvdGluZy5pdDAeFw0yMjA4MjYxNTIxNDFaFw0yMzA4MjYxNTIxNDFa
MFUxDzANBgNVBAMMBkplcmFsZDELMAkGA1UEBhMCSVQxDzANBgNVBAgMBkl0YWxp
YTEkMCIGA1UECgwbUmVnaW9uZSBUcmVudGlub19BbHRvX0FkaWdlMFYwEAYHKoZI
zj0CAQYFK4EEAAoDQgAEv0sY3BqE3/ZMMprBsRx229JJ0NY7k0H2RFboYKsqB8gm
ktUEg70rZoq+tltCe0/utB8Sw3j6zpKijt3ncyEYfaMjMCEwDgYDVR0PAQH/BAQD
AgWgMA8GA1UdEwEB/wQFMAMCAQMwCgYIKoZIzj0EAwIDSAAwRQIhAKb8s32eGoF1
dUk18SnPPTb+WuOldJfBIKZJrAhFvhJ7AiBkF++Ha/6i6wZbLRQ5YsHRnOOb87NW
bnQeTC6O9pCrhw==
-----END CERTIFICATE-----
