Certificate:
    Data:
        Version: 3 (0x2)
        Serial Number: 32 (0x20)
        Signature Algorithm: ecdsa-with-SHA256
        Issuer: CN=Regione Molise, C=IT, ST=Italia, O=E-Voting system, OU=E-Voting system authority/emailAddress=Molise@evoting.it
        Validity
            Not Before: Aug  3 13:27:23 2022 GMT
            Not After : Aug  3 13:27:23 2023 GMT
        Subject: CN=Jeremiah, C=IT, ST=Italia, O=Regione Molise
        Subject Public Key Info:
            Public Key Algorithm: id-ecPublicKey
                Public-Key: (256 bit)
                pub:
                    04:ab:01:5c:3b:5f:cd:d4:7e:10:00:0e:47:9f:9f:
                    20:b9:f2:ca:ea:61:06:06:c9:3e:8a:e0:97:d9:49:
                    e6:99:6e:30:d9:69:0f:06:50:16:82:e9:13:7b:ea:
                    00:67:bf:47:b2:00:1d:c6:2d:82:5a:f3:4d:88:9e:
                    4d:8a:dd:87:53
                ASN1 OID: prime256v1
                NIST CURVE: P-256
        X509v3 extensions:
            X509v3 Key Usage: critical
                Digital Signature, Key Encipherment
            X509v3 Basic Constraints: critical
                CA:FALSE, pathlen:3
    Signature Algorithm: ecdsa-with-SHA256
         30:45:02:20:45:69:8a:ad:f3:f7:76:3f:e7:03:a3:c2:78:36:
         04:65:8e:87:86:e5:6a:1c:5e:cf:2b:2e:9a:3f:e6:f7:1e:07:
         02:21:00:d7:cc:71:d7:a1:9d:44:79:40:fd:f2:6c:9f:81:fc:
         b5:35:da:64:a7:09:cc:76:3e:0a:e7:4d:fc:d9:62:73:6a
-----BEGIN CERTIFICATE-----
MIIB9DCCAZqgAwIBAgIBIDAKBggqhkjOPQQDAjCBlzEXMBUGA1UEAwwOUmVnaW9u
ZSBNb2xpc2UxCzAJBgNVBAYTAklUMQ8wDQYDVQQIDAZJdGFsaWExGDAWBgNVBAoM
D0UtVm90aW5nIHN5c3RlbTEiMCAGA1UECwwZRS1Wb3Rpbmcgc3lzdGVtIGF1dGhv
cml0eTEgMB4GCSqGSIb3DQEJARYRTW9saXNlQGV2b3RpbmcuaXQwHhcNMjIwODAz
MTMyNzIzWhcNMjMwODAzMTMyNzIzWjBKMREwDwYDVQQDDAhKZXJlbWlhaDELMAkG
A1UEBhMCSVQxDzANBgNVBAgMBkl0YWxpYTEXMBUGA1UECgwOUmVnaW9uZSBNb2xp
c2UwWTATBgcqhkjOPQIBBggqhkjOPQMBBwNCAASrAVw7X83UfhAADkefnyC58srq
YQYGyT6K4JfZSeaZbjDZaQ8GUBaC6RN76gBnv0eyAB3GLYJa802Ink2K3YdToyMw
ITAOBgNVHQ8BAf8EBAMCBaAwDwYDVR0TAQH/BAUwAwIBAzAKBggqhkjOPQQDAgNI
ADBFAiBFaYqt8/d2P+cDo8J4NgRljoeG5WocXs8rLpo/5vceBwIhANfMcdehnUR5
QP3ybJ+B/LU12mSnCcx2PgrnTfzZYnNq
-----END CERTIFICATE-----
