Certificate:
    Data:
        Version: 3 (0x2)
        Serial Number: 10 (0xa)
        Signature Algorithm: ecdsa-with-SHA256
        Issuer: CN=Regione Marche, C=IT, ST=Italia, O=E-Voting system, OU=E-Voting system authority/emailAddress=Marche@evoting.it
        Validity
            Not Before: Aug 26 15:19:12 2022 GMT
            Not After : Aug 26 15:19:12 2023 GMT
        Subject: CN=Jeremy, C=IT, ST=Italia, O=Regione Marche
        Subject Public Key Info:
            Public Key Algorithm: id-ecPublicKey
                Public-Key: (256 bit)
                pub:
                    04:4a:21:a4:ec:8e:42:0b:9c:46:ec:d8:0c:40:3e:
                    20:66:8c:06:02:56:66:82:38:35:dd:fd:fc:36:dd:
                    d0:e3:85:98:48:89:38:79:09:d6:9e:96:b7:04:69:
                    19:c2:d5:32:27:7f:82:27:f1:29:69:9e:93:33:05:
                    10:f1:7b:d0:cc
                ASN1 OID: secp256k1
        X509v3 extensions:
            X509v3 Key Usage: critical
                Digital Signature, Key Encipherment
            X509v3 Basic Constraints: critical
                CA:FALSE, pathlen:3
    Signature Algorithm: ecdsa-with-SHA256
         30:45:02:20:43:2e:b1:31:a7:30:e1:7f:dc:a8:e8:f7:8a:87:
         46:c8:ec:ab:3b:fb:ac:53:d2:3b:b5:69:42:c3:f0:4a:c2:55:
         02:21:00:a5:51:4b:c5:0d:27:67:08:3a:71:21:a7:29:16:a2:
         00:19:b1:a8:e1:ee:43:ac:43:0e:6f:e2:37:ee:b5:66:72
-----BEGIN CERTIFICATE-----
MIIB7zCCAZWgAwIBAgIBCjAKBggqhkjOPQQDAjCBlzEXMBUGA1UEAwwOUmVnaW9u
ZSBNYXJjaGUxCzAJBgNVBAYTAklUMQ8wDQYDVQQIDAZJdGFsaWExGDAWBgNVBAoM
D0UtVm90aW5nIHN5c3RlbTEiMCAGA1UECwwZRS1Wb3Rpbmcgc3lzdGVtIGF1dGhv
cml0eTEgMB4GCSqGSIb3DQEJARYRTWFyY2hlQGV2b3RpbmcuaXQwHhcNMjIwODI2
MTUxOTEyWhcNMjMwODI2MTUxOTEyWjBIMQ8wDQYDVQQDDAZKZXJlbXkxCzAJBgNV
BAYTAklUMQ8wDQYDVQQIDAZJdGFsaWExFzAVBgNVBAoMDlJlZ2lvbmUgTWFyY2hl
MFYwEAYHKoZIzj0CAQYFK4EEAAoDQgAESiGk7I5CC5xG7NgMQD4gZowGAlZmgjg1
3f38Nt3Q44WYSIk4eQnWnpa3BGkZwtUyJ3+CJ/EpaZ6TMwUQ8XvQzKMjMCEwDgYD
VR0PAQH/BAQDAgWgMA8GA1UdEwEB/wQFMAMCAQMwCgYIKoZIzj0EAwIDSAAwRQIg
Qy6xMacw4X/cqOj3iodGyOyrO/usU9I7tWlCw/BKwlUCIQClUUvFDSdnCDpxIacp
FqIAGbGo4e5DrEMOb+I37rVmcg==
-----END CERTIFICATE-----
