Certificate:
    Data:
        Version: 3 (0x2)
        Serial Number: 44 (0x2c)
        Signature Algorithm: ecdsa-with-SHA256
        Issuer: CN=Regione Campania, C=IT, ST=Italia, O=E-Voting system, OU=E-Voting system authority/emailAddress=Campania@evoting.it
        Validity
            Not Before: Aug 26 15:21:39 2022 GMT
            Not After : Aug 26 15:21:39 2023 GMT
        Subject: CN=Jesenia, C=IT, ST=Italia, O=Regione Campania
        Subject Public Key Info:
            Public Key Algorithm: id-ecPublicKey
                Public-Key: (256 bit)
                pub:
                    04:f5:73:2d:c5:a4:f8:e4:d7:31:38:68:7d:b6:b3:
                    7c:c6:33:4f:24:1c:78:9c:61:89:97:d1:a4:8d:19:
                    67:33:94:de:2f:bd:52:29:73:b9:72:59:15:10:43:
                    77:80:e3:22:93:27:5d:dc:b2:c6:d2:c5:55:51:3d:
                    5d:69:26:90:c3
                ASN1 OID: secp256k1
        X509v3 extensions:
            X509v3 Key Usage: critical
                Digital Signature, Key Encipherment
            X509v3 Basic Constraints: critical
                CA:FALSE, pathlen:3
    Signature Algorithm: ecdsa-with-SHA256
         30:45:02:20:72:15:5f:d1:87:09:ee:c2:cb:d7:47:0f:04:1d:
         a0:9b:9a:dc:8f:37:3b:ff:09:de:88:54:0a:ff:78:b7:69:4a:
         02:21:00:cd:92:3f:28:30:ff:a9:f3:aa:d2:ba:2a:5c:5f:ac:
         b8:14:7d:40:87:2d:0d:b7:04:07:5f:99:78:2b:d5:2c:23
-----BEGIN CERTIFICATE-----
MIIB9jCCAZygAwIBAgIBLDAKBggqhkjOPQQDAjCBmzEZMBcGA1UEAwwQUmVnaW9u
ZSBDYW1wYW5pYTELMAkGA1UEBhMCSVQxDzANBgNVBAgMBkl0YWxpYTEYMBYGA1UE
CgwPRS1Wb3Rpbmcgc3lzdGVtMSIwIAYDVQQLDBlFLVZvdGluZyBzeXN0ZW0gYXV0
aG9yaXR5MSIwIAYJKoZIhvcNAQkBFhNDYW1wYW5pYUBldm90aW5nLml0MB4XDTIy
MDgyNjE1MjEzOVoXDTIzMDgyNjE1MjEzOVowSzEQMA4GA1UEAwwHSmVzZW5pYTEL
MAkGA1UEBhMCSVQxDzANBgNVBAgMBkl0YWxpYTEZMBcGA1UECgwQUmVnaW9uZSBD
YW1wYW5pYTBWMBAGByqGSM49AgEGBSuBBAAKA0IABPVzLcWk+OTXMThofbazfMYz
TyQceJxhiZfRpI0ZZzOU3i+9UilzuXJZFRBDd4DjIpMnXdyyxtLFVVE9XWkmkMOj
IzAhMA4GA1UdDwEB/wQEAwIFoDAPBgNVHRMBAf8EBTADAgEDMAoGCCqGSM49BAMC
A0gAMEUCIHIVX9GHCe7Cy9dHDwQdoJua3I83O/8J3ohUCv94t2lKAiEAzZI/KDD/
qfOq0roqXF+suBR9QIctDbcEB1+ZeCvVLCM=
-----END CERTIFICATE-----
