Certificate:
    Data:
        Version: 3 (0x2)
        Serial Number: 19 (0x13)
        Signature Algorithm: ecdsa-with-SHA256
        Issuer: CN=Regione Trentino_Alto_Adige, C=IT, ST=Italia, O=E-Voting system, OU=E-Voting system authority/emailAddress=Trentino_Alto_Adige@evoting.it
        Validity
            Not Before: Aug 26 15:19:47 2022 GMT
            Not After : Aug 26 15:19:47 2023 GMT
        Subject: CN=Jessie, C=IT, ST=Italia, O=Regione Trentino_Alto_Adige
        Subject Public Key Info:
            Public Key Algorithm: id-ecPublicKey
                Public-Key: (256 bit)
                pub:
                    04:20:14:73:1e:51:ab:6a:e9:63:d3:e7:81:f8:6f:
                    ef:9a:db:a4:e6:cf:e8:59:61:d4:e7:46:a6:37:6b:
                    00:f4:77:95:d3:12:9e:65:0a:c1:e8:fc:b6:52:29:
                    ea:0a:cb:f1:60:dc:08:05:af:13:32:93:73:a4:10:
                    7a:3a:6e:53:4f
                ASN1 OID: secp256k1
        X509v3 extensions:
            X509v3 Key Usage: critical
                Digital Signature, Key Encipherment
            X509v3 Basic Constraints: critical
                CA:FALSE, pathlen:3
    Signature Algorithm: ecdsa-with-SHA256
         30:45:02:20:31:fd:ca:78:71:97:60:a3:79:60:18:0f:5e:a9:
         05:27:40:42:56:3f:aa:3b:ef:50:6c:86:d8:dd:92:ec:da:85:
         02:21:00:ef:bd:71:bf:61:11:01:f2:8b:d1:70:89:51:e4:cc:
         2c:60:32:33:0d:cf:15:1c:32:df:fc:56:6e:0e:a7:08:83
-----BEGIN CERTIFICATE-----
MIICFjCCAbygAwIBAgIBEzAKBggqhkjOPQQDAjCBsTEkMCIGA1UEAwwbUmVnaW9u
ZSBUcmVudGlub19BbHRvX0FkaWdlMQswCQYDVQQGEwJJVDEPMA0GA1UECAwGSXRh
bGlhMRgwFgYDVQQKDA9FLVZvdGluZyBzeXN0ZW0xIjAgBgNVBAsMGUUtVm90aW5n
IHN5c3RlbSBhdXRob3JpdHkxLTArBgkqhkiG9w0BCQEWHlRyZW50aW5vX0FsdG9f
QWRpZ2VAZXZvdGluZy5pdDAeFw0yMjA4MjYxNTE5NDdaFw0yMzA4MjYxNTE5NDda
MFUxDzANBgNVBAMMBkplc3NpZTELMAkGA1UEBhMCSVQxDzANBgNVBAgMBkl0YWxp
YTEkMCIGA1UECgwbUmVnaW9uZSBUcmVudGlub19BbHRvX0FkaWdlMFYwEAYHKoZI
zj0CAQYFK4EEAAoDQgAEIBRzHlGraulj0+eB+G/vmtuk5s/oWWHU50amN2sA9HeV
0xKeZQrB6Py2UinqCsvxYNwIBa8TMpNzpBB6Om5TT6MjMCEwDgYDVR0PAQH/BAQD
AgWgMA8GA1UdEwEB/wQFMAMCAQMwCgYIKoZIzj0EAwIDSAAwRQIgMf3KeHGXYKN5
YBgPXqkFJ0BCVj+qO+9QbIbY3ZLs2oUCIQDvvXG/YREB8ovRcIlR5MwsYDIzDc8V
HDLf/FZuDqcIgw==
-----END CERTIFICATE-----
