Certificate:
    Data:
        Version: 3 (0x2)
        Serial Number: 35 (0x23)
        Signature Algorithm: ecdsa-with-SHA256
        Issuer: CN=Regione Emilia_Romagna, C=IT, ST=Italia, O=E-Voting system, OU=E-Voting system authority/emailAddress=Emilia_Romagna@evoting.it
        Validity
            Not Before: Aug 26 15:20:41 2022 GMT
            Not After : Aug 26 15:20:41 2023 GMT
        Subject: CN=Jesse, C=IT, ST=Italia, O=Regione Emilia_Romagna
        Subject Public Key Info:
            Public Key Algorithm: id-ecPublicKey
                Public-Key: (256 bit)
                pub:
                    04:7b:a5:3d:89:90:29:22:ca:ac:5b:7e:07:ba:c1:
                    1e:df:04:7d:1f:29:21:66:58:73:34:6b:7b:ce:68:
                    42:11:76:59:cb:fc:a1:29:b0:21:08:05:18:ce:93:
                    9b:8d:d4:8b:89:0c:0a:ed:42:a3:b7:30:03:1c:11:
                    bd:61:32:7e:8b
                ASN1 OID: secp256k1
        X509v3 extensions:
            X509v3 Key Usage: critical
                Digital Signature, Key Encipherment
            X509v3 Basic Constraints: critical
                CA:FALSE, pathlen:3
    Signature Algorithm: ecdsa-with-SHA256
         30:45:02:21:00:fc:6d:9f:0d:7b:c5:e9:7f:16:03:8e:f1:a9:
         57:fe:e3:a8:42:ca:64:05:27:ed:d7:df:7d:8a:15:e4:6e:2e:
         c7:02:20:2a:d8:91:a9:ae:77:6c:f3:0c:89:d9:27:f2:d0:e4:
         2e:20:84:1b:ec:e3:3b:36:05:41:be:3c:62:d1:0f:39:44
-----BEGIN CERTIFICATE-----
MIICBjCCAaygAwIBAgIBIzAKBggqhkjOPQQDAjCBpzEfMB0GA1UEAwwWUmVnaW9u
ZSBFbWlsaWFfUm9tYWduYTELMAkGA1UEBhMCSVQxDzANBgNVBAgMBkl0YWxpYTEY
MBYGA1UECgwPRS1Wb3Rpbmcgc3lzdGVtMSIwIAYDVQQLDBlFLVZvdGluZyBzeXN0
ZW0gYXV0aG9yaXR5MSgwJgYJKoZIhvcNAQkBFhlFbWlsaWFfUm9tYWduYUBldm90
aW5nLml0MB4XDTIyMDgyNjE1MjA0MVoXDTIzMDgyNjE1MjA0MVowTzEOMAwGA1UE
AwwFSmVzc2UxCzAJBgNVBAYTAklUMQ8wDQYDVQQIDAZJdGFsaWExHzAdBgNVBAoM
FlJlZ2lvbmUgRW1pbGlhX1JvbWFnbmEwVjAQBgcqhkjOPQIBBgUrgQQACgNCAAR7
pT2JkCkiyqxbfge6wR7fBH0fKSFmWHM0a3vOaEIRdlnL/KEpsCEIBRjOk5uN1IuJ
DArtQqO3MAMcEb1hMn6LoyMwITAOBgNVHQ8BAf8EBAMCBaAwDwYDVR0TAQH/BAUw
AwIBAzAKBggqhkjOPQQDAgNIADBFAiEA/G2fDXvF6X8WA47xqVf+46hCymQFJ+3X
332KFeRuLscCICrYkamud2zzDInZJ/LQ5C4ghBvs4zs2BUG+PGLRDzlE
-----END CERTIFICATE-----
