Certificate:
    Data:
        Version: 3 (0x2)
        Serial Number: 1 (0x1)
        Signature Algorithm: ecdsa-with-SHA256
        Issuer: CN=Regione Lombardia, C=IT, ST=Italia, O=E-Voting system, OU=E-Voting system authority/emailAddress=Lombardia@evoting.it
        Validity
            Not Before: Aug 26 15:18:25 2022 GMT
            Not After : Aug 26 15:18:25 2023 GMT
        Subject: CN=Jessica, C=IT, ST=Italia, O=Regione Lombardia
        Subject Public Key Info:
            Public Key Algorithm: id-ecPublicKey
                Public-Key: (256 bit)
                pub:
                    04:f8:b5:17:66:7d:fd:d4:d2:5c:a0:4e:9f:6e:d6:
                    e6:af:94:a7:70:84:93:7b:f3:ac:13:f9:37:75:f6:
                    d2:42:86:aa:73:24:8e:dd:82:ae:a6:e0:e0:b4:0a:
                    e8:9c:26:26:36:42:eb:08:99:cc:04:98:6d:bd:6d:
                    ba:05:0d:ab:d4
                ASN1 OID: secp256k1
        X509v3 extensions:
            X509v3 Key Usage: critical
                Digital Signature, Key Encipherment
            X509v3 Basic Constraints: critical
                CA:FALSE, pathlen:3
    Signature Algorithm: ecdsa-with-SHA256
         30:44:02:20:1a:ce:e3:53:9b:85:32:2d:b3:6f:35:5c:47:b8:
         b3:03:cb:32:00:52:fb:d3:5c:fd:50:4c:b2:c8:b9:65:3b:18:
         02:20:60:91:87:14:db:ca:fd:9e:04:9b:6a:b8:07:f2:de:70:
         6e:a8:94:33:ee:b5:17:09:b1:3a:b4:65:1e:a7:fa:c9
-----BEGIN CERTIFICATE-----
MIIB+DCCAZ+gAwIBAgIBATAKBggqhkjOPQQDAjCBnTEaMBgGA1UEAwwRUmVnaW9u
ZSBMb21iYXJkaWExCzAJBgNVBAYTAklUMQ8wDQYDVQQIDAZJdGFsaWExGDAWBgNV
BAoMD0UtVm90aW5nIHN5c3RlbTEiMCAGA1UECwwZRS1Wb3Rpbmcgc3lzdGVtIGF1
dGhvcml0eTEjMCEGCSqGSIb3DQEJARYUTG9tYmFyZGlhQGV2b3RpbmcuaXQwHhcN
MjIwODI2MTUxODI1WhcNMjMwODI2MTUxODI1WjBMMRAwDgYDVQQDDAdKZXNzaWNh
MQswCQYDVQQGEwJJVDEPMA0GA1UECAwGSXRhbGlhMRowGAYDVQQKDBFSZWdpb25l
IExvbWJhcmRpYTBWMBAGByqGSM49AgEGBSuBBAAKA0IABPi1F2Z9/dTSXKBOn27W
5q+Up3CEk3vzrBP5N3X20kKGqnMkjt2Crqbg4LQK6JwmJjZC6wiZzASYbb1tugUN
q9SjIzAhMA4GA1UdDwEB/wQEAwIFoDAPBgNVHRMBAf8EBTADAgEDMAoGCCqGSM49
BAMCA0cAMEQCIBrO41ObhTIts281XEe4swPLMgBS+9Nc/VBMssi5ZTsYAiBgkYcU
28r9ngSbargH8t5wbqiUM+61FwmxOrRlHqf6yQ==
-----END CERTIFICATE-----
