Certificate:
    Data:
        Version: 3 (0x2)
        Serial Number: 46 (0x2e)
        Signature Algorithm: ecdsa-with-SHA256
        Issuer: CN=Regione Friuli_Venezia_Giulia, C=IT, ST=Italia, O=E-Voting system, OU=E-Voting system authority/emailAddress=Friuli_Venezia_Giulia@evoting.it
        Validity
            Not Before: Aug  3 13:28:27 2022 GMT
            Not After : Aug  3 13:28:27 2023 GMT
        Subject: CN=Jessie, C=IT, ST=Italia, O=Regione Friuli_Venezia_Giulia
        Subject Public Key Info:
            Public Key Algorithm: id-ecPublicKey
                Public-Key: (256 bit)
                pub:
                    04:c5:2d:6e:f0:54:49:9f:30:89:ea:1a:03:0e:c9:
                    0e:88:c2:3a:0d:ec:56:88:db:b7:97:30:d7:ed:92:
                    dc:52:bd:a1:37:b5:cf:08:e4:b1:ba:73:4f:f0:1d:
                    1c:7d:39:80:39:84:46:bc:a1:23:3c:7a:6e:6b:f9:
                    1c:c4:3c:86:af
                ASN1 OID: prime256v1
                NIST CURVE: P-256
        X509v3 extensions:
            X509v3 Key Usage: critical
                Digital Signature, Key Encipherment
            X509v3 Basic Constraints: critical
                CA:FALSE, pathlen:3
    Signature Algorithm: ecdsa-with-SHA256
         30:46:02:21:00:8e:0e:42:8c:85:63:5b:8f:40:53:e5:e1:5a:
         00:ce:6e:fa:ff:dd:5b:c5:d8:9f:f5:e3:55:b6:b5:d4:0a:bb:
         d0:02:21:00:b5:1f:28:76:28:1e:9e:a2:8a:26:b8:cc:93:5d:
         c0:0a:2f:2e:42:86:c4:c9:ab:18:cc:61:4a:72:db:30:bd:a2
-----BEGIN CERTIFICATE-----
MIICIDCCAcWgAwIBAgIBLjAKBggqhkjOPQQDAjCBtTEmMCQGA1UEAwwdUmVnaW9u
ZSBGcml1bGlfVmVuZXppYV9HaXVsaWExCzAJBgNVBAYTAklUMQ8wDQYDVQQIDAZJ
dGFsaWExGDAWBgNVBAoMD0UtVm90aW5nIHN5c3RlbTEiMCAGA1UECwwZRS1Wb3Rp
bmcgc3lzdGVtIGF1dGhvcml0eTEvMC0GCSqGSIb3DQEJARYgRnJpdWxpX1ZlbmV6
aWFfR2l1bGlhQGV2b3RpbmcuaXQwHhcNMjIwODAzMTMyODI3WhcNMjMwODAzMTMy
ODI3WjBXMQ8wDQYDVQQDDAZKZXNzaWUxCzAJBgNVBAYTAklUMQ8wDQYDVQQIDAZJ
dGFsaWExJjAkBgNVBAoMHVJlZ2lvbmUgRnJpdWxpX1ZlbmV6aWFfR2l1bGlhMFkw
EwYHKoZIzj0CAQYIKoZIzj0DAQcDQgAExS1u8FRJnzCJ6hoDDskOiMI6DexWiNu3
lzDX7ZLcUr2hN7XPCOSxunNP8B0cfTmAOYRGvKEjPHpua/kcxDyGr6MjMCEwDgYD
VR0PAQH/BAQDAgWgMA8GA1UdEwEB/wQFMAMCAQMwCgYIKoZIzj0EAwIDSQAwRgIh
AI4OQoyFY1uPQFPl4VoAzm76/91bxdif9eNVtrXUCrvQAiEAtR8odigenqKKJrjM
k13ACi8uQobEyasYzGFKctswvaI=
-----END CERTIFICATE-----
