Certificate:
    Data:
        Version: 3 (0x2)
        Serial Number: 43 (0x2b)
        Signature Algorithm: ecdsa-with-SHA256
        Issuer: CN=Regione Friuli_Venezia_Giulia, C=IT, ST=Italia, O=E-Voting system, OU=E-Voting system authority/emailAddress=Friuli_Venezia_Giulia@evoting.it
        Validity
            Not Before: Aug  3 13:28:13 2022 GMT
            Not After : Aug  3 13:28:13 2023 GMT
        Subject: CN=Jesus, C=IT, ST=Italia, O=Regione Friuli_Venezia_Giulia
        Subject Public Key Info:
            Public Key Algorithm: id-ecPublicKey
                Public-Key: (256 bit)
                pub:
                    04:a4:21:41:8e:5c:75:cc:67:b0:4b:12:eb:1d:ff:
                    31:bd:f4:49:18:fc:c8:4a:a2:31:a6:15:2a:f4:bd:
                    55:ea:27:4a:92:ca:76:66:30:e4:e2:6c:14:ca:b7:
                    cd:49:f3:8f:96:ab:06:34:ec:95:0b:30:42:14:75:
                    3a:5c:d3:3a:2b
                ASN1 OID: prime256v1
                NIST CURVE: P-256
        X509v3 extensions:
            X509v3 Key Usage: critical
                Digital Signature, Key Encipherment
            X509v3 Basic Constraints: critical
                CA:FALSE, pathlen:3
    Signature Algorithm: ecdsa-with-SHA256
         30:45:02:20:5a:8a:72:73:89:c3:29:ce:c8:89:0d:81:21:8d:
         c2:21:47:b5:33:e2:66:f4:d3:ba:98:69:c5:6d:b1:59:bb:79:
         02:21:00:a8:07:6b:35:a6:47:bf:df:78:e9:ea:13:dc:01:bb:
         f6:08:9b:4c:ba:ef:c0:b8:18:e6:d8:63:9a:a2:e8:ef:44
-----BEGIN CERTIFICATE-----
MIICHjCCAcSgAwIBAgIBKzAKBggqhkjOPQQDAjCBtTEmMCQGA1UEAwwdUmVnaW9u
ZSBGcml1bGlfVmVuZXppYV9HaXVsaWExCzAJBgNVBAYTAklUMQ8wDQYDVQQIDAZJ
dGFsaWExGDAWBgNVBAoMD0UtVm90aW5nIHN5c3RlbTEiMCAGA1UECwwZRS1Wb3Rp
bmcgc3lzdGVtIGF1dGhvcml0eTEvMC0GCSqGSIb3DQEJARYgRnJpdWxpX1ZlbmV6
aWFfR2l1bGlhQGV2b3RpbmcuaXQwHhcNMjIwODAzMTMyODEzWhcNMjMwODAzMTMy
ODEzWjBWMQ4wDAYDVQQDDAVKZXN1czELMAkGA1UEBhMCSVQxDzANBgNVBAgMBkl0
YWxpYTEmMCQGA1UECgwdUmVnaW9uZSBGcml1bGlfVmVuZXppYV9HaXVsaWEwWTAT
BgcqhkjOPQIBBggqhkjOPQMBBwNCAASkIUGOXHXMZ7BLEusd/zG99EkY/MhKojGm
FSr0vVXqJ0qSynZmMOTibBTKt81J84+WqwY07JULMEIUdTpc0zoroyMwITAOBgNV
HQ8BAf8EBAMCBaAwDwYDVR0TAQH/BAUwAwIBAzAKBggqhkjOPQQDAgNIADBFAiBa
inJzicMpzsiJDYEhjcIhR7Uz4mb007qYacVtsVm7eQIhAKgHazWmR7/feOnqE9wB
u/YIm0y678C4GObYY5qi6O9E
-----END CERTIFICATE-----
