Certificate:
    Data:
        Version: 3 (0x2)
        Serial Number: 38 (0x26)
        Signature Algorithm: ecdsa-with-SHA256
        Issuer: CN=Regione Sicilia, C=IT, ST=Italia, O=E-Voting system, OU=E-Voting system authority/emailAddress=Sicilia@evoting.it
        Validity
            Not Before: Aug 26 15:20:40 2022 GMT
            Not After : Aug 26 15:20:40 2023 GMT
        Subject: CN=Jesus, C=IT, ST=Italia, O=Regione Sicilia
        Subject Public Key Info:
            Public Key Algorithm: id-ecPublicKey
                Public-Key: (256 bit)
                pub:
                    04:ec:cb:a2:e9:38:3b:e2:7c:8e:2b:96:9d:00:ed:
                    96:7e:de:45:d0:5c:d0:52:02:6c:cb:3b:6c:f7:97:
                    d5:d0:c8:d7:7c:b6:e8:21:9d:1c:2b:14:bf:24:f5:
                    1e:bd:55:89:cb:94:3d:7e:2f:7f:b3:f7:d8:68:c2:
                    1b:74:b0:e9:06
                ASN1 OID: secp256k1
        X509v3 extensions:
            X509v3 Key Usage: critical
                Digital Signature, Key Encipherment
            X509v3 Basic Constraints: critical
                CA:FALSE, pathlen:3
    Signature Algorithm: ecdsa-with-SHA256
         30:45:02:20:35:4a:b9:04:26:41:f8:3c:8c:0b:41:a2:8d:33:
         cf:38:d6:11:c3:97:b1:17:81:ae:35:fd:08:15:ab:41:82:41:
         02:21:00:d6:47:36:04:4c:5b:da:ed:f6:ac:92:a9:ce:c8:d5:
         56:5c:13:e6:bd:37:d7:ba:0b:02:56:45:c7:16:39:f9:e4
-----BEGIN CERTIFICATE-----
MIIB8TCCAZegAwIBAgIBJjAKBggqhkjOPQQDAjCBmTEYMBYGA1UEAwwPUmVnaW9u
ZSBTaWNpbGlhMQswCQYDVQQGEwJJVDEPMA0GA1UECAwGSXRhbGlhMRgwFgYDVQQK
DA9FLVZvdGluZyBzeXN0ZW0xIjAgBgNVBAsMGUUtVm90aW5nIHN5c3RlbSBhdXRo
b3JpdHkxITAfBgkqhkiG9w0BCQEWElNpY2lsaWFAZXZvdGluZy5pdDAeFw0yMjA4
MjYxNTIwNDBaFw0yMzA4MjYxNTIwNDBaMEgxDjAMBgNVBAMMBUplc3VzMQswCQYD
VQQGEwJJVDEPMA0GA1UECAwGSXRhbGlhMRgwFgYDVQQKDA9SZWdpb25lIFNpY2ls
aWEwVjAQBgcqhkjOPQIBBgUrgQQACgNCAATsy6LpODvifI4rlp0A7ZZ+3kXQXNBS
AmzLO2z3l9XQyNd8tughnRwrFL8k9R69VYnLlD1+L3+z99howht0sOkGoyMwITAO
BgNVHQ8BAf8EBAMCBaAwDwYDVR0TAQH/BAUwAwIBAzAKBggqhkjOPQQDAgNIADBF
AiA1SrkEJkH4PIwLQaKNM8841hHDl7EXga41/QgVq0GCQQIhANZHNgRMW9rt9qyS
qc7I1VZcE+a9N9e6CwJWRccWOfnk
-----END CERTIFICATE-----
