Certificate:
    Data:
        Version: 3 (0x2)
        Serial Number: 5 (0x5)
        Signature Algorithm: ecdsa-with-SHA256
        Issuer: CN=Regione Marche, C=IT, ST=Italia, O=E-Voting system, OU=E-Voting system authority/emailAddress=Marche@evoting.it
        Validity
            Not Before: Aug 26 15:18:56 2022 GMT
            Not After : Aug 26 15:18:56 2023 GMT
        Subject: CN=Jill, C=IT, ST=Italia, O=Regione Marche
        Subject Public Key Info:
            Public Key Algorithm: id-ecPublicKey
                Public-Key: (256 bit)
                pub:
                    04:8f:e0:4b:77:9b:42:85:d7:2a:bb:2a:25:b7:48:
                    5d:f5:2b:cf:24:44:98:17:96:39:7c:a6:03:b7:ab:
                    e6:c6:1a:35:ad:f0:bc:9f:ae:6a:ba:44:88:dd:21:
                    67:67:e0:bb:ea:a8:76:27:9a:b9:df:79:83:a7:40:
                    55:1c:ee:78:20
                ASN1 OID: secp256k1
        X509v3 extensions:
            X509v3 Key Usage: critical
                Digital Signature, Key Encipherment
            X509v3 Basic Constraints: critical
                CA:FALSE, pathlen:3
    Signature Algorithm: ecdsa-with-SHA256
         30:45:02:21:00:d8:35:f8:a7:ed:03:1a:e8:9d:18:85:86:b2:
         1a:21:ec:e3:74:8b:ab:53:f2:9f:21:00:58:d0:c3:90:1d:74:
         40:02:20:6e:ae:cd:58:e6:5f:fe:23:10:ba:f2:a5:ea:82:df:
         a0:f1:19:15:db:ba:ce:ab:89:a6:a7:99:8c:d5:1d:db:f2
-----BEGIN CERTIFICATE-----
MIIB7TCCAZOgAwIBAgIBBTAKBggqhkjOPQQDAjCBlzEXMBUGA1UEAwwOUmVnaW9u
ZSBNYXJjaGUxCzAJBgNVBAYTAklUMQ8wDQYDVQQIDAZJdGFsaWExGDAWBgNVBAoM
D0UtVm90aW5nIHN5c3RlbTEiMCAGA1UECwwZRS1Wb3Rpbmcgc3lzdGVtIGF1dGhv
cml0eTEgMB4GCSqGSIb3DQEJARYRTWFyY2hlQGV2b3RpbmcuaXQwHhcNMjIwODI2
MTUxODU2WhcNMjMwODI2MTUxODU2WjBGMQ0wCwYDVQQDDARKaWxsMQswCQYDVQQG
EwJJVDEPMA0GA1UECAwGSXRhbGlhMRcwFQYDVQQKDA5SZWdpb25lIE1hcmNoZTBW
MBAGByqGSM49AgEGBSuBBAAKA0IABI/gS3ebQoXXKrsqJbdIXfUrzyREmBeWOXym
A7er5sYaNa3wvJ+uarpEiN0hZ2fgu+qodieaud95g6dAVRzueCCjIzAhMA4GA1Ud
DwEB/wQEAwIFoDAPBgNVHRMBAf8EBTADAgEDMAoGCCqGSM49BAMCA0gAMEUCIQDY
Nfin7QMa6J0YhYayGiHs43SLq1PynyEAWNDDkB10QAIgbq7NWOZf/iMQuvKl6oLf
oPEZFdu6zquJpqeZjNUd2/I=
-----END CERTIFICATE-----
