Certificate:
    Data:
        Version: 3 (0x2)
        Serial Number: 37 (0x25)
        Signature Algorithm: ecdsa-with-SHA256
        Issuer: CN=Regione Friuli_Venezia_Giulia, C=IT, ST=Italia, O=E-Voting system, OU=E-Voting system authority/emailAddress=Friuli_Venezia_Giulia@evoting.it
        Validity
            Not Before: Aug  3 13:27:56 2022 GMT
            Not After : Aug  3 13:27:56 2023 GMT
        Subject: CN=Jimmy, C=IT, ST=Italia, O=Regione Friuli_Venezia_Giulia
        Subject Public Key Info:
            Public Key Algorithm: id-ecPublicKey
                Public-Key: (256 bit)
                pub:
                    04:ed:77:6e:a1:b2:f2:2b:17:d0:37:4b:a7:70:c9:
                    b1:ec:a4:2e:b5:a9:37:1a:c6:c5:03:27:c6:72:5b:
                    7a:0d:71:18:f7:83:56:b8:7b:c9:59:7f:2d:57:04:
                    02:04:db:21:f4:97:7e:ac:b6:e9:76:4d:2e:72:d4:
                    f6:ee:90:45:7b
                ASN1 OID: prime256v1
                NIST CURVE: P-256
        X509v3 extensions:
            X509v3 Key Usage: critical
                Digital Signature, Key Encipherment
            X509v3 Basic Constraints: critical
                CA:FALSE, pathlen:3
    Signature Algorithm: ecdsa-with-SHA256
         30:44:02:20:30:9f:11:e5:f0:99:47:6f:a0:d6:fe:96:25:de:
         be:7f:9e:1b:72:8e:f3:ad:bb:91:89:a8:6f:89:7a:f3:e0:b7:
         02:20:2e:c5:1e:28:84:25:5d:3a:71:f6:98:1d:f3:9b:7e:ce:
         b8:0e:67:c0:b3:73:e6:ce:c8:a2:c8:9f:9d:99:cb:9f
-----BEGIN CERTIFICATE-----
MIICHTCCAcSgAwIBAgIBJTAKBggqhkjOPQQDAjCBtTEmMCQGA1UEAwwdUmVnaW9u
ZSBGcml1bGlfVmVuZXppYV9HaXVsaWExCzAJBgNVBAYTAklUMQ8wDQYDVQQIDAZJ
dGFsaWExGDAWBgNVBAoMD0UtVm90aW5nIHN5c3RlbTEiMCAGA1UECwwZRS1Wb3Rp
bmcgc3lzdGVtIGF1dGhvcml0eTEvMC0GCSqGSIb3DQEJARYgRnJpdWxpX1ZlbmV6
aWFfR2l1bGlhQGV2b3RpbmcuaXQwHhcNMjIwODAzMTMyNzU2WhcNMjMwODAzMTMy
NzU2WjBWMQ4wDAYDVQQDDAVKaW1teTELMAkGA1UEBhMCSVQxDzANBgNVBAgMBkl0
YWxpYTEmMCQGA1UECgwdUmVnaW9uZSBGcml1bGlfVmVuZXppYV9HaXVsaWEwWTAT
BgcqhkjOPQIBBggqhkjOPQMBBwNCAATtd26hsvIrF9A3S6dwybHspC61qTcaxsUD
J8ZyW3oNcRj3g1a4e8lZfy1XBAIE2yH0l36stul2TS5y1PbukEV7oyMwITAOBgNV
HQ8BAf8EBAMCBaAwDwYDVR0TAQH/BAUwAwIBAzAKBggqhkjOPQQDAgNHADBEAiAw
nxHl8JlHb6DW/pYl3r5/nhtyjvOtu5GJqG+JevPgtwIgLsUeKIQlXTpx9pgd85t+
zrgOZ8Czc+bOyKLIn52Zy58=
-----END CERTIFICATE-----
