Certificate:
    Data:
        Version: 3 (0x2)
        Serial Number: 28 (0x1c)
        Signature Algorithm: ecdsa-with-SHA256
        Issuer: CN=Regione Calabria, C=IT, ST=Italia, O=E-Voting system, OU=E-Voting system authority/emailAddress=Calabria@evoting.it
        Validity
            Not Before: Aug 26 15:20:41 2022 GMT
            Not After : Aug 26 15:20:41 2023 GMT
        Subject: CN=Jimmy, C=IT, ST=Italia, O=Regione Calabria
        Subject Public Key Info:
            Public Key Algorithm: id-ecPublicKey
                Public-Key: (256 bit)
                pub:
                    04:2d:2b:03:ab:2c:af:bd:32:dd:49:d2:9a:82:df:
                    2c:7c:28:00:2b:09:66:00:c2:a5:a9:ad:bb:0b:bb:
                    b1:f2:08:65:40:4a:d6:07:5b:44:f7:72:2d:23:2e:
                    b2:99:27:5a:5b:35:74:f3:4a:3e:78:18:61:65:62:
                    90:03:fb:08:52
                ASN1 OID: secp256k1
        X509v3 extensions:
            X509v3 Key Usage: critical
                Digital Signature, Key Encipherment
            X509v3 Basic Constraints: critical
                CA:FALSE, pathlen:3
    Signature Algorithm: ecdsa-with-SHA256
         30:46:02:21:00:ee:c2:e1:0b:ee:e5:2d:34:e1:7e:70:c3:cd:
         1e:e4:77:5b:dc:6a:eb:69:23:cc:b5:e2:d9:d5:8a:92:d4:92:
         43:02:21:00:8d:78:9f:46:cb:d5:25:51:33:56:b6:de:58:82:
         6e:54:8f:d7:cf:c0:72:e8:30:b7:0a:37:02:e4:75:a0:88:d4
-----BEGIN CERTIFICATE-----
MIIB9TCCAZqgAwIBAgIBHDAKBggqhkjOPQQDAjCBmzEZMBcGA1UEAwwQUmVnaW9u
ZSBDYWxhYnJpYTELMAkGA1UEBhMCSVQxDzANBgNVBAgMBkl0YWxpYTEYMBYGA1UE
CgwPRS1Wb3Rpbmcgc3lzdGVtMSIwIAYDVQQLDBlFLVZvdGluZyBzeXN0ZW0gYXV0
aG9yaXR5MSIwIAYJKoZIhvcNAQkBFhNDYWxhYnJpYUBldm90aW5nLml0MB4XDTIy
MDgyNjE1MjA0MVoXDTIzMDgyNjE1MjA0MVowSTEOMAwGA1UEAwwFSmltbXkxCzAJ
BgNVBAYTAklUMQ8wDQYDVQQIDAZJdGFsaWExGTAXBgNVBAoMEFJlZ2lvbmUgQ2Fs
YWJyaWEwVjAQBgcqhkjOPQIBBgUrgQQACgNCAAQtKwOrLK+9Mt1J0pqC3yx8KAAr
CWYAwqWprbsLu7HyCGVAStYHW0T3ci0jLrKZJ1pbNXTzSj54GGFlYpAD+whSoyMw
ITAOBgNVHQ8BAf8EBAMCBaAwDwYDVR0TAQH/BAUwAwIBAzAKBggqhkjOPQQDAgNJ
ADBGAiEA7sLhC+7lLTThfnDDzR7kd1vcautpI8y14tnVipLUkkMCIQCNeJ9Gy9Ul
UTNWtt5Ygm5Uj9fPwHLoMLcKNwLkdaCI1A==
-----END CERTIFICATE-----
