Certificate:
    Data:
        Version: 3 (0x2)
        Serial Number: 5 (0x5)
        Signature Algorithm: ecdsa-with-SHA256
        Issuer: CN=Regione Toscana, C=IT, ST=Italia, O=E-Voting system, OU=E-Voting system authority/emailAddress=Toscana@evoting.it
        Validity
            Not Before: Aug 26 15:19:07 2022 GMT
            Not After : Aug 26 15:19:07 2023 GMT
        Subject: CN=Jimmie, C=IT, ST=Italia, O=Regione Toscana
        Subject Public Key Info:
            Public Key Algorithm: id-ecPublicKey
                Public-Key: (256 bit)
                pub:
                    04:b4:33:7e:09:4a:b2:52:b9:75:88:74:00:83:11:
                    c6:86:59:6a:5b:f3:ff:f5:1d:ac:4d:e2:88:29:15:
                    ca:aa:a0:cc:a5:4d:f9:f5:eb:1d:37:37:46:04:80:
                    92:07:97:cd:2a:aa:3b:34:8e:7d:51:88:fd:ee:a1:
                    53:4f:03:8d:70
                ASN1 OID: secp256k1
        X509v3 extensions:
            X509v3 Key Usage: critical
                Digital Signature, Key Encipherment
            X509v3 Basic Constraints: critical
                CA:FALSE, pathlen:3
    Signature Algorithm: ecdsa-with-SHA256
         30:45:02:21:00:86:96:03:3b:6e:13:37:9f:14:48:df:da:c4:
         d6:59:aa:98:76:5e:1e:6c:c2:f0:47:5d:64:27:e5:37:3b:48:
         63:02:20:7c:ca:d4:41:d0:f0:21:98:d1:65:10:d2:07:af:07:
         17:ed:ac:92:16:6a:be:61:b2:0d:df:f7:68:45:43:64:c2
-----BEGIN CERTIFICATE-----
MIIB8jCCAZigAwIBAgIBBTAKBggqhkjOPQQDAjCBmTEYMBYGA1UEAwwPUmVnaW9u
ZSBUb3NjYW5hMQswCQYDVQQGEwJJVDEPMA0GA1UECAwGSXRhbGlhMRgwFgYDVQQK
DA9FLVZvdGluZyBzeXN0ZW0xIjAgBgNVBAsMGUUtVm90aW5nIHN5c3RlbSBhdXRo
b3JpdHkxITAfBgkqhkiG9w0BCQEWElRvc2NhbmFAZXZvdGluZy5pdDAeFw0yMjA4
MjYxNTE5MDdaFw0yMzA4MjYxNTE5MDdaMEkxDzANBgNVBAMMBkppbW1pZTELMAkG
A1UEBhMCSVQxDzANBgNVBAgMBkl0YWxpYTEYMBYGA1UECgwPUmVnaW9uZSBUb3Nj
YW5hMFYwEAYHKoZIzj0CAQYFK4EEAAoDQgAEtDN+CUqyUrl1iHQAgxHGhllqW/P/
9R2sTeKIKRXKqqDMpU359esdNzdGBICSB5fNKqo7NI59UYj97qFTTwONcKMjMCEw
DgYDVR0PAQH/BAQDAgWgMA8GA1UdEwEB/wQFMAMCAQMwCgYIKoZIzj0EAwIDSAAw
RQIhAIaWAztuEzefFEjf2sTWWaqYdl4ebMLwR11kJ+U3O0hjAiB8ytRB0PAhmNFl
ENIHrwcX7aySFmq+YbIN3/doRUNkwg==
-----END CERTIFICATE-----
