Certificate:
    Data:
        Version: 3 (0x2)
        Serial Number: 25 (0x19)
        Signature Algorithm: ecdsa-with-SHA256
        Issuer: CN=Regione Umbria, C=IT, ST=Italia, O=E-Voting system, OU=E-Voting system authority/emailAddress=Umbria@evoting.it
        Validity
            Not Before: Aug 26 15:20:20 2022 GMT
            Not After : Aug 26 15:20:20 2023 GMT
        Subject: CN=Joan, C=IT, ST=Italia, O=Regione Umbria
        Subject Public Key Info:
            Public Key Algorithm: id-ecPublicKey
                Public-Key: (256 bit)
                pub:
                    04:85:3e:56:fd:e1:11:7a:6a:43:29:6c:f1:e2:8d:
                    3f:71:f4:62:67:e1:98:03:71:aa:03:c3:69:20:07:
                    68:ae:db:a3:53:44:89:e1:51:c8:b1:47:4a:4e:8e:
                    8e:b2:3a:2f:12:da:18:25:68:b1:20:be:df:5b:04:
                    7e:fb:59:22:7f
                ASN1 OID: secp256k1
        X509v3 extensions:
            X509v3 Key Usage: critical
                Digital Signature, Key Encipherment
            X509v3 Basic Constraints: critical
                CA:FALSE, pathlen:3
    Signature Algorithm: ecdsa-with-SHA256
         30:45:02:21:00:8b:61:af:3b:50:7e:6a:7b:ef:84:64:3d:02:
         48:e0:15:11:a7:f0:a4:97:d5:b8:42:4b:ed:91:15:ac:a4:37:
         bd:02:20:52:57:a4:80:c7:a6:08:a0:81:19:c4:26:df:3a:de:
         ba:64:6c:01:be:3a:36:1a:66:51:06:fc:18:0c:9c:b9:52
-----BEGIN CERTIFICATE-----
MIIB7TCCAZOgAwIBAgIBGTAKBggqhkjOPQQDAjCBlzEXMBUGA1UEAwwOUmVnaW9u
ZSBVbWJyaWExCzAJBgNVBAYTAklUMQ8wDQYDVQQIDAZJdGFsaWExGDAWBgNVBAoM
D0UtVm90aW5nIHN5c3RlbTEiMCAGA1UECwwZRS1Wb3Rpbmcgc3lzdGVtIGF1dGhv
cml0eTEgMB4GCSqGSIb3DQEJARYRVW1icmlhQGV2b3RpbmcuaXQwHhcNMjIwODI2
MTUyMDIwWhcNMjMwODI2MTUyMDIwWjBGMQ0wCwYDVQQDDARKb2FuMQswCQYDVQQG
EwJJVDEPMA0GA1UECAwGSXRhbGlhMRcwFQYDVQQKDA5SZWdpb25lIFVtYnJpYTBW
MBAGByqGSM49AgEGBSuBBAAKA0IABIU+Vv3hEXpqQyls8eKNP3H0YmfhmANxqgPD
aSAHaK7bo1NEieFRyLFHSk6OjrI6LxLaGCVosSC+31sEfvtZIn+jIzAhMA4GA1Ud
DwEB/wQEAwIFoDAPBgNVHRMBAf8EBTADAgEDMAoGCCqGSM49BAMCA0gAMEUCIQCL
Ya87UH5qe++EZD0CSOAVEafwpJfVuEJL7ZEVrKQ3vQIgUlekgMemCKCBGcQm3zre
umRsAb46NhpmUQb8GAycuVI=
-----END CERTIFICATE-----
