Certificate:
    Data:
        Version: 3 (0x2)
        Serial Number: 33 (0x21)
        Signature Algorithm: ecdsa-with-SHA256
        Issuer: CN=Regione Piemonte, C=IT, ST=Italia, O=E-Voting system, OU=E-Voting system authority/emailAddress=Piemonte@evoting.it
        Validity
            Not Before: Aug 26 15:20:47 2022 GMT
            Not After : Aug 26 15:20:47 2023 GMT
        Subject: CN=Joanne, C=IT, ST=Italia, O=Regione Piemonte
        Subject Public Key Info:
            Public Key Algorithm: id-ecPublicKey
                Public-Key: (256 bit)
                pub:
                    04:63:5a:64:d0:c7:62:1d:09:3e:e5:8f:64:d4:d2:
                    32:5d:e6:6c:1e:75:38:ea:e9:6d:77:38:4c:d6:a2:
                    04:f2:42:ff:73:f0:f0:6d:25:b3:7f:4e:45:e1:95:
                    32:fa:f6:c4:a8:fa:8d:66:1d:70:1a:6e:45:51:9c:
                    b6:41:52:ac:94
                ASN1 OID: secp256k1
        X509v3 extensions:
            X509v3 Key Usage: critical
                Digital Signature, Key Encipherment
            X509v3 Basic Constraints: critical
                CA:FALSE, pathlen:3
    Signature Algorithm: ecdsa-with-SHA256
         30:44:02:20:41:0f:37:5e:35:89:8d:5c:8b:f7:84:25:6e:a6:
         0f:93:63:6f:17:6a:61:b5:fd:74:a6:63:0a:f2:c1:40:17:68:
         02:20:78:3b:0a:fa:0e:55:85:40:ad:e8:ed:29:80:42:ee:5b:
         a9:ff:dd:ab:3b:31:e8:41:32:d5:31:25:4b:31:40:99
-----BEGIN CERTIFICATE-----
MIIB9DCCAZugAwIBAgIBITAKBggqhkjOPQQDAjCBmzEZMBcGA1UEAwwQUmVnaW9u
ZSBQaWVtb250ZTELMAkGA1UEBhMCSVQxDzANBgNVBAgMBkl0YWxpYTEYMBYGA1UE
CgwPRS1Wb3Rpbmcgc3lzdGVtMSIwIAYDVQQLDBlFLVZvdGluZyBzeXN0ZW0gYXV0
aG9yaXR5MSIwIAYJKoZIhvcNAQkBFhNQaWVtb250ZUBldm90aW5nLml0MB4XDTIy
MDgyNjE1MjA0N1oXDTIzMDgyNjE1MjA0N1owSjEPMA0GA1UEAwwGSm9hbm5lMQsw
CQYDVQQGEwJJVDEPMA0GA1UECAwGSXRhbGlhMRkwFwYDVQQKDBBSZWdpb25lIFBp
ZW1vbnRlMFYwEAYHKoZIzj0CAQYFK4EEAAoDQgAEY1pk0MdiHQk+5Y9k1NIyXeZs
HnU46ultdzhM1qIE8kL/c/DwbSWzf05F4ZUy+vbEqPqNZh1wGm5FUZy2QVKslKMj
MCEwDgYDVR0PAQH/BAQDAgWgMA8GA1UdEwEB/wQFMAMCAQMwCgYIKoZIzj0EAwID
RwAwRAIgQQ83XjWJjVyL94QlbqYPk2NvF2phtf10pmMK8sFAF2gCIHg7CvoOVYVA
rejtKYBC7lup/92rOzHoQTLVMSVLMUCZ
-----END CERTIFICATE-----
