Certificate:
    Data:
        Version: 3 (0x2)
        Serial Number: 29 (0x1d)
        Signature Algorithm: ecdsa-with-SHA256
        Issuer: CN=Regione Sardegna, C=IT, ST=Italia, O=E-Voting system, OU=E-Voting system authority/emailAddress=Sardegna@evoting.it
        Validity
            Not Before: Aug 26 15:20:48 2022 GMT
            Not After : Aug 26 15:20:48 2023 GMT
        Subject: CN=Joann, C=IT, ST=Italia, O=Regione Sardegna
        Subject Public Key Info:
            Public Key Algorithm: id-ecPublicKey
                Public-Key: (256 bit)
                pub:
                    04:a2:fb:4a:14:5b:02:66:e3:10:de:23:54:55:72:
                    4d:86:89:04:9e:92:0c:7e:ad:2e:49:0b:ff:62:d3:
                    7d:39:5f:b2:ca:4d:a5:8e:16:28:44:d3:4c:b7:7e:
                    a1:9a:d7:62:25:59:47:9e:03:6f:d3:97:a2:c6:c4:
                    aa:b3:6e:1c:35
                ASN1 OID: secp256k1
        X509v3 extensions:
            X509v3 Key Usage: critical
                Digital Signature, Key Encipherment
            X509v3 Basic Constraints: critical
                CA:FALSE, pathlen:3
    Signature Algorithm: ecdsa-with-SHA256
         30:45:02:20:39:72:e2:45:ce:29:e3:c8:6b:f6:bb:ef:5c:4d:
         ec:de:58:d2:ef:a3:51:95:69:44:15:f2:1d:80:d1:55:49:0d:
         02:21:00:ec:16:46:6d:3a:ff:a0:b2:58:31:63:aa:e0:ce:d1:
         39:26:69:07:b3:73:8c:34:c6:d4:a4:13:ca:aa:7d:ef:dc
-----BEGIN CERTIFICATE-----
MIIB9DCCAZqgAwIBAgIBHTAKBggqhkjOPQQDAjCBmzEZMBcGA1UEAwwQUmVnaW9u
ZSBTYXJkZWduYTELMAkGA1UEBhMCSVQxDzANBgNVBAgMBkl0YWxpYTEYMBYGA1UE
CgwPRS1Wb3Rpbmcgc3lzdGVtMSIwIAYDVQQLDBlFLVZvdGluZyBzeXN0ZW0gYXV0
aG9yaXR5MSIwIAYJKoZIhvcNAQkBFhNTYXJkZWduYUBldm90aW5nLml0MB4XDTIy
MDgyNjE1MjA0OFoXDTIzMDgyNjE1MjA0OFowSTEOMAwGA1UEAwwFSm9hbm4xCzAJ
BgNVBAYTAklUMQ8wDQYDVQQIDAZJdGFsaWExGTAXBgNVBAoMEFJlZ2lvbmUgU2Fy
ZGVnbmEwVjAQBgcqhkjOPQIBBgUrgQQACgNCAASi+0oUWwJm4xDeI1RVck2GiQSe
kgx+rS5JC/9i0305X7LKTaWOFihE00y3fqGa12IlWUeeA2/Tl6LGxKqzbhw1oyMw
ITAOBgNVHQ8BAf8EBAMCBaAwDwYDVR0TAQH/BAUwAwIBAzAKBggqhkjOPQQDAgNI
ADBFAiA5cuJFzinjyGv2u+9cTezeWNLvo1GVaUQV8h2A0VVJDQIhAOwWRm06/6Cy
WDFjquDO0TkmaQezc4w0xtSkE8qqfe/c
-----END CERTIFICATE-----
