Certificate:
    Data:
        Version: 3 (0x2)
        Serial Number: 29 (0x1d)
        Signature Algorithm: ecdsa-with-SHA256
        Issuer: CN=Regione Calabria, C=IT, ST=Italia, O=E-Voting system, OU=E-Voting system authority/emailAddress=Calabria@evoting.it
        Validity
            Not Before: Aug 26 15:20:49 2022 GMT
            Not After : Aug 26 15:20:49 2023 GMT
        Subject: CN=Jodi, C=IT, ST=Italia, O=Regione Calabria
        Subject Public Key Info:
            Public Key Algorithm: id-ecPublicKey
                Public-Key: (256 bit)
                pub:
                    04:a8:b8:b2:52:4d:fd:a5:f3:8e:b7:d6:51:f6:d3:
                    f5:e2:96:21:c2:4f:11:61:1b:73:01:5f:79:f1:83:
                    30:4c:4c:73:02:b4:d2:80:37:a5:c8:f6:37:33:7d:
                    b3:90:9e:a5:45:60:9f:96:8e:95:ef:f8:16:30:36:
                    c3:65:af:1e:ac
                ASN1 OID: secp256k1
        X509v3 extensions:
            X509v3 Key Usage: critical
                Digital Signature, Key Encipherment
            X509v3 Basic Constraints: critical
                CA:FALSE, pathlen:3
    Signature Algorithm: ecdsa-with-SHA256
         30:46:02:21:00:c4:f0:5d:10:d2:d5:41:4d:9b:e9:06:74:42:
         38:ea:82:0e:7e:e5:79:df:cf:dd:8f:1e:d8:a9:3c:c0:3b:66:
         5a:02:21:00:a2:af:f1:4e:9c:b5:5b:14:58:b2:15:2b:20:d6:
         f5:9f:a6:04:1d:c3:5b:77:c7:84:1f:87:cb:cc:04:2b:d0:66
-----BEGIN CERTIFICATE-----
MIIB9DCCAZmgAwIBAgIBHTAKBggqhkjOPQQDAjCBmzEZMBcGA1UEAwwQUmVnaW9u
ZSBDYWxhYnJpYTELMAkGA1UEBhMCSVQxDzANBgNVBAgMBkl0YWxpYTEYMBYGA1UE
CgwPRS1Wb3Rpbmcgc3lzdGVtMSIwIAYDVQQLDBlFLVZvdGluZyBzeXN0ZW0gYXV0
aG9yaXR5MSIwIAYJKoZIhvcNAQkBFhNDYWxhYnJpYUBldm90aW5nLml0MB4XDTIy
MDgyNjE1MjA0OVoXDTIzMDgyNjE1MjA0OVowSDENMAsGA1UEAwwESm9kaTELMAkG
A1UEBhMCSVQxDzANBgNVBAgMBkl0YWxpYTEZMBcGA1UECgwQUmVnaW9uZSBDYWxh
YnJpYTBWMBAGByqGSM49AgEGBSuBBAAKA0IABKi4slJN/aXzjrfWUfbT9eKWIcJP
EWEbcwFfefGDMExMcwK00oA3pcj2NzN9s5CepUVgn5aOle/4FjA2w2WvHqyjIzAh
MA4GA1UdDwEB/wQEAwIFoDAPBgNVHRMBAf8EBTADAgEDMAoGCCqGSM49BAMCA0kA
MEYCIQDE8F0Q0tVBTZvpBnRCOOqCDn7led/P3Y8e2Kk8wDtmWgIhAKKv8U6ctVsU
WLIVKyDW9Z+mBB3DW3fHhB+Hy8wEK9Bm
-----END CERTIFICATE-----
