Certificate:
    Data:
        Version: 3 (0x2)
        Serial Number: 50 (0x32)
        Signature Algorithm: ecdsa-with-SHA256
        Issuer: CN=Regione Friuli_Venezia_Giulia, C=IT, ST=Italia, O=E-Voting system, OU=E-Voting system authority/emailAddress=Friuli_Venezia_Giulia@evoting.it
        Validity
            Not Before: Aug  3 13:28:44 2022 GMT
            Not After : Aug  3 13:28:44 2023 GMT
        Subject: CN=Jody, C=IT, ST=Italia, O=Regione Friuli_Venezia_Giulia
        Subject Public Key Info:
            Public Key Algorithm: id-ecPublicKey
                Public-Key: (256 bit)
                pub:
                    04:d5:7a:b9:68:fe:dd:b8:90:80:38:92:73:63:65:
                    4b:22:44:65:cc:72:a0:fe:70:47:cf:47:48:e0:dc:
                    55:ab:e5:68:0b:44:d4:a1:f7:34:b5:e3:99:14:11:
                    04:e3:ba:8b:58:04:16:9e:ba:38:6e:e8:0a:d2:10:
                    86:50:fe:f0:2a
                ASN1 OID: prime256v1
                NIST CURVE: P-256
        X509v3 extensions:
            X509v3 Key Usage: critical
                Digital Signature, Key Encipherment
            X509v3 Basic Constraints: critical
                CA:FALSE, pathlen:3
    Signature Algorithm: ecdsa-with-SHA256
         30:45:02:20:60:48:37:ee:b1:85:7c:f7:be:d9:d6:39:f8:ad:
         89:47:37:e9:83:fe:df:11:92:d2:d2:dd:83:dd:2c:f6:cc:93:
         02:21:00:99:4a:9b:96:f6:0c:e0:f3:52:05:0f:17:e4:b2:13:
         9e:c7:67:6c:62:70:5d:74:23:11:b5:5d:91:28:6f:e2:52
-----BEGIN CERTIFICATE-----
MIICHTCCAcOgAwIBAgIBMjAKBggqhkjOPQQDAjCBtTEmMCQGA1UEAwwdUmVnaW9u
ZSBGcml1bGlfVmVuZXppYV9HaXVsaWExCzAJBgNVBAYTAklUMQ8wDQYDVQQIDAZJ
dGFsaWExGDAWBgNVBAoMD0UtVm90aW5nIHN5c3RlbTEiMCAGA1UECwwZRS1Wb3Rp
bmcgc3lzdGVtIGF1dGhvcml0eTEvMC0GCSqGSIb3DQEJARYgRnJpdWxpX1ZlbmV6
aWFfR2l1bGlhQGV2b3RpbmcuaXQwHhcNMjIwODAzMTMyODQ0WhcNMjMwODAzMTMy
ODQ0WjBVMQ0wCwYDVQQDDARKb2R5MQswCQYDVQQGEwJJVDEPMA0GA1UECAwGSXRh
bGlhMSYwJAYDVQQKDB1SZWdpb25lIEZyaXVsaV9WZW5lemlhX0dpdWxpYTBZMBMG
ByqGSM49AgEGCCqGSM49AwEHA0IABNV6uWj+3biQgDiSc2NlSyJEZcxyoP5wR89H
SODcVavlaAtE1KH3NLXjmRQRBOO6i1gEFp66OG7oCtIQhlD+8CqjIzAhMA4GA1Ud
DwEB/wQEAwIFoDAPBgNVHRMBAf8EBTADAgEDMAoGCCqGSM49BAMCA0gAMEUCIGBI
N+6xhXz3vtnWOfitiUc36YP+3xGS0tLdg90s9syTAiEAmUqblvYM4PNSBQ8X5LIT
nsdnbGJwXXQjEbVdkShv4lI=
-----END CERTIFICATE-----
