Certificate:
    Data:
        Version: 3 (0x2)
        Serial Number: 18 (0x12)
        Signature Algorithm: ecdsa-with-SHA256
        Issuer: CN=Regione Molise, C=IT, ST=Italia, O=E-Voting system, OU=E-Voting system authority/emailAddress=Molise@evoting.it
        Validity
            Not Before: Aug 26 15:19:55 2022 GMT
            Not After : Aug 26 15:19:55 2023 GMT
        Subject: CN=Joe, C=IT, ST=Italia, O=Regione Molise
        Subject Public Key Info:
            Public Key Algorithm: id-ecPublicKey
                Public-Key: (256 bit)
                pub:
                    04:69:14:04:2b:37:df:db:2e:e1:8e:a3:7b:5a:da:
                    32:83:a1:39:52:6f:a4:10:39:67:e1:a0:e2:b9:f6:
                    4e:16:c1:9d:2d:4a:df:5d:02:95:99:d2:2e:b4:19:
                    e1:4f:cf:e1:7d:fb:22:9d:34:9b:bd:8b:db:5f:2c:
                    eb:53:bd:c1:dc
                ASN1 OID: secp256k1
        X509v3 extensions:
            X509v3 Key Usage: critical
                Digital Signature, Key Encipherment
            X509v3 Basic Constraints: critical
                CA:FALSE, pathlen:3
    Signature Algorithm: ecdsa-with-SHA256
         30:44:02:20:08:43:b5:75:71:19:cb:91:24:d4:fe:3f:16:1f:
         fd:6a:1e:7d:7a:fe:35:36:a9:b0:8b:3d:c6:20:86:40:27:6c:
         02:20:07:41:d4:62:cc:f9:50:a2:a3:85:ed:6d:e0:8a:0a:cc:
         b6:ae:bd:09:4b:76:37:56:dc:e3:b0:78:d7:54:9f:09
-----BEGIN CERTIFICATE-----
MIIB6zCCAZKgAwIBAgIBEjAKBggqhkjOPQQDAjCBlzEXMBUGA1UEAwwOUmVnaW9u
ZSBNb2xpc2UxCzAJBgNVBAYTAklUMQ8wDQYDVQQIDAZJdGFsaWExGDAWBgNVBAoM
D0UtVm90aW5nIHN5c3RlbTEiMCAGA1UECwwZRS1Wb3Rpbmcgc3lzdGVtIGF1dGhv
cml0eTEgMB4GCSqGSIb3DQEJARYRTW9saXNlQGV2b3RpbmcuaXQwHhcNMjIwODI2
MTUxOTU1WhcNMjMwODI2MTUxOTU1WjBFMQwwCgYDVQQDDANKb2UxCzAJBgNVBAYT
AklUMQ8wDQYDVQQIDAZJdGFsaWExFzAVBgNVBAoMDlJlZ2lvbmUgTW9saXNlMFYw
EAYHKoZIzj0CAQYFK4EEAAoDQgAEaRQEKzff2y7hjqN7Wtoyg6E5Um+kEDln4aDi
ufZOFsGdLUrfXQKVmdIutBnhT8/hffsinTSbvYvbXyzrU73B3KMjMCEwDgYDVR0P
AQH/BAQDAgWgMA8GA1UdEwEB/wQFMAMCAQMwCgYIKoZIzj0EAwIDRwAwRAIgCEO1
dXEZy5Ek1P4/Fh/9ah59ev41Nqmwiz3GIIZAJ2wCIAdB1GLM+VCio4XtbeCKCsy2
rr0JS3Y3VtzjsHjXVJ8J
-----END CERTIFICATE-----
