Certificate:
    Data:
        Version: 3 (0x2)
        Serial Number: 41 (0x29)
        Signature Algorithm: ecdsa-with-SHA256
        Issuer: CN=Regione Liguria, C=IT, ST=Italia, O=E-Voting system, OU=E-Voting system authority/emailAddress=Liguria@evoting.it
        Validity
            Not Before: Aug  3 13:28:09 2022 GMT
            Not After : Aug  3 13:28:09 2023 GMT
        Subject: CN=Joel, C=IT, ST=Italia, O=Regione Liguria
        Subject Public Key Info:
            Public Key Algorithm: id-ecPublicKey
                Public-Key: (256 bit)
                pub:
                    04:9c:26:04:13:43:b3:37:01:f0:34:0d:d4:51:53:
                    75:25:de:1c:9c:04:82:d3:6c:52:82:6e:b1:24:87:
                    9a:66:00:e6:78:ef:de:d2:14:93:d3:f3:f2:fd:ec:
                    87:4a:21:dd:bc:85:16:65:41:d9:97:c9:0d:6d:8c:
                    18:ba:11:b0:b0
                ASN1 OID: prime256v1
                NIST CURVE: P-256
        X509v3 extensions:
            X509v3 Key Usage: critical
                Digital Signature, Key Encipherment
            X509v3 Basic Constraints: critical
                CA:FALSE, pathlen:3
    Signature Algorithm: ecdsa-with-SHA256
         30:44:02:20:59:90:2e:4e:2b:c8:4c:38:ba:e9:66:7c:be:0f:
         63:db:c9:b9:7d:ff:0a:ae:27:24:10:b1:d0:27:28:76:3f:ac:
         02:20:57:26:99:e7:c0:39:b4:fc:f4:51:7a:3f:9b:a4:98:e8:
         06:69:4d:79:2a:80:6f:1c:81:a3:a0:de:65:ef:c2:69
-----BEGIN CERTIFICATE-----
MIIB8jCCAZmgAwIBAgIBKTAKBggqhkjOPQQDAjCBmTEYMBYGA1UEAwwPUmVnaW9u
ZSBMaWd1cmlhMQswCQYDVQQGEwJJVDEPMA0GA1UECAwGSXRhbGlhMRgwFgYDVQQK
DA9FLVZvdGluZyBzeXN0ZW0xIjAgBgNVBAsMGUUtVm90aW5nIHN5c3RlbSBhdXRo
b3JpdHkxITAfBgkqhkiG9w0BCQEWEkxpZ3VyaWFAZXZvdGluZy5pdDAeFw0yMjA4
MDMxMzI4MDlaFw0yMzA4MDMxMzI4MDlaMEcxDTALBgNVBAMMBEpvZWwxCzAJBgNV
BAYTAklUMQ8wDQYDVQQIDAZJdGFsaWExGDAWBgNVBAoMD1JlZ2lvbmUgTGlndXJp
YTBZMBMGByqGSM49AgEGCCqGSM49AwEHA0IABJwmBBNDszcB8DQN1FFTdSXeHJwE
gtNsUoJusSSHmmYA5njv3tIUk9Pz8v3sh0oh3byFFmVB2ZfJDW2MGLoRsLCjIzAh
MA4GA1UdDwEB/wQEAwIFoDAPBgNVHRMBAf8EBTADAgEDMAoGCCqGSM49BAMCA0cA
MEQCIFmQLk4ryEw4uulmfL4PY9vJuX3/Cq4nJBCx0Ccodj+sAiBXJpnnwDm0/PRR
ej+bpJjoBmlNeSqAbxyBo6DeZe/CaQ==
-----END CERTIFICATE-----
