Certificate:
    Data:
        Version: 3 (0x2)
        Serial Number: 46 (0x2e)
        Signature Algorithm: ecdsa-with-SHA256
        Issuer: CN=Regione Calabria, C=IT, ST=Italia, O=E-Voting system, OU=E-Voting system authority/emailAddress=Calabria@evoting.it
        Validity
            Not Before: Aug 26 15:21:44 2022 GMT
            Not After : Aug 26 15:21:44 2023 GMT
        Subject: CN=Joel, C=IT, ST=Italia, O=Regione Calabria
        Subject Public Key Info:
            Public Key Algorithm: id-ecPublicKey
                Public-Key: (256 bit)
                pub:
                    04:be:ee:75:35:58:71:37:92:03:44:05:40:e6:a3:
                    ae:a7:3c:1c:24:ee:30:15:6a:59:12:35:e7:07:a8:
                    dd:e0:dc:58:c8:64:3c:44:bd:df:af:55:84:74:ca:
                    f4:bd:6c:02:49:8d:c1:db:30:52:4d:3d:b2:bb:3a:
                    4e:f0:87:f9:be
                ASN1 OID: secp256k1
        X509v3 extensions:
            X509v3 Key Usage: critical
                Digital Signature, Key Encipherment
            X509v3 Basic Constraints: critical
                CA:FALSE, pathlen:3
    Signature Algorithm: ecdsa-with-SHA256
         30:46:02:21:00:aa:5d:a6:e8:69:0d:d4:4c:cd:f7:98:bc:d5:
         77:e2:00:79:6e:ad:26:03:65:41:24:50:a6:49:c6:0b:2e:f1:
         4a:02:21:00:c3:42:4d:40:c1:8e:15:b3:53:bb:7b:87:29:39:
         27:37:14:0f:fa:93:50:57:3b:e2:b5:12:1d:60:00:77:39:77
-----BEGIN CERTIFICATE-----
MIIB9DCCAZmgAwIBAgIBLjAKBggqhkjOPQQDAjCBmzEZMBcGA1UEAwwQUmVnaW9u
ZSBDYWxhYnJpYTELMAkGA1UEBhMCSVQxDzANBgNVBAgMBkl0YWxpYTEYMBYGA1UE
CgwPRS1Wb3Rpbmcgc3lzdGVtMSIwIAYDVQQLDBlFLVZvdGluZyBzeXN0ZW0gYXV0
aG9yaXR5MSIwIAYJKoZIhvcNAQkBFhNDYWxhYnJpYUBldm90aW5nLml0MB4XDTIy
MDgyNjE1MjE0NFoXDTIzMDgyNjE1MjE0NFowSDENMAsGA1UEAwwESm9lbDELMAkG
A1UEBhMCSVQxDzANBgNVBAgMBkl0YWxpYTEZMBcGA1UECgwQUmVnaW9uZSBDYWxh
YnJpYTBWMBAGByqGSM49AgEGBSuBBAAKA0IABL7udTVYcTeSA0QFQOajrqc8HCTu
MBVqWRI15weo3eDcWMhkPES9369VhHTK9L1sAkmNwdswUk09srs6TvCH+b6jIzAh
MA4GA1UdDwEB/wQEAwIFoDAPBgNVHRMBAf8EBTADAgEDMAoGCCqGSM49BAMCA0kA
MEYCIQCqXaboaQ3UTM33mLzVd+IAeW6tJgNlQSRQpknGCy7xSgIhAMNCTUDBjhWz
U7t7hyk5JzcUD/qTUFc74rUSHWAAdzl3
-----END CERTIFICATE-----
