Certificate:
    Data:
        Version: 3 (0x2)
        Serial Number: 46 (0x2e)
        Signature Algorithm: ecdsa-with-SHA256
        Issuer: CN=Regione Lombardia, C=IT, ST=Italia, O=E-Voting system, OU=E-Voting system authority/emailAddress=Lombardia@evoting.it
        Validity
            Not Before: Aug 26 15:21:19 2022 GMT
            Not After : Aug 26 15:21:19 2023 GMT
        Subject: CN=Johnathan, C=IT, ST=Italia, O=Regione Lombardia
        Subject Public Key Info:
            Public Key Algorithm: id-ecPublicKey
                Public-Key: (256 bit)
                pub:
                    04:9a:7d:f1:9f:af:ef:1c:9e:58:75:35:52:30:12:
                    f4:f6:6e:37:c2:de:d2:78:1d:74:bd:35:d8:10:87:
                    9c:91:37:0b:b1:f2:1c:c0:2b:a0:f0:e9:c8:af:b3:
                    53:93:db:f7:98:0d:4d:ef:6c:42:65:92:3f:42:ec:
                    54:1d:45:97:78
                ASN1 OID: secp256k1
        X509v3 extensions:
            X509v3 Key Usage: critical
                Digital Signature, Key Encipherment
            X509v3 Basic Constraints: critical
                CA:FALSE, pathlen:3
    Signature Algorithm: ecdsa-with-SHA256
         30:44:02:1f:5a:ad:88:e9:60:30:33:e3:d6:5f:35:69:06:ab:
         4b:da:fc:60:a0:34:92:d5:aa:89:f1:45:43:76:88:2d:1d:02:
         21:00:c7:f5:52:c1:44:0e:d9:c7:5b:f4:f0:f8:4b:57:42:c8:
         c7:f9:c5:e0:76:5b:1e:a9:55:5d:27:60:9f:2b:72:49
-----BEGIN CERTIFICATE-----
MIIB+jCCAaGgAwIBAgIBLjAKBggqhkjOPQQDAjCBnTEaMBgGA1UEAwwRUmVnaW9u
ZSBMb21iYXJkaWExCzAJBgNVBAYTAklUMQ8wDQYDVQQIDAZJdGFsaWExGDAWBgNV
BAoMD0UtVm90aW5nIHN5c3RlbTEiMCAGA1UECwwZRS1Wb3Rpbmcgc3lzdGVtIGF1
dGhvcml0eTEjMCEGCSqGSIb3DQEJARYUTG9tYmFyZGlhQGV2b3RpbmcuaXQwHhcN
MjIwODI2MTUyMTE5WhcNMjMwODI2MTUyMTE5WjBOMRIwEAYDVQQDDAlKb2huYXRo
YW4xCzAJBgNVBAYTAklUMQ8wDQYDVQQIDAZJdGFsaWExGjAYBgNVBAoMEVJlZ2lv
bmUgTG9tYmFyZGlhMFYwEAYHKoZIzj0CAQYFK4EEAAoDQgAEmn3xn6/vHJ5YdTVS
MBL09m43wt7SeB10vTXYEIeckTcLsfIcwCug8OnIr7NTk9v3mA1N72xCZZI/QuxU
HUWXeKMjMCEwDgYDVR0PAQH/BAQDAgWgMA8GA1UdEwEB/wQFMAMCAQMwCgYIKoZI
zj0EAwIDRwAwRAIfWq2I6WAwM+PWXzVpBqtL2vxgoDSS1aqJ8UVDdogtHQIhAMf1
UsFEDtnHW/Tw+EtXQsjH+cXgdlseqVVdJ2CfK3JJ
-----END CERTIFICATE-----
