Certificate:
    Data:
        Version: 3 (0x2)
        Serial Number: 49 (0x31)
        Signature Algorithm: ecdsa-with-SHA256
        Issuer: CN=Regione Lombardia, C=IT, ST=Italia, O=E-Voting system, OU=E-Voting system authority/emailAddress=Lombardia@evoting.it
        Validity
            Not Before: Aug 26 15:21:24 2022 GMT
            Not After : Aug 26 15:21:24 2023 GMT
        Subject: CN=John, C=IT, ST=Italia, O=Regione Lombardia
        Subject Public Key Info:
            Public Key Algorithm: id-ecPublicKey
                Public-Key: (256 bit)
                pub:
                    04:9a:bb:02:31:d5:e0:c3:0e:ae:4c:73:71:4e:48:
                    27:d3:53:da:4d:25:7b:e4:69:45:79:23:3d:b4:e2:
                    4a:a7:ac:33:7c:02:3e:eb:e5:75:50:4e:c6:ae:35:
                    a1:62:90:8b:98:0f:df:e0:6f:8e:80:b7:b2:ae:2d:
                    39:18:05:a2:a3
                ASN1 OID: secp256k1
        X509v3 extensions:
            X509v3 Key Usage: critical
                Digital Signature, Key Encipherment
            X509v3 Basic Constraints: critical
                CA:FALSE, pathlen:3
    Signature Algorithm: ecdsa-with-SHA256
         30:45:02:20:40:dd:38:f7:27:22:d9:b2:67:b2:ca:67:a2:87:
         1d:4a:b8:59:d4:18:d6:c4:3e:a2:05:20:e6:64:67:8c:9b:b5:
         02:21:00:8f:46:e4:4d:2a:6e:44:87:66:a6:63:4c:70:8f:68:
         e9:39:98:ac:a0:cd:bd:c3:d8:8b:01:d7:11:b9:51:13:8d
-----BEGIN CERTIFICATE-----
MIIB9jCCAZygAwIBAgIBMTAKBggqhkjOPQQDAjCBnTEaMBgGA1UEAwwRUmVnaW9u
ZSBMb21iYXJkaWExCzAJBgNVBAYTAklUMQ8wDQYDVQQIDAZJdGFsaWExGDAWBgNV
BAoMD0UtVm90aW5nIHN5c3RlbTEiMCAGA1UECwwZRS1Wb3Rpbmcgc3lzdGVtIGF1
dGhvcml0eTEjMCEGCSqGSIb3DQEJARYUTG9tYmFyZGlhQGV2b3RpbmcuaXQwHhcN
MjIwODI2MTUyMTI0WhcNMjMwODI2MTUyMTI0WjBJMQ0wCwYDVQQDDARKb2huMQsw
CQYDVQQGEwJJVDEPMA0GA1UECAwGSXRhbGlhMRowGAYDVQQKDBFSZWdpb25lIExv
bWJhcmRpYTBWMBAGByqGSM49AgEGBSuBBAAKA0IABJq7AjHV4MMOrkxzcU5IJ9NT
2k0le+RpRXkjPbTiSqesM3wCPuvldVBOxq41oWKQi5gP3+BvjoC3sq4tORgFoqOj
IzAhMA4GA1UdDwEB/wQEAwIFoDAPBgNVHRMBAf8EBTADAgEDMAoGCCqGSM49BAMC
A0gAMEUCIEDdOPcnItmyZ7LKZ6KHHUq4WdQY1sQ+ogUg5mRnjJu1AiEAj0bkTSpu
RIdmpmNMcI9o6TmYrKDNvcPYiwHXEblRE40=
-----END CERTIFICATE-----
