Certificate:
    Data:
        Version: 3 (0x2)
        Serial Number: 44 (0x2c)
        Signature Algorithm: ecdsa-with-SHA256
        Issuer: CN=Regione Sardegna, C=IT, ST=Italia, O=E-Voting system, OU=E-Voting system authority/emailAddress=Sardegna@evoting.it
        Validity
            Not Before: Aug 26 15:21:29 2022 GMT
            Not After : Aug 26 15:21:29 2023 GMT
        Subject: CN=Johnnie, C=IT, ST=Italia, O=Regione Sardegna
        Subject Public Key Info:
            Public Key Algorithm: id-ecPublicKey
                Public-Key: (256 bit)
                pub:
                    04:eb:50:50:f4:48:7c:64:be:7a:31:dd:32:a4:1c:
                    ac:2b:f7:e4:8e:aa:3e:a0:22:5e:ab:27:38:d8:b5:
                    42:c6:75:8b:31:84:a4:71:ff:5b:62:68:cb:81:9b:
                    09:f4:d7:78:e7:9d:a4:37:af:38:9c:d9:91:9b:18:
                    21:12:ba:05:3a
                ASN1 OID: secp256k1
        X509v3 extensions:
            X509v3 Key Usage: critical
                Digital Signature, Key Encipherment
            X509v3 Basic Constraints: critical
                CA:FALSE, pathlen:3
    Signature Algorithm: ecdsa-with-SHA256
         30:45:02:20:3d:95:5c:23:53:f3:4b:c6:05:7a:f1:ba:51:df:
         97:93:77:a6:45:b6:a9:e6:23:0e:e4:f0:0a:5c:fe:32:fb:2a:
         02:21:00:f2:53:7b:04:16:08:2b:7a:b8:73:8c:f1:41:d3:9d:
         75:f8:a5:d3:31:e7:56:0e:c5:e0:bf:e1:b2:15:d8:4b:3d
-----BEGIN CERTIFICATE-----
MIIB9jCCAZygAwIBAgIBLDAKBggqhkjOPQQDAjCBmzEZMBcGA1UEAwwQUmVnaW9u
ZSBTYXJkZWduYTELMAkGA1UEBhMCSVQxDzANBgNVBAgMBkl0YWxpYTEYMBYGA1UE
CgwPRS1Wb3Rpbmcgc3lzdGVtMSIwIAYDVQQLDBlFLVZvdGluZyBzeXN0ZW0gYXV0
aG9yaXR5MSIwIAYJKoZIhvcNAQkBFhNTYXJkZWduYUBldm90aW5nLml0MB4XDTIy
MDgyNjE1MjEyOVoXDTIzMDgyNjE1MjEyOVowSzEQMA4GA1UEAwwHSm9obm5pZTEL
MAkGA1UEBhMCSVQxDzANBgNVBAgMBkl0YWxpYTEZMBcGA1UECgwQUmVnaW9uZSBT
YXJkZWduYTBWMBAGByqGSM49AgEGBSuBBAAKA0IABOtQUPRIfGS+ejHdMqQcrCv3
5I6qPqAiXqsnONi1QsZ1izGEpHH/W2Joy4GbCfTXeOedpDevOJzZkZsYIRK6BTqj
IzAhMA4GA1UdDwEB/wQEAwIFoDAPBgNVHRMBAf8EBTADAgEDMAoGCCqGSM49BAMC
A0gAMEUCID2VXCNT80vGBXrxulHfl5N3pkW2qeYjDuTwClz+MvsqAiEA8lN7BBYI
K3q4c4zxQdOddfil0zHnVg7F4L/hshXYSz0=
-----END CERTIFICATE-----
