Certificate:
    Data:
        Version: 3 (0x2)
        Serial Number: 17 (0x11)
        Signature Algorithm: ecdsa-with-SHA256
        Issuer: CN=Regione Molise, C=IT, ST=Italia, O=E-Voting system, OU=E-Voting system authority/emailAddress=Molise@evoting.it
        Validity
            Not Before: Aug  3 13:26:37 2022 GMT
            Not After : Aug  3 13:26:37 2023 GMT
        Subject: CN=Johnny, C=IT, ST=Italia, O=Regione Molise
        Subject Public Key Info:
            Public Key Algorithm: id-ecPublicKey
                Public-Key: (256 bit)
                pub:
                    04:72:f8:16:42:26:11:f7:2b:4a:2f:fb:63:e7:87:
                    24:96:84:04:2b:54:57:e0:95:8d:06:56:ad:fc:cf:
                    ce:d6:95:2c:57:e5:aa:b9:d3:13:97:c6:19:85:69:
                    5f:57:87:55:d7:07:25:ff:a9:f0:fb:c4:b8:ee:38:
                    be:b3:77:5b:0b
                ASN1 OID: prime256v1
                NIST CURVE: P-256
        X509v3 extensions:
            X509v3 Key Usage: critical
                Digital Signature, Key Encipherment
            X509v3 Basic Constraints: critical
                CA:FALSE, pathlen:3
    Signature Algorithm: ecdsa-with-SHA256
         30:45:02:21:00:ff:ae:a3:25:84:01:12:94:d1:aa:a6:6f:1f:
         fc:c5:3f:fd:98:59:64:dc:b8:4d:16:77:b0:b0:ef:bb:c7:13:
         cd:02:20:0b:24:46:82:b7:ea:72:ae:78:52:82:6b:82:2d:bc:
         ed:fd:3e:14:62:1e:38:e7:84:e5:95:f3:11:5c:37:6a:47
-----BEGIN CERTIFICATE-----
MIIB8jCCAZigAwIBAgIBETAKBggqhkjOPQQDAjCBlzEXMBUGA1UEAwwOUmVnaW9u
ZSBNb2xpc2UxCzAJBgNVBAYTAklUMQ8wDQYDVQQIDAZJdGFsaWExGDAWBgNVBAoM
D0UtVm90aW5nIHN5c3RlbTEiMCAGA1UECwwZRS1Wb3Rpbmcgc3lzdGVtIGF1dGhv
cml0eTEgMB4GCSqGSIb3DQEJARYRTW9saXNlQGV2b3RpbmcuaXQwHhcNMjIwODAz
MTMyNjM3WhcNMjMwODAzMTMyNjM3WjBIMQ8wDQYDVQQDDAZKb2hubnkxCzAJBgNV
BAYTAklUMQ8wDQYDVQQIDAZJdGFsaWExFzAVBgNVBAoMDlJlZ2lvbmUgTW9saXNl
MFkwEwYHKoZIzj0CAQYIKoZIzj0DAQcDQgAEcvgWQiYR9ytKL/tj54ckloQEK1RX
4JWNBlat/M/O1pUsV+WqudMTl8YZhWlfV4dV1wcl/6nw+8S47ji+s3dbC6MjMCEw
DgYDVR0PAQH/BAQDAgWgMA8GA1UdEwEB/wQFMAMCAQMwCgYIKoZIzj0EAwIDSAAw
RQIhAP+uoyWEARKU0aqmbx/8xT/9mFlk3LhNFnewsO+7xxPNAiALJEaCt+pyrnhS
gmuCLbzt/T4UYh4454TllfMRXDdqRw==
-----END CERTIFICATE-----
