Certificate:
    Data:
        Version: 3 (0x2)
        Serial Number: 63 (0x3f)
        Signature Algorithm: ecdsa-with-SHA256
        Issuer: CN=Regione Piemonte, C=IT, ST=Italia, O=E-Voting system, OU=E-Voting system authority/emailAddress=Piemonte@evoting.it
        Validity
            Not Before: Aug  3 13:28:21 2022 GMT
            Not After : Aug  3 13:28:21 2023 GMT
        Subject: CN=Johnathan, C=IT, ST=Italia, O=Regione Piemonte
        Subject Public Key Info:
            Public Key Algorithm: id-ecPublicKey
                Public-Key: (256 bit)
                pub:
                    04:07:ce:43:55:8d:aa:3d:b9:c5:8e:55:5c:46:39:
                    4b:44:f8:91:56:f5:53:bf:67:e0:5b:8a:7c:76:c0:
                    7e:a1:1f:b4:66:87:d0:00:ee:65:36:56:da:73:02:
                    b0:dc:45:71:70:ae:31:e0:a8:c6:2e:73:e8:5b:85:
                    e8:ee:c5:53:1d
                ASN1 OID: prime256v1
                NIST CURVE: P-256
        X509v3 extensions:
            X509v3 Key Usage: critical
                Digital Signature, Key Encipherment
            X509v3 Basic Constraints: critical
                CA:FALSE, pathlen:3
    Signature Algorithm: ecdsa-with-SHA256
         30:45:02:20:26:07:76:4f:9a:85:26:d3:96:4d:dd:ad:b3:3e:
         1f:17:f4:36:9d:3a:96:fb:3a:6c:3d:95:e6:93:72:c4:7d:6b:
         02:21:00:f9:86:47:29:13:12:ac:2d:31:6f:3f:c1:35:21:2c:
         70:14:9e:64:9f:24:21:b8:a0:ca:6c:a5:40:0f:94:19:f1
-----BEGIN CERTIFICATE-----
MIIB+zCCAaGgAwIBAgIBPzAKBggqhkjOPQQDAjCBmzEZMBcGA1UEAwwQUmVnaW9u
ZSBQaWVtb250ZTELMAkGA1UEBhMCSVQxDzANBgNVBAgMBkl0YWxpYTEYMBYGA1UE
CgwPRS1Wb3Rpbmcgc3lzdGVtMSIwIAYDVQQLDBlFLVZvdGluZyBzeXN0ZW0gYXV0
aG9yaXR5MSIwIAYJKoZIhvcNAQkBFhNQaWVtb250ZUBldm90aW5nLml0MB4XDTIy
MDgwMzEzMjgyMVoXDTIzMDgwMzEzMjgyMVowTTESMBAGA1UEAwwJSm9obmF0aGFu
MQswCQYDVQQGEwJJVDEPMA0GA1UECAwGSXRhbGlhMRkwFwYDVQQKDBBSZWdpb25l
IFBpZW1vbnRlMFkwEwYHKoZIzj0CAQYIKoZIzj0DAQcDQgAEB85DVY2qPbnFjlVc
RjlLRPiRVvVTv2fgW4p8dsB+oR+0ZofQAO5lNlbacwKw3EVxcK4x4KjGLnPoW4Xo
7sVTHaMjMCEwDgYDVR0PAQH/BAQDAgWgMA8GA1UdEwEB/wQFMAMCAQMwCgYIKoZI
zj0EAwIDSAAwRQIgJgd2T5qFJtOWTd2tsz4fF/Q2nTqW+zpsPZXmk3LEfWsCIQD5
hkcpExKsLTFvP8E1ISxwFJ5knyQhuKDKbKVAD5QZ8Q==
-----END CERTIFICATE-----
