Certificate:
    Data:
        Version: 3 (0x2)
        Serial Number: 42 (0x2a)
        Signature Algorithm: ecdsa-with-SHA256
        Issuer: CN=Regione Puglia, C=IT, ST=Italia, O=E-Voting system, OU=E-Voting system authority/emailAddress=Puglia@evoting.it
        Validity
            Not Before: Aug 26 15:21:09 2022 GMT
            Not After : Aug 26 15:21:09 2023 GMT
        Subject: CN=Johnny, C=IT, ST=Italia, O=Regione Puglia
        Subject Public Key Info:
            Public Key Algorithm: id-ecPublicKey
                Public-Key: (256 bit)
                pub:
                    04:37:c3:21:6b:b6:83:27:7b:17:13:4b:9c:bb:05:
                    32:63:32:9a:f5:b3:d0:99:7c:20:7f:81:45:51:c5:
                    4e:09:72:68:6e:22:26:16:2d:31:d5:a3:34:10:0b:
                    66:fc:38:17:b1:95:e9:8e:c0:2b:d3:3f:fb:4e:13:
                    0f:77:ea:8b:c2
                ASN1 OID: secp256k1
        X509v3 extensions:
            X509v3 Key Usage: critical
                Digital Signature, Key Encipherment
            X509v3 Basic Constraints: critical
                CA:FALSE, pathlen:3
    Signature Algorithm: ecdsa-with-SHA256
         30:45:02:21:00:fd:73:30:be:41:6f:41:5f:f4:9f:25:d9:cf:
         dc:a7:65:29:ce:57:5a:9e:f9:60:ff:b6:57:78:86:29:9e:03:
         81:02:20:37:66:fd:79:ee:fc:b3:87:1d:15:c8:41:49:f0:a8:
         ff:e4:84:7d:5b:4a:2b:43:bb:95:98:bd:97:fe:3b:e0:07
-----BEGIN CERTIFICATE-----
MIIB7zCCAZWgAwIBAgIBKjAKBggqhkjOPQQDAjCBlzEXMBUGA1UEAwwOUmVnaW9u
ZSBQdWdsaWExCzAJBgNVBAYTAklUMQ8wDQYDVQQIDAZJdGFsaWExGDAWBgNVBAoM
D0UtVm90aW5nIHN5c3RlbTEiMCAGA1UECwwZRS1Wb3Rpbmcgc3lzdGVtIGF1dGhv
cml0eTEgMB4GCSqGSIb3DQEJARYRUHVnbGlhQGV2b3RpbmcuaXQwHhcNMjIwODI2
MTUyMTA5WhcNMjMwODI2MTUyMTA5WjBIMQ8wDQYDVQQDDAZKb2hubnkxCzAJBgNV
BAYTAklUMQ8wDQYDVQQIDAZJdGFsaWExFzAVBgNVBAoMDlJlZ2lvbmUgUHVnbGlh
MFYwEAYHKoZIzj0CAQYFK4EEAAoDQgAEN8Mha7aDJ3sXE0ucuwUyYzKa9bPQmXwg
f4FFUcVOCXJobiImFi0x1aM0EAtm/DgXsZXpjsAr0z/7ThMPd+qLwqMjMCEwDgYD
VR0PAQH/BAQDAgWgMA8GA1UdEwEB/wQFMAMCAQMwCgYIKoZIzj0EAwIDSAAwRQIh
AP1zML5Bb0Ff9J8l2c/cp2Upzldanvlg/7ZXeIYpngOBAiA3Zv157vyzhx0VyEFJ
8Kj/5IR9W0orQ7uVmL2X/jvgBw==
-----END CERTIFICATE-----
