Certificate:
    Data:
        Version: 3 (0x2)
        Serial Number: 6 (0x6)
        Signature Algorithm: ecdsa-with-SHA256
        Issuer: CN=Regione Lazio, C=IT, ST=Italia, O=E-Voting system, OU=E-Voting system authority/emailAddress=Lazio@evoting.it
        Validity
            Not Before: Aug 26 15:18:46 2022 GMT
            Not After : Aug 26 15:18:46 2023 GMT
        Subject: CN=Jonathan, C=IT, ST=Italia, O=Regione Lazio
        Subject Public Key Info:
            Public Key Algorithm: id-ecPublicKey
                Public-Key: (256 bit)
                pub:
                    04:f9:06:59:b1:18:5b:cb:bd:7b:a2:44:31:70:f3:
                    d1:f7:7e:30:a1:77:24:21:aa:de:19:b1:7a:eb:ca:
                    46:78:a5:41:2e:0e:53:76:3b:66:7c:32:a4:c2:c4:
                    16:2c:c5:a0:a1:f1:c2:60:aa:f5:4b:a9:34:01:e4:
                    21:4b:2a:26:64
                ASN1 OID: secp256k1
        X509v3 extensions:
            X509v3 Key Usage: critical
                Digital Signature, Key Encipherment
            X509v3 Basic Constraints: critical
                CA:FALSE, pathlen:3
    Signature Algorithm: ecdsa-with-SHA256
         30:44:02:20:11:6d:5e:92:37:52:d8:40:44:bf:a4:3b:62:c7:
         d2:e9:3a:10:c1:8a:8c:1f:8c:00:03:76:66:c0:3f:bf:59:0a:
         02:20:63:02:12:5a:01:d5:fb:cd:26:3b:67:bd:3d:16:ff:70:
         d5:66:57:e2:e5:9a:6a:07:3e:70:f4:fa:c3:a3:95:a1
-----BEGIN CERTIFICATE-----
MIIB7TCCAZSgAwIBAgIBBjAKBggqhkjOPQQDAjCBlTEWMBQGA1UEAwwNUmVnaW9u
ZSBMYXppbzELMAkGA1UEBhMCSVQxDzANBgNVBAgMBkl0YWxpYTEYMBYGA1UECgwP
RS1Wb3Rpbmcgc3lzdGVtMSIwIAYDVQQLDBlFLVZvdGluZyBzeXN0ZW0gYXV0aG9y
aXR5MR8wHQYJKoZIhvcNAQkBFhBMYXppb0Bldm90aW5nLml0MB4XDTIyMDgyNjE1
MTg0NloXDTIzMDgyNjE1MTg0NlowSTERMA8GA1UEAwwISm9uYXRoYW4xCzAJBgNV
BAYTAklUMQ8wDQYDVQQIDAZJdGFsaWExFjAUBgNVBAoMDVJlZ2lvbmUgTGF6aW8w
VjAQBgcqhkjOPQIBBgUrgQQACgNCAAT5BlmxGFvLvXuiRDFw89H3fjChdyQhqt4Z
sXrrykZ4pUEuDlN2O2Z8MqTCxBYsxaCh8cJgqvVLqTQB5CFLKiZkoyMwITAOBgNV
HQ8BAf8EBAMCBaAwDwYDVR0TAQH/BAUwAwIBAzAKBggqhkjOPQQDAgNHADBEAiAR
bV6SN1LYQES/pDtix9LpOhDBiowfjAADdmbAP79ZCgIgYwISWgHV+80mO2e9PRb/
cNVmV+LlmmoHPnD0+sOjlaE=
-----END CERTIFICATE-----
