Certificate:
    Data:
        Version: 3 (0x2)
        Serial Number: 35 (0x23)
        Signature Algorithm: ecdsa-with-SHA256
        Issuer: CN=Regione Abruzzo, C=IT, ST=Italia, O=E-Voting system, OU=E-Voting system authority/emailAddress=Abruzzo@evoting.it
        Validity
            Not Before: Aug  3 13:27:19 2022 GMT
            Not After : Aug  3 13:27:19 2023 GMT
        Subject: CN=Joni, C=IT, ST=Italia, O=Regione Abruzzo
        Subject Public Key Info:
            Public Key Algorithm: id-ecPublicKey
                Public-Key: (256 bit)
                pub:
                    04:84:69:e6:d1:7d:8a:90:72:95:a8:17:56:75:ba:
                    b3:30:ed:8d:54:e7:78:9b:bb:cc:60:9a:1f:12:ad:
                    65:4f:b9:65:79:3d:e1:31:8f:d0:68:7d:a5:f3:85:
                    e1:75:78:ba:38:1a:b5:72:75:64:14:90:e5:68:81:
                    95:55:b5:45:6a
                ASN1 OID: prime256v1
                NIST CURVE: P-256
        X509v3 extensions:
            X509v3 Key Usage: critical
                Digital Signature, Key Encipherment
            X509v3 Basic Constraints: critical
                CA:FALSE, pathlen:3
    Signature Algorithm: ecdsa-with-SHA256
         30:45:02:21:00:92:0f:af:16:37:ae:1d:15:0a:77:bc:fc:83:
         b1:d0:f8:fa:6a:b6:8e:30:41:3c:94:05:c0:0d:48:ca:8d:06:
         48:02:20:2c:ac:4b:b3:b2:ee:d9:2e:15:c1:62:66:47:6a:9c:
         bd:06:97:15:e7:dd:88:52:51:ae:ed:f0:7a:fc:ad:74:99
-----BEGIN CERTIFICATE-----
MIIB8zCCAZmgAwIBAgIBIzAKBggqhkjOPQQDAjCBmTEYMBYGA1UEAwwPUmVnaW9u
ZSBBYnJ1enpvMQswCQYDVQQGEwJJVDEPMA0GA1UECAwGSXRhbGlhMRgwFgYDVQQK
DA9FLVZvdGluZyBzeXN0ZW0xIjAgBgNVBAsMGUUtVm90aW5nIHN5c3RlbSBhdXRo
b3JpdHkxITAfBgkqhkiG9w0BCQEWEkFicnV6em9AZXZvdGluZy5pdDAeFw0yMjA4
MDMxMzI3MTlaFw0yMzA4MDMxMzI3MTlaMEcxDTALBgNVBAMMBEpvbmkxCzAJBgNV
BAYTAklUMQ8wDQYDVQQIDAZJdGFsaWExGDAWBgNVBAoMD1JlZ2lvbmUgQWJydXp6
bzBZMBMGByqGSM49AgEGCCqGSM49AwEHA0IABIRp5tF9ipBylagXVnW6szDtjVTn
eJu7zGCaHxKtZU+5ZXk94TGP0Gh9pfOF4XV4ujgatXJ1ZBSQ5WiBlVW1RWqjIzAh
MA4GA1UdDwEB/wQEAwIFoDAPBgNVHRMBAf8EBTADAgEDMAoGCCqGSM49BAMCA0gA
MEUCIQCSD68WN64dFQp3vPyDsdD4+mq2jjBBPJQFwA1Iyo0GSAIgLKxLs7Lu2S4V
wWJmR2qcvQaXFefdiFJRru3wevytdJk=
-----END CERTIFICATE-----
