Certificate:
    Data:
        Version: 3 (0x2)
        Serial Number: 6 (0x6)
        Signature Algorithm: ecdsa-with-SHA256
        Issuer: CN=Regione Abruzzo, C=IT, ST=Italia, O=E-Voting system, OU=E-Voting system authority/emailAddress=Abruzzo@evoting.it
        Validity
            Not Before: Aug  3 13:25:55 2022 GMT
            Not After : Aug  3 13:25:55 2023 GMT
        Subject: CN=Jordon, C=IT, ST=Italia, O=Regione Abruzzo
        Subject Public Key Info:
            Public Key Algorithm: id-ecPublicKey
                Public-Key: (256 bit)
                pub:
                    04:79:3e:a9:8e:a4:5b:47:c0:81:bb:7c:7d:6d:bf:
                    41:fa:dd:1b:b6:2f:23:12:99:79:ef:7a:6a:b1:1f:
                    aa:0b:bf:21:9f:0e:fc:16:3b:f9:b2:5a:3e:78:0e:
                    23:88:d2:01:b2:19:fb:f9:dd:b2:2e:6b:2a:5f:2d:
                    4f:68:b2:22:cf
                ASN1 OID: prime256v1
                NIST CURVE: P-256
        X509v3 extensions:
            X509v3 Key Usage: critical
                Digital Signature, Key Encipherment
            X509v3 Basic Constraints: critical
                CA:FALSE, pathlen:3
    Signature Algorithm: ecdsa-with-SHA256
         30:45:02:20:39:a5:40:7c:f6:57:cb:28:5e:94:18:ef:90:28:
         05:f7:bc:5e:3f:ac:2f:cc:50:d1:5b:52:33:d9:c6:a4:f1:d9:
         02:21:00:94:a3:13:be:2e:35:c0:f1:b8:56:93:d5:0a:07:7e:
         5b:3f:74:bb:25:15:4f:a0:c4:70:86:cc:fe:66:2e:8d:2f
-----BEGIN CERTIFICATE-----
MIIB9TCCAZugAwIBAgIBBjAKBggqhkjOPQQDAjCBmTEYMBYGA1UEAwwPUmVnaW9u
ZSBBYnJ1enpvMQswCQYDVQQGEwJJVDEPMA0GA1UECAwGSXRhbGlhMRgwFgYDVQQK
DA9FLVZvdGluZyBzeXN0ZW0xIjAgBgNVBAsMGUUtVm90aW5nIHN5c3RlbSBhdXRo
b3JpdHkxITAfBgkqhkiG9w0BCQEWEkFicnV6em9AZXZvdGluZy5pdDAeFw0yMjA4
MDMxMzI1NTVaFw0yMzA4MDMxMzI1NTVaMEkxDzANBgNVBAMMBkpvcmRvbjELMAkG
A1UEBhMCSVQxDzANBgNVBAgMBkl0YWxpYTEYMBYGA1UECgwPUmVnaW9uZSBBYnJ1
enpvMFkwEwYHKoZIzj0CAQYIKoZIzj0DAQcDQgAEeT6pjqRbR8CBu3x9bb9B+t0b
ti8jEpl573pqsR+qC78hnw78Fjv5slo+eA4jiNIBshn7+d2yLmsqXy1PaLIiz6Mj
MCEwDgYDVR0PAQH/BAQDAgWgMA8GA1UdEwEB/wQFMAMCAQMwCgYIKoZIzj0EAwID
SAAwRQIgOaVAfPZXyyhelBjvkCgF97xeP6wvzFDRW1Iz2cak8dkCIQCUoxO+LjXA
8bhWk9UKB35bP3S7JRVPoMRwhsz+Zi6NLw==
-----END CERTIFICATE-----
