Certificate:
    Data:
        Version: 3 (0x2)
        Serial Number: 14 (0xe)
        Signature Algorithm: ecdsa-with-SHA256
        Issuer: CN=Regione Sardegna, C=IT, ST=Italia, O=E-Voting system, OU=E-Voting system authority/emailAddress=Sardegna@evoting.it
        Validity
            Not Before: Aug  3 13:26:56 2022 GMT
            Not After : Aug  3 13:26:56 2023 GMT
        Subject: CN=Jordan, C=IT, ST=Italia, O=Regione Sardegna
        Subject Public Key Info:
            Public Key Algorithm: id-ecPublicKey
                Public-Key: (256 bit)
                pub:
                    04:4f:48:6b:0f:08:8a:f4:50:f2:77:fd:ee:29:79:
                    7a:78:d0:4e:07:35:f8:2b:e5:c6:77:be:bf:fd:23:
                    51:c8:72:b3:3e:2c:d0:59:95:b8:85:3d:57:b3:48:
                    38:62:de:4e:6b:47:a7:12:3b:16:05:ca:90:09:10:
                    25:33:9a:f3:66
                ASN1 OID: prime256v1
                NIST CURVE: P-256
        X509v3 extensions:
            X509v3 Key Usage: critical
                Digital Signature, Key Encipherment
            X509v3 Basic Constraints: critical
                CA:FALSE, pathlen:3
    Signature Algorithm: ecdsa-with-SHA256
         30:44:02:20:12:fb:1f:fb:da:f8:a1:c6:9d:05:cb:ee:61:a1:
         53:ca:95:36:0f:59:fc:fc:25:87:29:66:34:cd:c2:35:e6:07:
         02:20:1d:0b:69:9a:3f:b0:2d:2d:33:fe:9b:7d:6a:39:f8:5f:
         9c:71:97:59:7a:b1:64:5a:25:dc:c9:c1:dc:85:35:5c
-----BEGIN CERTIFICATE-----
MIIB9zCCAZ6gAwIBAgIBDjAKBggqhkjOPQQDAjCBmzEZMBcGA1UEAwwQUmVnaW9u
ZSBTYXJkZWduYTELMAkGA1UEBhMCSVQxDzANBgNVBAgMBkl0YWxpYTEYMBYGA1UE
CgwPRS1Wb3Rpbmcgc3lzdGVtMSIwIAYDVQQLDBlFLVZvdGluZyBzeXN0ZW0gYXV0
aG9yaXR5MSIwIAYJKoZIhvcNAQkBFhNTYXJkZWduYUBldm90aW5nLml0MB4XDTIy
MDgwMzEzMjY1NloXDTIzMDgwMzEzMjY1NlowSjEPMA0GA1UEAwwGSm9yZGFuMQsw
CQYDVQQGEwJJVDEPMA0GA1UECAwGSXRhbGlhMRkwFwYDVQQKDBBSZWdpb25lIFNh
cmRlZ25hMFkwEwYHKoZIzj0CAQYIKoZIzj0DAQcDQgAET0hrDwiK9FDyd/3uKXl6
eNBOBzX4K+XGd76//SNRyHKzPizQWZW4hT1Xs0g4Yt5Oa0enEjsWBcqQCRAlM5rz
ZqMjMCEwDgYDVR0PAQH/BAQDAgWgMA8GA1UdEwEB/wQFMAMCAQMwCgYIKoZIzj0E
AwIDRwAwRAIgEvsf+9r4ocadBcvuYaFTypU2D1n8/CWHKWY0zcI15gcCIB0LaZo/
sC0tM/6bfWo5+F+ccZdZerFkWiXcycHchTVc
-----END CERTIFICATE-----
