Certificate:
    Data:
        Version: 3 (0x2)
        Serial Number: 17 (0x11)
        Signature Algorithm: ecdsa-with-SHA256
        Issuer: CN=Regione Calabria, C=IT, ST=Italia, O=E-Voting system, OU=E-Voting system authority/emailAddress=Calabria@evoting.it
        Validity
            Not Before: Aug 26 15:19:36 2022 GMT
            Not After : Aug 26 15:19:36 2023 GMT
        Subject: CN=Jorge, C=IT, ST=Italia, O=Regione Calabria
        Subject Public Key Info:
            Public Key Algorithm: id-ecPublicKey
                Public-Key: (256 bit)
                pub:
                    04:6c:3d:6c:11:24:1a:e7:06:1b:df:86:29:c1:28:
                    2f:22:7e:bd:68:8f:dd:cf:10:1c:ee:f3:62:a6:28:
                    48:f7:35:27:af:97:01:93:be:69:5e:fb:72:07:4a:
                    a0:16:7a:dd:df:70:8a:52:bd:d7:f6:45:d3:b8:e3:
                    d8:37:84:c7:36
                ASN1 OID: secp256k1
        X509v3 extensions:
            X509v3 Key Usage: critical
                Digital Signature, Key Encipherment
            X509v3 Basic Constraints: critical
                CA:FALSE, pathlen:3
    Signature Algorithm: ecdsa-with-SHA256
         30:44:02:20:5b:ce:54:62:bc:16:4b:ff:a4:78:b0:47:a5:12:
         67:da:94:fa:b4:12:cf:fd:db:28:48:e2:2b:2d:8c:39:7f:50:
         02:20:3d:04:39:1a:5f:a3:59:4f:a5:04:73:3f:8c:d2:27:57:
         b9:e8:dc:46:e3:c7:d3:7a:c6:f4:d4:ee:4c:02:f2:cd
-----BEGIN CERTIFICATE-----
MIIB8zCCAZqgAwIBAgIBETAKBggqhkjOPQQDAjCBmzEZMBcGA1UEAwwQUmVnaW9u
ZSBDYWxhYnJpYTELMAkGA1UEBhMCSVQxDzANBgNVBAgMBkl0YWxpYTEYMBYGA1UE
CgwPRS1Wb3Rpbmcgc3lzdGVtMSIwIAYDVQQLDBlFLVZvdGluZyBzeXN0ZW0gYXV0
aG9yaXR5MSIwIAYJKoZIhvcNAQkBFhNDYWxhYnJpYUBldm90aW5nLml0MB4XDTIy
MDgyNjE1MTkzNloXDTIzMDgyNjE1MTkzNlowSTEOMAwGA1UEAwwFSm9yZ2UxCzAJ
BgNVBAYTAklUMQ8wDQYDVQQIDAZJdGFsaWExGTAXBgNVBAoMEFJlZ2lvbmUgQ2Fs
YWJyaWEwVjAQBgcqhkjOPQIBBgUrgQQACgNCAARsPWwRJBrnBhvfhinBKC8ifr1o
j93PEBzu82KmKEj3NSevlwGTvmle+3IHSqAWet3fcIpSvdf2RdO449g3hMc2oyMw
ITAOBgNVHQ8BAf8EBAMCBaAwDwYDVR0TAQH/BAUwAwIBAzAKBggqhkjOPQQDAgNH
ADBEAiBbzlRivBZL/6R4sEelEmfalPq0Es/92yhI4istjDl/UAIgPQQ5Gl+jWU+l
BHM/jNInV7no3Ebjx9N6xvTU7kwC8s0=
-----END CERTIFICATE-----
