Certificate:
    Data:
        Version: 3 (0x2)
        Serial Number: 9 (0x9)
        Signature Algorithm: ecdsa-with-SHA256
        Issuer: CN=Regione Toscana, C=IT, ST=Italia, O=E-Voting system, OU=E-Voting system authority/emailAddress=Toscana@evoting.it
        Validity
            Not Before: Aug  3 13:26:01 2022 GMT
            Not After : Aug  3 13:26:01 2023 GMT
        Subject: CN=Joseph, C=IT, ST=Italia, O=Regione Toscana
        Subject Public Key Info:
            Public Key Algorithm: id-ecPublicKey
                Public-Key: (256 bit)
                pub:
                    04:15:ae:87:47:10:7c:84:cc:3f:06:ae:18:44:06:
                    e3:d9:13:63:23:e8:c9:7a:b3:7b:15:8a:70:a7:c8:
                    7d:5f:31:bb:0f:84:e6:d2:2e:94:66:c1:b6:12:49:
                    06:c3:de:a5:89:46:dd:1a:9b:76:f7:e0:0f:4c:43:
                    65:09:a5:5b:fe
                ASN1 OID: prime256v1
                NIST CURVE: P-256
        X509v3 extensions:
            X509v3 Key Usage: critical
                Digital Signature, Key Encipherment
            X509v3 Basic Constraints: critical
                CA:FALSE, pathlen:3
    Signature Algorithm: ecdsa-with-SHA256
         30:45:02:21:00:f5:c4:57:8f:46:b5:f8:95:a9:e1:c8:49:6e:
         d4:99:48:af:37:1a:40:fb:50:59:2a:bc:80:23:ce:c6:31:49:
         04:02:20:57:13:bb:68:dd:ea:a8:a8:79:cb:a5:b8:ac:37:2b:
         ed:f0:c6:b1:02:c6:da:8e:82:7a:a5:7d:94:e3:cb:58:56
-----BEGIN CERTIFICATE-----
MIIB9TCCAZugAwIBAgIBCTAKBggqhkjOPQQDAjCBmTEYMBYGA1UEAwwPUmVnaW9u
ZSBUb3NjYW5hMQswCQYDVQQGEwJJVDEPMA0GA1UECAwGSXRhbGlhMRgwFgYDVQQK
DA9FLVZvdGluZyBzeXN0ZW0xIjAgBgNVBAsMGUUtVm90aW5nIHN5c3RlbSBhdXRo
b3JpdHkxITAfBgkqhkiG9w0BCQEWElRvc2NhbmFAZXZvdGluZy5pdDAeFw0yMjA4
MDMxMzI2MDFaFw0yMzA4MDMxMzI2MDFaMEkxDzANBgNVBAMMBkpvc2VwaDELMAkG
A1UEBhMCSVQxDzANBgNVBAgMBkl0YWxpYTEYMBYGA1UECgwPUmVnaW9uZSBUb3Nj
YW5hMFkwEwYHKoZIzj0CAQYIKoZIzj0DAQcDQgAEFa6HRxB8hMw/Bq4YRAbj2RNj
I+jJerN7FYpwp8h9XzG7D4Tm0i6UZsG2EkkGw96liUbdGpt29+APTENlCaVb/qMj
MCEwDgYDVR0PAQH/BAQDAgWgMA8GA1UdEwEB/wQFMAMCAQMwCgYIKoZIzj0EAwID
SAAwRQIhAPXEV49GtfiVqeHISW7UmUivNxpA+1BZKryAI87GMUkEAiBXE7to3eqo
qHnLpbisNyvt8MaxAsbajoJ6pX2U48tYVg==
-----END CERTIFICATE-----
