Certificate:
    Data:
        Version: 3 (0x2)
        Serial Number: 5 (0x5)
        Signature Algorithm: ecdsa-with-SHA256
        Issuer: CN=Regione Marche, C=IT, ST=Italia, O=E-Voting system, OU=E-Voting system authority/emailAddress=Marche@evoting.it
        Validity
            Not Before: Aug  3 13:25:53 2022 GMT
            Not After : Aug  3 13:25:53 2023 GMT
        Subject: CN=Josephine, C=IT, ST=Italia, O=Regione Marche
        Subject Public Key Info:
            Public Key Algorithm: id-ecPublicKey
                Public-Key: (256 bit)
                pub:
                    04:90:21:1d:fb:1e:2b:97:b4:3e:d9:56:83:c9:ef:
                    d7:59:37:7c:7b:ac:ed:8b:af:a2:af:08:eb:0f:10:
                    95:33:3a:d0:df:f8:f2:f0:e4:43:4c:11:3f:9e:62:
                    d8:a6:58:c2:8d:7a:78:4e:db:da:bb:1a:9b:a7:ec:
                    23:11:76:46:90
                ASN1 OID: prime256v1
                NIST CURVE: P-256
        X509v3 extensions:
            X509v3 Key Usage: critical
                Digital Signature, Key Encipherment
            X509v3 Basic Constraints: critical
                CA:FALSE, pathlen:3
    Signature Algorithm: ecdsa-with-SHA256
         30:45:02:21:00:ad:39:57:ef:d2:a6:eb:30:d8:64:39:4d:00:
         39:6c:46:b0:2a:9e:bf:2c:79:a6:d9:5a:c0:9e:d8:0e:b7:10:
         2e:02:20:07:e4:ed:5a:65:4b:01:67:5a:4c:e5:6d:47:9d:26:
         0f:38:58:5e:a8:49:ed:6d:1c:fc:64:4e:81:54:be:fe:20
-----BEGIN CERTIFICATE-----
MIIB9TCCAZugAwIBAgIBBTAKBggqhkjOPQQDAjCBlzEXMBUGA1UEAwwOUmVnaW9u
ZSBNYXJjaGUxCzAJBgNVBAYTAklUMQ8wDQYDVQQIDAZJdGFsaWExGDAWBgNVBAoM
D0UtVm90aW5nIHN5c3RlbTEiMCAGA1UECwwZRS1Wb3Rpbmcgc3lzdGVtIGF1dGhv
cml0eTEgMB4GCSqGSIb3DQEJARYRTWFyY2hlQGV2b3RpbmcuaXQwHhcNMjIwODAz
MTMyNTUzWhcNMjMwODAzMTMyNTUzWjBLMRIwEAYDVQQDDAlKb3NlcGhpbmUxCzAJ
BgNVBAYTAklUMQ8wDQYDVQQIDAZJdGFsaWExFzAVBgNVBAoMDlJlZ2lvbmUgTWFy
Y2hlMFkwEwYHKoZIzj0CAQYIKoZIzj0DAQcDQgAEkCEd+x4rl7Q+2VaDye/XWTd8
e6zti6+irwjrDxCVMzrQ3/jy8ORDTBE/nmLYpljCjXp4Ttvauxqbp+wjEXZGkKMj
MCEwDgYDVR0PAQH/BAQDAgWgMA8GA1UdEwEB/wQFMAMCAQMwCgYIKoZIzj0EAwID
SAAwRQIhAK05V+/Spusw2GQ5TQA5bEawKp6/LHmm2VrAntgOtxAuAiAH5O1aZUsB
Z1pM5W1HnSYPOFheqEntbRz8ZE6BVL7+IA==
-----END CERTIFICATE-----
