Certificate:
    Data:
        Version: 3 (0x2)
        Serial Number: 17 (0x11)
        Signature Algorithm: ecdsa-with-SHA256
        Issuer: CN=Regione Liguria, C=IT, ST=Italia, O=E-Voting system, OU=E-Voting system authority/emailAddress=Liguria@evoting.it
        Validity
            Not Before: Aug 26 15:19:09 2022 GMT
            Not After : Aug 26 15:19:09 2023 GMT
        Subject: CN=Josephine, C=IT, ST=Italia, O=Regione Liguria
        Subject Public Key Info:
            Public Key Algorithm: id-ecPublicKey
                Public-Key: (256 bit)
                pub:
                    04:a1:68:7a:7c:34:b5:3b:73:ca:52:a8:73:56:68:
                    d0:05:5e:93:c8:b4:b9:0c:02:8c:5b:19:cd:25:5f:
                    e3:39:db:cd:12:1a:fe:88:6c:e1:4c:06:9e:59:a8:
                    35:da:66:2b:3a:20:34:87:1c:97:6d:84:b3:74:a4:
                    f5:ae:20:45:bf
                ASN1 OID: secp256k1
        X509v3 extensions:
            X509v3 Key Usage: critical
                Digital Signature, Key Encipherment
            X509v3 Basic Constraints: critical
                CA:FALSE, pathlen:3
    Signature Algorithm: ecdsa-with-SHA256
         30:46:02:21:00:94:8e:47:33:23:49:a1:c1:c9:e9:c6:3e:26:
         c9:f4:fd:5d:75:81:c5:f7:b8:4d:2c:ae:18:b4:b1:6a:83:b3:
         6b:02:21:00:8e:02:f8:ec:d0:87:69:2e:f6:49:64:63:6c:d3:
         f7:c9:c7:a2:73:b9:91:a6:b8:23:89:48:e6:ee:1e:5b:71:aa
-----BEGIN CERTIFICATE-----
MIIB9jCCAZugAwIBAgIBETAKBggqhkjOPQQDAjCBmTEYMBYGA1UEAwwPUmVnaW9u
ZSBMaWd1cmlhMQswCQYDVQQGEwJJVDEPMA0GA1UECAwGSXRhbGlhMRgwFgYDVQQK
DA9FLVZvdGluZyBzeXN0ZW0xIjAgBgNVBAsMGUUtVm90aW5nIHN5c3RlbSBhdXRo
b3JpdHkxITAfBgkqhkiG9w0BCQEWEkxpZ3VyaWFAZXZvdGluZy5pdDAeFw0yMjA4
MjYxNTE5MDlaFw0yMzA4MjYxNTE5MDlaMEwxEjAQBgNVBAMMCUpvc2VwaGluZTEL
MAkGA1UEBhMCSVQxDzANBgNVBAgMBkl0YWxpYTEYMBYGA1UECgwPUmVnaW9uZSBM
aWd1cmlhMFYwEAYHKoZIzj0CAQYFK4EEAAoDQgAEoWh6fDS1O3PKUqhzVmjQBV6T
yLS5DAKMWxnNJV/jOdvNEhr+iGzhTAaeWag12mYrOiA0hxyXbYSzdKT1riBFv6Mj
MCEwDgYDVR0PAQH/BAQDAgWgMA8GA1UdEwEB/wQFMAMCAQMwCgYIKoZIzj0EAwID
SQAwRgIhAJSORzMjSaHByenGPibJ9P1ddYHF97hNLK4YtLFqg7NrAiEAjgL47NCH
aS72SWRjbNP3yceic7mRprgjiUjm7h5bcao=
-----END CERTIFICATE-----
