Certificate:
    Data:
        Version: 3 (0x2)
        Serial Number: 45 (0x2d)
        Signature Algorithm: ecdsa-with-SHA256
        Issuer: CN=Regione Valle_d_Aosta, C=IT, ST=Italia, O=E-Voting system, OU=E-Voting system authority/emailAddress=Valle_d_Aosta@evoting.it
        Validity
            Not Before: Aug 26 15:21:16 2022 GMT
            Not After : Aug 26 15:21:16 2023 GMT
        Subject: CN=Jose, C=IT, ST=Italia, O=Regione Valle_d_Aosta
        Subject Public Key Info:
            Public Key Algorithm: id-ecPublicKey
                Public-Key: (256 bit)
                pub:
                    04:08:4f:3b:0b:7c:6f:51:86:c3:ae:17:b6:1a:e1:
                    40:72:d6:85:5a:b8:a1:8c:b5:d4:a4:6c:ac:c0:5c:
                    14:03:b6:17:a8:c9:8a:1b:bf:8c:08:03:90:3f:be:
                    8e:1e:59:10:4f:23:0e:2d:b7:ff:35:fa:b7:07:d6:
                    61:87:2c:d0:69
                ASN1 OID: secp256k1
        X509v3 extensions:
            X509v3 Key Usage: critical
                Digital Signature, Key Encipherment
            X509v3 Basic Constraints: critical
                CA:FALSE, pathlen:3
    Signature Algorithm: ecdsa-with-SHA256
         30:44:02:20:16:41:e6:4f:32:87:b7:b5:76:60:58:39:b2:e9:
         c5:ed:d1:03:3d:a9:a5:4a:a7:c7:aa:77:ca:cc:22:95:b2:18:
         02:20:3b:77:75:95:39:7e:9f:45:26:19:4f:89:b3:f3:f4:0d:
         ae:ab:83:c8:3f:3a:6d:af:03:90:5a:24:16:73:7d:8c
-----BEGIN CERTIFICATE-----
MIICATCCAaigAwIBAgIBLTAKBggqhkjOPQQDAjCBpTEeMBwGA1UEAwwVUmVnaW9u
ZSBWYWxsZV9kX0Fvc3RhMQswCQYDVQQGEwJJVDEPMA0GA1UECAwGSXRhbGlhMRgw
FgYDVQQKDA9FLVZvdGluZyBzeXN0ZW0xIjAgBgNVBAsMGUUtVm90aW5nIHN5c3Rl
bSBhdXRob3JpdHkxJzAlBgkqhkiG9w0BCQEWGFZhbGxlX2RfQW9zdGFAZXZvdGlu
Zy5pdDAeFw0yMjA4MjYxNTIxMTZaFw0yMzA4MjYxNTIxMTZaME0xDTALBgNVBAMM
BEpvc2UxCzAJBgNVBAYTAklUMQ8wDQYDVQQIDAZJdGFsaWExHjAcBgNVBAoMFVJl
Z2lvbmUgVmFsbGVfZF9Bb3N0YTBWMBAGByqGSM49AgEGBSuBBAAKA0IABAhPOwt8
b1GGw64XthrhQHLWhVq4oYy11KRsrMBcFAO2F6jJihu/jAgDkD++jh5ZEE8jDi23
/zX6twfWYYcs0GmjIzAhMA4GA1UdDwEB/wQEAwIFoDAPBgNVHRMBAf8EBTADAgED
MAoGCCqGSM49BAMCA0cAMEQCIBZB5k8yh7e1dmBYObLpxe3RAz2ppUqnx6p3yswi
lbIYAiA7d3WVOX6fRSYZT4mz8/QNrquDyD86ba8DkFokFnN9jA==
-----END CERTIFICATE-----
