Certificate:
    Data:
        Version: 3 (0x2)
        Serial Number: 42 (0x2a)
        Signature Algorithm: ecdsa-with-SHA256
        Issuer: CN=Regione Piemonte, C=IT, ST=Italia, O=E-Voting system, OU=E-Voting system authority/emailAddress=Piemonte@evoting.it
        Validity
            Not Before: Aug 26 15:21:20 2022 GMT
            Not After : Aug 26 15:21:20 2023 GMT
        Subject: CN=Joseph, C=IT, ST=Italia, O=Regione Piemonte
        Subject Public Key Info:
            Public Key Algorithm: id-ecPublicKey
                Public-Key: (256 bit)
                pub:
                    04:f8:c7:f8:22:36:07:6b:20:64:aa:b8:fd:cf:13:
                    f4:be:03:e5:36:bf:e0:fe:64:53:0b:18:c1:8b:25:
                    91:00:07:d5:31:d4:63:45:bc:59:dd:c2:c0:21:38:
                    b2:34:dc:8a:0b:c4:64:08:4d:dd:23:42:06:33:54:
                    3f:21:7d:76:66
                ASN1 OID: secp256k1
        X509v3 extensions:
            X509v3 Key Usage: critical
                Digital Signature, Key Encipherment
            X509v3 Basic Constraints: critical
                CA:FALSE, pathlen:3
    Signature Algorithm: ecdsa-with-SHA256
         30:44:02:20:6c:1f:8e:d5:7b:8e:f1:d8:89:4d:2b:e0:61:b8:
         07:86:1b:5f:46:b5:c7:42:ef:e7:94:2f:77:76:28:ef:e2:95:
         02:20:30:1c:a7:ad:6c:c5:e0:2d:9d:d5:24:a6:a8:8c:41:c6:
         6b:38:74:0f:b9:a7:18:ff:06:cb:b7:7b:c4:5b:09:67
-----BEGIN CERTIFICATE-----
MIIB9DCCAZugAwIBAgIBKjAKBggqhkjOPQQDAjCBmzEZMBcGA1UEAwwQUmVnaW9u
ZSBQaWVtb250ZTELMAkGA1UEBhMCSVQxDzANBgNVBAgMBkl0YWxpYTEYMBYGA1UE
CgwPRS1Wb3Rpbmcgc3lzdGVtMSIwIAYDVQQLDBlFLVZvdGluZyBzeXN0ZW0gYXV0
aG9yaXR5MSIwIAYJKoZIhvcNAQkBFhNQaWVtb250ZUBldm90aW5nLml0MB4XDTIy
MDgyNjE1MjEyMFoXDTIzMDgyNjE1MjEyMFowSjEPMA0GA1UEAwwGSm9zZXBoMQsw
CQYDVQQGEwJJVDEPMA0GA1UECAwGSXRhbGlhMRkwFwYDVQQKDBBSZWdpb25lIFBp
ZW1vbnRlMFYwEAYHKoZIzj0CAQYFK4EEAAoDQgAE+Mf4IjYHayBkqrj9zxP0vgPl
Nr/g/mRTCxjBiyWRAAfVMdRjRbxZ3cLAITiyNNyKC8RkCE3dI0IGM1Q/IX12ZqMj
MCEwDgYDVR0PAQH/BAQDAgWgMA8GA1UdEwEB/wQFMAMCAQMwCgYIKoZIzj0EAwID
RwAwRAIgbB+O1XuO8diJTSvgYbgHhhtfRrXHQu/nlC93dijv4pUCIDAcp61sxeAt
ndUkpqiMQcZrOHQPuacY/wbLt3vEWwln
-----END CERTIFICATE-----
