Certificate:
    Data:
        Version: 3 (0x2)
        Serial Number: 35 (0x23)
        Signature Algorithm: ecdsa-with-SHA256
        Issuer: CN=Regione Trentino_Alto_Adige, C=IT, ST=Italia, O=E-Voting system, OU=E-Voting system authority/emailAddress=Trentino_Alto_Adige@evoting.it
        Validity
            Not Before: Aug  3 13:28:06 2022 GMT
            Not After : Aug  3 13:28:06 2023 GMT
        Subject: CN=Josephina, C=IT, ST=Italia, O=Regione Trentino_Alto_Adige
        Subject Public Key Info:
            Public Key Algorithm: id-ecPublicKey
                Public-Key: (256 bit)
                pub:
                    04:2e:f4:a6:4e:7d:c6:36:8f:95:fb:37:96:24:e2:
                    b2:d1:7e:bb:a9:8a:1e:32:b3:2a:3f:76:85:47:25:
                    ee:d6:d2:8e:4b:b0:bd:b5:ab:c3:c2:d6:3d:90:bf:
                    17:cb:59:e2:2d:80:19:08:01:62:b9:f0:2e:d7:fb:
                    8a:ee:59:c8:92
                ASN1 OID: prime256v1
                NIST CURVE: P-256
        X509v3 extensions:
            X509v3 Key Usage: critical
                Digital Signature, Key Encipherment
            X509v3 Basic Constraints: critical
                CA:FALSE, pathlen:3
    Signature Algorithm: ecdsa-with-SHA256
         30:46:02:21:00:b9:c0:ad:c6:c7:67:bd:a6:9c:0c:d2:bd:36:
         11:77:ac:16:d8:4b:3c:c7:83:d4:81:f0:ac:38:1a:be:14:f9:
         17:02:21:00:a5:a2:90:69:68:f7:6c:13:3f:f4:26:e2:69:fa:
         8f:a8:b1:69:4b:86:f1:c0:69:31:ff:03:c1:f3:df:0c:ee:1b
-----BEGIN CERTIFICATE-----
MIICHTCCAcKgAwIBAgIBIzAKBggqhkjOPQQDAjCBsTEkMCIGA1UEAwwbUmVnaW9u
ZSBUcmVudGlub19BbHRvX0FkaWdlMQswCQYDVQQGEwJJVDEPMA0GA1UECAwGSXRh
bGlhMRgwFgYDVQQKDA9FLVZvdGluZyBzeXN0ZW0xIjAgBgNVBAsMGUUtVm90aW5n
IHN5c3RlbSBhdXRob3JpdHkxLTArBgkqhkiG9w0BCQEWHlRyZW50aW5vX0FsdG9f
QWRpZ2VAZXZvdGluZy5pdDAeFw0yMjA4MDMxMzI4MDZaFw0yMzA4MDMxMzI4MDZa
MFgxEjAQBgNVBAMMCUpvc2VwaGluYTELMAkGA1UEBhMCSVQxDzANBgNVBAgMBkl0
YWxpYTEkMCIGA1UECgwbUmVnaW9uZSBUcmVudGlub19BbHRvX0FkaWdlMFkwEwYH
KoZIzj0CAQYIKoZIzj0DAQcDQgAELvSmTn3GNo+V+zeWJOKy0X67qYoeMrMqP3aF
RyXu1tKOS7C9tavDwtY9kL8Xy1niLYAZCAFiufAu1/uK7lnIkqMjMCEwDgYDVR0P
AQH/BAQDAgWgMA8GA1UdEwEB/wQFMAMCAQMwCgYIKoZIzj0EAwIDSQAwRgIhALnA
rcbHZ72mnAzSvTYRd6wW2Es8x4PUgfCsOBq+FPkXAiEApaKQaWj3bBM/9CbiafqP
qLFpS4bxwGkx/wPB898M7hs=
-----END CERTIFICATE-----
