Certificate:
    Data:
        Version: 3 (0x2)
        Serial Number: 24 (0x18)
        Signature Algorithm: ecdsa-with-SHA256
        Issuer: CN=Regione Abruzzo, C=IT, ST=Italia, O=E-Voting system, OU=E-Voting system authority/emailAddress=Abruzzo@evoting.it
        Validity
            Not Before: Aug 26 15:20:30 2022 GMT
            Not After : Aug 26 15:20:30 2023 GMT
        Subject: CN=Joshua, C=IT, ST=Italia, O=Regione Abruzzo
        Subject Public Key Info:
            Public Key Algorithm: id-ecPublicKey
                Public-Key: (256 bit)
                pub:
                    04:c6:77:e3:79:43:b1:70:d9:12:6e:be:9b:64:97:
                    9c:f2:2c:60:53:57:04:8e:33:21:85:16:38:15:17:
                    ed:ba:4b:03:c4:75:03:c6:0a:7b:e5:55:28:42:67:
                    24:6e:32:46:de:9f:82:6e:28:c2:20:14:94:63:26:
                    1c:7d:20:88:e0
                ASN1 OID: secp256k1
        X509v3 extensions:
            X509v3 Key Usage: critical
                Digital Signature, Key Encipherment
            X509v3 Basic Constraints: critical
                CA:FALSE, pathlen:3
    Signature Algorithm: ecdsa-with-SHA256
         30:45:02:21:00:b3:a5:ba:c9:af:55:ba:bb:98:1c:c8:42:55:
         7c:d9:5c:2c:a7:66:5b:bf:35:76:8f:22:ee:03:b1:ee:de:61:
         d7:02:20:27:84:55:9b:2c:25:ca:75:74:4f:cd:6e:cc:a7:ce:
         96:99:55:ce:17:3d:be:da:33:17:ad:43:7c:c8:2a:dd:ee
-----BEGIN CERTIFICATE-----
MIIB8jCCAZigAwIBAgIBGDAKBggqhkjOPQQDAjCBmTEYMBYGA1UEAwwPUmVnaW9u
ZSBBYnJ1enpvMQswCQYDVQQGEwJJVDEPMA0GA1UECAwGSXRhbGlhMRgwFgYDVQQK
DA9FLVZvdGluZyBzeXN0ZW0xIjAgBgNVBAsMGUUtVm90aW5nIHN5c3RlbSBhdXRo
b3JpdHkxITAfBgkqhkiG9w0BCQEWEkFicnV6em9AZXZvdGluZy5pdDAeFw0yMjA4
MjYxNTIwMzBaFw0yMzA4MjYxNTIwMzBaMEkxDzANBgNVBAMMBkpvc2h1YTELMAkG
A1UEBhMCSVQxDzANBgNVBAgMBkl0YWxpYTEYMBYGA1UECgwPUmVnaW9uZSBBYnJ1
enpvMFYwEAYHKoZIzj0CAQYFK4EEAAoDQgAExnfjeUOxcNkSbr6bZJec8ixgU1cE
jjMhhRY4FRftuksDxHUDxgp75VUoQmckbjJG3p+CbijCIBSUYyYcfSCI4KMjMCEw
DgYDVR0PAQH/BAQDAgWgMA8GA1UdEwEB/wQFMAMCAQMwCgYIKoZIzj0EAwIDSAAw
RQIhALOlusmvVbq7mBzIQlV82Vwsp2ZbvzV2jyLuA7Hu3mHXAiAnhFWbLCXKdXRP
zW7Mp86WmVXOFz2+2jMXrUN8yCrd7g==
-----END CERTIFICATE-----
