Certificate:
    Data:
        Version: 3 (0x2)
        Serial Number: 43 (0x2b)
        Signature Algorithm: ecdsa-with-SHA256
        Issuer: CN=Regione Valle_d_Aosta, C=IT, ST=Italia, O=E-Voting system, OU=E-Voting system authority/emailAddress=Valle_d_Aosta@evoting.it
        Validity
            Not Before: Aug  3 13:27:55 2022 GMT
            Not After : Aug  3 13:27:55 2023 GMT
        Subject: CN=Josie, C=IT, ST=Italia, O=Regione Valle_d_Aosta
        Subject Public Key Info:
            Public Key Algorithm: id-ecPublicKey
                Public-Key: (256 bit)
                pub:
                    04:9e:1d:6b:6a:13:d1:d2:52:37:20:44:37:34:5b:
                    af:73:88:3d:9f:c4:6b:74:0d:25:85:75:c6:5d:22:
                    75:fe:cf:3c:d3:8f:0e:86:56:f6:a9:c1:c4:a8:b0:
                    d9:d1:3b:2d:fd:3e:57:fd:09:32:43:5d:60:2b:7c:
                    e9:36:68:50:94
                ASN1 OID: prime256v1
                NIST CURVE: P-256
        X509v3 extensions:
            X509v3 Key Usage: critical
                Digital Signature, Key Encipherment
            X509v3 Basic Constraints: critical
                CA:FALSE, pathlen:3
    Signature Algorithm: ecdsa-with-SHA256
         30:44:02:20:58:57:d3:0e:a9:d9:8c:0f:cf:51:be:28:66:1d:
         5f:a1:39:47:eb:d0:a4:08:8e:14:1a:77:c8:eb:e4:f4:97:19:
         02:20:36:d5:38:0a:74:83:c0:9e:ae:39:15:47:82:50:c3:23:
         90:af:41:7c:90:b6:73:0e:26:ea:ca:15:24:31:ae:10
-----BEGIN CERTIFICATE-----
MIICBTCCAaygAwIBAgIBKzAKBggqhkjOPQQDAjCBpTEeMBwGA1UEAwwVUmVnaW9u
ZSBWYWxsZV9kX0Fvc3RhMQswCQYDVQQGEwJJVDEPMA0GA1UECAwGSXRhbGlhMRgw
FgYDVQQKDA9FLVZvdGluZyBzeXN0ZW0xIjAgBgNVBAsMGUUtVm90aW5nIHN5c3Rl
bSBhdXRob3JpdHkxJzAlBgkqhkiG9w0BCQEWGFZhbGxlX2RfQW9zdGFAZXZvdGlu
Zy5pdDAeFw0yMjA4MDMxMzI3NTVaFw0yMzA4MDMxMzI3NTVaME4xDjAMBgNVBAMM
BUpvc2llMQswCQYDVQQGEwJJVDEPMA0GA1UECAwGSXRhbGlhMR4wHAYDVQQKDBVS
ZWdpb25lIFZhbGxlX2RfQW9zdGEwWTATBgcqhkjOPQIBBggqhkjOPQMBBwNCAASe
HWtqE9HSUjcgRDc0W69ziD2fxGt0DSWFdcZdInX+zzzTjw6GVvapwcSosNnROy39
Plf9CTJDXWArfOk2aFCUoyMwITAOBgNVHQ8BAf8EBAMCBaAwDwYDVR0TAQH/BAUw
AwIBAzAKBggqhkjOPQQDAgNHADBEAiBYV9MOqdmMD89RvihmHV+hOUfr0KQIjhQa
d8jr5PSXGQIgNtU4CnSDwJ6uORVHglDDI5CvQXyQtnMOJurKFSQxrhA=
-----END CERTIFICATE-----
