Certificate:
    Data:
        Version: 3 (0x2)
        Serial Number: 16 (0x10)
        Signature Algorithm: ecdsa-with-SHA256
        Issuer: CN=Regione Basilicata, C=IT, ST=Italia, O=E-Voting system, OU=E-Voting system authority/emailAddress=Basilicata@evoting.it
        Validity
            Not Before: Aug 26 15:19:28 2022 GMT
            Not After : Aug 26 15:19:28 2023 GMT
        Subject: CN=Joy, C=IT, ST=Italia, O=Regione Basilicata
        Subject Public Key Info:
            Public Key Algorithm: id-ecPublicKey
                Public-Key: (256 bit)
                pub:
                    04:b2:f9:65:c1:8f:df:71:fe:c2:51:d8:d1:2f:08:
                    44:5b:72:d2:39:fe:a8:87:30:ce:25:ae:68:91:ca:
                    cd:d6:ce:d5:74:f6:ff:e5:0d:db:1d:cd:47:17:98:
                    5f:28:dc:95:f8:a1:81:49:7c:f9:36:ed:c5:1c:ba:
                    77:36:06:cb:64
                ASN1 OID: secp256k1
        X509v3 extensions:
            X509v3 Key Usage: critical
                Digital Signature, Key Encipherment
            X509v3 Basic Constraints: critical
                CA:FALSE, pathlen:3
    Signature Algorithm: ecdsa-with-SHA256
         30:44:02:20:5f:ff:70:7e:ea:e0:2c:67:1b:24:a5:0d:31:61:
         a6:03:cd:07:a1:d8:28:5f:3e:bc:e2:23:11:eb:f9:be:ac:8c:
         02:20:06:80:a4:8b:5f:eb:cd:95:aa:61:63:2c:c4:30:d4:ff:
         e8:94:e7:49:fa:24:fc:ce:be:cd:65:24:c7:ba:92:55
-----BEGIN CERTIFICATE-----
MIIB9zCCAZ6gAwIBAgIBEDAKBggqhkjOPQQDAjCBnzEbMBkGA1UEAwwSUmVnaW9u
ZSBCYXNpbGljYXRhMQswCQYDVQQGEwJJVDEPMA0GA1UECAwGSXRhbGlhMRgwFgYD
VQQKDA9FLVZvdGluZyBzeXN0ZW0xIjAgBgNVBAsMGUUtVm90aW5nIHN5c3RlbSBh
dXRob3JpdHkxJDAiBgkqhkiG9w0BCQEWFUJhc2lsaWNhdGFAZXZvdGluZy5pdDAe
Fw0yMjA4MjYxNTE5MjhaFw0yMzA4MjYxNTE5MjhaMEkxDDAKBgNVBAMMA0pveTEL
MAkGA1UEBhMCSVQxDzANBgNVBAgMBkl0YWxpYTEbMBkGA1UECgwSUmVnaW9uZSBC
YXNpbGljYXRhMFYwEAYHKoZIzj0CAQYFK4EEAAoDQgAEsvllwY/fcf7CUdjRLwhE
W3LSOf6ohzDOJa5okcrN1s7VdPb/5Q3bHc1HF5hfKNyV+KGBSXz5Nu3FHLp3NgbL
ZKMjMCEwDgYDVR0PAQH/BAQDAgWgMA8GA1UdEwEB/wQFMAMCAQMwCgYIKoZIzj0E
AwIDRwAwRAIgX/9wfurgLGcbJKUNMWGmA80HodgoXz684iMR6/m+rIwCIAaApItf
682VqmFjLMQw1P/olOdJ+iT8zr7NZSTHupJV
-----END CERTIFICATE-----
