Certificate:
    Data:
        Version: 3 (0x2)
        Serial Number: 30 (0x1e)
        Signature Algorithm: ecdsa-with-SHA256
        Issuer: CN=Regione Lombardia, C=IT, ST=Italia, O=E-Voting system, OU=E-Voting system authority/emailAddress=Lombardia@evoting.it
        Validity
            Not Before: Aug 26 15:20:37 2022 GMT
            Not After : Aug 26 15:20:37 2023 GMT
        Subject: CN=Joyce, C=IT, ST=Italia, O=Regione Lombardia
        Subject Public Key Info:
            Public Key Algorithm: id-ecPublicKey
                Public-Key: (256 bit)
                pub:
                    04:2b:f2:55:79:e7:50:fb:2c:bd:3c:5b:d3:b0:d0:
                    63:f8:a8:c5:c5:bc:78:bf:25:88:f4:74:6c:1d:26:
                    dc:76:8a:69:24:d6:0a:65:09:dd:c8:61:07:77:a5:
                    99:ee:63:23:c1:76:6a:7b:a1:60:82:86:cc:91:35:
                    be:b0:bc:32:a2
                ASN1 OID: secp256k1
        X509v3 extensions:
            X509v3 Key Usage: critical
                Digital Signature, Key Encipherment
            X509v3 Basic Constraints: critical
                CA:FALSE, pathlen:3
    Signature Algorithm: ecdsa-with-SHA256
         30:46:02:21:00:ac:08:04:52:b4:b9:dd:b3:a8:5e:c3:e9:1d:
         c7:8b:13:c2:d3:9a:75:23:09:87:5d:d2:1c:84:f2:76:a1:1f:
         82:02:21:00:8c:fe:ad:cc:26:c2:b1:ed:c1:01:20:c1:6c:12:
         25:ed:c9:d5:89:18:bf:03:5d:d6:cd:40:ac:20:b8:33:82:a8
-----BEGIN CERTIFICATE-----
MIIB+DCCAZ2gAwIBAgIBHjAKBggqhkjOPQQDAjCBnTEaMBgGA1UEAwwRUmVnaW9u
ZSBMb21iYXJkaWExCzAJBgNVBAYTAklUMQ8wDQYDVQQIDAZJdGFsaWExGDAWBgNV
BAoMD0UtVm90aW5nIHN5c3RlbTEiMCAGA1UECwwZRS1Wb3Rpbmcgc3lzdGVtIGF1
dGhvcml0eTEjMCEGCSqGSIb3DQEJARYUTG9tYmFyZGlhQGV2b3RpbmcuaXQwHhcN
MjIwODI2MTUyMDM3WhcNMjMwODI2MTUyMDM3WjBKMQ4wDAYDVQQDDAVKb3ljZTEL
MAkGA1UEBhMCSVQxDzANBgNVBAgMBkl0YWxpYTEaMBgGA1UECgwRUmVnaW9uZSBM
b21iYXJkaWEwVjAQBgcqhkjOPQIBBgUrgQQACgNCAAQr8lV551D7LL08W9Ow0GP4
qMXFvHi/JYj0dGwdJtx2imkk1gplCd3IYQd3pZnuYyPBdmp7oWCChsyRNb6wvDKi
oyMwITAOBgNVHQ8BAf8EBAMCBaAwDwYDVR0TAQH/BAUwAwIBAzAKBggqhkjOPQQD
AgNJADBGAiEArAgEUrS53bOoXsPpHceLE8LTmnUjCYdd0hyE8nahH4ICIQCM/q3M
JsKx7cEBIMFsEiXtydWJGL8DXdbNQKwguDOCqA==
-----END CERTIFICATE-----
