Certificate:
    Data:
        Version: 3 (0x2)
        Serial Number: 17 (0x11)
        Signature Algorithm: ecdsa-with-SHA256
        Issuer: CN=Regione Calabria, C=IT, ST=Italia, O=E-Voting system, OU=E-Voting system authority/emailAddress=Calabria@evoting.it
        Validity
            Not Before: Aug  3 13:26:43 2022 GMT
            Not After : Aug  3 13:26:43 2023 GMT
        Subject: CN=Joyce, C=IT, ST=Italia, O=Regione Calabria
        Subject Public Key Info:
            Public Key Algorithm: id-ecPublicKey
                Public-Key: (256 bit)
                pub:
                    04:ed:8f:67:c1:00:02:ff:b7:ca:af:6f:fb:03:08:
                    6a:a3:f0:0e:89:90:a6:0f:9b:06:1b:c1:f0:08:35:
                    3f:cb:36:9f:30:a1:42:c2:d1:a3:14:fb:c9:42:33:
                    68:37:c7:db:db:ba:24:ea:2d:fd:c2:4c:2f:4d:04:
                    6a:3b:55:92:ba
                ASN1 OID: prime256v1
                NIST CURVE: P-256
        X509v3 extensions:
            X509v3 Key Usage: critical
                Digital Signature, Key Encipherment
            X509v3 Basic Constraints: critical
                CA:FALSE, pathlen:3
    Signature Algorithm: ecdsa-with-SHA256
         30:46:02:21:00:bd:01:c9:e3:c3:4b:cd:3a:2f:97:1e:87:60:
         e4:9a:39:36:4a:e0:f0:b4:87:c5:46:1b:d8:14:92:55:2f:2d:
         12:02:21:00:d9:ff:b3:4d:eb:b4:06:d6:4e:c8:5b:10:e4:74:
         f9:b2:44:5e:3a:a8:83:b0:dd:4d:4d:50:e6:ad:00:c6:67:54
-----BEGIN CERTIFICATE-----
MIIB+DCCAZ2gAwIBAgIBETAKBggqhkjOPQQDAjCBmzEZMBcGA1UEAwwQUmVnaW9u
ZSBDYWxhYnJpYTELMAkGA1UEBhMCSVQxDzANBgNVBAgMBkl0YWxpYTEYMBYGA1UE
CgwPRS1Wb3Rpbmcgc3lzdGVtMSIwIAYDVQQLDBlFLVZvdGluZyBzeXN0ZW0gYXV0
aG9yaXR5MSIwIAYJKoZIhvcNAQkBFhNDYWxhYnJpYUBldm90aW5nLml0MB4XDTIy
MDgwMzEzMjY0M1oXDTIzMDgwMzEzMjY0M1owSTEOMAwGA1UEAwwFSm95Y2UxCzAJ
BgNVBAYTAklUMQ8wDQYDVQQIDAZJdGFsaWExGTAXBgNVBAoMEFJlZ2lvbmUgQ2Fs
YWJyaWEwWTATBgcqhkjOPQIBBggqhkjOPQMBBwNCAATtj2fBAAL/t8qvb/sDCGqj
8A6JkKYPmwYbwfAINT/LNp8woULC0aMU+8lCM2g3x9vbuiTqLf3CTC9NBGo7VZK6
oyMwITAOBgNVHQ8BAf8EBAMCBaAwDwYDVR0TAQH/BAUwAwIBAzAKBggqhkjOPQQD
AgNJADBGAiEAvQHJ48NLzTovlx6HYOSaOTZK4PC0h8VGG9gUklUvLRICIQDZ/7NN
67QG1k7IWxDkdPmyRF46qIOw3U1NUOatAMZnVA==
-----END CERTIFICATE-----
