Certificate:
    Data:
        Version: 3 (0x2)
        Serial Number: 5 (0x5)
        Signature Algorithm: ecdsa-with-SHA256
        Issuer: CN=Regione Basilicata, C=IT, ST=Italia, O=E-Voting system, OU=E-Voting system authority/emailAddress=Basilicata@evoting.it
        Validity
            Not Before: Aug 26 15:18:39 2022 GMT
            Not After : Aug 26 15:18:39 2023 GMT
        Subject: CN=Juanita, C=IT, ST=Italia, O=Regione Basilicata
        Subject Public Key Info:
            Public Key Algorithm: id-ecPublicKey
                Public-Key: (256 bit)
                pub:
                    04:5e:02:0d:e3:67:00:49:10:b3:20:f7:5b:89:80:
                    1e:f6:2c:24:85:20:84:7b:de:df:6e:fc:a4:71:31:
                    b1:3d:29:cc:28:b2:7e:bd:a4:47:07:d5:04:23:8d:
                    df:86:75:79:3b:ab:a5:29:23:05:f9:a6:e4:59:d5:
                    c1:ae:0f:01:c6
                ASN1 OID: secp256k1
        X509v3 extensions:
            X509v3 Key Usage: critical
                Digital Signature, Key Encipherment
            X509v3 Basic Constraints: critical
                CA:FALSE, pathlen:3
    Signature Algorithm: ecdsa-with-SHA256
         30:45:02:20:7f:3e:e9:60:65:b3:b5:7e:04:bd:58:af:a3:bc:
         f1:3d:3f:44:2a:44:b0:f1:a3:24:3f:9d:c7:0c:19:7c:82:9c:
         02:21:00:90:35:d1:79:12:d3:11:5f:b1:49:77:7b:26:c4:13:
         06:23:be:06:d8:ff:3a:08:5f:b1:99:f4:42:c0:e6:71:c1
-----BEGIN CERTIFICATE-----
MIIB/DCCAaKgAwIBAgIBBTAKBggqhkjOPQQDAjCBnzEbMBkGA1UEAwwSUmVnaW9u
ZSBCYXNpbGljYXRhMQswCQYDVQQGEwJJVDEPMA0GA1UECAwGSXRhbGlhMRgwFgYD
VQQKDA9FLVZvdGluZyBzeXN0ZW0xIjAgBgNVBAsMGUUtVm90aW5nIHN5c3RlbSBh
dXRob3JpdHkxJDAiBgkqhkiG9w0BCQEWFUJhc2lsaWNhdGFAZXZvdGluZy5pdDAe
Fw0yMjA4MjYxNTE4MzlaFw0yMzA4MjYxNTE4MzlaME0xEDAOBgNVBAMMB0p1YW5p
dGExCzAJBgNVBAYTAklUMQ8wDQYDVQQIDAZJdGFsaWExGzAZBgNVBAoMElJlZ2lv
bmUgQmFzaWxpY2F0YTBWMBAGByqGSM49AgEGBSuBBAAKA0IABF4CDeNnAEkQsyD3
W4mAHvYsJIUghHve3278pHExsT0pzCiyfr2kRwfVBCON34Z1eTurpSkjBfmm5FnV
wa4PAcajIzAhMA4GA1UdDwEB/wQEAwIFoDAPBgNVHRMBAf8EBTADAgEDMAoGCCqG
SM49BAMCA0gAMEUCIH8+6WBls7V+BL1Yr6O88T0/RCpEsPGjJD+dxwwZfIKcAiEA
kDXReRLTEV+xSXd7JsQTBiO+Btj/OghfsZn0QsDmccE=
-----END CERTIFICATE-----
