Certificate:
    Data:
        Version: 3 (0x2)
        Serial Number: 5 (0x5)
        Signature Algorithm: ecdsa-with-SHA256
        Issuer: CN=Regione Lazio, C=IT, ST=Italia, O=E-Voting system, OU=E-Voting system authority/emailAddress=Lazio@evoting.it
        Validity
            Not Before: Aug  3 13:25:50 2022 GMT
            Not After : Aug  3 13:25:50 2023 GMT
        Subject: CN=Juan, C=IT, ST=Italia, O=Regione Lazio
        Subject Public Key Info:
            Public Key Algorithm: id-ecPublicKey
                Public-Key: (256 bit)
                pub:
                    04:94:28:68:aa:e3:50:47:db:09:a8:11:e6:d7:ac:
                    8a:14:dc:01:84:ab:f6:0b:9c:2d:fb:a1:a1:77:1f:
                    3f:92:54:84:09:f0:39:cd:5d:68:06:7b:bd:65:5f:
                    a1:37:f7:62:4a:80:4c:0a:28:0b:da:03:65:67:a5:
                    c8:fc:7e:76:4c
                ASN1 OID: prime256v1
                NIST CURVE: P-256
        X509v3 extensions:
            X509v3 Key Usage: critical
                Digital Signature, Key Encipherment
            X509v3 Basic Constraints: critical
                CA:FALSE, pathlen:3
    Signature Algorithm: ecdsa-with-SHA256
         30:44:02:20:2a:c5:5b:93:44:b6:2e:02:4d:13:35:9c:b2:a6:
         94:01:e0:f5:dc:61:9c:27:40:20:8f:9c:ce:0b:70:6c:30:8e:
         02:20:40:97:2e:29:16:c4:f5:76:1c:60:70:9f:2e:8f:5d:a2:
         71:b0:1d:6a:63:39:fe:5a:a6:bb:1a:a4:05:49:16:ef
-----BEGIN CERTIFICATE-----
MIIB7DCCAZOgAwIBAgIBBTAKBggqhkjOPQQDAjCBlTEWMBQGA1UEAwwNUmVnaW9u
ZSBMYXppbzELMAkGA1UEBhMCSVQxDzANBgNVBAgMBkl0YWxpYTEYMBYGA1UECgwP
RS1Wb3Rpbmcgc3lzdGVtMSIwIAYDVQQLDBlFLVZvdGluZyBzeXN0ZW0gYXV0aG9y
aXR5MR8wHQYJKoZIhvcNAQkBFhBMYXppb0Bldm90aW5nLml0MB4XDTIyMDgwMzEz
MjU1MFoXDTIzMDgwMzEzMjU1MFowRTENMAsGA1UEAwwESnVhbjELMAkGA1UEBhMC
SVQxDzANBgNVBAgMBkl0YWxpYTEWMBQGA1UECgwNUmVnaW9uZSBMYXppbzBZMBMG
ByqGSM49AgEGCCqGSM49AwEHA0IABJQoaKrjUEfbCagR5tesihTcAYSr9gucLfuh
oXcfP5JUhAnwOc1daAZ7vWVfoTf3YkqATAooC9oDZWelyPx+dkyjIzAhMA4GA1Ud
DwEB/wQEAwIFoDAPBgNVHRMBAf8EBTADAgEDMAoGCCqGSM49BAMCA0cAMEQCICrF
W5NEti4CTRM1nLKmlAHg9dxhnCdAII+czgtwbDCOAiBAly4pFsT1dhxgcJ8uj12i
cbAdamM5/lqmuxqkBUkW7w==
-----END CERTIFICATE-----
