Certificate:
    Data:
        Version: 3 (0x2)
        Serial Number: 2 (0x2)
        Signature Algorithm: ecdsa-with-SHA256
        Issuer: CN=Regione Puglia, C=IT, ST=Italia, O=E-Voting system, OU=E-Voting system authority/emailAddress=Puglia@evoting.it
        Validity
            Not Before: Aug  3 13:25:48 2022 GMT
            Not After : Aug  3 13:25:48 2023 GMT
        Subject: CN=Juanita, C=IT, ST=Italia, O=Regione Puglia
        Subject Public Key Info:
            Public Key Algorithm: id-ecPublicKey
                Public-Key: (256 bit)
                pub:
                    04:45:e8:b0:d2:ea:40:8c:25:5e:ea:51:8e:2f:53:
                    bc:2e:fc:48:d0:9a:ec:2c:ff:b9:a8:71:e7:8f:0c:
                    2c:83:68:3a:c5:e8:44:4e:de:f3:a0:4b:cf:aa:94:
                    40:a2:78:4e:78:99:81:da:74:ae:06:e7:e0:ce:1a:
                    a3:f1:57:07:98
                ASN1 OID: prime256v1
                NIST CURVE: P-256
        X509v3 extensions:
            X509v3 Key Usage: critical
                Digital Signature, Key Encipherment
            X509v3 Basic Constraints: critical
                CA:FALSE, pathlen:3
    Signature Algorithm: ecdsa-with-SHA256
         30:45:02:20:70:ca:8d:c9:af:68:92:96:2a:d0:c3:65:06:bf:
         53:af:f2:7e:b0:68:fb:6b:97:f2:45:ce:24:65:a7:77:19:d0:
         02:21:00:8c:0c:72:1f:bc:fb:9b:8f:b9:f9:e9:da:48:7a:19:
         5d:2d:7f:82:bc:1b:43:cb:aa:75:e5:c6:47:2c:b6:10:b1
-----BEGIN CERTIFICATE-----
MIIB8zCCAZmgAwIBAgIBAjAKBggqhkjOPQQDAjCBlzEXMBUGA1UEAwwOUmVnaW9u
ZSBQdWdsaWExCzAJBgNVBAYTAklUMQ8wDQYDVQQIDAZJdGFsaWExGDAWBgNVBAoM
D0UtVm90aW5nIHN5c3RlbTEiMCAGA1UECwwZRS1Wb3Rpbmcgc3lzdGVtIGF1dGhv
cml0eTEgMB4GCSqGSIb3DQEJARYRUHVnbGlhQGV2b3RpbmcuaXQwHhcNMjIwODAz
MTMyNTQ4WhcNMjMwODAzMTMyNTQ4WjBJMRAwDgYDVQQDDAdKdWFuaXRhMQswCQYD
VQQGEwJJVDEPMA0GA1UECAwGSXRhbGlhMRcwFQYDVQQKDA5SZWdpb25lIFB1Z2xp
YTBZMBMGByqGSM49AgEGCCqGSM49AwEHA0IABEXosNLqQIwlXupRji9TvC78SNCa
7Cz/uahx548MLINoOsXoRE7e86BLz6qUQKJ4TniZgdp0rgbn4M4ao/FXB5ijIzAh
MA4GA1UdDwEB/wQEAwIFoDAPBgNVHRMBAf8EBTADAgEDMAoGCCqGSM49BAMCA0gA
MEUCIHDKjcmvaJKWKtDDZQa/U6/yfrBo+2uX8kXOJGWndxnQAiEAjAxyH7z7m4+5
+enaSHoZXS1/grwbQ8uqdeXGRyy2ELE=
-----END CERTIFICATE-----
