Certificate:
    Data:
        Version: 3 (0x2)
        Serial Number: 41 (0x29)
        Signature Algorithm: ecdsa-with-SHA256
        Issuer: CN=Regione Calabria, C=IT, ST=Italia, O=E-Voting system, OU=E-Voting system authority/emailAddress=Calabria@evoting.it
        Validity
            Not Before: Aug  3 13:28:13 2022 GMT
            Not After : Aug  3 13:28:13 2023 GMT
        Subject: CN=Juana, C=IT, ST=Italia, O=Regione Calabria
        Subject Public Key Info:
            Public Key Algorithm: id-ecPublicKey
                Public-Key: (256 bit)
                pub:
                    04:32:4d:eb:75:ee:85:ec:e4:a5:14:ce:95:77:80:
                    0a:b6:ad:57:d2:7f:87:53:91:e8:2e:ba:ba:70:98:
                    fb:76:45:bf:00:d1:06:75:f9:47:ca:04:c8:9b:56:
                    bd:49:fb:e9:a5:18:10:9f:36:ec:4d:78:90:58:ef:
                    b9:e8:3e:bc:0d
                ASN1 OID: prime256v1
                NIST CURVE: P-256
        X509v3 extensions:
            X509v3 Key Usage: critical
                Digital Signature, Key Encipherment
            X509v3 Basic Constraints: critical
                CA:FALSE, pathlen:3
    Signature Algorithm: ecdsa-with-SHA256
         30:44:02:20:10:74:37:98:ca:6d:d0:ad:58:52:b5:62:77:29:
         0a:d3:f9:ea:8d:da:3a:b0:e9:7d:ec:9a:97:f9:0b:90:cd:ff:
         02:20:60:9e:89:61:a0:f6:49:15:9d:ba:07:c2:0e:d1:a8:80:
         6b:01:dc:9b:24:07:4d:95:8e:27:6c:2f:27:e4:44:b5
-----BEGIN CERTIFICATE-----
MIIB9jCCAZ2gAwIBAgIBKTAKBggqhkjOPQQDAjCBmzEZMBcGA1UEAwwQUmVnaW9u
ZSBDYWxhYnJpYTELMAkGA1UEBhMCSVQxDzANBgNVBAgMBkl0YWxpYTEYMBYGA1UE
CgwPRS1Wb3Rpbmcgc3lzdGVtMSIwIAYDVQQLDBlFLVZvdGluZyBzeXN0ZW0gYXV0
aG9yaXR5MSIwIAYJKoZIhvcNAQkBFhNDYWxhYnJpYUBldm90aW5nLml0MB4XDTIy
MDgwMzEzMjgxM1oXDTIzMDgwMzEzMjgxM1owSTEOMAwGA1UEAwwFSnVhbmExCzAJ
BgNVBAYTAklUMQ8wDQYDVQQIDAZJdGFsaWExGTAXBgNVBAoMEFJlZ2lvbmUgQ2Fs
YWJyaWEwWTATBgcqhkjOPQIBBggqhkjOPQMBBwNCAAQyTet17oXs5KUUzpV3gAq2
rVfSf4dTkeguurpwmPt2Rb8A0QZ1+UfKBMibVr1J++mlGBCfNuxNeJBY77noPrwN
oyMwITAOBgNVHQ8BAf8EBAMCBaAwDwYDVR0TAQH/BAUwAwIBAzAKBggqhkjOPQQD
AgNHADBEAiAQdDeYym3QrVhStWJ3KQrT+eqN2jqw6X3smpf5C5DN/wIgYJ6JYaD2
SRWdugfCDtGogGsB3JskB02VjidsLyfkRLU=
-----END CERTIFICATE-----
