Certificate:
    Data:
        Version: 3 (0x2)
        Serial Number: 49 (0x31)
        Signature Algorithm: ecdsa-with-SHA256
        Issuer: CN=Regione Emilia_Romagna, C=IT, ST=Italia, O=E-Voting system, OU=E-Voting system authority/emailAddress=Emilia_Romagna@evoting.it
        Validity
            Not Before: Aug 26 15:21:25 2022 GMT
            Not After : Aug 26 15:21:25 2023 GMT
        Subject: CN=Juan, C=IT, ST=Italia, O=Regione Emilia_Romagna
        Subject Public Key Info:
            Public Key Algorithm: id-ecPublicKey
                Public-Key: (256 bit)
                pub:
                    04:19:e4:5f:55:67:a3:c9:01:e2:7a:3e:c5:21:97:
                    36:a2:ca:cb:b5:46:0e:55:1f:31:4e:9a:2d:19:c0:
                    89:8f:80:7d:ea:6a:9b:8d:99:0a:2a:7e:e8:0c:fe:
                    c5:fb:10:40:7c:a2:4f:a5:a9:2f:f4:fa:3e:7a:3c:
                    6b:26:9b:9c:64
                ASN1 OID: secp256k1
        X509v3 extensions:
            X509v3 Key Usage: critical
                Digital Signature, Key Encipherment
            X509v3 Basic Constraints: critical
                CA:FALSE, pathlen:3
    Signature Algorithm: ecdsa-with-SHA256
         30:45:02:21:00:b8:99:98:86:1f:8c:f7:f7:79:c1:e4:66:0a:
         af:1f:62:e2:b8:bc:9c:d0:81:a6:67:31:6e:cd:19:28:8e:b4:
         2e:02:20:76:39:88:be:73:b8:35:1d:95:df:00:e3:5e:8d:1f:
         19:b4:8b:e7:f0:de:00:3f:7f:d8:a8:04:4f:0a:3e:1c:d2
-----BEGIN CERTIFICATE-----
MIICBTCCAaugAwIBAgIBMTAKBggqhkjOPQQDAjCBpzEfMB0GA1UEAwwWUmVnaW9u
ZSBFbWlsaWFfUm9tYWduYTELMAkGA1UEBhMCSVQxDzANBgNVBAgMBkl0YWxpYTEY
MBYGA1UECgwPRS1Wb3Rpbmcgc3lzdGVtMSIwIAYDVQQLDBlFLVZvdGluZyBzeXN0
ZW0gYXV0aG9yaXR5MSgwJgYJKoZIhvcNAQkBFhlFbWlsaWFfUm9tYWduYUBldm90
aW5nLml0MB4XDTIyMDgyNjE1MjEyNVoXDTIzMDgyNjE1MjEyNVowTjENMAsGA1UE
AwwESnVhbjELMAkGA1UEBhMCSVQxDzANBgNVBAgMBkl0YWxpYTEfMB0GA1UECgwW
UmVnaW9uZSBFbWlsaWFfUm9tYWduYTBWMBAGByqGSM49AgEGBSuBBAAKA0IABBnk
X1Vno8kB4no+xSGXNqLKy7VGDlUfMU6aLRnAiY+Afepqm42ZCip+6Az+xfsQQHyi
T6WpL/T6Pno8ayabnGSjIzAhMA4GA1UdDwEB/wQEAwIFoDAPBgNVHRMBAf8EBTAD
AgEDMAoGCCqGSM49BAMCA0gAMEUCIQC4mZiGH4z393nB5GYKrx9i4ri8nNCBpmcx
bs0ZKI60LgIgdjmIvnO4NR2V3wDjXo0fGbSL5/DeAD9/2KgETwo+HNI=
-----END CERTIFICATE-----
