Certificate:
    Data:
        Version: 3 (0x2)
        Serial Number: 5 (0x5)
        Signature Algorithm: ecdsa-with-SHA256
        Issuer: CN=Regione Umbria, C=IT, ST=Italia, O=E-Voting system, OU=E-Voting system authority/emailAddress=Umbria@evoting.it
        Validity
            Not Before: Aug 26 15:18:35 2022 GMT
            Not After : Aug 26 15:18:35 2023 GMT
        Subject: CN=Juana, C=IT, ST=Italia, O=Regione Umbria
        Subject Public Key Info:
            Public Key Algorithm: id-ecPublicKey
                Public-Key: (256 bit)
                pub:
                    04:7d:1e:19:30:84:27:2b:c2:b8:e3:13:41:52:55:
                    9a:25:d8:d2:ac:3f:d4:56:d1:d4:86:9c:97:07:62:
                    ee:c2:29:6a:c3:cd:42:9f:2f:f2:da:c9:2f:a1:49:
                    3a:bf:05:1f:18:54:ed:84:41:f6:ac:9c:16:a1:fd:
                    46:41:fa:22:71
                ASN1 OID: secp256k1
        X509v3 extensions:
            X509v3 Key Usage: critical
                Digital Signature, Key Encipherment
            X509v3 Basic Constraints: critical
                CA:FALSE, pathlen:3
    Signature Algorithm: ecdsa-with-SHA256
         30:46:02:21:00:bc:06:f5:6b:18:66:42:41:84:a6:66:4b:43:
         5d:6f:6b:53:ed:c6:5c:d7:f7:95:77:ae:42:99:a8:1e:cd:8d:
         e3:02:21:00:c1:95:16:e2:21:2f:8c:0f:81:ad:96:bd:12:6b:
         8f:3b:7c:91:f3:bb:f8:2b:eb:bf:39:34:ca:6a:0e:36:da:06
-----BEGIN CERTIFICATE-----
MIIB7zCCAZSgAwIBAgIBBTAKBggqhkjOPQQDAjCBlzEXMBUGA1UEAwwOUmVnaW9u
ZSBVbWJyaWExCzAJBgNVBAYTAklUMQ8wDQYDVQQIDAZJdGFsaWExGDAWBgNVBAoM
D0UtVm90aW5nIHN5c3RlbTEiMCAGA1UECwwZRS1Wb3Rpbmcgc3lzdGVtIGF1dGhv
cml0eTEgMB4GCSqGSIb3DQEJARYRVW1icmlhQGV2b3RpbmcuaXQwHhcNMjIwODI2
MTUxODM1WhcNMjMwODI2MTUxODM1WjBHMQ4wDAYDVQQDDAVKdWFuYTELMAkGA1UE
BhMCSVQxDzANBgNVBAgMBkl0YWxpYTEXMBUGA1UECgwOUmVnaW9uZSBVbWJyaWEw
VjAQBgcqhkjOPQIBBgUrgQQACgNCAAR9HhkwhCcrwrjjE0FSVZol2NKsP9RW0dSG
nJcHYu7CKWrDzUKfL/LayS+hSTq/BR8YVO2EQfasnBah/UZB+iJxoyMwITAOBgNV
HQ8BAf8EBAMCBaAwDwYDVR0TAQH/BAUwAwIBAzAKBggqhkjOPQQDAgNJADBGAiEA
vAb1axhmQkGEpmZLQ11va1PtxlzX95V3rkKZqB7NjeMCIQDBlRbiIS+MD4Gtlr0S
a487fJHzu/gr6785NMpqDjbaBg==
-----END CERTIFICATE-----
