Certificate:
    Data:
        Version: 3 (0x2)
        Serial Number: 35 (0x23)
        Signature Algorithm: ecdsa-with-SHA256
        Issuer: CN=Regione Toscana, C=IT, ST=Italia, O=E-Voting system, OU=E-Voting system authority/emailAddress=Toscana@evoting.it
        Validity
            Not Before: Aug 26 15:21:07 2022 GMT
            Not After : Aug 26 15:21:07 2023 GMT
        Subject: CN=Judith, C=IT, ST=Italia, O=Regione Toscana
        Subject Public Key Info:
            Public Key Algorithm: id-ecPublicKey
                Public-Key: (256 bit)
                pub:
                    04:48:19:5f:d3:58:ac:fc:be:9e:bf:8f:22:5b:d7:
                    54:64:c8:31:c3:75:f8:ae:e1:75:44:85:46:60:5f:
                    3c:b6:e9:d8:df:d8:45:f6:10:5f:0c:19:fe:33:fb:
                    c2:1f:a6:9e:b1:9a:b1:27:42:12:86:fe:95:c1:41:
                    5f:8a:c2:e3:d1
                ASN1 OID: secp256k1
        X509v3 extensions:
            X509v3 Key Usage: critical
                Digital Signature, Key Encipherment
            X509v3 Basic Constraints: critical
                CA:FALSE, pathlen:3
    Signature Algorithm: ecdsa-with-SHA256
         30:46:02:21:00:b7:83:8b:e5:e1:fb:08:6f:bf:4f:8f:65:4f:
         fc:34:a4:df:b3:df:58:cf:2a:39:d4:7a:0e:59:84:b1:d6:8e:
         92:02:21:00:e3:53:3e:b9:06:14:8f:72:bb:43:bc:ce:ba:3b:
         1e:fc:6b:c1:59:f8:a4:22:98:e1:56:cf:c0:00:ee:4b:51:c2
-----BEGIN CERTIFICATE-----
MIIB8zCCAZigAwIBAgIBIzAKBggqhkjOPQQDAjCBmTEYMBYGA1UEAwwPUmVnaW9u
ZSBUb3NjYW5hMQswCQYDVQQGEwJJVDEPMA0GA1UECAwGSXRhbGlhMRgwFgYDVQQK
DA9FLVZvdGluZyBzeXN0ZW0xIjAgBgNVBAsMGUUtVm90aW5nIHN5c3RlbSBhdXRo
b3JpdHkxITAfBgkqhkiG9w0BCQEWElRvc2NhbmFAZXZvdGluZy5pdDAeFw0yMjA4
MjYxNTIxMDdaFw0yMzA4MjYxNTIxMDdaMEkxDzANBgNVBAMMBkp1ZGl0aDELMAkG
A1UEBhMCSVQxDzANBgNVBAgMBkl0YWxpYTEYMBYGA1UECgwPUmVnaW9uZSBUb3Nj
YW5hMFYwEAYHKoZIzj0CAQYFK4EEAAoDQgAESBlf01is/L6ev48iW9dUZMgxw3X4
ruF1RIVGYF88tunY39hF9hBfDBn+M/vCH6aesZqxJ0IShv6VwUFfisLj0aMjMCEw
DgYDVR0PAQH/BAQDAgWgMA8GA1UdEwEB/wQFMAMCAQMwCgYIKoZIzj0EAwIDSQAw
RgIhALeDi+Xh+whvv0+PZU/8NKTfs99Yzyo51HoOWYSx1o6SAiEA41M+uQYUj3K7
Q7zOujse/GvBWfikIpjhVs/AAO5LUcI=
-----END CERTIFICATE-----
