Certificate:
    Data:
        Version: 3 (0x2)
        Serial Number: 22 (0x16)
        Signature Algorithm: ecdsa-with-SHA256
        Issuer: CN=Regione Piemonte, C=IT, ST=Italia, O=E-Voting system, OU=E-Voting system authority/emailAddress=Piemonte@evoting.it
        Validity
            Not Before: Aug  3 13:26:32 2022 GMT
            Not After : Aug  3 13:26:32 2023 GMT
        Subject: CN=Judith, C=IT, ST=Italia, O=Regione Piemonte
        Subject Public Key Info:
            Public Key Algorithm: id-ecPublicKey
                Public-Key: (256 bit)
                pub:
                    04:00:88:b9:32:20:04:ab:0b:f3:1b:6f:21:16:c9:
                    6b:f6:50:a9:ba:18:e3:da:10:70:08:6e:13:f0:ab:
                    68:87:94:8a:10:d4:60:e4:58:3a:7e:ca:c0:9e:59:
                    32:17:63:b7:19:f8:fd:94:27:18:6b:40:62:22:a2:
                    10:71:e0:f8:8b
                ASN1 OID: prime256v1
                NIST CURVE: P-256
        X509v3 extensions:
            X509v3 Key Usage: critical
                Digital Signature, Key Encipherment
            X509v3 Basic Constraints: critical
                CA:FALSE, pathlen:3
    Signature Algorithm: ecdsa-with-SHA256
         30:46:02:21:00:c2:08:6c:de:6b:0e:99:5f:e1:c8:a0:75:95:
         bb:4b:f1:01:78:4e:2f:ab:44:70:3d:34:7d:72:20:45:5a:d6:
         fa:02:21:00:d5:4f:e6:20:13:b0:fe:c0:bb:0e:87:4f:42:5a:
         01:6c:fa:71:42:27:93:9f:1f:fc:87:f5:ac:46:0c:51:38:d6
-----BEGIN CERTIFICATE-----
MIIB+TCCAZ6gAwIBAgIBFjAKBggqhkjOPQQDAjCBmzEZMBcGA1UEAwwQUmVnaW9u
ZSBQaWVtb250ZTELMAkGA1UEBhMCSVQxDzANBgNVBAgMBkl0YWxpYTEYMBYGA1UE
CgwPRS1Wb3Rpbmcgc3lzdGVtMSIwIAYDVQQLDBlFLVZvdGluZyBzeXN0ZW0gYXV0
aG9yaXR5MSIwIAYJKoZIhvcNAQkBFhNQaWVtb250ZUBldm90aW5nLml0MB4XDTIy
MDgwMzEzMjYzMloXDTIzMDgwMzEzMjYzMlowSjEPMA0GA1UEAwwGSnVkaXRoMQsw
CQYDVQQGEwJJVDEPMA0GA1UECAwGSXRhbGlhMRkwFwYDVQQKDBBSZWdpb25lIFBp
ZW1vbnRlMFkwEwYHKoZIzj0CAQYIKoZIzj0DAQcDQgAEAIi5MiAEqwvzG28hFslr
9lCpuhjj2hBwCG4T8Ktoh5SKENRg5Fg6fsrAnlkyF2O3Gfj9lCcYa0BiIqIQceD4
i6MjMCEwDgYDVR0PAQH/BAQDAgWgMA8GA1UdEwEB/wQFMAMCAQMwCgYIKoZIzj0E
AwIDSQAwRgIhAMIIbN5rDplf4cigdZW7S/EBeE4vq0RwPTR9ciBFWtb6AiEA1U/m
IBOw/sC7DodPQloBbPpxQieTnx/8h/WsRgxRONY=
-----END CERTIFICATE-----
