Certificate:
    Data:
        Version: 3 (0x2)
        Serial Number: 29 (0x1d)
        Signature Algorithm: ecdsa-with-SHA256
        Issuer: CN=Regione Sicilia, C=IT, ST=Italia, O=E-Voting system, OU=E-Voting system authority/emailAddress=Sicilia@evoting.it
        Validity
            Not Before: Aug  3 13:28:07 2022 GMT
            Not After : Aug  3 13:28:07 2023 GMT
        Subject: CN=Judson, C=IT, ST=Italia, O=Regione Sicilia
        Subject Public Key Info:
            Public Key Algorithm: id-ecPublicKey
                Public-Key: (256 bit)
                pub:
                    04:e7:76:38:65:c9:ed:de:52:22:9c:e5:85:6b:3a:
                    8c:f7:ce:d2:a2:10:5e:9f:76:a5:c4:79:41:24:d7:
                    df:92:26:5e:07:8e:cb:dc:a2:7e:93:c1:be:be:db:
                    56:d5:a2:e8:9b:88:e7:0f:05:70:4e:23:82:4d:79:
                    ec:38:ba:df:a1
                ASN1 OID: prime256v1
                NIST CURVE: P-256
        X509v3 extensions:
            X509v3 Key Usage: critical
                Digital Signature, Key Encipherment
            X509v3 Basic Constraints: critical
                CA:FALSE, pathlen:3
    Signature Algorithm: ecdsa-with-SHA256
         30:46:02:21:00:ea:86:5a:8b:7a:d0:7c:8e:e9:ef:ed:d2:8b:
         a2:bb:47:b2:b0:c8:be:34:04:f3:c7:db:77:e3:92:c2:cc:a6:
         67:02:21:00:cd:98:d1:0a:4a:b2:52:f5:63:ed:6d:21:22:d4:
         b3:d1:8a:dc:72:b0:99:2a:a8:d7:69:5a:68:fa:e3:ba:b6:e7
-----BEGIN CERTIFICATE-----
MIIB9jCCAZugAwIBAgIBHTAKBggqhkjOPQQDAjCBmTEYMBYGA1UEAwwPUmVnaW9u
ZSBTaWNpbGlhMQswCQYDVQQGEwJJVDEPMA0GA1UECAwGSXRhbGlhMRgwFgYDVQQK
DA9FLVZvdGluZyBzeXN0ZW0xIjAgBgNVBAsMGUUtVm90aW5nIHN5c3RlbSBhdXRo
b3JpdHkxITAfBgkqhkiG9w0BCQEWElNpY2lsaWFAZXZvdGluZy5pdDAeFw0yMjA4
MDMxMzI4MDdaFw0yMzA4MDMxMzI4MDdaMEkxDzANBgNVBAMMBkp1ZHNvbjELMAkG
A1UEBhMCSVQxDzANBgNVBAgMBkl0YWxpYTEYMBYGA1UECgwPUmVnaW9uZSBTaWNp
bGlhMFkwEwYHKoZIzj0CAQYIKoZIzj0DAQcDQgAE53Y4Zcnt3lIinOWFazqM987S
ohBen3alxHlBJNffkiZeB47L3KJ+k8G+vttW1aLom4jnDwVwTiOCTXnsOLrfoaMj
MCEwDgYDVR0PAQH/BAQDAgWgMA8GA1UdEwEB/wQFMAMCAQMwCgYIKoZIzj0EAwID
SQAwRgIhAOqGWot60HyO6e/t0ouiu0eysMi+NATzx9t345LCzKZnAiEAzZjRCkqy
UvVj7W0hItSz0YrccrCZKqjXaVpo+uO6tuc=
-----END CERTIFICATE-----
