Certificate:
    Data:
        Version: 3 (0x2)
        Serial Number: 3 (0x3)
        Signature Algorithm: ecdsa-with-SHA256
        Issuer: CN=Regione Puglia, C=IT, ST=Italia, O=E-Voting system, OU=E-Voting system authority/emailAddress=Puglia@evoting.it
        Validity
            Not Before: Aug 26 15:18:35 2022 GMT
            Not After : Aug 26 15:18:35 2023 GMT
        Subject: CN=Judy, C=IT, ST=Italia, O=Regione Puglia
        Subject Public Key Info:
            Public Key Algorithm: id-ecPublicKey
                Public-Key: (256 bit)
                pub:
                    04:63:54:3d:3d:9b:d2:44:18:fa:32:46:62:fa:eb:
                    58:65:ec:e6:90:3a:6b:f9:ff:48:0a:57:49:16:48:
                    8c:11:bf:d7:b7:e9:2a:84:6a:e5:6c:b0:eb:9a:7a:
                    14:9f:f7:6c:66:5b:03:ac:40:43:11:18:71:3a:33:
                    96:d2:ce:8c:54
                ASN1 OID: secp256k1
        X509v3 extensions:
            X509v3 Key Usage: critical
                Digital Signature, Key Encipherment
            X509v3 Basic Constraints: critical
                CA:FALSE, pathlen:3
    Signature Algorithm: ecdsa-with-SHA256
         30:46:02:21:00:84:a1:f2:1e:86:f8:a2:39:d0:82:5a:d2:1e:
         a1:6f:9f:19:ed:27:5f:a2:f0:4b:52:e6:69:bb:f4:e0:0c:ce:
         a6:02:21:00:aa:c8:aa:e5:ee:db:3e:3c:37:21:7b:bf:a7:6b:
         e3:0c:11:e7:26:7a:57:33:c9:eb:5e:e3:b5:28:18:7c:5d:8d
-----BEGIN CERTIFICATE-----
MIIB7jCCAZOgAwIBAgIBAzAKBggqhkjOPQQDAjCBlzEXMBUGA1UEAwwOUmVnaW9u
ZSBQdWdsaWExCzAJBgNVBAYTAklUMQ8wDQYDVQQIDAZJdGFsaWExGDAWBgNVBAoM
D0UtVm90aW5nIHN5c3RlbTEiMCAGA1UECwwZRS1Wb3Rpbmcgc3lzdGVtIGF1dGhv
cml0eTEgMB4GCSqGSIb3DQEJARYRUHVnbGlhQGV2b3RpbmcuaXQwHhcNMjIwODI2
MTUxODM1WhcNMjMwODI2MTUxODM1WjBGMQ0wCwYDVQQDDARKdWR5MQswCQYDVQQG
EwJJVDEPMA0GA1UECAwGSXRhbGlhMRcwFQYDVQQKDA5SZWdpb25lIFB1Z2xpYTBW
MBAGByqGSM49AgEGBSuBBAAKA0IABGNUPT2b0kQY+jJGYvrrWGXs5pA6a/n/SApX
SRZIjBG/17fpKoRq5Wyw65p6FJ/3bGZbA6xAQxEYcTozltLOjFSjIzAhMA4GA1Ud
DwEB/wQEAwIFoDAPBgNVHRMBAf8EBTADAgEDMAoGCCqGSM49BAMCA0kAMEYCIQCE
ofIehviiOdCCWtIeoW+fGe0nX6LwS1Lmabv04AzOpgIhAKrIquXu2z48NyF7v6dr
4wwR5yZ6VzPJ617jtSgYfF2N
-----END CERTIFICATE-----
