Certificate:
    Data:
        Version: 3 (0x2)
        Serial Number: 28 (0x1c)
        Signature Algorithm: ecdsa-with-SHA256
        Issuer: CN=Regione Emilia_Romagna, C=IT, ST=Italia, O=E-Voting system, OU=E-Voting system authority/emailAddress=Emilia_Romagna@evoting.it
        Validity
            Not Before: Aug  3 13:27:08 2022 GMT
            Not After : Aug  3 13:27:08 2023 GMT
        Subject: CN=Judy, C=IT, ST=Italia, O=Regione Emilia_Romagna
        Subject Public Key Info:
            Public Key Algorithm: id-ecPublicKey
                Public-Key: (256 bit)
                pub:
                    04:cb:f6:ae:4e:70:1a:81:10:9b:ee:04:c6:2d:62:
                    08:b9:73:83:19:12:41:bd:ac:31:48:30:1f:f1:90:
                    9f:59:24:54:cb:56:86:3d:5e:10:9e:ce:3b:5f:53:
                    b2:20:bc:48:4a:64:f1:c2:ce:0a:5a:18:9d:d5:16:
                    85:0d:8b:92:bd
                ASN1 OID: prime256v1
                NIST CURVE: P-256
        X509v3 extensions:
            X509v3 Key Usage: critical
                Digital Signature, Key Encipherment
            X509v3 Basic Constraints: critical
                CA:FALSE, pathlen:3
    Signature Algorithm: ecdsa-with-SHA256
         30:45:02:20:1b:bf:c0:34:5c:06:5a:d2:3e:58:a3:cf:63:80:
         60:c4:24:58:c8:6b:82:84:36:b6:76:4e:e5:a5:93:dd:e9:04:
         02:21:00:af:1a:83:53:cf:d3:50:84:4f:2e:95:b7:e4:f8:bc:
         0c:87:7b:26:1a:e8:ed:26:5c:3b:00:98:e3:d3:62:b6:c1
-----BEGIN CERTIFICATE-----
MIICCDCCAa6gAwIBAgIBHDAKBggqhkjOPQQDAjCBpzEfMB0GA1UEAwwWUmVnaW9u
ZSBFbWlsaWFfUm9tYWduYTELMAkGA1UEBhMCSVQxDzANBgNVBAgMBkl0YWxpYTEY
MBYGA1UECgwPRS1Wb3Rpbmcgc3lzdGVtMSIwIAYDVQQLDBlFLVZvdGluZyBzeXN0
ZW0gYXV0aG9yaXR5MSgwJgYJKoZIhvcNAQkBFhlFbWlsaWFfUm9tYWduYUBldm90
aW5nLml0MB4XDTIyMDgwMzEzMjcwOFoXDTIzMDgwMzEzMjcwOFowTjENMAsGA1UE
AwwESnVkeTELMAkGA1UEBhMCSVQxDzANBgNVBAgMBkl0YWxpYTEfMB0GA1UECgwW
UmVnaW9uZSBFbWlsaWFfUm9tYWduYTBZMBMGByqGSM49AgEGCCqGSM49AwEHA0IA
BMv2rk5wGoEQm+4Exi1iCLlzgxkSQb2sMUgwH/GQn1kkVMtWhj1eEJ7OO19TsiC8
SEpk8cLOCloYndUWhQ2Lkr2jIzAhMA4GA1UdDwEB/wQEAwIFoDAPBgNVHRMBAf8E
BTADAgEDMAoGCCqGSM49BAMCA0gAMEUCIBu/wDRcBlrSPlijz2OAYMQkWMhrgoQ2
tnZO5aWT3ekEAiEArxqDU8/TUIRPLpW35Pi8DId7Jhro7SZcOwCY49NitsE=
-----END CERTIFICATE-----
