Certificate:
    Data:
        Version: 3 (0x2)
        Serial Number: 19 (0x13)
        Signature Algorithm: ecdsa-with-SHA256
        Issuer: CN=Regione Toscana, C=IT, ST=Italia, O=E-Voting system, OU=E-Voting system authority/emailAddress=Toscana@evoting.it
        Validity
            Not Before: Aug 26 15:19:51 2022 GMT
            Not After : Aug 26 15:19:51 2023 GMT
        Subject: CN=Julia, C=IT, ST=Italia, O=Regione Toscana
        Subject Public Key Info:
            Public Key Algorithm: id-ecPublicKey
                Public-Key: (256 bit)
                pub:
                    04:80:f8:f5:de:ce:8d:ac:83:97:af:98:16:18:62:
                    ed:71:b7:73:59:16:d9:84:ba:39:65:73:fd:1b:6c:
                    19:66:e5:bf:e6:10:c8:54:08:a6:c4:bf:38:dd:c7:
                    3d:90:f7:b2:72:63:fd:91:10:9a:08:e3:bc:58:39:
                    3c:40:e8:05:3a
                ASN1 OID: secp256k1
        X509v3 extensions:
            X509v3 Key Usage: critical
                Digital Signature, Key Encipherment
            X509v3 Basic Constraints: critical
                CA:FALSE, pathlen:3
    Signature Algorithm: ecdsa-with-SHA256
         30:45:02:20:16:9f:c1:85:68:cc:65:ca:ab:ac:db:7c:57:cb:
         42:c8:90:8a:36:29:0c:6d:ea:74:33:b9:33:8d:3e:82:7a:91:
         02:21:00:d8:2a:3c:4c:16:5b:26:b7:61:2a:c7:80:77:4b:99:
         e0:46:d6:8c:9b:f3:bc:9d:bc:67:2a:62:35:64:ec:75:10
-----BEGIN CERTIFICATE-----
MIIB8TCCAZegAwIBAgIBEzAKBggqhkjOPQQDAjCBmTEYMBYGA1UEAwwPUmVnaW9u
ZSBUb3NjYW5hMQswCQYDVQQGEwJJVDEPMA0GA1UECAwGSXRhbGlhMRgwFgYDVQQK
DA9FLVZvdGluZyBzeXN0ZW0xIjAgBgNVBAsMGUUtVm90aW5nIHN5c3RlbSBhdXRo
b3JpdHkxITAfBgkqhkiG9w0BCQEWElRvc2NhbmFAZXZvdGluZy5pdDAeFw0yMjA4
MjYxNTE5NTFaFw0yMzA4MjYxNTE5NTFaMEgxDjAMBgNVBAMMBUp1bGlhMQswCQYD
VQQGEwJJVDEPMA0GA1UECAwGSXRhbGlhMRgwFgYDVQQKDA9SZWdpb25lIFRvc2Nh
bmEwVjAQBgcqhkjOPQIBBgUrgQQACgNCAASA+PXezo2sg5evmBYYYu1xt3NZFtmE
ujllc/0bbBlm5b/mEMhUCKbEvzjdxz2Q97JyY/2REJoI47xYOTxA6AU6oyMwITAO
BgNVHQ8BAf8EBAMCBaAwDwYDVR0TAQH/BAUwAwIBAzAKBggqhkjOPQQDAgNIADBF
AiAWn8GFaMxlyqus23xXy0LIkIo2KQxt6nQzuTONPoJ6kQIhANgqPEwWWya3YSrH
gHdLmeBG1oyb87ydvGcqYjVk7HUQ
-----END CERTIFICATE-----
