Certificate:
    Data:
        Version: 3 (0x2)
        Serial Number: 11 (0xb)
        Signature Algorithm: ecdsa-with-SHA256
        Issuer: CN=Regione Lombardia, C=IT, ST=Italia, O=E-Voting system, OU=E-Voting system authority/emailAddress=Lombardia@evoting.it
        Validity
            Not Before: Aug 26 15:19:23 2022 GMT
            Not After : Aug 26 15:19:23 2023 GMT
        Subject: CN=Julissa, C=IT, ST=Italia, O=Regione Lombardia
        Subject Public Key Info:
            Public Key Algorithm: id-ecPublicKey
                Public-Key: (256 bit)
                pub:
                    04:99:d6:f3:bc:a4:33:8b:61:13:28:a5:c7:e7:ac:
                    79:37:db:ae:5a:7e:97:5f:cd:9f:4d:40:90:31:6b:
                    7f:01:74:bd:06:09:b6:66:77:9f:c8:6c:af:1e:0e:
                    3a:ff:bc:68:1f:6b:79:84:da:be:fe:fd:53:e0:2d:
                    8f:53:e7:87:f3
                ASN1 OID: secp256k1
        X509v3 extensions:
            X509v3 Key Usage: critical
                Digital Signature, Key Encipherment
            X509v3 Basic Constraints: critical
                CA:FALSE, pathlen:3
    Signature Algorithm: ecdsa-with-SHA256
         30:44:02:20:09:60:4f:03:ea:11:b7:14:4c:1a:e6:e8:b8:09:
         33:a4:58:40:76:60:fc:87:e6:da:ed:a5:ba:a7:54:28:29:6e:
         02:20:6e:49:78:ba:00:6b:a6:17:88:cb:9a:0b:ac:f3:35:71:
         46:35:0a:19:06:71:58:db:5e:51:66:b4:03:8e:0d:87
-----BEGIN CERTIFICATE-----
MIIB+DCCAZ+gAwIBAgIBCzAKBggqhkjOPQQDAjCBnTEaMBgGA1UEAwwRUmVnaW9u
ZSBMb21iYXJkaWExCzAJBgNVBAYTAklUMQ8wDQYDVQQIDAZJdGFsaWExGDAWBgNV
BAoMD0UtVm90aW5nIHN5c3RlbTEiMCAGA1UECwwZRS1Wb3Rpbmcgc3lzdGVtIGF1
dGhvcml0eTEjMCEGCSqGSIb3DQEJARYUTG9tYmFyZGlhQGV2b3RpbmcuaXQwHhcN
MjIwODI2MTUxOTIzWhcNMjMwODI2MTUxOTIzWjBMMRAwDgYDVQQDDAdKdWxpc3Nh
MQswCQYDVQQGEwJJVDEPMA0GA1UECAwGSXRhbGlhMRowGAYDVQQKDBFSZWdpb25l
IExvbWJhcmRpYTBWMBAGByqGSM49AgEGBSuBBAAKA0IABJnW87ykM4thEyilx+es
eTfbrlp+l1/Nn01AkDFrfwF0vQYJtmZ3n8hsrx4OOv+8aB9reYTavv79U+Atj1Pn
h/OjIzAhMA4GA1UdDwEB/wQEAwIFoDAPBgNVHRMBAf8EBTADAgEDMAoGCCqGSM49
BAMCA0cAMEQCIAlgTwPqEbcUTBrm6LgJM6RYQHZg/Ifm2u2luqdUKCluAiBuSXi6
AGumF4jLmgus8zVxRjUKGQZxWNteUWa0A44Nhw==
-----END CERTIFICATE-----
