Certificate:
    Data:
        Version: 3 (0x2)
        Serial Number: 9 (0x9)
        Signature Algorithm: ecdsa-with-SHA256
        Issuer: CN=Regione Calabria, C=IT, ST=Italia, O=E-Voting system, OU=E-Voting system authority/emailAddress=Calabria@evoting.it
        Validity
            Not Before: Aug 26 15:19:15 2022 GMT
            Not After : Aug 26 15:19:15 2023 GMT
        Subject: CN=Juliann, C=IT, ST=Italia, O=Regione Calabria
        Subject Public Key Info:
            Public Key Algorithm: id-ecPublicKey
                Public-Key: (256 bit)
                pub:
                    04:d3:20:5a:8c:01:96:78:fe:10:12:8d:91:ed:4a:
                    26:03:50:0d:f1:35:75:ff:37:cb:63:00:62:1b:30:
                    cc:07:30:a3:a7:60:fa:fc:bd:77:5a:f3:1d:ea:f0:
                    7a:d9:4a:e2:c8:9a:ba:76:fc:79:18:b1:a7:d7:8b:
                    21:b3:3e:de:56
                ASN1 OID: secp256k1
        X509v3 extensions:
            X509v3 Key Usage: critical
                Digital Signature, Key Encipherment
            X509v3 Basic Constraints: critical
                CA:FALSE, pathlen:3
    Signature Algorithm: ecdsa-with-SHA256
         30:45:02:21:00:cd:5d:ca:b8:7a:7b:1d:d7:f5:ae:f3:49:0c:
         52:a4:ff:0b:0e:c7:86:ed:0e:6d:f8:f2:66:92:dd:a1:e3:62:
         ea:02:20:2c:04:37:e5:2a:f1:17:14:6f:91:ca:9a:30:76:8b:
         bb:d6:61:dd:9b:ef:2e:76:28:8a:92:ea:b5:90:8f:12:7a
-----BEGIN CERTIFICATE-----
MIIB9jCCAZygAwIBAgIBCTAKBggqhkjOPQQDAjCBmzEZMBcGA1UEAwwQUmVnaW9u
ZSBDYWxhYnJpYTELMAkGA1UEBhMCSVQxDzANBgNVBAgMBkl0YWxpYTEYMBYGA1UE
CgwPRS1Wb3Rpbmcgc3lzdGVtMSIwIAYDVQQLDBlFLVZvdGluZyBzeXN0ZW0gYXV0
aG9yaXR5MSIwIAYJKoZIhvcNAQkBFhNDYWxhYnJpYUBldm90aW5nLml0MB4XDTIy
MDgyNjE1MTkxNVoXDTIzMDgyNjE1MTkxNVowSzEQMA4GA1UEAwwHSnVsaWFubjEL
MAkGA1UEBhMCSVQxDzANBgNVBAgMBkl0YWxpYTEZMBcGA1UECgwQUmVnaW9uZSBD
YWxhYnJpYTBWMBAGByqGSM49AgEGBSuBBAAKA0IABNMgWowBlnj+EBKNke1KJgNQ
DfE1df83y2MAYhswzAcwo6dg+vy9d1rzHerwetlK4siaunb8eRixp9eLIbM+3laj
IzAhMA4GA1UdDwEB/wQEAwIFoDAPBgNVHRMBAf8EBTADAgEDMAoGCCqGSM49BAMC
A0gAMEUCIQDNXcq4ensd1/Wu80kMUqT/Cw7Hhu0ObfjyZpLdoeNi6gIgLAQ35Srx
FxRvkcqaMHaLu9Zh3ZvvLnYoipLqtZCPEno=
-----END CERTIFICATE-----
