Certificate:
    Data:
        Version: 3 (0x2)
        Serial Number: 17 (0x11)
        Signature Algorithm: ecdsa-with-SHA256
        Issuer: CN=Regione Sicilia, C=IT, ST=Italia, O=E-Voting system, OU=E-Voting system authority/emailAddress=Sicilia@evoting.it
        Validity
            Not Before: Aug 26 15:19:23 2022 GMT
            Not After : Aug 26 15:19:23 2023 GMT
        Subject: CN=Julius, C=IT, ST=Italia, O=Regione Sicilia
        Subject Public Key Info:
            Public Key Algorithm: id-ecPublicKey
                Public-Key: (256 bit)
                pub:
                    04:b6:6b:9c:ba:72:74:4c:73:33:22:8f:a2:b8:73:
                    77:39:45:e3:fb:3a:83:08:64:37:af:08:e0:3a:65:
                    f5:50:a8:18:d8:55:d6:18:7b:a1:a2:d9:47:60:0a:
                    2b:5e:75:39:b8:ac:95:5d:66:6f:11:23:ed:7c:82:
                    8d:4b:ee:d1:a7
                ASN1 OID: secp256k1
        X509v3 extensions:
            X509v3 Key Usage: critical
                Digital Signature, Key Encipherment
            X509v3 Basic Constraints: critical
                CA:FALSE, pathlen:3
    Signature Algorithm: ecdsa-with-SHA256
         30:46:02:21:00:a4:76:fc:74:b9:6b:65:84:81:6f:ad:6a:99:
         9b:c0:53:ec:f9:95:3e:5a:56:9a:1a:63:ef:8c:fd:77:e6:52:
         fe:02:21:00:df:5e:32:71:13:49:a3:c0:5a:7a:a4:a7:19:74:
         e3:a6:2c:e9:1f:f8:4c:0e:25:8a:4b:94:e7:f8:e5:81:4d:a0
-----BEGIN CERTIFICATE-----
MIIB8zCCAZigAwIBAgIBETAKBggqhkjOPQQDAjCBmTEYMBYGA1UEAwwPUmVnaW9u
ZSBTaWNpbGlhMQswCQYDVQQGEwJJVDEPMA0GA1UECAwGSXRhbGlhMRgwFgYDVQQK
DA9FLVZvdGluZyBzeXN0ZW0xIjAgBgNVBAsMGUUtVm90aW5nIHN5c3RlbSBhdXRo
b3JpdHkxITAfBgkqhkiG9w0BCQEWElNpY2lsaWFAZXZvdGluZy5pdDAeFw0yMjA4
MjYxNTE5MjNaFw0yMzA4MjYxNTE5MjNaMEkxDzANBgNVBAMMBkp1bGl1czELMAkG
A1UEBhMCSVQxDzANBgNVBAgMBkl0YWxpYTEYMBYGA1UECgwPUmVnaW9uZSBTaWNp
bGlhMFYwEAYHKoZIzj0CAQYFK4EEAAoDQgAEtmucunJ0THMzIo+iuHN3OUXj+zqD
CGQ3rwjgOmX1UKgY2FXWGHuhotlHYAorXnU5uKyVXWZvESPtfIKNS+7Rp6MjMCEw
DgYDVR0PAQH/BAQDAgWgMA8GA1UdEwEB/wQFMAMCAQMwCgYIKoZIzj0EAwIDSQAw
RgIhAKR2/HS5a2WEgW+tapmbwFPs+ZU+WlaaGmPvjP135lL+AiEA314ycRNJo8Ba
eqSnGXTjpizpH/hMDiWKS5Tn+OWBTaA=
-----END CERTIFICATE-----
