Certificate:
    Data:
        Version: 3 (0x2)
        Serial Number: 27 (0x1b)
        Signature Algorithm: ecdsa-with-SHA256
        Issuer: CN=Regione Abruzzo, C=IT, ST=Italia, O=E-Voting system, OU=E-Voting system authority/emailAddress=Abruzzo@evoting.it
        Validity
            Not Before: Aug 26 15:20:35 2022 GMT
            Not After : Aug 26 15:20:35 2023 GMT
        Subject: CN=Julie, C=IT, ST=Italia, O=Regione Abruzzo
        Subject Public Key Info:
            Public Key Algorithm: id-ecPublicKey
                Public-Key: (256 bit)
                pub:
                    04:df:b8:dc:3f:22:27:23:aa:c1:d1:a7:1f:88:dc:
                    58:08:a9:e4:dd:8e:ff:c8:96:61:18:97:24:dc:09:
                    de:01:bc:1e:b4:7c:98:b1:e0:eb:8f:a1:06:19:ae:
                    b6:2e:1f:b6:6c:63:e0:fe:1a:a6:0a:9b:c3:8e:ce:
                    78:b2:b8:ac:e5
                ASN1 OID: secp256k1
        X509v3 extensions:
            X509v3 Key Usage: critical
                Digital Signature, Key Encipherment
            X509v3 Basic Constraints: critical
                CA:FALSE, pathlen:3
    Signature Algorithm: ecdsa-with-SHA256
         30:46:02:21:00:eb:59:b2:8e:df:97:bf:3a:f5:a0:62:ea:d6:
         d2:31:bf:dc:5e:b4:84:0d:e6:19:fa:38:cc:75:3a:cf:77:7e:
         c1:02:21:00:91:db:ff:0c:d4:82:04:b1:e4:ff:6b:89:4c:44:
         08:af:da:3a:59:b6:ba:97:2c:2d:45:15:f9:9b:d5:96:f9:19
-----BEGIN CERTIFICATE-----
MIIB8jCCAZegAwIBAgIBGzAKBggqhkjOPQQDAjCBmTEYMBYGA1UEAwwPUmVnaW9u
ZSBBYnJ1enpvMQswCQYDVQQGEwJJVDEPMA0GA1UECAwGSXRhbGlhMRgwFgYDVQQK
DA9FLVZvdGluZyBzeXN0ZW0xIjAgBgNVBAsMGUUtVm90aW5nIHN5c3RlbSBhdXRo
b3JpdHkxITAfBgkqhkiG9w0BCQEWEkFicnV6em9AZXZvdGluZy5pdDAeFw0yMjA4
MjYxNTIwMzVaFw0yMzA4MjYxNTIwMzVaMEgxDjAMBgNVBAMMBUp1bGllMQswCQYD
VQQGEwJJVDEPMA0GA1UECAwGSXRhbGlhMRgwFgYDVQQKDA9SZWdpb25lIEFicnV6
em8wVjAQBgcqhkjOPQIBBgUrgQQACgNCAATfuNw/IicjqsHRpx+I3FgIqeTdjv/I
lmEYlyTcCd4BvB60fJix4OuPoQYZrrYuH7ZsY+D+GqYKm8OOzniyuKzloyMwITAO
BgNVHQ8BAf8EBAMCBaAwDwYDVR0TAQH/BAUwAwIBAzAKBggqhkjOPQQDAgNJADBG
AiEA61myjt+Xvzr1oGLq1tIxv9xetIQN5hn6OMx1Os93fsECIQCR2/8M1IIEseT/
a4lMRAiv2jpZtrqXLC1FFfmb1Zb5GQ==
-----END CERTIFICATE-----
