Certificate:
    Data:
        Version: 3 (0x2)
        Serial Number: 6 (0x6)
        Signature Algorithm: ecdsa-with-SHA256
        Issuer: CN=Regione Campania, C=IT, ST=Italia, O=E-Voting system, OU=E-Voting system authority/emailAddress=Campania@evoting.it
        Validity
            Not Before: Aug 26 15:18:53 2022 GMT
            Not After : Aug 26 15:18:53 2023 GMT
        Subject: CN=Julian, C=IT, ST=Italia, O=Regione Campania
        Subject Public Key Info:
            Public Key Algorithm: id-ecPublicKey
                Public-Key: (256 bit)
                pub:
                    04:84:1b:68:71:8f:b8:fd:6c:4f:bb:6b:c1:8c:67:
                    b7:d9:50:b2:6a:6e:2b:27:d2:d3:3d:62:23:a3:f3:
                    5e:15:63:3e:fa:dd:a7:b4:58:ba:08:69:fa:34:d2:
                    9c:2d:a0:74:f2:16:dc:ab:5b:3e:30:4b:fe:4b:d1:
                    53:55:80:7e:cd
                ASN1 OID: secp256k1
        X509v3 extensions:
            X509v3 Key Usage: critical
                Digital Signature, Key Encipherment
            X509v3 Basic Constraints: critical
                CA:FALSE, pathlen:3
    Signature Algorithm: ecdsa-with-SHA256
         30:45:02:21:00:94:c5:32:d7:2d:af:a4:75:a4:03:d1:02:b0:
         af:b0:91:0a:2c:6d:09:11:6c:fe:50:11:d0:b8:51:7c:23:f3:
         4a:02:20:37:ae:25:b7:bc:2f:66:a5:b7:c8:d0:1a:15:a1:cd:
         5a:2f:e2:2b:63:29:97:fa:9c:65:0a:76:d1:ab:d8:3b:9f
-----BEGIN CERTIFICATE-----
MIIB9TCCAZugAwIBAgIBBjAKBggqhkjOPQQDAjCBmzEZMBcGA1UEAwwQUmVnaW9u
ZSBDYW1wYW5pYTELMAkGA1UEBhMCSVQxDzANBgNVBAgMBkl0YWxpYTEYMBYGA1UE
CgwPRS1Wb3Rpbmcgc3lzdGVtMSIwIAYDVQQLDBlFLVZvdGluZyBzeXN0ZW0gYXV0
aG9yaXR5MSIwIAYJKoZIhvcNAQkBFhNDYW1wYW5pYUBldm90aW5nLml0MB4XDTIy
MDgyNjE1MTg1M1oXDTIzMDgyNjE1MTg1M1owSjEPMA0GA1UEAwwGSnVsaWFuMQsw
CQYDVQQGEwJJVDEPMA0GA1UECAwGSXRhbGlhMRkwFwYDVQQKDBBSZWdpb25lIENh
bXBhbmlhMFYwEAYHKoZIzj0CAQYFK4EEAAoDQgAEhBtocY+4/WxPu2vBjGe32VCy
am4rJ9LTPWIjo/NeFWM++t2ntFi6CGn6NNKcLaB08hbcq1s+MEv+S9FTVYB+zaMj
MCEwDgYDVR0PAQH/BAQDAgWgMA8GA1UdEwEB/wQFMAMCAQMwCgYIKoZIzj0EAwID
SAAwRQIhAJTFMtctr6R1pAPRArCvsJEKLG0JEWz+UBHQuFF8I/NKAiA3riW3vC9m
pbfI0BoVoc1aL+IrYymX+pxlCnbRq9g7nw==
-----END CERTIFICATE-----
