Certificate:
    Data:
        Version: 3 (0x2)
        Serial Number: 16 (0x10)
        Signature Algorithm: ecdsa-with-SHA256
        Issuer: CN=Regione Toscana, C=IT, ST=Italia, O=E-Voting system, OU=E-Voting system authority/emailAddress=Toscana@evoting.it
        Validity
            Not Before: Aug 26 15:19:46 2022 GMT
            Not After : Aug 26 15:19:46 2023 GMT
        Subject: CN=June, C=IT, ST=Italia, O=Regione Toscana
        Subject Public Key Info:
            Public Key Algorithm: id-ecPublicKey
                Public-Key: (256 bit)
                pub:
                    04:2c:16:14:7a:d6:c5:c8:79:dc:7f:78:e3:56:24:
                    88:f8:ff:ff:7b:f3:6d:07:2d:b5:9a:02:e2:4d:dc:
                    b7:77:ed:4f:9f:6e:26:25:a5:5e:3c:c2:7f:2e:21:
                    43:2a:cd:4c:bf:f4:12:2c:77:52:c0:1b:c3:f8:9a:
                    d4:c3:0a:84:eb
                ASN1 OID: secp256k1
        X509v3 extensions:
            X509v3 Key Usage: critical
                Digital Signature, Key Encipherment
            X509v3 Basic Constraints: critical
                CA:FALSE, pathlen:3
    Signature Algorithm: ecdsa-with-SHA256
         30:45:02:20:08:02:8b:38:74:f2:71:a2:d4:7e:25:ca:30:ac:
         de:f5:08:bb:31:e4:f1:a4:bc:7a:f6:f2:b9:85:00:72:d2:81:
         02:21:00:9d:57:6f:69:e6:e5:33:9b:c1:19:58:ee:c6:fa:ef:
         2c:5e:f5:34:e0:e8:4b:f1:a4:c5:13:b3:67:69:47:8d:e8
-----BEGIN CERTIFICATE-----
MIIB8DCCAZagAwIBAgIBEDAKBggqhkjOPQQDAjCBmTEYMBYGA1UEAwwPUmVnaW9u
ZSBUb3NjYW5hMQswCQYDVQQGEwJJVDEPMA0GA1UECAwGSXRhbGlhMRgwFgYDVQQK
DA9FLVZvdGluZyBzeXN0ZW0xIjAgBgNVBAsMGUUtVm90aW5nIHN5c3RlbSBhdXRo
b3JpdHkxITAfBgkqhkiG9w0BCQEWElRvc2NhbmFAZXZvdGluZy5pdDAeFw0yMjA4
MjYxNTE5NDZaFw0yMzA4MjYxNTE5NDZaMEcxDTALBgNVBAMMBEp1bmUxCzAJBgNV
BAYTAklUMQ8wDQYDVQQIDAZJdGFsaWExGDAWBgNVBAoMD1JlZ2lvbmUgVG9zY2Fu
YTBWMBAGByqGSM49AgEGBSuBBAAKA0IABCwWFHrWxch53H9441YkiPj//3vzbQct
tZoC4k3ct3ftT59uJiWlXjzCfy4hQyrNTL/0Eix3UsAbw/ia1MMKhOujIzAhMA4G
A1UdDwEB/wQEAwIFoDAPBgNVHRMBAf8EBTADAgEDMAoGCCqGSM49BAMCA0gAMEUC
IAgCizh08nGi1H4lyjCs3vUIuzHk8aS8evbyuYUActKBAiEAnVdvaeblM5vBGVju
xvrvLF71NODoS/GkxROzZ2lHjeg=
-----END CERTIFICATE-----
