Certificate:
    Data:
        Version: 3 (0x2)
        Serial Number: 33 (0x21)
        Signature Algorithm: ecdsa-with-SHA256
        Issuer: CN=Regione Calabria, C=IT, ST=Italia, O=E-Voting system, OU=E-Voting system authority/emailAddress=Calabria@evoting.it
        Validity
            Not Before: Aug  3 13:27:28 2022 GMT
            Not After : Aug  3 13:27:28 2023 GMT
        Subject: CN=Junior, C=IT, ST=Italia, O=Regione Calabria
        Subject Public Key Info:
            Public Key Algorithm: id-ecPublicKey
                Public-Key: (256 bit)
                pub:
                    04:5d:5a:18:4c:4e:8e:dd:ab:b7:3a:fd:77:40:84:
                    40:d3:a4:21:78:da:d3:ca:cd:3e:b9:be:ed:d3:39:
                    71:e6:0b:76:fe:e6:f4:1c:d3:d1:bf:e8:ef:91:77:
                    13:83:5a:45:06:f9:de:53:8d:d8:07:e7:f1:67:36:
                    d3:d5:1d:8d:ec
                ASN1 OID: prime256v1
                NIST CURVE: P-256
        X509v3 extensions:
            X509v3 Key Usage: critical
                Digital Signature, Key Encipherment
            X509v3 Basic Constraints: critical
                CA:FALSE, pathlen:3
    Signature Algorithm: ecdsa-with-SHA256
         30:45:02:21:00:d1:63:c1:bb:26:75:8c:7b:17:33:fa:a4:22:
         e9:67:6c:b5:83:bb:f9:e4:3c:ba:28:21:0e:1b:dc:eb:21:1a:
         44:02:20:51:77:4f:df:6f:5e:69:77:3c:70:39:f5:df:e6:ad:
         b6:87:c1:62:ad:d7:5d:1e:9a:6b:ec:57:5b:67:5e:b4:59
-----BEGIN CERTIFICATE-----
MIIB+DCCAZ6gAwIBAgIBITAKBggqhkjOPQQDAjCBmzEZMBcGA1UEAwwQUmVnaW9u
ZSBDYWxhYnJpYTELMAkGA1UEBhMCSVQxDzANBgNVBAgMBkl0YWxpYTEYMBYGA1UE
CgwPRS1Wb3Rpbmcgc3lzdGVtMSIwIAYDVQQLDBlFLVZvdGluZyBzeXN0ZW0gYXV0
aG9yaXR5MSIwIAYJKoZIhvcNAQkBFhNDYWxhYnJpYUBldm90aW5nLml0MB4XDTIy
MDgwMzEzMjcyOFoXDTIzMDgwMzEzMjcyOFowSjEPMA0GA1UEAwwGSnVuaW9yMQsw
CQYDVQQGEwJJVDEPMA0GA1UECAwGSXRhbGlhMRkwFwYDVQQKDBBSZWdpb25lIENh
bGFicmlhMFkwEwYHKoZIzj0CAQYIKoZIzj0DAQcDQgAEXVoYTE6O3au3Ov13QIRA
06QheNrTys0+ub7t0zlx5gt2/ub0HNPRv+jvkXcTg1pFBvneU43YB+fxZzbT1R2N
7KMjMCEwDgYDVR0PAQH/BAQDAgWgMA8GA1UdEwEB/wQFMAMCAQMwCgYIKoZIzj0E
AwIDSAAwRQIhANFjwbsmdYx7FzP6pCLpZ2y1g7v55Dy6KCEOG9zrIRpEAiBRd0/f
b15pdzxwOfXf5q22h8FirdddHppr7FdbZ160WQ==
-----END CERTIFICATE-----
