Certificate:
    Data:
        Version: 3 (0x2)
        Serial Number: 5 (0x5)
        Signature Algorithm: ecdsa-with-SHA256
        Issuer: CN=Regione Molise, C=IT, ST=Italia, O=E-Voting system, OU=E-Voting system authority/emailAddress=Molise@evoting.it
        Validity
            Not Before: Aug 26 15:19:05 2022 GMT
            Not After : Aug 26 15:19:05 2023 GMT
        Subject: CN=Justin, C=IT, ST=Italia, O=Regione Molise
        Subject Public Key Info:
            Public Key Algorithm: id-ecPublicKey
                Public-Key: (256 bit)
                pub:
                    04:ca:fb:a5:d6:b3:94:79:8b:f7:76:c3:bc:2d:15:
                    50:9b:c3:75:30:88:4f:3c:9f:1b:03:02:67:fb:8d:
                    fb:ff:31:f2:20:c9:5b:71:70:cd:e5:e0:51:df:0d:
                    ce:c9:ca:38:9a:aa:ed:78:3f:2b:ed:28:8d:64:a0:
                    e3:58:a1:e5:d6
                ASN1 OID: secp256k1
        X509v3 extensions:
            X509v3 Key Usage: critical
                Digital Signature, Key Encipherment
            X509v3 Basic Constraints: critical
                CA:FALSE, pathlen:3
    Signature Algorithm: ecdsa-with-SHA256
         30:45:02:20:3e:5e:b5:9c:c5:17:ee:41:38:b9:3a:a0:42:56:
         96:f2:22:e3:d7:44:2a:37:b3:1d:35:cc:d8:6e:74:a5:02:6b:
         02:21:00:f9:e8:13:cb:d1:e4:ce:0a:6c:2a:ea:b8:15:40:e8:
         5b:eb:ba:98:e5:53:e3:27:68:cf:8c:1b:54:e2:b4:f0:e1
-----BEGIN CERTIFICATE-----
MIIB7zCCAZWgAwIBAgIBBTAKBggqhkjOPQQDAjCBlzEXMBUGA1UEAwwOUmVnaW9u
ZSBNb2xpc2UxCzAJBgNVBAYTAklUMQ8wDQYDVQQIDAZJdGFsaWExGDAWBgNVBAoM
D0UtVm90aW5nIHN5c3RlbTEiMCAGA1UECwwZRS1Wb3Rpbmcgc3lzdGVtIGF1dGhv
cml0eTEgMB4GCSqGSIb3DQEJARYRTW9saXNlQGV2b3RpbmcuaXQwHhcNMjIwODI2
MTUxOTA1WhcNMjMwODI2MTUxOTA1WjBIMQ8wDQYDVQQDDAZKdXN0aW4xCzAJBgNV
BAYTAklUMQ8wDQYDVQQIDAZJdGFsaWExFzAVBgNVBAoMDlJlZ2lvbmUgTW9saXNl
MFYwEAYHKoZIzj0CAQYFK4EEAAoDQgAEyvul1rOUeYv3dsO8LRVQm8N1MIhPPJ8b
AwJn+437/zHyIMlbcXDN5eBR3w3Oyco4mqrteD8r7SiNZKDjWKHl1qMjMCEwDgYD
VR0PAQH/BAQDAgWgMA8GA1UdEwEB/wQFMAMCAQMwCgYIKoZIzj0EAwIDSAAwRQIg
Pl61nMUX7kE4uTqgQlaW8iLj10QqN7MdNczYbnSlAmsCIQD56BPL0eTOCmwq6rgV
QOhb67qY5VPjJ2jPjBtU4rTw4Q==
-----END CERTIFICATE-----
