Certificate:
    Data:
        Version: 3 (0x2)
        Serial Number: 24 (0x18)
        Signature Algorithm: ecdsa-with-SHA256
        Issuer: CN=Regione Marche, C=IT, ST=Italia, O=E-Voting system, OU=E-Voting system authority/emailAddress=Marche@evoting.it
        Validity
            Not Before: Aug  3 13:27:01 2022 GMT
            Not After : Aug  3 13:27:01 2023 GMT
        Subject: CN=Kaitlyn, C=IT, ST=Italia, O=Regione Marche
        Subject Public Key Info:
            Public Key Algorithm: id-ecPublicKey
                Public-Key: (256 bit)
                pub:
                    04:d3:44:2c:2d:e2:a5:f4:2d:af:16:ca:00:bc:9a:
                    ab:35:2e:7f:d5:05:17:eb:e4:0d:52:0d:8e:e5:72:
                    7e:c8:37:e4:df:bc:46:f6:7b:f0:f6:a1:c0:25:13:
                    8d:a2:ec:e0:f6:d2:9b:ac:a6:f6:e1:92:ed:86:92:
                    2e:b6:80:73:8c
                ASN1 OID: prime256v1
                NIST CURVE: P-256
        X509v3 extensions:
            X509v3 Key Usage: critical
                Digital Signature, Key Encipherment
            X509v3 Basic Constraints: critical
                CA:FALSE, pathlen:3
    Signature Algorithm: ecdsa-with-SHA256
         30:44:02:20:30:b5:60:98:06:39:ae:02:10:71:66:8f:b1:7d:
         fb:0b:7b:24:c5:9f:06:57:ce:36:16:bf:79:4c:e3:f9:f5:0c:
         02:20:14:09:49:fe:05:31:5f:0b:46:85:91:f0:e6:da:1a:59:
         ed:74:56:9a:da:b8:6a:13:3a:0a:92:83:06:76:85:b1
-----BEGIN CERTIFICATE-----
MIIB8jCCAZmgAwIBAgIBGDAKBggqhkjOPQQDAjCBlzEXMBUGA1UEAwwOUmVnaW9u
ZSBNYXJjaGUxCzAJBgNVBAYTAklUMQ8wDQYDVQQIDAZJdGFsaWExGDAWBgNVBAoM
D0UtVm90aW5nIHN5c3RlbTEiMCAGA1UECwwZRS1Wb3Rpbmcgc3lzdGVtIGF1dGhv
cml0eTEgMB4GCSqGSIb3DQEJARYRTWFyY2hlQGV2b3RpbmcuaXQwHhcNMjIwODAz
MTMyNzAxWhcNMjMwODAzMTMyNzAxWjBJMRAwDgYDVQQDDAdLYWl0bHluMQswCQYD
VQQGEwJJVDEPMA0GA1UECAwGSXRhbGlhMRcwFQYDVQQKDA5SZWdpb25lIE1hcmNo
ZTBZMBMGByqGSM49AgEGCCqGSM49AwEHA0IABNNELC3ipfQtrxbKALyaqzUuf9UF
F+vkDVINjuVyfsg35N+8RvZ78PahwCUTjaLs4PbSm6ym9uGS7YaSLraAc4yjIzAh
MA4GA1UdDwEB/wQEAwIFoDAPBgNVHRMBAf8EBTADAgEDMAoGCCqGSM49BAMCA0cA
MEQCIDC1YJgGOa4CEHFmj7F9+wt7JMWfBlfONha/eUzj+fUMAiAUCUn+BTFfC0aF
kfDm2hpZ7XRWmtq4ahM6CpKDBnaFsQ==
-----END CERTIFICATE-----
