Certificate:
    Data:
        Version: 3 (0x2)
        Serial Number: 5 (0x5)
        Signature Algorithm: ecdsa-with-SHA256
        Issuer: CN=Regione Lombardia, C=IT, ST=Italia, O=E-Voting system, OU=E-Voting system authority/emailAddress=Lombardia@evoting.it
        Validity
            Not Before: Aug 26 15:18:56 2022 GMT
            Not After : Aug 26 15:18:56 2023 GMT
        Subject: CN=Karen, C=IT, ST=Italia, O=Regione Lombardia
        Subject Public Key Info:
            Public Key Algorithm: id-ecPublicKey
                Public-Key: (256 bit)
                pub:
                    04:b5:ac:ec:4d:91:5f:e8:d9:ab:fa:8c:97:73:b4:
                    79:a4:85:6e:92:0d:ae:c5:0d:4c:83:1f:35:21:50:
                    82:55:15:b0:fb:76:02:50:b7:12:d2:c3:19:31:7c:
                    79:2b:a5:17:ce:1a:bb:17:fb:86:7d:0c:b9:c6:d1:
                    e4:7b:4f:07:3c
                ASN1 OID: secp256k1
        X509v3 extensions:
            X509v3 Key Usage: critical
                Digital Signature, Key Encipherment
            X509v3 Basic Constraints: critical
                CA:FALSE, pathlen:3
    Signature Algorithm: ecdsa-with-SHA256
         30:45:02:21:00:d3:31:d3:7a:7a:12:6e:39:17:8f:c5:f5:ad:
         9d:6f:1b:31:f9:0f:0c:c6:0c:e0:c0:b7:98:7a:34:6c:e9:a5:
         27:02:20:66:03:c1:95:10:d4:fc:f9:38:8e:81:e5:c9:16:48:
         dc:40:b1:23:22:c6:b8:7a:d7:be:c0:79:b5:97:57:92:ab
-----BEGIN CERTIFICATE-----
MIIB9zCCAZ2gAwIBAgIBBTAKBggqhkjOPQQDAjCBnTEaMBgGA1UEAwwRUmVnaW9u
ZSBMb21iYXJkaWExCzAJBgNVBAYTAklUMQ8wDQYDVQQIDAZJdGFsaWExGDAWBgNV
BAoMD0UtVm90aW5nIHN5c3RlbTEiMCAGA1UECwwZRS1Wb3Rpbmcgc3lzdGVtIGF1
dGhvcml0eTEjMCEGCSqGSIb3DQEJARYUTG9tYmFyZGlhQGV2b3RpbmcuaXQwHhcN
MjIwODI2MTUxODU2WhcNMjMwODI2MTUxODU2WjBKMQ4wDAYDVQQDDAVLYXJlbjEL
MAkGA1UEBhMCSVQxDzANBgNVBAgMBkl0YWxpYTEaMBgGA1UECgwRUmVnaW9uZSBM
b21iYXJkaWEwVjAQBgcqhkjOPQIBBgUrgQQACgNCAAS1rOxNkV/o2av6jJdztHmk
hW6SDa7FDUyDHzUhUIJVFbD7dgJQtxLSwxkxfHkrpRfOGrsX+4Z9DLnG0eR7Twc8
oyMwITAOBgNVHQ8BAf8EBAMCBaAwDwYDVR0TAQH/BAUwAwIBAzAKBggqhkjOPQQD
AgNIADBFAiEA0zHTenoSbjkXj8X1rZ1vGzH5DwzGDODAt5h6NGzppScCIGYDwZUQ
1Pz5OI6B5ckWSNxAsSMixrh6177AebWXV5Kr
-----END CERTIFICATE-----
