Certificate:
    Data:
        Version: 3 (0x2)
        Serial Number: 24 (0x18)
        Signature Algorithm: ecdsa-with-SHA256
        Issuer: CN=Regione Trentino_Alto_Adige, C=IT, ST=Italia, O=E-Voting system, OU=E-Voting system authority/emailAddress=Trentino_Alto_Adige@evoting.it
        Validity
            Not Before: Aug 26 15:20:00 2022 GMT
            Not After : Aug 26 15:20:00 2023 GMT
        Subject: CN=Karla, C=IT, ST=Italia, O=Regione Trentino_Alto_Adige
        Subject Public Key Info:
            Public Key Algorithm: id-ecPublicKey
                Public-Key: (256 bit)
                pub:
                    04:44:a2:0b:36:52:c0:3b:7b:54:4e:63:50:30:ab:
                    83:ca:93:e5:bd:ab:76:dc:20:f4:2c:0f:8d:d5:2d:
                    25:35:00:30:10:9d:f3:5c:f8:8b:3b:eb:bf:88:17:
                    16:3b:c2:ab:a4:75:b5:69:e6:7f:e2:7e:8e:37:71:
                    64:65:a2:1c:ec
                ASN1 OID: secp256k1
        X509v3 extensions:
            X509v3 Key Usage: critical
                Digital Signature, Key Encipherment
            X509v3 Basic Constraints: critical
                CA:FALSE, pathlen:3
    Signature Algorithm: ecdsa-with-SHA256
         30:44:02:20:72:05:bd:09:b4:9f:ec:5c:da:bf:dd:01:6a:20:
         c6:f7:7e:cf:6d:46:88:c3:e6:d6:09:37:5a:52:f9:a1:0d:d5:
         02:20:78:7a:90:0f:98:3f:25:9a:84:92:4e:7b:8f:76:c7:94:
         9f:6d:9a:a1:e4:a4:9a:5d:d0:17:2a:68:f2:96:7e:02
-----BEGIN CERTIFICATE-----
MIICFDCCAbugAwIBAgIBGDAKBggqhkjOPQQDAjCBsTEkMCIGA1UEAwwbUmVnaW9u
ZSBUcmVudGlub19BbHRvX0FkaWdlMQswCQYDVQQGEwJJVDEPMA0GA1UECAwGSXRh
bGlhMRgwFgYDVQQKDA9FLVZvdGluZyBzeXN0ZW0xIjAgBgNVBAsMGUUtVm90aW5n
IHN5c3RlbSBhdXRob3JpdHkxLTArBgkqhkiG9w0BCQEWHlRyZW50aW5vX0FsdG9f
QWRpZ2VAZXZvdGluZy5pdDAeFw0yMjA4MjYxNTIwMDBaFw0yMzA4MjYxNTIwMDBa
MFQxDjAMBgNVBAMMBUthcmxhMQswCQYDVQQGEwJJVDEPMA0GA1UECAwGSXRhbGlh
MSQwIgYDVQQKDBtSZWdpb25lIFRyZW50aW5vX0FsdG9fQWRpZ2UwVjAQBgcqhkjO
PQIBBgUrgQQACgNCAAREogs2UsA7e1ROY1Awq4PKk+W9q3bcIPQsD43VLSU1ADAQ
nfNc+Is767+IFxY7wqukdbVp5n/ifo43cWRlohzsoyMwITAOBgNVHQ8BAf8EBAMC
BaAwDwYDVR0TAQH/BAUwAwIBAzAKBggqhkjOPQQDAgNHADBEAiByBb0JtJ/sXNq/
3QFqIMb3fs9tRojD5tYJN1pS+aEN1QIgeHqQD5g/JZqEkk57j3bHlJ9tmqHkpJpd
0BcqaPKWfgI=
-----END CERTIFICATE-----
