Certificate:
    Data:
        Version: 3 (0x2)
        Serial Number: 28 (0x1c)
        Signature Algorithm: ecdsa-with-SHA256
        Issuer: CN=Regione Lombardia, C=IT, ST=Italia, O=E-Voting system, OU=E-Voting system authority/emailAddress=Lombardia@evoting.it
        Validity
            Not Before: Aug  3 13:27:00 2022 GMT
            Not After : Aug  3 13:27:00 2023 GMT
        Subject: CN=Karolyn, C=IT, ST=Italia, O=Regione Lombardia
        Subject Public Key Info:
            Public Key Algorithm: id-ecPublicKey
                Public-Key: (256 bit)
                pub:
                    04:53:d3:e2:c1:26:c5:ee:4b:0a:ce:f9:72:ff:22:
                    15:b1:c4:a6:e7:63:ec:92:3d:83:0e:5a:b1:fe:74:
                    b7:5c:9f:7b:56:9e:e4:9e:d4:0c:34:fe:6d:00:e0:
                    17:db:31:e8:ab:68:25:a7:88:2c:14:ac:44:c9:94:
                    9c:12:f7:32:1d
                ASN1 OID: prime256v1
                NIST CURVE: P-256
        X509v3 extensions:
            X509v3 Key Usage: critical
                Digital Signature, Key Encipherment
            X509v3 Basic Constraints: critical
                CA:FALSE, pathlen:3
    Signature Algorithm: ecdsa-with-SHA256
         30:45:02:21:00:ab:1e:dd:d3:43:38:65:c1:43:94:e4:1b:55:
         29:41:4f:49:9b:6c:91:c9:9b:8c:2b:f2:b5:d7:53:7d:3e:f8:
         dc:02:20:62:e8:fa:c1:bf:0b:aa:82:a7:64:64:53:13:ab:65:
         f1:a9:d4:70:45:a4:6c:7c:1c:35:52:f5:45:76:e2:20:03
-----BEGIN CERTIFICATE-----
MIIB/DCCAaKgAwIBAgIBHDAKBggqhkjOPQQDAjCBnTEaMBgGA1UEAwwRUmVnaW9u
ZSBMb21iYXJkaWExCzAJBgNVBAYTAklUMQ8wDQYDVQQIDAZJdGFsaWExGDAWBgNV
BAoMD0UtVm90aW5nIHN5c3RlbTEiMCAGA1UECwwZRS1Wb3Rpbmcgc3lzdGVtIGF1
dGhvcml0eTEjMCEGCSqGSIb3DQEJARYUTG9tYmFyZGlhQGV2b3RpbmcuaXQwHhcN
MjIwODAzMTMyNzAwWhcNMjMwODAzMTMyNzAwWjBMMRAwDgYDVQQDDAdLYXJvbHlu
MQswCQYDVQQGEwJJVDEPMA0GA1UECAwGSXRhbGlhMRowGAYDVQQKDBFSZWdpb25l
IExvbWJhcmRpYTBZMBMGByqGSM49AgEGCCqGSM49AwEHA0IABFPT4sEmxe5LCs75
cv8iFbHEpudj7JI9gw5asf50t1yfe1ae5J7UDDT+bQDgF9sx6KtoJaeILBSsRMmU
nBL3Mh2jIzAhMA4GA1UdDwEB/wQEAwIFoDAPBgNVHRMBAf8EBTADAgEDMAoGCCqG
SM49BAMCA0gAMEUCIQCrHt3TQzhlwUOU5BtVKUFPSZtskcmbjCvytddTfT743AIg
Yuj6wb8LqoKnZGRTE6tl8anUcEWkbHwcNVL1RXbiIAM=
-----END CERTIFICATE-----
