Certificate:
    Data:
        Version: 3 (0x2)
        Serial Number: 57 (0x39)
        Signature Algorithm: ecdsa-with-SHA256
        Issuer: CN=Regione Puglia, C=IT, ST=Italia, O=E-Voting system, OU=E-Voting system authority/emailAddress=Puglia@evoting.it
        Validity
            Not Before: Aug 26 15:21:41 2022 GMT
            Not After : Aug 26 15:21:41 2023 GMT
        Subject: CN=Karrie, C=IT, ST=Italia, O=Regione Puglia
        Subject Public Key Info:
            Public Key Algorithm: id-ecPublicKey
                Public-Key: (256 bit)
                pub:
                    04:dd:e5:e1:ab:05:02:04:2e:f7:3a:04:d3:9c:eb:
                    9f:b2:fe:7a:c1:c6:37:6a:10:ac:b7:11:3e:e1:64:
                    69:ae:88:a7:a0:5e:a5:2b:76:ce:47:4a:97:d4:6f:
                    2f:8d:58:48:8a:80:40:8e:71:df:cb:dd:c6:e0:35:
                    f0:10:11:83:66
                ASN1 OID: secp256k1
        X509v3 extensions:
            X509v3 Key Usage: critical
                Digital Signature, Key Encipherment
            X509v3 Basic Constraints: critical
                CA:FALSE, pathlen:3
    Signature Algorithm: ecdsa-with-SHA256
         30:46:02:21:00:ac:b4:43:3c:0d:da:95:7d:53:8f:d9:d3:27:
         0e:d4:81:27:d4:75:31:b6:32:6c:81:2b:1f:3b:bf:f8:99:d4:
         38:02:21:00:98:c6:df:d0:54:9b:9a:7a:b1:af:52:bd:7a:d2:
         36:e0:78:97:d4:d1:7b:b4:6f:89:fe:bf:64:2a:95:0a:04:54
-----BEGIN CERTIFICATE-----
MIIB8DCCAZWgAwIBAgIBOTAKBggqhkjOPQQDAjCBlzEXMBUGA1UEAwwOUmVnaW9u
ZSBQdWdsaWExCzAJBgNVBAYTAklUMQ8wDQYDVQQIDAZJdGFsaWExGDAWBgNVBAoM
D0UtVm90aW5nIHN5c3RlbTEiMCAGA1UECwwZRS1Wb3Rpbmcgc3lzdGVtIGF1dGhv
cml0eTEgMB4GCSqGSIb3DQEJARYRUHVnbGlhQGV2b3RpbmcuaXQwHhcNMjIwODI2
MTUyMTQxWhcNMjMwODI2MTUyMTQxWjBIMQ8wDQYDVQQDDAZLYXJyaWUxCzAJBgNV
BAYTAklUMQ8wDQYDVQQIDAZJdGFsaWExFzAVBgNVBAoMDlJlZ2lvbmUgUHVnbGlh
MFYwEAYHKoZIzj0CAQYFK4EEAAoDQgAE3eXhqwUCBC73OgTTnOufsv56wcY3ahCs
txE+4WRproinoF6lK3bOR0qX1G8vjVhIioBAjnHfy93G4DXwEBGDZqMjMCEwDgYD
VR0PAQH/BAQDAgWgMA8GA1UdEwEB/wQFMAMCAQMwCgYIKoZIzj0EAwIDSQAwRgIh
AKy0QzwN2pV9U4/Z0ycO1IEn1HUxtjJsgSsfO7/4mdQ4AiEAmMbf0FSbmnqxr1K9
etI24HiX1NF7tG+J/r9kKpUKBFQ=
-----END CERTIFICATE-----
