Certificate:
    Data:
        Version: 3 (0x2)
        Serial Number: 10 (0xa)
        Signature Algorithm: ecdsa-with-SHA256
        Issuer: CN=Regione Campania, C=IT, ST=Italia, O=E-Voting system, OU=E-Voting system authority/emailAddress=Campania@evoting.it
        Validity
            Not Before: Aug  3 13:25:57 2022 GMT
            Not After : Aug  3 13:25:57 2023 GMT
        Subject: CN=Karyn, C=IT, ST=Italia, O=Regione Campania
        Subject Public Key Info:
            Public Key Algorithm: id-ecPublicKey
                Public-Key: (256 bit)
                pub:
                    04:63:29:e8:85:4b:4e:bd:26:59:fe:2c:26:5e:63:
                    a6:5f:21:28:87:cf:c2:1d:df:bd:a8:24:e3:8b:38:
                    16:b5:60:2f:8e:8e:0b:b7:e2:1a:4f:cf:fc:90:49:
                    3e:e7:7b:b3:4d:61:27:64:65:4c:c7:cc:95:a5:e3:
                    85:a4:2f:11:c8
                ASN1 OID: prime256v1
                NIST CURVE: P-256
        X509v3 extensions:
            X509v3 Key Usage: critical
                Digital Signature, Key Encipherment
            X509v3 Basic Constraints: critical
                CA:FALSE, pathlen:3
    Signature Algorithm: ecdsa-with-SHA256
         30:44:02:20:69:6f:97:15:db:73:22:c6:77:03:2e:ef:bc:e3:
         02:60:64:70:32:0a:7f:c3:24:5c:9f:af:72:75:93:ea:53:d6:
         02:20:70:4f:78:5b:80:48:99:b0:18:c1:17:01:7a:eb:76:d8:
         b1:de:14:5c:68:c8:d8:cf:49:16:db:34:ce:3b:5f:97
-----BEGIN CERTIFICATE-----
MIIB9jCCAZ2gAwIBAgIBCjAKBggqhkjOPQQDAjCBmzEZMBcGA1UEAwwQUmVnaW9u
ZSBDYW1wYW5pYTELMAkGA1UEBhMCSVQxDzANBgNVBAgMBkl0YWxpYTEYMBYGA1UE
CgwPRS1Wb3Rpbmcgc3lzdGVtMSIwIAYDVQQLDBlFLVZvdGluZyBzeXN0ZW0gYXV0
aG9yaXR5MSIwIAYJKoZIhvcNAQkBFhNDYW1wYW5pYUBldm90aW5nLml0MB4XDTIy
MDgwMzEzMjU1N1oXDTIzMDgwMzEzMjU1N1owSTEOMAwGA1UEAwwFS2FyeW4xCzAJ
BgNVBAYTAklUMQ8wDQYDVQQIDAZJdGFsaWExGTAXBgNVBAoMEFJlZ2lvbmUgQ2Ft
cGFuaWEwWTATBgcqhkjOPQIBBggqhkjOPQMBBwNCAARjKeiFS069Jln+LCZeY6Zf
ISiHz8Id372oJOOLOBa1YC+Ojgu34hpPz/yQST7ne7NNYSdkZUzHzJWl44WkLxHI
oyMwITAOBgNVHQ8BAf8EBAMCBaAwDwYDVR0TAQH/BAUwAwIBAzAKBggqhkjOPQQD
AgNHADBEAiBpb5cV23MixncDLu+84wJgZHAyCn/DJFyfr3J1k+pT1gIgcE94W4BI
mbAYwRcBeut22LHeFFxoyNjPSRbbNM47X5c=
-----END CERTIFICATE-----
