Certificate:
    Data:
        Version: 3 (0x2)
        Serial Number: 44 (0x2c)
        Signature Algorithm: ecdsa-with-SHA256
        Issuer: CN=Regione Marche, C=IT, ST=Italia, O=E-Voting system, OU=E-Voting system authority/emailAddress=Marche@evoting.it
        Validity
            Not Before: Aug  3 13:28:23 2022 GMT
            Not After : Aug  3 13:28:23 2023 GMT
        Subject: CN=Kathey, C=IT, ST=Italia, O=Regione Marche
        Subject Public Key Info:
            Public Key Algorithm: id-ecPublicKey
                Public-Key: (256 bit)
                pub:
                    04:91:f8:d3:2b:a4:4e:5e:b4:90:55:5c:73:04:eb:
                    ff:90:08:0b:97:38:b4:51:bf:bb:43:15:da:6f:b6:
                    d0:72:62:4a:ee:dd:96:ee:59:38:ae:5d:36:07:05:
                    5a:99:ed:5d:9b:ff:e2:41:9c:33:42:ed:e1:f5:89:
                    a9:e5:66:81:27
                ASN1 OID: prime256v1
                NIST CURVE: P-256
        X509v3 extensions:
            X509v3 Key Usage: critical
                Digital Signature, Key Encipherment
            X509v3 Basic Constraints: critical
                CA:FALSE, pathlen:3
    Signature Algorithm: ecdsa-with-SHA256
         30:46:02:21:00:9c:1f:44:5c:85:2a:aa:b7:30:db:5c:c5:84:
         3a:34:6e:90:f6:8d:b2:96:31:fe:6b:5d:56:d1:e4:ef:88:92:
         c1:02:21:00:e8:a0:0b:36:5b:b9:b5:98:4d:84:e9:77:81:ed:
         6a:98:37:d4:fc:dd:7a:86:e3:83:2a:93:89:06:15:fd:2e:c5
-----BEGIN CERTIFICATE-----
MIIB8zCCAZigAwIBAgIBLDAKBggqhkjOPQQDAjCBlzEXMBUGA1UEAwwOUmVnaW9u
ZSBNYXJjaGUxCzAJBgNVBAYTAklUMQ8wDQYDVQQIDAZJdGFsaWExGDAWBgNVBAoM
D0UtVm90aW5nIHN5c3RlbTEiMCAGA1UECwwZRS1Wb3Rpbmcgc3lzdGVtIGF1dGhv
cml0eTEgMB4GCSqGSIb3DQEJARYRTWFyY2hlQGV2b3RpbmcuaXQwHhcNMjIwODAz
MTMyODIzWhcNMjMwODAzMTMyODIzWjBIMQ8wDQYDVQQDDAZLYXRoZXkxCzAJBgNV
BAYTAklUMQ8wDQYDVQQIDAZJdGFsaWExFzAVBgNVBAoMDlJlZ2lvbmUgTWFyY2hl
MFkwEwYHKoZIzj0CAQYIKoZIzj0DAQcDQgAEkfjTK6ROXrSQVVxzBOv/kAgLlzi0
Ub+7QxXab7bQcmJK7t2W7lk4rl02BwVame1dm//iQZwzQu3h9Ymp5WaBJ6MjMCEw
DgYDVR0PAQH/BAQDAgWgMA8GA1UdEwEB/wQFMAMCAQMwCgYIKoZIzj0EAwIDSQAw
RgIhAJwfRFyFKqq3MNtcxYQ6NG6Q9o2yljH+a11W0eTviJLBAiEA6KALNlu5tZhN
hOl3ge1qmDfU/N16huODKpOJBhX9LsU=
-----END CERTIFICATE-----
