Certificate:
    Data:
        Version: 3 (0x2)
        Serial Number: 38 (0x26)
        Signature Algorithm: ecdsa-with-SHA256
        Issuer: CN=Regione Liguria, C=IT, ST=Italia, O=E-Voting system, OU=E-Voting system authority/emailAddress=Liguria@evoting.it
        Validity
            Not Before: Aug 26 15:20:26 2022 GMT
            Not After : Aug 26 15:20:26 2023 GMT
        Subject: CN=Kathleen, C=IT, ST=Italia, O=Regione Liguria
        Subject Public Key Info:
            Public Key Algorithm: id-ecPublicKey
                Public-Key: (256 bit)
                pub:
                    04:79:5d:98:fa:86:0a:76:91:e8:32:81:7c:76:14:
                    52:87:5a:10:00:f9:eb:98:c3:71:06:df:e0:c9:0d:
                    72:e7:6b:01:5d:f1:63:49:4c:9e:20:1a:55:53:df:
                    59:c0:0e:8f:27:44:e0:37:25:d1:aa:c6:ba:7f:e7:
                    a2:68:c6:0e:80
                ASN1 OID: secp256k1
        X509v3 extensions:
            X509v3 Key Usage: critical
                Digital Signature, Key Encipherment
            X509v3 Basic Constraints: critical
                CA:FALSE, pathlen:3
    Signature Algorithm: ecdsa-with-SHA256
         30:44:02:20:71:47:55:06:54:69:18:22:51:0d:9c:af:41:f4:
         3f:02:85:4d:83:d0:66:9b:b1:62:71:85:e7:2d:ca:33:00:ff:
         02:20:5b:10:f0:e8:07:6c:15:db:fa:97:be:8c:5a:1e:dc:a7:
         20:ca:f4:24:c5:8c:4c:7b:85:7c:48:9b:6c:a9:1f:e8
-----BEGIN CERTIFICATE-----
MIIB8zCCAZqgAwIBAgIBJjAKBggqhkjOPQQDAjCBmTEYMBYGA1UEAwwPUmVnaW9u
ZSBMaWd1cmlhMQswCQYDVQQGEwJJVDEPMA0GA1UECAwGSXRhbGlhMRgwFgYDVQQK
DA9FLVZvdGluZyBzeXN0ZW0xIjAgBgNVBAsMGUUtVm90aW5nIHN5c3RlbSBhdXRo
b3JpdHkxITAfBgkqhkiG9w0BCQEWEkxpZ3VyaWFAZXZvdGluZy5pdDAeFw0yMjA4
MjYxNTIwMjZaFw0yMzA4MjYxNTIwMjZaMEsxETAPBgNVBAMMCEthdGhsZWVuMQsw
CQYDVQQGEwJJVDEPMA0GA1UECAwGSXRhbGlhMRgwFgYDVQQKDA9SZWdpb25lIExp
Z3VyaWEwVjAQBgcqhkjOPQIBBgUrgQQACgNCAAR5XZj6hgp2kegygXx2FFKHWhAA
+euYw3EG3+DJDXLnawFd8WNJTJ4gGlVT31nADo8nROA3JdGqxrp/56Joxg6AoyMw
ITAOBgNVHQ8BAf8EBAMCBaAwDwYDVR0TAQH/BAUwAwIBAzAKBggqhkjOPQQDAgNH
ADBEAiBxR1UGVGkYIlENnK9B9D8ChU2D0GabsWJxhectyjMA/wIgWxDw6AdsFdv6
l76MWh7cpyDK9CTFjEx7hXxIm2ypH+g=
-----END CERTIFICATE-----
