Certificate:
    Data:
        Version: 3 (0x2)
        Serial Number: 35 (0x23)
        Signature Algorithm: ecdsa-with-SHA256
        Issuer: CN=Regione Valle_d_Aosta, C=IT, ST=Italia, O=E-Voting system, OU=E-Voting system authority/emailAddress=Valle_d_Aosta@evoting.it
        Validity
            Not Before: Aug  3 13:27:24 2022 GMT
            Not After : Aug  3 13:27:24 2023 GMT
        Subject: CN=Kathleen, C=IT, ST=Italia, O=Regione Valle_d_Aosta
        Subject Public Key Info:
            Public Key Algorithm: id-ecPublicKey
                Public-Key: (256 bit)
                pub:
                    04:87:50:2d:f1:49:5f:09:cd:c3:52:c4:0b:b2:c8:
                    ea:23:32:91:e9:71:c3:4e:f3:4f:c1:59:bb:f5:d4:
                    49:f1:8f:84:9d:bc:7c:6d:b3:9a:aa:15:f2:77:e5:
                    f7:09:5f:2b:4c:cd:ab:05:b9:74:0b:49:af:2c:95:
                    f0:86:c6:63:84
                ASN1 OID: prime256v1
                NIST CURVE: P-256
        X509v3 extensions:
            X509v3 Key Usage: critical
                Digital Signature, Key Encipherment
            X509v3 Basic Constraints: critical
                CA:FALSE, pathlen:3
    Signature Algorithm: ecdsa-with-SHA256
         30:44:02:20:41:84:c8:58:42:29:51:1b:c4:ff:af:81:a0:f6:
         11:9d:c7:36:99:50:c6:49:c4:1c:42:8e:ae:74:d2:52:61:62:
         02:20:13:c6:2e:8b:33:39:67:8f:f7:3c:03:78:88:e0:b9:1c:
         c3:ed:6e:0e:8b:7b:fc:47:a3:b6:4d:a6:ff:19:9d:68
-----BEGIN CERTIFICATE-----
MIICCDCCAa+gAwIBAgIBIzAKBggqhkjOPQQDAjCBpTEeMBwGA1UEAwwVUmVnaW9u
ZSBWYWxsZV9kX0Fvc3RhMQswCQYDVQQGEwJJVDEPMA0GA1UECAwGSXRhbGlhMRgw
FgYDVQQKDA9FLVZvdGluZyBzeXN0ZW0xIjAgBgNVBAsMGUUtVm90aW5nIHN5c3Rl
bSBhdXRob3JpdHkxJzAlBgkqhkiG9w0BCQEWGFZhbGxlX2RfQW9zdGFAZXZvdGlu
Zy5pdDAeFw0yMjA4MDMxMzI3MjRaFw0yMzA4MDMxMzI3MjRaMFExETAPBgNVBAMM
CEthdGhsZWVuMQswCQYDVQQGEwJJVDEPMA0GA1UECAwGSXRhbGlhMR4wHAYDVQQK
DBVSZWdpb25lIFZhbGxlX2RfQW9zdGEwWTATBgcqhkjOPQIBBggqhkjOPQMBBwNC
AASHUC3xSV8JzcNSxAuyyOojMpHpccNO80/BWbv11Enxj4SdvHxts5qqFfJ35fcJ
XytMzasFuXQLSa8slfCGxmOEoyMwITAOBgNVHQ8BAf8EBAMCBaAwDwYDVR0TAQH/
BAUwAwIBAzAKBggqhkjOPQQDAgNHADBEAiBBhMhYQilRG8T/r4Gg9hGdxzaZUMZJ
xBxCjq500lJhYgIgE8YuizM5Z4/3PAN4iOC5HMPtbg6Le/xHo7ZNpv8ZnWg=
-----END CERTIFICATE-----
