Certificate:
    Data:
        Version: 3 (0x2)
        Serial Number: 48 (0x30)
        Signature Algorithm: ecdsa-with-SHA256
        Issuer: CN=Regione Emilia_Romagna, C=IT, ST=Italia, O=E-Voting system, OU=E-Voting system authority/emailAddress=Emilia_Romagna@evoting.it
        Validity
            Not Before: Aug  3 13:28:45 2022 GMT
            Not After : Aug  3 13:28:45 2023 GMT
        Subject: CN=Kathryn, C=IT, ST=Italia, O=Regione Emilia_Romagna
        Subject Public Key Info:
            Public Key Algorithm: id-ecPublicKey
                Public-Key: (256 bit)
                pub:
                    04:71:62:06:d9:dc:23:27:19:96:2d:6d:cf:c9:f7:
                    6a:57:3c:84:6f:a4:f5:f0:a1:c5:43:47:39:e2:be:
                    eb:42:0d:93:91:2a:ff:b8:ba:7d:04:f2:82:01:24:
                    c0:b7:0b:cd:51:a5:72:0f:f8:25:d4:b9:57:94:83:
                    b6:c6:d0:1b:e5
                ASN1 OID: prime256v1
                NIST CURVE: P-256
        X509v3 extensions:
            X509v3 Key Usage: critical
                Digital Signature, Key Encipherment
            X509v3 Basic Constraints: critical
                CA:FALSE, pathlen:3
    Signature Algorithm: ecdsa-with-SHA256
         30:45:02:21:00:bc:20:8a:f3:8e:eb:7d:75:80:46:e5:87:9d:
         20:b4:fc:19:a5:12:2c:cb:b8:83:ee:ee:5e:84:08:11:85:31:
         90:02:20:41:bf:96:26:1b:6c:6c:9c:c0:2c:70:10:fc:5b:da:
         5f:2e:7b:2c:7a:06:f8:d4:fd:ba:13:b6:e1:ef:be:94:05
-----BEGIN CERTIFICATE-----
MIICCzCCAbGgAwIBAgIBMDAKBggqhkjOPQQDAjCBpzEfMB0GA1UEAwwWUmVnaW9u
ZSBFbWlsaWFfUm9tYWduYTELMAkGA1UEBhMCSVQxDzANBgNVBAgMBkl0YWxpYTEY
MBYGA1UECgwPRS1Wb3Rpbmcgc3lzdGVtMSIwIAYDVQQLDBlFLVZvdGluZyBzeXN0
ZW0gYXV0aG9yaXR5MSgwJgYJKoZIhvcNAQkBFhlFbWlsaWFfUm9tYWduYUBldm90
aW5nLml0MB4XDTIyMDgwMzEzMjg0NVoXDTIzMDgwMzEzMjg0NVowUTEQMA4GA1UE
AwwHS2F0aHJ5bjELMAkGA1UEBhMCSVQxDzANBgNVBAgMBkl0YWxpYTEfMB0GA1UE
CgwWUmVnaW9uZSBFbWlsaWFfUm9tYWduYTBZMBMGByqGSM49AgEGCCqGSM49AwEH
A0IABHFiBtncIycZli1tz8n3alc8hG+k9fChxUNHOeK+60INk5Eq/7i6fQTyggEk
wLcLzVGlcg/4JdS5V5SDtsbQG+WjIzAhMA4GA1UdDwEB/wQEAwIFoDAPBgNVHRMB
Af8EBTADAgEDMAoGCCqGSM49BAMCA0gAMEUCIQC8IIrzjut9dYBG5YedILT8GaUS
LMu4g+7uXoQIEYUxkAIgQb+WJhtsbJzALHAQ/FvaXy57LHoG+NT9uhO24e++lAU=
-----END CERTIFICATE-----
