Certificate:
    Data:
        Version: 3 (0x2)
        Serial Number: 7 (0x7)
        Signature Algorithm: ecdsa-with-SHA256
        Issuer: CN=Regione Liguria, C=IT, ST=Italia, O=E-Voting system, OU=E-Voting system authority/emailAddress=Liguria@evoting.it
        Validity
            Not Before: Aug  3 13:25:58 2022 GMT
            Not After : Aug  3 13:25:58 2023 GMT
        Subject: CN=Katherine, C=IT, ST=Italia, O=Regione Liguria
        Subject Public Key Info:
            Public Key Algorithm: id-ecPublicKey
                Public-Key: (256 bit)
                pub:
                    04:a5:7f:a2:11:2b:e7:b7:15:14:31:98:48:94:a6:
                    15:c7:b2:6a:bc:28:68:4b:a4:4f:70:36:e8:f7:b5:
                    d2:01:5e:17:01:e3:aa:a3:dc:df:7b:79:52:02:2a:
                    39:6a:06:6a:5b:aa:17:24:c3:ce:fa:97:1b:6e:4a:
                    0e:8f:3d:6b:fc
                ASN1 OID: prime256v1
                NIST CURVE: P-256
        X509v3 extensions:
            X509v3 Key Usage: critical
                Digital Signature, Key Encipherment
            X509v3 Basic Constraints: critical
                CA:FALSE, pathlen:3
    Signature Algorithm: ecdsa-with-SHA256
         30:45:02:20:2b:e8:dc:7e:80:17:16:a5:4c:3b:65:3a:bb:7a:
         09:d1:c6:7b:63:d4:91:e9:b2:e2:8d:8c:f0:61:f4:e1:37:fb:
         02:21:00:ec:ef:a3:36:f3:34:e6:24:ee:50:d4:22:7a:18:a9:
         90:21:2c:37:e6:8c:79:e9:da:be:11:30:98:e4:c2:fb:58
-----BEGIN CERTIFICATE-----
MIIB+DCCAZ6gAwIBAgIBBzAKBggqhkjOPQQDAjCBmTEYMBYGA1UEAwwPUmVnaW9u
ZSBMaWd1cmlhMQswCQYDVQQGEwJJVDEPMA0GA1UECAwGSXRhbGlhMRgwFgYDVQQK
DA9FLVZvdGluZyBzeXN0ZW0xIjAgBgNVBAsMGUUtVm90aW5nIHN5c3RlbSBhdXRo
b3JpdHkxITAfBgkqhkiG9w0BCQEWEkxpZ3VyaWFAZXZvdGluZy5pdDAeFw0yMjA4
MDMxMzI1NThaFw0yMzA4MDMxMzI1NThaMEwxEjAQBgNVBAMMCUthdGhlcmluZTEL
MAkGA1UEBhMCSVQxDzANBgNVBAgMBkl0YWxpYTEYMBYGA1UECgwPUmVnaW9uZSBM
aWd1cmlhMFkwEwYHKoZIzj0CAQYIKoZIzj0DAQcDQgAEpX+iESvntxUUMZhIlKYV
x7JqvChoS6RPcDbo97XSAV4XAeOqo9zfe3lSAio5agZqW6oXJMPO+pcbbkoOjz1r
/KMjMCEwDgYDVR0PAQH/BAQDAgWgMA8GA1UdEwEB/wQFMAMCAQMwCgYIKoZIzj0E
AwIDSAAwRQIgK+jcfoAXFqVMO2U6u3oJ0cZ7Y9SR6bLijYzwYfThN/sCIQDs76M2
8zTmJO5Q1CJ6GKmQISw35ox56dq+ETCY5ML7WA==
-----END CERTIFICATE-----
