Certificate:
    Data:
        Version: 3 (0x2)
        Serial Number: 20 (0x14)
        Signature Algorithm: ecdsa-with-SHA256
        Issuer: CN=Regione Umbria, C=IT, ST=Italia, O=E-Voting system, OU=E-Voting system authority/emailAddress=Umbria@evoting.it
        Validity
            Not Before: Aug 26 15:19:45 2022 GMT
            Not After : Aug 26 15:19:45 2023 GMT
        Subject: CN=Katherine, C=IT, ST=Italia, O=Regione Umbria
        Subject Public Key Info:
            Public Key Algorithm: id-ecPublicKey
                Public-Key: (256 bit)
                pub:
                    04:4f:dd:cb:fb:ea:15:cb:34:25:82:9a:94:43:b9:
                    49:8b:4e:14:0a:d3:65:49:ac:34:d7:78:21:ce:a9:
                    79:6c:65:be:60:ad:2d:c2:c0:f5:10:f2:0c:66:76:
                    db:e9:73:ce:57:23:6a:35:09:ac:3e:92:3a:f7:98:
                    20:38:a7:18:2e
                ASN1 OID: secp256k1
        X509v3 extensions:
            X509v3 Key Usage: critical
                Digital Signature, Key Encipherment
            X509v3 Basic Constraints: critical
                CA:FALSE, pathlen:3
    Signature Algorithm: ecdsa-with-SHA256
         30:45:02:21:00:fd:83:94:b0:f6:22:d7:f6:89:35:76:79:a6:
         28:5d:77:94:7d:8b:b4:b7:01:2b:6b:9c:46:65:80:63:2a:0d:
         47:02:20:3a:95:a9:57:d7:43:55:d7:d5:aa:cf:0e:6e:b5:a1:
         08:02:d5:f8:e6:4d:86:0a:f0:24:fd:11:51:ad:70:b7:0e
-----BEGIN CERTIFICATE-----
MIIB8jCCAZigAwIBAgIBFDAKBggqhkjOPQQDAjCBlzEXMBUGA1UEAwwOUmVnaW9u
ZSBVbWJyaWExCzAJBgNVBAYTAklUMQ8wDQYDVQQIDAZJdGFsaWExGDAWBgNVBAoM
D0UtVm90aW5nIHN5c3RlbTEiMCAGA1UECwwZRS1Wb3Rpbmcgc3lzdGVtIGF1dGhv
cml0eTEgMB4GCSqGSIb3DQEJARYRVW1icmlhQGV2b3RpbmcuaXQwHhcNMjIwODI2
MTUxOTQ1WhcNMjMwODI2MTUxOTQ1WjBLMRIwEAYDVQQDDAlLYXRoZXJpbmUxCzAJ
BgNVBAYTAklUMQ8wDQYDVQQIDAZJdGFsaWExFzAVBgNVBAoMDlJlZ2lvbmUgVW1i
cmlhMFYwEAYHKoZIzj0CAQYFK4EEAAoDQgAET93L++oVyzQlgpqUQ7lJi04UCtNl
Saw013ghzql5bGW+YK0twsD1EPIMZnbb6XPOVyNqNQmsPpI695ggOKcYLqMjMCEw
DgYDVR0PAQH/BAQDAgWgMA8GA1UdEwEB/wQFMAMCAQMwCgYIKoZIzj0EAwIDSAAw
RQIhAP2DlLD2Itf2iTV2eaYoXXeUfYu0twEra5xGZYBjKg1HAiA6lalX10NV19Wq
zw5utaEIAtX45k2GCvAk/RFRrXC3Dg==
-----END CERTIFICATE-----
