Certificate:
    Data:
        Version: 3 (0x2)
        Serial Number: 21 (0x15)
        Signature Algorithm: ecdsa-with-SHA256
        Issuer: CN=Regione Basilicata, C=IT, ST=Italia, O=E-Voting system, OU=E-Voting system authority/emailAddress=Basilicata@evoting.it
        Validity
            Not Before: Aug 26 15:20:03 2022 GMT
            Not After : Aug 26 15:20:03 2023 GMT
        Subject: CN=Katie, C=IT, ST=Italia, O=Regione Basilicata
        Subject Public Key Info:
            Public Key Algorithm: id-ecPublicKey
                Public-Key: (256 bit)
                pub:
                    04:d0:39:0a:01:c4:78:4e:fa:af:52:90:7e:e5:29:
                    63:be:29:c8:36:7e:3e:c6:73:36:52:4e:e1:dd:b4:
                    dd:0b:b4:b4:7f:f8:59:c9:24:6f:67:16:08:a7:24:
                    72:44:60:79:e8:7c:b8:cb:19:98:b3:b9:d8:f0:69:
                    a3:f4:b7:21:bf
                ASN1 OID: secp256k1
        X509v3 extensions:
            X509v3 Key Usage: critical
                Digital Signature, Key Encipherment
            X509v3 Basic Constraints: critical
                CA:FALSE, pathlen:3
    Signature Algorithm: ecdsa-with-SHA256
         30:44:02:20:28:74:91:ca:12:c0:84:28:1f:54:c9:c9:2d:aa:
         d6:6e:cf:33:21:f1:a6:fa:d4:59:cc:68:5b:8e:2a:d8:12:f4:
         02:20:6b:d9:66:37:3f:e9:6a:02:e7:d6:72:d3:aa:85:34:c3:
         2c:82:68:8b:2c:48:aa:d2:31:7b:86:75:05:38:24:75
-----BEGIN CERTIFICATE-----
MIIB+TCCAaCgAwIBAgIBFTAKBggqhkjOPQQDAjCBnzEbMBkGA1UEAwwSUmVnaW9u
ZSBCYXNpbGljYXRhMQswCQYDVQQGEwJJVDEPMA0GA1UECAwGSXRhbGlhMRgwFgYD
VQQKDA9FLVZvdGluZyBzeXN0ZW0xIjAgBgNVBAsMGUUtVm90aW5nIHN5c3RlbSBh
dXRob3JpdHkxJDAiBgkqhkiG9w0BCQEWFUJhc2lsaWNhdGFAZXZvdGluZy5pdDAe
Fw0yMjA4MjYxNTIwMDNaFw0yMzA4MjYxNTIwMDNaMEsxDjAMBgNVBAMMBUthdGll
MQswCQYDVQQGEwJJVDEPMA0GA1UECAwGSXRhbGlhMRswGQYDVQQKDBJSZWdpb25l
IEJhc2lsaWNhdGEwVjAQBgcqhkjOPQIBBgUrgQQACgNCAATQOQoBxHhO+q9SkH7l
KWO+Kcg2fj7GczZSTuHdtN0LtLR/+FnJJG9nFginJHJEYHnofLjLGZizudjwaaP0
tyG/oyMwITAOBgNVHQ8BAf8EBAMCBaAwDwYDVR0TAQH/BAUwAwIBAzAKBggqhkjO
PQQDAgNHADBEAiAodJHKEsCEKB9UycktqtZuzzMh8ab61FnMaFuOKtgS9AIga9lm
Nz/pagLn1nLTqoU0wyyCaIssSKrSMXuGdQU4JHU=
-----END CERTIFICATE-----
