Certificate:
    Data:
        Version: 3 (0x2)
        Serial Number: 19 (0x13)
        Signature Algorithm: ecdsa-with-SHA256
        Issuer: CN=Regione Sicilia, C=IT, ST=Italia, O=E-Voting system, OU=E-Voting system authority/emailAddress=Sicilia@evoting.it
        Validity
            Not Before: Aug  3 13:27:12 2022 GMT
            Not After : Aug  3 13:27:12 2023 GMT
        Subject: CN=Kayla, C=IT, ST=Italia, O=Regione Sicilia
        Subject Public Key Info:
            Public Key Algorithm: id-ecPublicKey
                Public-Key: (256 bit)
                pub:
                    04:3c:45:40:39:49:dd:53:e8:c5:dd:5d:8c:c7:06:
                    5e:1e:65:34:62:a1:69:2a:9c:c2:e3:69:59:ae:b6:
                    75:70:2f:2c:ac:8a:39:9b:e4:b8:c9:53:30:f1:63:
                    88:c0:48:64:8e:9f:e0:90:d4:19:b2:8d:29:72:82:
                    b5:f2:3b:bd:d7
                ASN1 OID: prime256v1
                NIST CURVE: P-256
        X509v3 extensions:
            X509v3 Key Usage: critical
                Digital Signature, Key Encipherment
            X509v3 Basic Constraints: critical
                CA:FALSE, pathlen:3
    Signature Algorithm: ecdsa-with-SHA256
         30:45:02:21:00:af:83:b8:6a:44:8d:af:be:a1:ce:cc:bb:95:
         21:0f:e6:57:e0:a3:54:91:c4:bf:e5:b4:a7:ca:0d:48:9e:91:
         3e:02:20:67:29:eb:00:95:dc:30:75:35:a4:c9:81:7a:ee:db:
         d7:c4:9b:f4:68:74:7e:24:e9:4c:3f:51:3a:44:4e:86:3a
-----BEGIN CERTIFICATE-----
MIIB9DCCAZqgAwIBAgIBEzAKBggqhkjOPQQDAjCBmTEYMBYGA1UEAwwPUmVnaW9u
ZSBTaWNpbGlhMQswCQYDVQQGEwJJVDEPMA0GA1UECAwGSXRhbGlhMRgwFgYDVQQK
DA9FLVZvdGluZyBzeXN0ZW0xIjAgBgNVBAsMGUUtVm90aW5nIHN5c3RlbSBhdXRo
b3JpdHkxITAfBgkqhkiG9w0BCQEWElNpY2lsaWFAZXZvdGluZy5pdDAeFw0yMjA4
MDMxMzI3MTJaFw0yMzA4MDMxMzI3MTJaMEgxDjAMBgNVBAMMBUtheWxhMQswCQYD
VQQGEwJJVDEPMA0GA1UECAwGSXRhbGlhMRgwFgYDVQQKDA9SZWdpb25lIFNpY2ls
aWEwWTATBgcqhkjOPQIBBggqhkjOPQMBBwNCAAQ8RUA5Sd1T6MXdXYzHBl4eZTRi
oWkqnMLjaVmutnVwLyysijmb5LjJUzDxY4jASGSOn+CQ1BmyjSlygrXyO73XoyMw
ITAOBgNVHQ8BAf8EBAMCBaAwDwYDVR0TAQH/BAUwAwIBAzAKBggqhkjOPQQDAgNI
ADBFAiEAr4O4akSNr76hzsy7lSEP5lfgo1SRxL/ltKfKDUiekT4CIGcp6wCV3DB1
NaTJgXru29fEm/RodH4k6Uw/UTpEToY6
-----END CERTIFICATE-----
