Certificate:
    Data:
        Version: 3 (0x2)
        Serial Number: 44 (0x2c)
        Signature Algorithm: ecdsa-with-SHA256
        Issuer: CN=Regione Sicilia, C=IT, ST=Italia, O=E-Voting system, OU=E-Voting system authority/emailAddress=Sicilia@evoting.it
        Validity
            Not Before: Aug 26 15:20:59 2022 GMT
            Not After : Aug 26 15:20:59 2023 GMT
        Subject: CN=Kayla, C=IT, ST=Italia, O=Regione Sicilia
        Subject Public Key Info:
            Public Key Algorithm: id-ecPublicKey
                Public-Key: (256 bit)
                pub:
                    04:0d:db:76:df:a4:c9:5a:a8:f1:5c:6a:2f:e2:bb:
                    09:76:87:c6:f8:c9:ec:00:6b:9b:80:13:1c:6a:45:
                    ba:12:6b:bb:90:69:b8:35:85:3b:ea:ed:49:e8:4a:
                    9d:e2:47:5c:a5:e4:36:41:cb:04:14:6c:ff:7b:94:
                    e8:df:1c:1f:bd
                ASN1 OID: secp256k1
        X509v3 extensions:
            X509v3 Key Usage: critical
                Digital Signature, Key Encipherment
            X509v3 Basic Constraints: critical
                CA:FALSE, pathlen:3
    Signature Algorithm: ecdsa-with-SHA256
         30:45:02:20:70:3d:eb:f0:67:5d:fe:95:c4:f5:0d:59:8b:03:
         f2:3f:9b:23:16:8a:d8:a8:14:2a:f7:68:d9:a2:2e:49:a1:d4:
         02:21:00:e5:02:0d:4c:c0:6a:35:38:90:17:f4:0e:54:28:3a:
         8f:0f:18:87:f1:ad:c3:60:4e:05:3d:4a:86:7d:97:3d:44
-----BEGIN CERTIFICATE-----
MIIB8TCCAZegAwIBAgIBLDAKBggqhkjOPQQDAjCBmTEYMBYGA1UEAwwPUmVnaW9u
ZSBTaWNpbGlhMQswCQYDVQQGEwJJVDEPMA0GA1UECAwGSXRhbGlhMRgwFgYDVQQK
DA9FLVZvdGluZyBzeXN0ZW0xIjAgBgNVBAsMGUUtVm90aW5nIHN5c3RlbSBhdXRo
b3JpdHkxITAfBgkqhkiG9w0BCQEWElNpY2lsaWFAZXZvdGluZy5pdDAeFw0yMjA4
MjYxNTIwNTlaFw0yMzA4MjYxNTIwNTlaMEgxDjAMBgNVBAMMBUtheWxhMQswCQYD
VQQGEwJJVDEPMA0GA1UECAwGSXRhbGlhMRgwFgYDVQQKDA9SZWdpb25lIFNpY2ls
aWEwVjAQBgcqhkjOPQIBBgUrgQQACgNCAAQN23bfpMlaqPFcai/iuwl2h8b4yewA
a5uAExxqRboSa7uQabg1hTvq7UnoSp3iR1yl5DZBywQUbP97lOjfHB+9oyMwITAO
BgNVHQ8BAf8EBAMCBaAwDwYDVR0TAQH/BAUwAwIBAzAKBggqhkjOPQQDAgNIADBF
AiBwPevwZ13+lcT1DVmLA/I/myMWitioFCr3aNmiLkmh1AIhAOUCDUzAajU4kBf0
DlQoOo8PGIfxrcNgTgU9SoZ9lz1E
-----END CERTIFICATE-----
