Certificate:
    Data:
        Version: 3 (0x2)
        Serial Number: 5 (0x5)
        Signature Algorithm: ecdsa-with-SHA256
        Issuer: CN=Regione Trentino_Alto_Adige, C=IT, ST=Italia, O=E-Voting system, OU=E-Voting system authority/emailAddress=Trentino_Alto_Adige@evoting.it
        Validity
            Not Before: Aug 26 15:18:33 2022 GMT
            Not After : Aug 26 15:18:33 2023 GMT
        Subject: CN=Kelly, C=IT, ST=Italia, O=Regione Trentino_Alto_Adige
        Subject Public Key Info:
            Public Key Algorithm: id-ecPublicKey
                Public-Key: (256 bit)
                pub:
                    04:f5:3e:51:12:13:97:ea:c3:8e:c1:9b:c7:79:08:
                    db:e9:1d:1b:8e:96:6d:77:bc:c7:b0:19:97:b9:b9:
                    ec:46:9b:db:c1:96:82:b5:29:30:a3:c4:42:e5:fe:
                    c9:ba:c8:ed:c5:09:32:aa:ff:fd:c8:b5:1e:4d:db:
                    c3:55:a9:30:53
                ASN1 OID: secp256k1
        X509v3 extensions:
            X509v3 Key Usage: critical
                Digital Signature, Key Encipherment
            X509v3 Basic Constraints: critical
                CA:FALSE, pathlen:3
    Signature Algorithm: ecdsa-with-SHA256
         30:45:02:21:00:a7:8c:8f:2a:81:d0:c8:af:98:6d:7c:92:4a:
         a5:ca:fc:60:d4:0e:3b:15:88:c8:6d:0f:c1:7d:f7:59:26:96:
         49:02:20:66:6b:00:c9:9e:58:b3:01:ff:fa:fa:6c:d0:01:4e:
         15:8b:ef:32:01:46:08:cd:b7:6e:21:3f:34:f0:6c:fb:0c
-----BEGIN CERTIFICATE-----
MIICFTCCAbugAwIBAgIBBTAKBggqhkjOPQQDAjCBsTEkMCIGA1UEAwwbUmVnaW9u
ZSBUcmVudGlub19BbHRvX0FkaWdlMQswCQYDVQQGEwJJVDEPMA0GA1UECAwGSXRh
bGlhMRgwFgYDVQQKDA9FLVZvdGluZyBzeXN0ZW0xIjAgBgNVBAsMGUUtVm90aW5n
IHN5c3RlbSBhdXRob3JpdHkxLTArBgkqhkiG9w0BCQEWHlRyZW50aW5vX0FsdG9f
QWRpZ2VAZXZvdGluZy5pdDAeFw0yMjA4MjYxNTE4MzNaFw0yMzA4MjYxNTE4MzNa
MFQxDjAMBgNVBAMMBUtlbGx5MQswCQYDVQQGEwJJVDEPMA0GA1UECAwGSXRhbGlh
MSQwIgYDVQQKDBtSZWdpb25lIFRyZW50aW5vX0FsdG9fQWRpZ2UwVjAQBgcqhkjO
PQIBBgUrgQQACgNCAAT1PlESE5fqw47Bm8d5CNvpHRuOlm13vMewGZe5uexGm9vB
loK1KTCjxELl/sm6yO3FCTKq//3ItR5N28NVqTBToyMwITAOBgNVHQ8BAf8EBAMC
BaAwDwYDVR0TAQH/BAUwAwIBAzAKBggqhkjOPQQDAgNIADBFAiEAp4yPKoHQyK+Y
bXySSqXK/GDUDjsViMhtD8F991kmlkkCIGZrAMmeWLMB//r6bNABThWL7zIBRgjN
t24hPzTwbPsM
-----END CERTIFICATE-----
