Certificate:
    Data:
        Version: 3 (0x2)
        Serial Number: 10 (0xa)
        Signature Algorithm: ecdsa-with-SHA256
        Issuer: CN=Regione Lombardia, C=IT, ST=Italia, O=E-Voting system, OU=E-Voting system authority/emailAddress=Lombardia@evoting.it
        Validity
            Not Before: Aug 26 15:19:21 2022 GMT
            Not After : Aug 26 15:19:21 2023 GMT
        Subject: CN=Kelley, C=IT, ST=Italia, O=Regione Lombardia
        Subject Public Key Info:
            Public Key Algorithm: id-ecPublicKey
                Public-Key: (256 bit)
                pub:
                    04:4c:d7:e0:6b:20:05:5d:e4:d6:73:8c:15:65:d2:
                    bf:f1:2b:b3:33:96:1a:36:58:48:df:18:45:f8:29:
                    eb:72:3d:49:66:00:26:3f:43:80:f8:f3:00:00:4e:
                    3b:94:64:ae:93:18:15:05:bb:6f:61:70:84:9e:43:
                    49:27:80:54:eb
                ASN1 OID: secp256k1
        X509v3 extensions:
            X509v3 Key Usage: critical
                Digital Signature, Key Encipherment
            X509v3 Basic Constraints: critical
                CA:FALSE, pathlen:3
    Signature Algorithm: ecdsa-with-SHA256
         30:46:02:21:00:e5:04:a2:cb:aa:04:52:b8:2a:14:4d:d7:79:
         32:02:a0:e2:e1:45:41:64:bd:c2:cb:48:16:b5:20:f6:2c:89:
         e2:02:21:00:d7:8f:06:e8:e6:3a:3e:24:cb:91:ee:88:d7:34:
         83:42:66:fa:98:53:62:d7:03:65:d0:a9:a3:55:07:96:03:42
-----BEGIN CERTIFICATE-----
MIIB+TCCAZ6gAwIBAgIBCjAKBggqhkjOPQQDAjCBnTEaMBgGA1UEAwwRUmVnaW9u
ZSBMb21iYXJkaWExCzAJBgNVBAYTAklUMQ8wDQYDVQQIDAZJdGFsaWExGDAWBgNV
BAoMD0UtVm90aW5nIHN5c3RlbTEiMCAGA1UECwwZRS1Wb3Rpbmcgc3lzdGVtIGF1
dGhvcml0eTEjMCEGCSqGSIb3DQEJARYUTG9tYmFyZGlhQGV2b3RpbmcuaXQwHhcN
MjIwODI2MTUxOTIxWhcNMjMwODI2MTUxOTIxWjBLMQ8wDQYDVQQDDAZLZWxsZXkx
CzAJBgNVBAYTAklUMQ8wDQYDVQQIDAZJdGFsaWExGjAYBgNVBAoMEVJlZ2lvbmUg
TG9tYmFyZGlhMFYwEAYHKoZIzj0CAQYFK4EEAAoDQgAETNfgayAFXeTWc4wVZdK/
8SuzM5YaNlhI3xhF+Cnrcj1JZgAmP0OA+PMAAE47lGSukxgVBbtvYXCEnkNJJ4BU
66MjMCEwDgYDVR0PAQH/BAQDAgWgMA8GA1UdEwEB/wQFMAMCAQMwCgYIKoZIzj0E
AwIDSQAwRgIhAOUEosuqBFK4KhRN13kyAqDi4UVBZL3Cy0gWtSD2LIniAiEA148G
6OY6PiTLke6I1zSDQmb6mFNi1wNl0KmjVQeWA0I=
-----END CERTIFICATE-----
