Certificate:
    Data:
        Version: 3 (0x2)
        Serial Number: 29 (0x1d)
        Signature Algorithm: ecdsa-with-SHA256
        Issuer: CN=Regione Valle_d_Aosta, C=IT, ST=Italia, O=E-Voting system, OU=E-Voting system authority/emailAddress=Valle_d_Aosta@evoting.it
        Validity
            Not Before: Aug 26 15:20:30 2022 GMT
            Not After : Aug 26 15:20:30 2023 GMT
        Subject: CN=Kelsey, C=IT, ST=Italia, O=Regione Valle_d_Aosta
        Subject Public Key Info:
            Public Key Algorithm: id-ecPublicKey
                Public-Key: (256 bit)
                pub:
                    04:01:57:cc:5c:a4:e3:26:77:d7:b2:60:04:dd:be:
                    63:c6:c0:10:b1:d9:13:61:31:ed:9e:fc:5c:41:5e:
                    ce:7a:d7:96:2c:23:ae:3c:05:ca:a4:7f:1b:33:2c:
                    08:1f:c2:41:64:4b:95:f6:fb:f0:0e:92:5d:23:4a:
                    51:ff:0c:a0:53
                ASN1 OID: secp256k1
        X509v3 extensions:
            X509v3 Key Usage: critical
                Digital Signature, Key Encipherment
            X509v3 Basic Constraints: critical
                CA:FALSE, pathlen:3
    Signature Algorithm: ecdsa-with-SHA256
         30:45:02:20:5c:1a:c5:40:97:3a:48:43:49:9c:b1:fb:50:21:
         86:14:2b:7d:72:64:b8:71:54:6e:70:86:a5:55:d9:8f:b8:c9:
         02:21:00:ab:d9:ea:b9:27:a7:f6:46:02:d5:7c:8e:22:a7:52:
         52:fb:c6:dd:72:3a:ae:4d:ab:26:61:bc:8b:cd:9c:96:78
-----BEGIN CERTIFICATE-----
MIICBDCCAaqgAwIBAgIBHTAKBggqhkjOPQQDAjCBpTEeMBwGA1UEAwwVUmVnaW9u
ZSBWYWxsZV9kX0Fvc3RhMQswCQYDVQQGEwJJVDEPMA0GA1UECAwGSXRhbGlhMRgw
FgYDVQQKDA9FLVZvdGluZyBzeXN0ZW0xIjAgBgNVBAsMGUUtVm90aW5nIHN5c3Rl
bSBhdXRob3JpdHkxJzAlBgkqhkiG9w0BCQEWGFZhbGxlX2RfQW9zdGFAZXZvdGlu
Zy5pdDAeFw0yMjA4MjYxNTIwMzBaFw0yMzA4MjYxNTIwMzBaME8xDzANBgNVBAMM
BktlbHNleTELMAkGA1UEBhMCSVQxDzANBgNVBAgMBkl0YWxpYTEeMBwGA1UECgwV
UmVnaW9uZSBWYWxsZV9kX0Fvc3RhMFYwEAYHKoZIzj0CAQYFK4EEAAoDQgAEAVfM
XKTjJnfXsmAE3b5jxsAQsdkTYTHtnvxcQV7OeteWLCOuPAXKpH8bMywIH8JBZEuV
9vvwDpJdI0pR/wygU6MjMCEwDgYDVR0PAQH/BAQDAgWgMA8GA1UdEwEB/wQFMAMC
AQMwCgYIKoZIzj0EAwIDSAAwRQIgXBrFQJc6SENJnLH7UCGGFCt9cmS4cVRucIal
VdmPuMkCIQCr2eq5J6f2RgLVfI4ip1JS+8bdcjquTasmYbyLzZyWeA==
-----END CERTIFICATE-----
