Certificate:
    Data:
        Version: 3 (0x2)
        Serial Number: 21 (0x15)
        Signature Algorithm: ecdsa-with-SHA256
        Issuer: CN=Regione Veneto, C=IT, ST=Italia, O=E-Voting system, OU=E-Voting system authority/emailAddress=Veneto@evoting.it
        Validity
            Not Before: Aug  3 13:26:59 2022 GMT
            Not After : Aug  3 13:26:59 2023 GMT
        Subject: CN=Kelvin, C=IT, ST=Italia, O=Regione Veneto
        Subject Public Key Info:
            Public Key Algorithm: id-ecPublicKey
                Public-Key: (256 bit)
                pub:
                    04:d7:d6:9d:fd:82:18:b8:96:05:f3:cb:ea:c0:92:
                    c2:5d:30:a5:0d:8b:03:51:41:da:13:f5:72:19:97:
                    30:5b:89:9d:f8:f7:4d:05:42:06:f9:4c:98:90:1b:
                    28:fe:8b:f9:62:16:5a:8c:af:c1:92:2a:01:50:52:
                    65:67:e9:cf:a5
                ASN1 OID: prime256v1
                NIST CURVE: P-256
        X509v3 extensions:
            X509v3 Key Usage: critical
                Digital Signature, Key Encipherment
            X509v3 Basic Constraints: critical
                CA:FALSE, pathlen:3
    Signature Algorithm: ecdsa-with-SHA256
         30:45:02:21:00:d1:d1:81:ff:88:60:5a:e1:77:34:9a:b3:98:
         36:60:ec:19:c1:18:f5:c8:a3:14:d3:70:08:57:bb:ad:31:5a:
         b9:02:20:36:3d:76:73:c1:34:5d:9c:e5:c4:db:9d:39:00:cb:
         d0:18:e2:fb:35:a8:b9:81:07:0f:17:52:47:38:1e:05:24
-----BEGIN CERTIFICATE-----
MIIB8jCCAZigAwIBAgIBFTAKBggqhkjOPQQDAjCBlzEXMBUGA1UEAwwOUmVnaW9u
ZSBWZW5ldG8xCzAJBgNVBAYTAklUMQ8wDQYDVQQIDAZJdGFsaWExGDAWBgNVBAoM
D0UtVm90aW5nIHN5c3RlbTEiMCAGA1UECwwZRS1Wb3Rpbmcgc3lzdGVtIGF1dGhv
cml0eTEgMB4GCSqGSIb3DQEJARYRVmVuZXRvQGV2b3RpbmcuaXQwHhcNMjIwODAz
MTMyNjU5WhcNMjMwODAzMTMyNjU5WjBIMQ8wDQYDVQQDDAZLZWx2aW4xCzAJBgNV
BAYTAklUMQ8wDQYDVQQIDAZJdGFsaWExFzAVBgNVBAoMDlJlZ2lvbmUgVmVuZXRv
MFkwEwYHKoZIzj0CAQYIKoZIzj0DAQcDQgAE19ad/YIYuJYF88vqwJLCXTClDYsD
UUHaE/VyGZcwW4md+PdNBUIG+UyYkBso/ov5YhZajK/BkioBUFJlZ+nPpaMjMCEw
DgYDVR0PAQH/BAQDAgWgMA8GA1UdEwEB/wQFMAMCAQMwCgYIKoZIzj0EAwIDSAAw
RQIhANHRgf+IYFrhdzSas5g2YOwZwRj1yKMU03AIV7utMVq5AiA2PXZzwTRdnOXE
2505AMvQGOL7Nai5gQcPF1JHOB4FJA==
-----END CERTIFICATE-----
