Certificate:
    Data:
        Version: 3 (0x2)
        Serial Number: 32 (0x20)
        Signature Algorithm: ecdsa-with-SHA256
        Issuer: CN=Regione Molise, C=IT, ST=Italia, O=E-Voting system, OU=E-Voting system authority/emailAddress=Molise@evoting.it
        Validity
            Not Before: Aug 26 15:20:57 2022 GMT
            Not After : Aug 26 15:20:57 2023 GMT
        Subject: CN=Kenneth, C=IT, ST=Italia, O=Regione Molise
        Subject Public Key Info:
            Public Key Algorithm: id-ecPublicKey
                Public-Key: (256 bit)
                pub:
                    04:f4:22:e2:62:f0:30:0b:79:f8:07:03:e6:f4:c9:
                    bc:48:70:fb:5c:eb:a3:a9:cc:01:df:94:cd:c4:b3:
                    89:31:5d:be:03:9c:b5:39:16:72:42:13:55:fc:25:
                    f0:4b:9b:7e:b8:bc:d7:4c:2b:e2:09:f8:4e:a8:b8:
                    15:83:c9:e7:bc
                ASN1 OID: secp256k1
        X509v3 extensions:
            X509v3 Key Usage: critical
                Digital Signature, Key Encipherment
            X509v3 Basic Constraints: critical
                CA:FALSE, pathlen:3
    Signature Algorithm: ecdsa-with-SHA256
         30:46:02:21:00:de:6a:00:02:6b:fb:15:62:6d:f7:da:a5:cb:
         f9:bb:f4:02:33:e9:83:33:86:3b:6c:0e:a3:1b:8e:ee:5d:f0:
         96:02:21:00:d6:8d:01:e1:98:97:ae:60:14:4d:8c:1d:2b:b3:
         3d:47:99:fc:95:9c:22:b1:47:77:7b:1a:ea:00:fc:a3:84:3c
-----BEGIN CERTIFICATE-----
MIIB8TCCAZagAwIBAgIBIDAKBggqhkjOPQQDAjCBlzEXMBUGA1UEAwwOUmVnaW9u
ZSBNb2xpc2UxCzAJBgNVBAYTAklUMQ8wDQYDVQQIDAZJdGFsaWExGDAWBgNVBAoM
D0UtVm90aW5nIHN5c3RlbTEiMCAGA1UECwwZRS1Wb3Rpbmcgc3lzdGVtIGF1dGhv
cml0eTEgMB4GCSqGSIb3DQEJARYRTW9saXNlQGV2b3RpbmcuaXQwHhcNMjIwODI2
MTUyMDU3WhcNMjMwODI2MTUyMDU3WjBJMRAwDgYDVQQDDAdLZW5uZXRoMQswCQYD
VQQGEwJJVDEPMA0GA1UECAwGSXRhbGlhMRcwFQYDVQQKDA5SZWdpb25lIE1vbGlz
ZTBWMBAGByqGSM49AgEGBSuBBAAKA0IABPQi4mLwMAt5+AcD5vTJvEhw+1zro6nM
Ad+UzcSziTFdvgOctTkWckITVfwl8Eubfri810wr4gn4Tqi4FYPJ57yjIzAhMA4G
A1UdDwEB/wQEAwIFoDAPBgNVHRMBAf8EBTADAgEDMAoGCCqGSM49BAMCA0kAMEYC
IQDeagACa/sVYm332qXL+bv0AjPpgzOGO2wOoxuO7l3wlgIhANaNAeGYl65gFE2M
HSuzPUeZ/JWcIrFHd3sa6gD8o4Q8
-----END CERTIFICATE-----
