Certificate:
    Data:
        Version: 3 (0x2)
        Serial Number: 7 (0x7)
        Signature Algorithm: ecdsa-with-SHA256
        Issuer: CN=Regione Toscana, C=IT, ST=Italia, O=E-Voting system, OU=E-Voting system authority/emailAddress=Toscana@evoting.it
        Validity
            Not Before: Aug  3 13:25:59 2022 GMT
            Not After : Aug  3 13:25:59 2023 GMT
        Subject: CN=Kenneth, C=IT, ST=Italia, O=Regione Toscana
        Subject Public Key Info:
            Public Key Algorithm: id-ecPublicKey
                Public-Key: (256 bit)
                pub:
                    04:8a:34:d2:3d:ca:a2:c8:64:9d:4d:6e:12:e0:db:
                    ec:4c:c5:b1:58:ce:71:1b:a6:15:d4:b7:6a:d3:4f:
                    7c:8f:4b:de:68:17:ce:df:14:99:85:35:c9:18:48:
                    be:20:e3:52:82:34:f8:0d:f3:93:31:e5:8f:a1:be:
                    68:4d:c1:94:96
                ASN1 OID: prime256v1
                NIST CURVE: P-256
        X509v3 extensions:
            X509v3 Key Usage: critical
                Digital Signature, Key Encipherment
            X509v3 Basic Constraints: critical
                CA:FALSE, pathlen:3
    Signature Algorithm: ecdsa-with-SHA256
         30:45:02:20:68:91:5d:75:23:d3:51:26:68:a1:cf:c6:42:4f:
         de:3a:34:f7:bb:4a:bf:81:d2:f6:6b:03:33:98:99:79:69:c7:
         02:21:00:82:4a:0c:6a:ff:68:d6:9c:bc:0b:b7:18:a2:02:1a:
         df:ac:24:dd:26:fd:6d:41:55:31:7a:0c:8f:52:5f:8e:31
-----BEGIN CERTIFICATE-----
MIIB9jCCAZygAwIBAgIBBzAKBggqhkjOPQQDAjCBmTEYMBYGA1UEAwwPUmVnaW9u
ZSBUb3NjYW5hMQswCQYDVQQGEwJJVDEPMA0GA1UECAwGSXRhbGlhMRgwFgYDVQQK
DA9FLVZvdGluZyBzeXN0ZW0xIjAgBgNVBAsMGUUtVm90aW5nIHN5c3RlbSBhdXRo
b3JpdHkxITAfBgkqhkiG9w0BCQEWElRvc2NhbmFAZXZvdGluZy5pdDAeFw0yMjA4
MDMxMzI1NTlaFw0yMzA4MDMxMzI1NTlaMEoxEDAOBgNVBAMMB0tlbm5ldGgxCzAJ
BgNVBAYTAklUMQ8wDQYDVQQIDAZJdGFsaWExGDAWBgNVBAoMD1JlZ2lvbmUgVG9z
Y2FuYTBZMBMGByqGSM49AgEGCCqGSM49AwEHA0IABIo00j3KoshknU1uEuDb7EzF
sVjOcRumFdS3atNPfI9L3mgXzt8UmYU1yRhIviDjUoI0+A3zkzHlj6G+aE3BlJaj
IzAhMA4GA1UdDwEB/wQEAwIFoDAPBgNVHRMBAf8EBTADAgEDMAoGCCqGSM49BAMC
A0gAMEUCIGiRXXUj01EmaKHPxkJP3jo097tKv4HS9msDM5iZeWnHAiEAgkoMav9o
1py8C7cYogIa36wk3Sb9bUFVMXoMj1JfjjE=
-----END CERTIFICATE-----
