Certificate:
    Data:
        Version: 3 (0x2)
        Serial Number: 19 (0x13)
        Signature Algorithm: ecdsa-with-SHA256
        Issuer: CN=Regione Sicilia, C=IT, ST=Italia, O=E-Voting system, OU=E-Voting system authority/emailAddress=Sicilia@evoting.it
        Validity
            Not Before: Aug 26 15:19:34 2022 GMT
            Not After : Aug 26 15:19:34 2023 GMT
        Subject: CN=Keri, C=IT, ST=Italia, O=Regione Sicilia
        Subject Public Key Info:
            Public Key Algorithm: id-ecPublicKey
                Public-Key: (256 bit)
                pub:
                    04:a1:59:d2:82:3d:0c:0a:ca:5a:d4:58:a0:c8:bc:
                    8e:f1:c3:e4:cb:98:90:5f:c2:c5:d0:55:7e:bf:92:
                    e5:dc:06:f3:c1:39:b2:10:34:2f:79:8e:79:b0:89:
                    95:73:ad:83:42:1d:f2:b4:9a:8f:a9:f1:2d:78:6a:
                    37:e6:40:79:6d
                ASN1 OID: secp256k1
        X509v3 extensions:
            X509v3 Key Usage: critical
                Digital Signature, Key Encipherment
            X509v3 Basic Constraints: critical
                CA:FALSE, pathlen:3
    Signature Algorithm: ecdsa-with-SHA256
         30:44:02:20:5f:2c:ed:7b:06:51:72:a3:15:4a:f5:96:1e:22:
         a1:ac:3e:0a:c5:fa:00:55:f4:c6:dc:8c:ae:11:26:7c:b4:f3:
         02:20:76:64:bd:df:90:06:64:f9:69:8c:2e:c2:2d:b7:6b:d2:
         03:d8:e2:cd:1f:bf:db:ea:69:c6:83:46:8d:70:87:6b
-----BEGIN CERTIFICATE-----
MIIB7zCCAZagAwIBAgIBEzAKBggqhkjOPQQDAjCBmTEYMBYGA1UEAwwPUmVnaW9u
ZSBTaWNpbGlhMQswCQYDVQQGEwJJVDEPMA0GA1UECAwGSXRhbGlhMRgwFgYDVQQK
DA9FLVZvdGluZyBzeXN0ZW0xIjAgBgNVBAsMGUUtVm90aW5nIHN5c3RlbSBhdXRo
b3JpdHkxITAfBgkqhkiG9w0BCQEWElNpY2lsaWFAZXZvdGluZy5pdDAeFw0yMjA4
MjYxNTE5MzRaFw0yMzA4MjYxNTE5MzRaMEcxDTALBgNVBAMMBEtlcmkxCzAJBgNV
BAYTAklUMQ8wDQYDVQQIDAZJdGFsaWExGDAWBgNVBAoMD1JlZ2lvbmUgU2ljaWxp
YTBWMBAGByqGSM49AgEGBSuBBAAKA0IABKFZ0oI9DArKWtRYoMi8jvHD5MuYkF/C
xdBVfr+S5dwG88E5shA0L3mOebCJlXOtg0Id8rSaj6nxLXhqN+ZAeW2jIzAhMA4G
A1UdDwEB/wQEAwIFoDAPBgNVHRMBAf8EBTADAgEDMAoGCCqGSM49BAMCA0cAMEQC
IF8s7XsGUXKjFUr1lh4ioaw+CsX6AFX0xtyMrhEmfLTzAiB2ZL3fkAZk+WmMLsIt
t2vSA9jizR+/2+ppxoNGjXCHaw==
-----END CERTIFICATE-----
