Certificate:
    Data:
        Version: 3 (0x2)
        Serial Number: 37 (0x25)
        Signature Algorithm: ecdsa-with-SHA256
        Issuer: CN=Regione Piemonte, C=IT, ST=Italia, O=E-Voting system, OU=E-Voting system authority/emailAddress=Piemonte@evoting.it
        Validity
            Not Before: Aug 26 15:20:53 2022 GMT
            Not After : Aug 26 15:20:53 2023 GMT
        Subject: CN=Kerri, C=IT, ST=Italia, O=Regione Piemonte
        Subject Public Key Info:
            Public Key Algorithm: id-ecPublicKey
                Public-Key: (256 bit)
                pub:
                    04:9d:35:7b:b8:f0:21:3a:4f:e1:ff:76:c5:03:64:
                    0e:e2:3c:04:0a:eb:24:ae:22:b3:4b:5a:c7:71:52:
                    52:06:15:9e:9b:bf:58:b1:16:00:a5:52:6e:c7:63:
                    cf:5e:45:da:21:02:df:6a:a8:65:b2:f2:cd:be:a9:
                    53:b1:61:1b:58
                ASN1 OID: secp256k1
        X509v3 extensions:
            X509v3 Key Usage: critical
                Digital Signature, Key Encipherment
            X509v3 Basic Constraints: critical
                CA:FALSE, pathlen:3
    Signature Algorithm: ecdsa-with-SHA256
         30:44:02:20:45:ef:a9:4f:6f:f6:3d:5b:43:53:e6:25:18:d5:
         a1:47:e6:f1:ee:6c:04:34:d7:ea:49:28:58:43:4c:40:c7:4e:
         02:20:3d:57:35:3c:73:e7:74:98:3e:f9:89:84:dd:08:aa:de:
         e1:7c:6a:2f:f6:8d:ba:44:da:8d:bb:d3:bf:51:d3:df
-----BEGIN CERTIFICATE-----
MIIB8zCCAZqgAwIBAgIBJTAKBggqhkjOPQQDAjCBmzEZMBcGA1UEAwwQUmVnaW9u
ZSBQaWVtb250ZTELMAkGA1UEBhMCSVQxDzANBgNVBAgMBkl0YWxpYTEYMBYGA1UE
CgwPRS1Wb3Rpbmcgc3lzdGVtMSIwIAYDVQQLDBlFLVZvdGluZyBzeXN0ZW0gYXV0
aG9yaXR5MSIwIAYJKoZIhvcNAQkBFhNQaWVtb250ZUBldm90aW5nLml0MB4XDTIy
MDgyNjE1MjA1M1oXDTIzMDgyNjE1MjA1M1owSTEOMAwGA1UEAwwFS2VycmkxCzAJ
BgNVBAYTAklUMQ8wDQYDVQQIDAZJdGFsaWExGTAXBgNVBAoMEFJlZ2lvbmUgUGll
bW9udGUwVjAQBgcqhkjOPQIBBgUrgQQACgNCAASdNXu48CE6T+H/dsUDZA7iPAQK
6ySuIrNLWsdxUlIGFZ6bv1ixFgClUm7HY89eRdohAt9qqGWy8s2+qVOxYRtYoyMw
ITAOBgNVHQ8BAf8EBAMCBaAwDwYDVR0TAQH/BAUwAwIBAzAKBggqhkjOPQQDAgNH
ADBEAiBF76lPb/Y9W0NT5iUY1aFH5vHubAQ01+pJKFhDTEDHTgIgPVc1PHPndJg+
+YmE3Qiq3uF8ai/2jbpE2o27079R098=
-----END CERTIFICATE-----
