Certificate:
    Data:
        Version: 3 (0x2)
        Serial Number: 5 (0x5)
        Signature Algorithm: ecdsa-with-SHA256
        Issuer: CN=Regione Veneto, C=IT, ST=Italia, O=E-Voting system, OU=E-Voting system authority/emailAddress=Veneto@evoting.it
        Validity
            Not Before: Aug 26 15:19:00 2022 GMT
            Not After : Aug 26 15:19:00 2023 GMT
        Subject: CN=Kevin, C=IT, ST=Italia, O=Regione Veneto
        Subject Public Key Info:
            Public Key Algorithm: id-ecPublicKey
                Public-Key: (256 bit)
                pub:
                    04:76:bc:48:44:56:fc:0c:5d:a1:8f:1a:56:66:15:
                    58:08:d8:80:9c:43:2f:68:c5:99:01:59:62:d3:12:
                    34:86:6c:e5:91:7d:fa:7f:ac:64:d7:de:7a:a3:f1:
                    7c:23:24:b9:95:e4:fd:aa:54:28:af:58:2f:9e:76:
                    2e:de:17:c6:df
                ASN1 OID: secp256k1
        X509v3 extensions:
            X509v3 Key Usage: critical
                Digital Signature, Key Encipherment
            X509v3 Basic Constraints: critical
                CA:FALSE, pathlen:3
    Signature Algorithm: ecdsa-with-SHA256
         30:46:02:21:00:b5:a3:db:cd:31:9e:73:86:01:3b:c2:94:4d:
         0e:9b:5a:8a:df:1b:2f:3d:86:bd:94:10:3c:62:2f:0e:69:38:
         cb:02:21:00:87:d1:70:20:fb:43:40:48:c4:8a:6b:ae:de:45:
         41:78:83:2f:62:ac:ae:7f:e3:ba:12:11:c2:f9:ed:0d:59:57
-----BEGIN CERTIFICATE-----
MIIB7zCCAZSgAwIBAgIBBTAKBggqhkjOPQQDAjCBlzEXMBUGA1UEAwwOUmVnaW9u
ZSBWZW5ldG8xCzAJBgNVBAYTAklUMQ8wDQYDVQQIDAZJdGFsaWExGDAWBgNVBAoM
D0UtVm90aW5nIHN5c3RlbTEiMCAGA1UECwwZRS1Wb3Rpbmcgc3lzdGVtIGF1dGhv
cml0eTEgMB4GCSqGSIb3DQEJARYRVmVuZXRvQGV2b3RpbmcuaXQwHhcNMjIwODI2
MTUxOTAwWhcNMjMwODI2MTUxOTAwWjBHMQ4wDAYDVQQDDAVLZXZpbjELMAkGA1UE
BhMCSVQxDzANBgNVBAgMBkl0YWxpYTEXMBUGA1UECgwOUmVnaW9uZSBWZW5ldG8w
VjAQBgcqhkjOPQIBBgUrgQQACgNCAAR2vEhEVvwMXaGPGlZmFVgI2ICcQy9oxZkB
WWLTEjSGbOWRffp/rGTX3nqj8XwjJLmV5P2qVCivWC+edi7eF8bfoyMwITAOBgNV
HQ8BAf8EBAMCBaAwDwYDVR0TAQH/BAUwAwIBAzAKBggqhkjOPQQDAgNJADBGAiEA
taPbzTGec4YBO8KUTQ6bWorfGy89hr2UEDxiLw5pOMsCIQCH0XAg+0NASMSKa67e
RUF4gy9irK5/47oSEcL57Q1ZVw==
-----END CERTIFICATE-----
