Certificate:
    Data:
        Version: 3 (0x2)
        Serial Number: 54 (0x36)
        Signature Algorithm: ecdsa-with-SHA256
        Issuer: CN=Regione Lombardia, C=IT, ST=Italia, O=E-Voting system, OU=E-Voting system authority/emailAddress=Lombardia@evoting.it
        Validity
            Not Before: Aug 26 15:21:42 2022 GMT
            Not After : Aug 26 15:21:42 2023 GMT
        Subject: CN=Kia, C=IT, ST=Italia, O=Regione Lombardia
        Subject Public Key Info:
            Public Key Algorithm: id-ecPublicKey
                Public-Key: (256 bit)
                pub:
                    04:db:e1:4e:45:da:dc:9e:84:ad:f1:61:68:45:8e:
                    a4:43:cc:92:a3:49:06:57:52:07:39:40:a9:45:2b:
                    c6:3b:61:91:e7:9d:39:c8:7b:5c:eb:29:4e:02:19:
                    8b:31:25:75:d4:3a:70:10:94:dd:b7:e5:d9:0f:b2:
                    28:75:76:83:a6
                ASN1 OID: secp256k1
        X509v3 extensions:
            X509v3 Key Usage: critical
                Digital Signature, Key Encipherment
            X509v3 Basic Constraints: critical
                CA:FALSE, pathlen:3
    Signature Algorithm: ecdsa-with-SHA256
         30:45:02:21:00:fb:26:9f:8a:9c:b4:20:97:3c:8c:fd:34:ce:
         45:19:11:cb:7c:50:76:9f:b6:0c:2f:ac:51:43:9c:fe:7f:03:
         9b:02:20:1a:df:a1:f4:13:ac:24:e4:87:c6:b8:db:13:a7:49:
         db:f5:07:8c:c3:7c:19:83:87:d4:76:ed:67:5e:11:07:69
-----BEGIN CERTIFICATE-----
MIIB9TCCAZugAwIBAgIBNjAKBggqhkjOPQQDAjCBnTEaMBgGA1UEAwwRUmVnaW9u
ZSBMb21iYXJkaWExCzAJBgNVBAYTAklUMQ8wDQYDVQQIDAZJdGFsaWExGDAWBgNV
BAoMD0UtVm90aW5nIHN5c3RlbTEiMCAGA1UECwwZRS1Wb3Rpbmcgc3lzdGVtIGF1
dGhvcml0eTEjMCEGCSqGSIb3DQEJARYUTG9tYmFyZGlhQGV2b3RpbmcuaXQwHhcN
MjIwODI2MTUyMTQyWhcNMjMwODI2MTUyMTQyWjBIMQwwCgYDVQQDDANLaWExCzAJ
BgNVBAYTAklUMQ8wDQYDVQQIDAZJdGFsaWExGjAYBgNVBAoMEVJlZ2lvbmUgTG9t
YmFyZGlhMFYwEAYHKoZIzj0CAQYFK4EEAAoDQgAE2+FORdrcnoSt8WFoRY6kQ8yS
o0kGV1IHOUCpRSvGO2GR5505yHtc6ylOAhmLMSV11DpwEJTdt+XZD7IodXaDpqMj
MCEwDgYDVR0PAQH/BAQDAgWgMA8GA1UdEwEB/wQFMAMCAQMwCgYIKoZIzj0EAwID
SAAwRQIhAPsmn4qctCCXPIz9NM5FGRHLfFB2n7YML6xRQ5z+fwObAiAa36H0E6wk
5IfGuNsTp0nb9QeMw3wZg4fUdu1nXhEHaQ==
-----END CERTIFICATE-----
