Certificate:
    Data:
        Version: 3 (0x2)
        Serial Number: 33 (0x21)
        Signature Algorithm: ecdsa-with-SHA256
        Issuer: CN=Regione Marche, C=IT, ST=Italia, O=E-Voting system, OU=E-Voting system authority/emailAddress=Marche@evoting.it
        Validity
            Not Before: Aug 26 15:21:43 2022 GMT
            Not After : Aug 26 15:21:43 2023 GMT
        Subject: CN=Kim, C=IT, ST=Italia, O=Regione Marche
        Subject Public Key Info:
            Public Key Algorithm: id-ecPublicKey
                Public-Key: (256 bit)
                pub:
                    04:b5:c9:91:5b:13:df:45:32:67:c9:e0:be:45:72:
                    ad:c7:c0:2b:92:9a:03:b2:49:b1:08:64:55:bd:54:
                    f7:47:4d:54:e4:2a:ed:2b:b7:65:31:d2:d3:3b:c9:
                    c1:aa:c5:df:67:e7:55:14:c0:ec:c8:8e:db:15:ae:
                    30:82:4f:28:bd
                ASN1 OID: secp256k1
        X509v3 extensions:
            X509v3 Key Usage: critical
                Digital Signature, Key Encipherment
            X509v3 Basic Constraints: critical
                CA:FALSE, pathlen:3
    Signature Algorithm: ecdsa-with-SHA256
         30:46:02:21:00:8a:be:d0:27:49:cc:54:e4:6a:c7:be:0b:7a:
         62:d0:31:e4:0c:63:91:ab:eb:1c:43:36:4b:7b:b1:86:af:4b:
         6f:02:21:00:d8:85:74:b7:39:6d:69:8d:41:58:b1:ba:f8:42:
         40:c2:77:fc:8a:55:99:f1:5a:9f:3e:ce:98:c2:13:ca:37:9b
-----BEGIN CERTIFICATE-----
MIIB7TCCAZKgAwIBAgIBITAKBggqhkjOPQQDAjCBlzEXMBUGA1UEAwwOUmVnaW9u
ZSBNYXJjaGUxCzAJBgNVBAYTAklUMQ8wDQYDVQQIDAZJdGFsaWExGDAWBgNVBAoM
D0UtVm90aW5nIHN5c3RlbTEiMCAGA1UECwwZRS1Wb3Rpbmcgc3lzdGVtIGF1dGhv
cml0eTEgMB4GCSqGSIb3DQEJARYRTWFyY2hlQGV2b3RpbmcuaXQwHhcNMjIwODI2
MTUyMTQzWhcNMjMwODI2MTUyMTQzWjBFMQwwCgYDVQQDDANLaW0xCzAJBgNVBAYT
AklUMQ8wDQYDVQQIDAZJdGFsaWExFzAVBgNVBAoMDlJlZ2lvbmUgTWFyY2hlMFYw
EAYHKoZIzj0CAQYFK4EEAAoDQgAEtcmRWxPfRTJnyeC+RXKtx8ArkpoDskmxCGRV
vVT3R01U5CrtK7dlMdLTO8nBqsXfZ+dVFMDsyI7bFa4wgk8ovaMjMCEwDgYDVR0P
AQH/BAQDAgWgMA8GA1UdEwEB/wQFMAMCAQMwCgYIKoZIzj0EAwIDSQAwRgIhAIq+
0CdJzFTkase+C3pi0DHkDGORq+scQzZLe7GGr0tvAiEA2IV0tzltaY1BWLG6+EJA
wnf8ilWZ8VqfPs6YwhPKN5s=
-----END CERTIFICATE-----
