Certificate:
    Data:
        Version: 3 (0x2)
        Serial Number: 3 (0x3)
        Signature Algorithm: ecdsa-with-SHA256
        Issuer: CN=Regione Molise, C=IT, ST=Italia, O=E-Voting system, OU=E-Voting system authority/emailAddress=Molise@evoting.it
        Validity
            Not Before: Aug  3 13:25:52 2022 GMT
            Not After : Aug  3 13:25:52 2023 GMT
        Subject: CN=Kim, C=IT, ST=Italia, O=Regione Molise
        Subject Public Key Info:
            Public Key Algorithm: id-ecPublicKey
                Public-Key: (256 bit)
                pub:
                    04:e6:6e:9a:2e:5e:00:9f:55:d6:05:eb:33:43:da:
                    8a:54:89:27:58:61:b6:f1:81:56:27:a4:cc:af:29:
                    e8:41:2e:4e:bb:8a:96:a7:67:a0:44:13:75:7a:2c:
                    b0:2d:6d:05:eb:4e:84:08:48:67:c0:f9:4d:d0:85:
                    a5:03:b0:9f:be
                ASN1 OID: prime256v1
                NIST CURVE: P-256
        X509v3 extensions:
            X509v3 Key Usage: critical
                Digital Signature, Key Encipherment
            X509v3 Basic Constraints: critical
                CA:FALSE, pathlen:3
    Signature Algorithm: ecdsa-with-SHA256
         30:46:02:21:00:9d:f4:1d:c8:60:2d:df:82:f5:d9:66:81:eb:
         46:ec:d8:60:1e:69:44:b4:1a:47:26:37:49:35:23:89:a3:c7:
         1c:02:21:00:9e:47:d2:53:be:49:bf:cc:e0:a0:2b:3d:62:96:
         08:cc:96:e5:fa:43:c2:63:ee:9d:d4:14:8d:ed:69:4f:1e:2d
-----BEGIN CERTIFICATE-----
MIIB8DCCAZWgAwIBAgIBAzAKBggqhkjOPQQDAjCBlzEXMBUGA1UEAwwOUmVnaW9u
ZSBNb2xpc2UxCzAJBgNVBAYTAklUMQ8wDQYDVQQIDAZJdGFsaWExGDAWBgNVBAoM
D0UtVm90aW5nIHN5c3RlbTEiMCAGA1UECwwZRS1Wb3Rpbmcgc3lzdGVtIGF1dGhv
cml0eTEgMB4GCSqGSIb3DQEJARYRTW9saXNlQGV2b3RpbmcuaXQwHhcNMjIwODAz
MTMyNTUyWhcNMjMwODAzMTMyNTUyWjBFMQwwCgYDVQQDDANLaW0xCzAJBgNVBAYT
AklUMQ8wDQYDVQQIDAZJdGFsaWExFzAVBgNVBAoMDlJlZ2lvbmUgTW9saXNlMFkw
EwYHKoZIzj0CAQYIKoZIzj0DAQcDQgAE5m6aLl4An1XWBeszQ9qKVIknWGG28YFW
J6TMrynoQS5Ou4qWp2egRBN1eiywLW0F606ECEhnwPlN0IWlA7CfvqMjMCEwDgYD
VR0PAQH/BAQDAgWgMA8GA1UdEwEB/wQFMAMCAQMwCgYIKoZIzj0EAwIDSQAwRgIh
AJ30HchgLd+C9dlmgetG7NhgHmlEtBpHJjdJNSOJo8ccAiEAnkfSU75Jv8zgoCs9
YpYIzJbl+kPCY+6d1BSN7WlPHi0=
-----END CERTIFICATE-----
