Certificate:
    Data:
        Version: 3 (0x2)
        Serial Number: 34 (0x22)
        Signature Algorithm: ecdsa-with-SHA256
        Issuer: CN=Regione Toscana, C=IT, ST=Italia, O=E-Voting system, OU=E-Voting system authority/emailAddress=Toscana@evoting.it
        Validity
            Not Before: Aug 26 15:20:59 2022 GMT
            Not After : Aug 26 15:20:59 2023 GMT
        Subject: CN=Kimberly, C=IT, ST=Italia, O=Regione Toscana
        Subject Public Key Info:
            Public Key Algorithm: id-ecPublicKey
                Public-Key: (256 bit)
                pub:
                    04:1f:69:e5:6c:85:e2:4b:fe:83:57:dd:87:32:2f:
                    7e:9e:1f:bb:3c:3a:c8:b6:ab:b0:39:86:cb:a7:8b:
                    09:26:8d:56:2d:70:b1:c9:58:04:8f:72:62:6f:5a:
                    51:a9:ac:5a:ff:65:94:71:b8:6e:e4:11:10:25:8e:
                    b3:ca:59:cc:c0
                ASN1 OID: secp256k1
        X509v3 extensions:
            X509v3 Key Usage: critical
                Digital Signature, Key Encipherment
            X509v3 Basic Constraints: critical
                CA:FALSE, pathlen:3
    Signature Algorithm: ecdsa-with-SHA256
         30:45:02:21:00:fb:05:c6:58:88:eb:fa:46:e8:ed:86:12:ed:
         f7:ea:1d:56:d4:cb:92:53:9a:d0:52:ae:a2:ee:42:d7:b1:66:
         f3:02:20:74:23:89:ba:ac:73:9e:68:37:01:f5:71:53:f5:15:
         db:f7:4a:05:d9:78:4a:94:97:58:4c:29:f1:ad:a6:e4:ed
-----BEGIN CERTIFICATE-----
MIIB9DCCAZqgAwIBAgIBIjAKBggqhkjOPQQDAjCBmTEYMBYGA1UEAwwPUmVnaW9u
ZSBUb3NjYW5hMQswCQYDVQQGEwJJVDEPMA0GA1UECAwGSXRhbGlhMRgwFgYDVQQK
DA9FLVZvdGluZyBzeXN0ZW0xIjAgBgNVBAsMGUUtVm90aW5nIHN5c3RlbSBhdXRo
b3JpdHkxITAfBgkqhkiG9w0BCQEWElRvc2NhbmFAZXZvdGluZy5pdDAeFw0yMjA4
MjYxNTIwNTlaFw0yMzA4MjYxNTIwNTlaMEsxETAPBgNVBAMMCEtpbWJlcmx5MQsw
CQYDVQQGEwJJVDEPMA0GA1UECAwGSXRhbGlhMRgwFgYDVQQKDA9SZWdpb25lIFRv
c2NhbmEwVjAQBgcqhkjOPQIBBgUrgQQACgNCAAQfaeVsheJL/oNX3YcyL36eH7s8
Osi2q7A5hsuniwkmjVYtcLHJWASPcmJvWlGprFr/ZZRxuG7kERAljrPKWczAoyMw
ITAOBgNVHQ8BAf8EBAMCBaAwDwYDVR0TAQH/BAUwAwIBAzAKBggqhkjOPQQDAgNI
ADBFAiEA+wXGWIjr+kbo7YYS7ffqHVbUy5JTmtBSrqLuQtexZvMCIHQjibqsc55o
NwH1cVP1Fdv3SgXZeEqUl1hMKfGtpuTt
-----END CERTIFICATE-----
