Certificate:
    Data:
        Version: 3 (0x2)
        Serial Number: 15 (0xf)
        Signature Algorithm: ecdsa-with-SHA256
        Issuer: CN=Regione Piemonte, C=IT, ST=Italia, O=E-Voting system, OU=E-Voting system authority/emailAddress=Piemonte@evoting.it
        Validity
            Not Before: Aug  3 13:26:12 2022 GMT
            Not After : Aug  3 13:26:12 2023 GMT
        Subject: CN=Kimberly, C=IT, ST=Italia, O=Regione Piemonte
        Subject Public Key Info:
            Public Key Algorithm: id-ecPublicKey
                Public-Key: (256 bit)
                pub:
                    04:2b:3f:52:82:fd:ac:61:b6:2b:5a:a4:40:b8:0f:
                    cb:f9:78:3e:1e:cc:16:3b:1f:f9:7a:fe:48:53:82:
                    f5:55:74:7a:5d:7f:98:06:69:e8:67:d7:28:ba:7f:
                    ff:4f:b4:60:a9:81:7c:83:0a:46:3d:04:71:e0:ba:
                    7d:c1:62:28:43
                ASN1 OID: prime256v1
                NIST CURVE: P-256
        X509v3 extensions:
            X509v3 Key Usage: critical
                Digital Signature, Key Encipherment
            X509v3 Basic Constraints: critical
                CA:FALSE, pathlen:3
    Signature Algorithm: ecdsa-with-SHA256
         30:46:02:21:00:c2:35:c5:cc:bb:c2:34:f9:a4:43:5c:29:b7:
         83:66:2b:a8:30:41:9c:21:8c:3c:8d:fc:64:db:37:c3:e5:05:
         c0:02:21:00:c6:36:95:06:b1:4f:cb:bd:c8:30:65:85:f1:74:
         0a:e7:1f:a9:3e:05:6d:30:68:fb:23:ee:ab:8c:ca:54:ba:01
-----BEGIN CERTIFICATE-----
MIIB+zCCAaCgAwIBAgIBDzAKBggqhkjOPQQDAjCBmzEZMBcGA1UEAwwQUmVnaW9u
ZSBQaWVtb250ZTELMAkGA1UEBhMCSVQxDzANBgNVBAgMBkl0YWxpYTEYMBYGA1UE
CgwPRS1Wb3Rpbmcgc3lzdGVtMSIwIAYDVQQLDBlFLVZvdGluZyBzeXN0ZW0gYXV0
aG9yaXR5MSIwIAYJKoZIhvcNAQkBFhNQaWVtb250ZUBldm90aW5nLml0MB4XDTIy
MDgwMzEzMjYxMloXDTIzMDgwMzEzMjYxMlowTDERMA8GA1UEAwwIS2ltYmVybHkx
CzAJBgNVBAYTAklUMQ8wDQYDVQQIDAZJdGFsaWExGTAXBgNVBAoMEFJlZ2lvbmUg
UGllbW9udGUwWTATBgcqhkjOPQIBBggqhkjOPQMBBwNCAAQrP1KC/axhtitapEC4
D8v5eD4ezBY7H/l6/khTgvVVdHpdf5gGaehn1yi6f/9PtGCpgXyDCkY9BHHgun3B
YihDoyMwITAOBgNVHQ8BAf8EBAMCBaAwDwYDVR0TAQH/BAUwAwIBAzAKBggqhkjO
PQQDAgNJADBGAiEAwjXFzLvCNPmkQ1wpt4NmK6gwQZwhjDyN/GTbN8PlBcACIQDG
NpUGsU/LvcgwZYXxdArnH6k+BW0waPsj7quMylS6AQ==
-----END CERTIFICATE-----
