Certificate:
    Data:
        Version: 3 (0x2)
        Serial Number: 52 (0x34)
        Signature Algorithm: ecdsa-with-SHA256
        Issuer: CN=Regione Friuli_Venezia_Giulia, C=IT, ST=Italia, O=E-Voting system, OU=E-Voting system authority/emailAddress=Friuli_Venezia_Giulia@evoting.it
        Validity
            Not Before: Aug  3 13:28:46 2022 GMT
            Not After : Aug  3 13:28:46 2023 GMT
        Subject: CN=Kristine, C=IT, ST=Italia, O=Regione Friuli_Venezia_Giulia
        Subject Public Key Info:
            Public Key Algorithm: id-ecPublicKey
                Public-Key: (256 bit)
                pub:
                    04:41:3b:74:10:b5:21:f8:5a:88:ec:5c:e8:f3:a3:
                    a8:e1:e3:4e:5a:15:4a:0d:a1:8d:ab:23:26:c0:61:
                    c0:b3:42:8e:b1:ea:43:3f:76:7b:5b:74:79:1d:bf:
                    75:fb:33:3e:43:e2:09:cf:89:6c:93:6a:eb:77:d9:
                    99:ae:ba:05:09
                ASN1 OID: prime256v1
                NIST CURVE: P-256
        X509v3 extensions:
            X509v3 Key Usage: critical
                Digital Signature, Key Encipherment
            X509v3 Basic Constraints: critical
                CA:FALSE, pathlen:3
    Signature Algorithm: ecdsa-with-SHA256
         30:46:02:21:00:e5:a1:bc:42:10:57:81:b1:e9:cc:c4:b2:70:
         c5:09:1e:a3:62:83:22:85:0d:a1:8b:e7:a7:6e:e4:75:20:2c:
         5f:02:21:00:bd:05:0e:6f:ac:83:d0:60:75:6a:69:37:ad:2c:
         3e:99:ec:a7:26:70:2e:18:f9:53:74:76:05:7a:9b:57:15:4e
-----BEGIN CERTIFICATE-----
MIICIjCCAcegAwIBAgIBNDAKBggqhkjOPQQDAjCBtTEmMCQGA1UEAwwdUmVnaW9u
ZSBGcml1bGlfVmVuZXppYV9HaXVsaWExCzAJBgNVBAYTAklUMQ8wDQYDVQQIDAZJ
dGFsaWExGDAWBgNVBAoMD0UtVm90aW5nIHN5c3RlbTEiMCAGA1UECwwZRS1Wb3Rp
bmcgc3lzdGVtIGF1dGhvcml0eTEvMC0GCSqGSIb3DQEJARYgRnJpdWxpX1ZlbmV6
aWFfR2l1bGlhQGV2b3RpbmcuaXQwHhcNMjIwODAzMTMyODQ2WhcNMjMwODAzMTMy
ODQ2WjBZMREwDwYDVQQDDAhLcmlzdGluZTELMAkGA1UEBhMCSVQxDzANBgNVBAgM
Bkl0YWxpYTEmMCQGA1UECgwdUmVnaW9uZSBGcml1bGlfVmVuZXppYV9HaXVsaWEw
WTATBgcqhkjOPQIBBggqhkjOPQMBBwNCAARBO3QQtSH4WojsXOjzo6jh405aFUoN
oY2rIybAYcCzQo6x6kM/dntbdHkdv3X7Mz5D4gnPiWyTaut32ZmuugUJoyMwITAO
BgNVHQ8BAf8EBAMCBaAwDwYDVR0TAQH/BAUwAwIBAzAKBggqhkjOPQQDAgNJADBG
AiEA5aG8QhBXgbHpzMSycMUJHqNigyKFDaGL56du5HUgLF8CIQC9BQ5vrIPQYHVq
aTetLD6Z7KcmcC4Y+VN0dgV6m1cVTg==
-----END CERTIFICATE-----
