Certificate:
    Data:
        Version: 3 (0x2)
        Serial Number: 40 (0x28)
        Signature Algorithm: ecdsa-with-SHA256
        Issuer: CN=Regione Puglia, C=IT, ST=Italia, O=E-Voting system, OU=E-Voting system authority/emailAddress=Puglia@evoting.it
        Validity
            Not Before: Aug 26 15:21:03 2022 GMT
            Not After : Aug 26 15:21:03 2023 GMT
        Subject: CN=Kristin, C=IT, ST=Italia, O=Regione Puglia
        Subject Public Key Info:
            Public Key Algorithm: id-ecPublicKey
                Public-Key: (256 bit)
                pub:
                    04:55:f2:c8:21:b6:22:92:a4:04:32:99:d4:7d:30:
                    28:d9:12:a1:3b:66:e9:87:0b:a5:73:e5:d0:f3:f8:
                    20:bc:2c:83:3d:94:e3:15:10:29:8c:6f:92:ee:6a:
                    cb:45:ad:19:46:e2:d8:42:2e:b5:87:50:be:6b:c5:
                    8c:41:90:0f:c9
                ASN1 OID: secp256k1
        X509v3 extensions:
            X509v3 Key Usage: critical
                Digital Signature, Key Encipherment
            X509v3 Basic Constraints: critical
                CA:FALSE, pathlen:3
    Signature Algorithm: ecdsa-with-SHA256
         30:44:02:20:59:95:c6:46:dc:e5:7d:18:9a:26:78:77:bb:6d:
         66:b2:42:33:68:92:64:c3:f9:12:f1:54:6e:d8:d9:0a:e3:ad:
         02:20:36:6d:f4:91:25:5d:69:82:0e:2e:36:e3:87:64:9c:03:
         10:39:e3:89:ae:5e:f0:a5:64:fa:46:2e:21:ac:7f:db
-----BEGIN CERTIFICATE-----
MIIB7zCCAZagAwIBAgIBKDAKBggqhkjOPQQDAjCBlzEXMBUGA1UEAwwOUmVnaW9u
ZSBQdWdsaWExCzAJBgNVBAYTAklUMQ8wDQYDVQQIDAZJdGFsaWExGDAWBgNVBAoM
D0UtVm90aW5nIHN5c3RlbTEiMCAGA1UECwwZRS1Wb3Rpbmcgc3lzdGVtIGF1dGhv
cml0eTEgMB4GCSqGSIb3DQEJARYRUHVnbGlhQGV2b3RpbmcuaXQwHhcNMjIwODI2
MTUyMTAzWhcNMjMwODI2MTUyMTAzWjBJMRAwDgYDVQQDDAdLcmlzdGluMQswCQYD
VQQGEwJJVDEPMA0GA1UECAwGSXRhbGlhMRcwFQYDVQQKDA5SZWdpb25lIFB1Z2xp
YTBWMBAGByqGSM49AgEGBSuBBAAKA0IABFXyyCG2IpKkBDKZ1H0wKNkSoTtm6YcL
pXPl0PP4ILwsgz2U4xUQKYxvku5qy0WtGUbi2EIutYdQvmvFjEGQD8mjIzAhMA4G
A1UdDwEB/wQEAwIFoDAPBgNVHRMBAf8EBTADAgEDMAoGCCqGSM49BAMCA0cAMEQC
IFmVxkbc5X0YmiZ4d7ttZrJCM2iSZMP5EvFUbtjZCuOtAiA2bfSRJV1pgg4uNuOH
ZJwDEDnjia5e8KVk+kYuIax/2w==
-----END CERTIFICATE-----
