Certificate:
    Data:
        Version: 3 (0x2)
        Serial Number: 18 (0x12)
        Signature Algorithm: ecdsa-with-SHA256
        Issuer: CN=Regione Lazio, C=IT, ST=Italia, O=E-Voting system, OU=E-Voting system authority/emailAddress=Lazio@evoting.it
        Validity
            Not Before: Aug 26 15:19:33 2022 GMT
            Not After : Aug 26 15:19:33 2023 GMT
        Subject: CN=Kristel, C=IT, ST=Italia, O=Regione Lazio
        Subject Public Key Info:
            Public Key Algorithm: id-ecPublicKey
                Public-Key: (256 bit)
                pub:
                    04:d4:e3:7d:07:d8:e1:3d:06:a7:fa:d8:ca:f1:e4:
                    2d:35:8a:92:c4:18:e7:c3:be:19:be:90:26:9d:72:
                    cb:a5:e0:62:38:79:d1:c6:68:84:a7:ff:a5:d2:9c:
                    ca:9c:3a:3d:fb:df:01:8d:4d:b3:f6:e7:3d:8e:f9:
                    f3:92:30:79:7f
                ASN1 OID: secp256k1
        X509v3 extensions:
            X509v3 Key Usage: critical
                Digital Signature, Key Encipherment
            X509v3 Basic Constraints: critical
                CA:FALSE, pathlen:3
    Signature Algorithm: ecdsa-with-SHA256
         30:44:02:20:00:99:f7:a5:12:0b:a9:01:3b:7d:94:b0:0b:0c:
         49:bf:57:59:84:90:f9:9e:1f:14:92:ad:24:18:83:81:30:84:
         02:20:60:f3:56:36:31:ad:73:c6:81:90:f9:c0:39:a9:39:1a:
         ae:e3:fb:f4:4c:fe:95:41:55:02:d5:3e:54:3a:d5:d9
-----BEGIN CERTIFICATE-----
MIIB7DCCAZOgAwIBAgIBEjAKBggqhkjOPQQDAjCBlTEWMBQGA1UEAwwNUmVnaW9u
ZSBMYXppbzELMAkGA1UEBhMCSVQxDzANBgNVBAgMBkl0YWxpYTEYMBYGA1UECgwP
RS1Wb3Rpbmcgc3lzdGVtMSIwIAYDVQQLDBlFLVZvdGluZyBzeXN0ZW0gYXV0aG9y
aXR5MR8wHQYJKoZIhvcNAQkBFhBMYXppb0Bldm90aW5nLml0MB4XDTIyMDgyNjE1
MTkzM1oXDTIzMDgyNjE1MTkzM1owSDEQMA4GA1UEAwwHS3Jpc3RlbDELMAkGA1UE
BhMCSVQxDzANBgNVBAgMBkl0YWxpYTEWMBQGA1UECgwNUmVnaW9uZSBMYXppbzBW
MBAGByqGSM49AgEGBSuBBAAKA0IABNTjfQfY4T0Gp/rYyvHkLTWKksQY58O+Gb6Q
Jp1yy6XgYjh50cZohKf/pdKcypw6PfvfAY1Ns/bnPY7585IweX+jIzAhMA4GA1Ud
DwEB/wQEAwIFoDAPBgNVHRMBAf8EBTADAgEDMAoGCCqGSM49BAMCA0cAMEQCIACZ
96USC6kBO32UsAsMSb9XWYSQ+Z4fFJKtJBiDgTCEAiBg81Y2Ma1zxoGQ+cA5qTka
ruP79Ez+lUFVAtU+VDrV2Q==
-----END CERTIFICATE-----
