Certificate:
    Data:
        Version: 3 (0x2)
        Serial Number: 18 (0x12)
        Signature Algorithm: ecdsa-with-SHA256
        Issuer: CN=Regione Toscana, C=IT, ST=Italia, O=E-Voting system, OU=E-Voting system authority/emailAddress=Toscana@evoting.it
        Validity
            Not Before: Aug  3 13:26:32 2022 GMT
            Not After : Aug  3 13:26:32 2023 GMT
        Subject: CN=Kristina, C=IT, ST=Italia, O=Regione Toscana
        Subject Public Key Info:
            Public Key Algorithm: id-ecPublicKey
                Public-Key: (256 bit)
                pub:
                    04:5c:45:c3:1a:3c:5b:e8:42:a3:47:d9:aa:43:6b:
                    89:40:d9:ee:84:08:d5:73:03:64:25:e5:e9:3a:20:
                    c3:72:3f:c4:14:ac:44:37:2d:67:5c:66:9a:41:79:
                    62:c0:61:e5:95:48:d0:95:7d:50:74:1c:45:13:ec:
                    a6:00:e4:69:f8
                ASN1 OID: prime256v1
                NIST CURVE: P-256
        X509v3 extensions:
            X509v3 Key Usage: critical
                Digital Signature, Key Encipherment
            X509v3 Basic Constraints: critical
                CA:FALSE, pathlen:3
    Signature Algorithm: ecdsa-with-SHA256
         30:45:02:21:00:8f:cc:ca:06:02:da:c2:bd:65:e0:e0:75:d6:
         fd:25:d7:2c:54:e5:c1:70:23:65:62:17:65:c4:89:f8:a5:43:
         d5:02:20:55:6c:63:fc:b8:0b:a8:ca:d5:18:30:6c:29:b5:64:
         e5:b2:e1:3a:4e:5f:49:5f:a7:cc:a6:df:aa:b7:b1:06:19
-----BEGIN CERTIFICATE-----
MIIB9zCCAZ2gAwIBAgIBEjAKBggqhkjOPQQDAjCBmTEYMBYGA1UEAwwPUmVnaW9u
ZSBUb3NjYW5hMQswCQYDVQQGEwJJVDEPMA0GA1UECAwGSXRhbGlhMRgwFgYDVQQK
DA9FLVZvdGluZyBzeXN0ZW0xIjAgBgNVBAsMGUUtVm90aW5nIHN5c3RlbSBhdXRo
b3JpdHkxITAfBgkqhkiG9w0BCQEWElRvc2NhbmFAZXZvdGluZy5pdDAeFw0yMjA4
MDMxMzI2MzJaFw0yMzA4MDMxMzI2MzJaMEsxETAPBgNVBAMMCEtyaXN0aW5hMQsw
CQYDVQQGEwJJVDEPMA0GA1UECAwGSXRhbGlhMRgwFgYDVQQKDA9SZWdpb25lIFRv
c2NhbmEwWTATBgcqhkjOPQIBBggqhkjOPQMBBwNCAARcRcMaPFvoQqNH2apDa4lA
2e6ECNVzA2Ql5ek6IMNyP8QUrEQ3LWdcZppBeWLAYeWVSNCVfVB0HEUT7KYA5Gn4
oyMwITAOBgNVHQ8BAf8EBAMCBaAwDwYDVR0TAQH/BAUwAwIBAzAKBggqhkjOPQQD
AgNIADBFAiEAj8zKBgLawr1l4OB11v0l1yxU5cFwI2ViF2XEifilQ9UCIFVsY/y4
C6jK1RgwbCm1ZOWy4TpOX0lfp8ym36q3sQYZ
-----END CERTIFICATE-----
