Certificate:
    Data:
        Version: 3 (0x2)
        Serial Number: 15 (0xf)
        Signature Algorithm: ecdsa-with-SHA256
        Issuer: CN=Regione Molise, C=IT, ST=Italia, O=E-Voting system, OU=E-Voting system authority/emailAddress=Molise@evoting.it
        Validity
            Not Before: Aug 26 15:19:48 2022 GMT
            Not After : Aug 26 15:19:48 2023 GMT
        Subject: CN=Kristie, C=IT, ST=Italia, O=Regione Molise
        Subject Public Key Info:
            Public Key Algorithm: id-ecPublicKey
                Public-Key: (256 bit)
                pub:
                    04:ab:dd:48:36:53:c4:93:b4:cb:a0:99:07:f9:5b:
                    fb:04:0b:cf:10:e5:24:d1:80:3a:53:7a:dd:27:36:
                    9b:90:e2:dd:0c:bf:5d:23:27:3d:91:e1:c1:cd:37:
                    55:18:a1:8a:38:01:29:f0:fa:16:39:e4:70:ee:d8:
                    35:87:02:10:2d
                ASN1 OID: secp256k1
        X509v3 extensions:
            X509v3 Key Usage: critical
                Digital Signature, Key Encipherment
            X509v3 Basic Constraints: critical
                CA:FALSE, pathlen:3
    Signature Algorithm: ecdsa-with-SHA256
         30:44:02:20:56:6f:6c:5c:c9:d6:4d:67:77:52:50:84:bc:38:
         75:f2:75:f5:e6:99:14:8f:fa:6d:72:4c:d6:46:86:1b:3b:39:
         02:20:61:b2:e8:ca:9b:4a:ba:e9:66:09:bb:4e:e4:4c:fa:1a:
         53:1b:dc:5f:0e:9b:73:ee:04:64:85:d7:09:6a:b8:6c
-----BEGIN CERTIFICATE-----
MIIB7zCCAZagAwIBAgIBDzAKBggqhkjOPQQDAjCBlzEXMBUGA1UEAwwOUmVnaW9u
ZSBNb2xpc2UxCzAJBgNVBAYTAklUMQ8wDQYDVQQIDAZJdGFsaWExGDAWBgNVBAoM
D0UtVm90aW5nIHN5c3RlbTEiMCAGA1UECwwZRS1Wb3Rpbmcgc3lzdGVtIGF1dGhv
cml0eTEgMB4GCSqGSIb3DQEJARYRTW9saXNlQGV2b3RpbmcuaXQwHhcNMjIwODI2
MTUxOTQ4WhcNMjMwODI2MTUxOTQ4WjBJMRAwDgYDVQQDDAdLcmlzdGllMQswCQYD
VQQGEwJJVDEPMA0GA1UECAwGSXRhbGlhMRcwFQYDVQQKDA5SZWdpb25lIE1vbGlz
ZTBWMBAGByqGSM49AgEGBSuBBAAKA0IABKvdSDZTxJO0y6CZB/lb+wQLzxDlJNGA
OlN63Sc2m5Di3Qy/XSMnPZHhwc03VRihijgBKfD6FjnkcO7YNYcCEC2jIzAhMA4G
A1UdDwEB/wQEAwIFoDAPBgNVHRMBAf8EBTADAgEDMAoGCCqGSM49BAMCA0cAMEQC
IFZvbFzJ1k1nd1JQhLw4dfJ19eaZFI/6bXJM1kaGGzs5AiBhsujKm0q66WYJu07k
TPoaUxvcXw6bc+4EZIXXCWq4bA==
-----END CERTIFICATE-----
