Certificate:
    Data:
        Version: 3 (0x2)
        Serial Number: 14 (0xe)
        Signature Algorithm: ecdsa-with-SHA256
        Issuer: CN=Regione Basilicata, C=IT, ST=Italia, O=E-Voting system, OU=E-Voting system authority/emailAddress=Basilicata@evoting.it
        Validity
            Not Before: Aug 26 15:19:26 2022 GMT
            Not After : Aug 26 15:19:26 2023 GMT
        Subject: CN=Kristina, C=IT, ST=Italia, O=Regione Basilicata
        Subject Public Key Info:
            Public Key Algorithm: id-ecPublicKey
                Public-Key: (256 bit)
                pub:
                    04:f6:d1:ae:48:0d:64:72:b0:6b:c9:c0:2e:7a:c4:
                    df:33:fc:66:16:26:d5:64:87:fc:5c:17:db:90:10:
                    b9:c7:8c:8b:45:be:b0:ab:91:5c:c9:17:1c:b8:30:
                    d5:64:b3:98:f4:70:3e:76:87:03:55:19:7b:9d:1b:
                    34:60:38:fa:a5
                ASN1 OID: secp256k1
        X509v3 extensions:
            X509v3 Key Usage: critical
                Digital Signature, Key Encipherment
            X509v3 Basic Constraints: critical
                CA:FALSE, pathlen:3
    Signature Algorithm: ecdsa-with-SHA256
         30:45:02:21:00:a6:c2:5f:98:03:31:e2:7b:47:b9:df:2b:e0:
         09:42:b1:e2:db:e5:49:89:4a:64:14:81:d8:0f:f4:20:60:fc:
         dd:02:20:45:d0:35:15:42:0f:d8:dc:e0:b8:00:83:c2:d4:20:
         49:60:f9:04:88:17:64:a6:af:40:a9:ad:b7:7d:8c:6f:cf
-----BEGIN CERTIFICATE-----
MIIB/TCCAaOgAwIBAgIBDjAKBggqhkjOPQQDAjCBnzEbMBkGA1UEAwwSUmVnaW9u
ZSBCYXNpbGljYXRhMQswCQYDVQQGEwJJVDEPMA0GA1UECAwGSXRhbGlhMRgwFgYD
VQQKDA9FLVZvdGluZyBzeXN0ZW0xIjAgBgNVBAsMGUUtVm90aW5nIHN5c3RlbSBh
dXRob3JpdHkxJDAiBgkqhkiG9w0BCQEWFUJhc2lsaWNhdGFAZXZvdGluZy5pdDAe
Fw0yMjA4MjYxNTE5MjZaFw0yMzA4MjYxNTE5MjZaME4xETAPBgNVBAMMCEtyaXN0
aW5hMQswCQYDVQQGEwJJVDEPMA0GA1UECAwGSXRhbGlhMRswGQYDVQQKDBJSZWdp
b25lIEJhc2lsaWNhdGEwVjAQBgcqhkjOPQIBBgUrgQQACgNCAAT20a5IDWRysGvJ
wC56xN8z/GYWJtVkh/xcF9uQELnHjItFvrCrkVzJFxy4MNVks5j0cD52hwNVGXud
GzRgOPqloyMwITAOBgNVHQ8BAf8EBAMCBaAwDwYDVR0TAQH/BAUwAwIBAzAKBggq
hkjOPQQDAgNIADBFAiEApsJfmAMx4ntHud8r4AlCseLb5UmJSmQUgdgP9CBg/N0C
IEXQNRVCD9jc4LgAg8LUIElg+QSIF2Smr0Cprbd9jG/P
-----END CERTIFICATE-----
