Certificate:
    Data:
        Version: 3 (0x2)
        Serial Number: 53 (0x35)
        Signature Algorithm: ecdsa-with-SHA256
        Issuer: CN=Regione Sicilia, C=IT, ST=Italia, O=E-Voting system, OU=E-Voting system authority/emailAddress=Sicilia@evoting.it
        Validity
            Not Before: Aug 26 15:21:32 2022 GMT
            Not After : Aug 26 15:21:32 2023 GMT
        Subject: CN=Kristen, C=IT, ST=Italia, O=Regione Sicilia
        Subject Public Key Info:
            Public Key Algorithm: id-ecPublicKey
                Public-Key: (256 bit)
                pub:
                    04:cd:a8:c0:04:3f:ac:d7:7a:69:4a:37:d0:83:f6:
                    53:71:f6:a2:e0:5b:db:43:c6:b5:52:26:f0:38:29:
                    40:8a:69:45:62:ff:3d:e0:b4:34:84:aa:b0:3c:d8:
                    3e:97:b4:93:96:b6:7b:61:1d:65:54:e4:1f:42:b5:
                    03:0f:ee:9f:ab
                ASN1 OID: secp256k1
        X509v3 extensions:
            X509v3 Key Usage: critical
                Digital Signature, Key Encipherment
            X509v3 Basic Constraints: critical
                CA:FALSE, pathlen:3
    Signature Algorithm: ecdsa-with-SHA256
         30:45:02:21:00:a4:6e:42:6b:60:e3:28:42:4b:f2:c1:75:b0:
         c6:28:ab:bb:de:8a:e0:29:3a:f3:26:c5:15:4d:40:99:98:dc:
         ba:02:20:2b:b4:0f:23:84:7a:f9:03:f1:14:f1:52:54:ac:b4:
         bc:bd:dc:7a:ec:32:80:d1:5f:3d:59:9b:dd:ad:0a:d3:bc
-----BEGIN CERTIFICATE-----
MIIB8zCCAZmgAwIBAgIBNTAKBggqhkjOPQQDAjCBmTEYMBYGA1UEAwwPUmVnaW9u
ZSBTaWNpbGlhMQswCQYDVQQGEwJJVDEPMA0GA1UECAwGSXRhbGlhMRgwFgYDVQQK
DA9FLVZvdGluZyBzeXN0ZW0xIjAgBgNVBAsMGUUtVm90aW5nIHN5c3RlbSBhdXRo
b3JpdHkxITAfBgkqhkiG9w0BCQEWElNpY2lsaWFAZXZvdGluZy5pdDAeFw0yMjA4
MjYxNTIxMzJaFw0yMzA4MjYxNTIxMzJaMEoxEDAOBgNVBAMMB0tyaXN0ZW4xCzAJ
BgNVBAYTAklUMQ8wDQYDVQQIDAZJdGFsaWExGDAWBgNVBAoMD1JlZ2lvbmUgU2lj
aWxpYTBWMBAGByqGSM49AgEGBSuBBAAKA0IABM2owAQ/rNd6aUo30IP2U3H2ouBb
20PGtVIm8DgpQIppRWL/PeC0NISqsDzYPpe0k5a2e2EdZVTkH0K1Aw/un6ujIzAh
MA4GA1UdDwEB/wQEAwIFoDAPBgNVHRMBAf8EBTADAgEDMAoGCCqGSM49BAMCA0gA
MEUCIQCkbkJrYOMoQkvywXWwxiiru96K4Ck68ybFFU1AmZjcugIgK7QPI4R6+QPx
FPFSVKy0vL3ceuwygNFfPVmb3a0K07w=
-----END CERTIFICATE-----
