Certificate:
    Data:
        Version: 3 (0x2)
        Serial Number: 39 (0x27)
        Signature Algorithm: ecdsa-with-SHA256
        Issuer: CN=Regione Friuli_Venezia_Giulia, C=IT, ST=Italia, O=E-Voting system, OU=E-Voting system authority/emailAddress=Friuli_Venezia_Giulia@evoting.it
        Validity
            Not Before: Aug  3 13:28:02 2022 GMT
            Not After : Aug  3 13:28:02 2023 GMT
        Subject: CN=Kristin, C=IT, ST=Italia, O=Regione Friuli_Venezia_Giulia
        Subject Public Key Info:
            Public Key Algorithm: id-ecPublicKey
                Public-Key: (256 bit)
                pub:
                    04:10:dc:e5:43:f6:a6:e6:b8:21:b2:0e:db:6c:62:
                    fd:ef:87:01:24:07:73:b2:02:c7:84:2a:d9:41:55:
                    c2:58:14:29:06:f3:45:cb:98:1f:78:91:06:78:c8:
                    6b:40:25:12:5c:ab:57:3b:17:e0:15:bd:58:c5:fd:
                    5b:77:41:40:23
                ASN1 OID: prime256v1
                NIST CURVE: P-256
        X509v3 extensions:
            X509v3 Key Usage: critical
                Digital Signature, Key Encipherment
            X509v3 Basic Constraints: critical
                CA:FALSE, pathlen:3
    Signature Algorithm: ecdsa-with-SHA256
         30:46:02:21:00:96:f2:b2:a5:45:f2:87:a4:9f:52:e6:01:c1:
         27:73:1e:dd:63:60:05:ca:b9:3f:74:e7:49:4e:e6:0d:56:e9:
         20:02:21:00:91:66:ff:5a:bc:5a:c1:98:fe:66:f3:69:8d:f4:
         4c:d6:9a:92:6c:08:03:4e:65:f0:c2:b5:38:44:25:08:f7:c4
-----BEGIN CERTIFICATE-----
MIICITCCAcagAwIBAgIBJzAKBggqhkjOPQQDAjCBtTEmMCQGA1UEAwwdUmVnaW9u
ZSBGcml1bGlfVmVuZXppYV9HaXVsaWExCzAJBgNVBAYTAklUMQ8wDQYDVQQIDAZJ
dGFsaWExGDAWBgNVBAoMD0UtVm90aW5nIHN5c3RlbTEiMCAGA1UECwwZRS1Wb3Rp
bmcgc3lzdGVtIGF1dGhvcml0eTEvMC0GCSqGSIb3DQEJARYgRnJpdWxpX1ZlbmV6
aWFfR2l1bGlhQGV2b3RpbmcuaXQwHhcNMjIwODAzMTMyODAyWhcNMjMwODAzMTMy
ODAyWjBYMRAwDgYDVQQDDAdLcmlzdGluMQswCQYDVQQGEwJJVDEPMA0GA1UECAwG
SXRhbGlhMSYwJAYDVQQKDB1SZWdpb25lIEZyaXVsaV9WZW5lemlhX0dpdWxpYTBZ
MBMGByqGSM49AgEGCCqGSM49AwEHA0IABBDc5UP2pua4IbIO22xi/e+HASQHc7IC
x4Qq2UFVwlgUKQbzRcuYH3iRBnjIa0AlElyrVzsX4BW9WMX9W3dBQCOjIzAhMA4G
A1UdDwEB/wQEAwIFoDAPBgNVHRMBAf8EBTADAgEDMAoGCCqGSM49BAMCA0kAMEYC
IQCW8rKlRfKHpJ9S5gHBJ3Me3WNgBcq5P3TnSU7mDVbpIAIhAJFm/1q8WsGY/mbz
aY30TNaakmwIA05l8MK1OEQlCPfE
-----END CERTIFICATE-----
