Certificate:
    Data:
        Version: 3 (0x2)
        Serial Number: 24 (0x18)
        Signature Algorithm: ecdsa-with-SHA256
        Issuer: CN=Regione Calabria, C=IT, ST=Italia, O=E-Voting system, OU=E-Voting system authority/emailAddress=Calabria@evoting.it
        Validity
            Not Before: Aug 26 15:20:25 2022 GMT
            Not After : Aug 26 15:20:25 2023 GMT
        Subject: CN=Krystyna, C=IT, ST=Italia, O=Regione Calabria
        Subject Public Key Info:
            Public Key Algorithm: id-ecPublicKey
                Public-Key: (256 bit)
                pub:
                    04:86:58:17:38:33:a8:6b:e2:8e:ca:ff:b3:c2:96:
                    f4:af:58:a5:d0:ee:b7:7f:44:ad:a3:3e:76:38:b4:
                    48:90:73:5b:ac:dc:b7:fa:b3:02:70:2d:12:02:7d:
                    79:43:8c:e9:89:bc:7e:4a:78:62:62:28:04:3c:2a:
                    bb:e5:27:cc:68
                ASN1 OID: secp256k1
        X509v3 extensions:
            X509v3 Key Usage: critical
                Digital Signature, Key Encipherment
            X509v3 Basic Constraints: critical
                CA:FALSE, pathlen:3
    Signature Algorithm: ecdsa-with-SHA256
         30:46:02:21:00:a0:9d:78:10:84:10:82:b2:95:d2:40:93:11:
         a2:0d:35:ad:ad:a9:90:17:86:a0:57:6b:b4:dc:7e:47:3e:bd:
         d3:02:21:00:8a:fa:c2:75:69:ab:9c:e1:b0:b1:7d:7b:25:33:
         61:89:28:08:e3:58:3c:b8:9a:8e:3c:fa:f8:97:18:29:1d:ff
-----BEGIN CERTIFICATE-----
MIIB+DCCAZ2gAwIBAgIBGDAKBggqhkjOPQQDAjCBmzEZMBcGA1UEAwwQUmVnaW9u
ZSBDYWxhYnJpYTELMAkGA1UEBhMCSVQxDzANBgNVBAgMBkl0YWxpYTEYMBYGA1UE
CgwPRS1Wb3Rpbmcgc3lzdGVtMSIwIAYDVQQLDBlFLVZvdGluZyBzeXN0ZW0gYXV0
aG9yaXR5MSIwIAYJKoZIhvcNAQkBFhNDYWxhYnJpYUBldm90aW5nLml0MB4XDTIy
MDgyNjE1MjAyNVoXDTIzMDgyNjE1MjAyNVowTDERMA8GA1UEAwwIS3J5c3R5bmEx
CzAJBgNVBAYTAklUMQ8wDQYDVQQIDAZJdGFsaWExGTAXBgNVBAoMEFJlZ2lvbmUg
Q2FsYWJyaWEwVjAQBgcqhkjOPQIBBgUrgQQACgNCAASGWBc4M6hr4o7K/7PClvSv
WKXQ7rd/RK2jPnY4tEiQc1us3Lf6swJwLRICfXlDjOmJvH5KeGJiKAQ8KrvlJ8xo
oyMwITAOBgNVHQ8BAf8EBAMCBaAwDwYDVR0TAQH/BAUwAwIBAzAKBggqhkjOPQQD
AgNJADBGAiEAoJ14EIQQgrKV0kCTEaINNa2tqZAXhqBXa7Tcfkc+vdMCIQCK+sJ1
aauc4bCxfXslM2GJKAjjWDy4mo48+viXGCkd/w==
-----END CERTIFICATE-----
