Certificate:
    Data:
        Version: 3 (0x2)
        Serial Number: 5 (0x5)
        Signature Algorithm: ecdsa-with-SHA256
        Issuer: CN=Regione Emilia_Romagna, C=IT, ST=Italia, O=E-Voting system, OU=E-Voting system authority/emailAddress=Emilia_Romagna@evoting.it
        Validity
            Not Before: Aug 26 15:18:36 2022 GMT
            Not After : Aug 26 15:18:36 2023 GMT
        Subject: CN=Kyle, C=IT, ST=Italia, O=Regione Emilia_Romagna
        Subject Public Key Info:
            Public Key Algorithm: id-ecPublicKey
                Public-Key: (256 bit)
                pub:
                    04:a2:d5:4d:51:64:42:00:13:82:be:d8:73:fd:3b:
                    38:76:18:d9:a5:ef:ac:28:85:84:f7:49:5a:0e:55:
                    22:3c:37:2f:69:4c:9a:00:db:68:b9:7a:23:27:97:
                    ed:23:3b:7a:94:b2:eb:69:a0:a4:f0:9d:b8:ff:a0:
                    fe:7a:41:74:69
                ASN1 OID: secp256k1
        X509v3 extensions:
            X509v3 Key Usage: critical
                Digital Signature, Key Encipherment
            X509v3 Basic Constraints: critical
                CA:FALSE, pathlen:3
    Signature Algorithm: ecdsa-with-SHA256
         30:45:02:21:00:bc:e0:d5:be:71:c1:b2:74:9b:7e:43:72:88:
         1e:8a:7f:72:c8:9e:57:c6:48:d5:7b:40:57:2c:78:ed:eb:25:
         b8:02:20:2f:c7:5e:8b:69:93:b4:e2:c9:87:d9:76:13:4a:ff:
         e8:25:29:a4:68:5d:58:b3:e1:ba:20:37:a6:60:af:d3:11
-----BEGIN CERTIFICATE-----
MIICBTCCAaugAwIBAgIBBTAKBggqhkjOPQQDAjCBpzEfMB0GA1UEAwwWUmVnaW9u
ZSBFbWlsaWFfUm9tYWduYTELMAkGA1UEBhMCSVQxDzANBgNVBAgMBkl0YWxpYTEY
MBYGA1UECgwPRS1Wb3Rpbmcgc3lzdGVtMSIwIAYDVQQLDBlFLVZvdGluZyBzeXN0
ZW0gYXV0aG9yaXR5MSgwJgYJKoZIhvcNAQkBFhlFbWlsaWFfUm9tYWduYUBldm90
aW5nLml0MB4XDTIyMDgyNjE1MTgzNloXDTIzMDgyNjE1MTgzNlowTjENMAsGA1UE
AwwES3lsZTELMAkGA1UEBhMCSVQxDzANBgNVBAgMBkl0YWxpYTEfMB0GA1UECgwW
UmVnaW9uZSBFbWlsaWFfUm9tYWduYTBWMBAGByqGSM49AgEGBSuBBAAKA0IABKLV
TVFkQgATgr7Yc/07OHYY2aXvrCiFhPdJWg5VIjw3L2lMmgDbaLl6IyeX7SM7epSy
62mgpPCduP+g/npBdGmjIzAhMA4GA1UdDwEB/wQEAwIFoDAPBgNVHRMBAf8EBTAD
AgEDMAoGCCqGSM49BAMCA0gAMEUCIQC84NW+ccGydJt+Q3KIHop/csieV8ZI1XtA
Vyx47esluAIgL8dei2mTtOLJh9l2E0r/6CUppGhdWLPhuiA3pmCv0xE=
-----END CERTIFICATE-----
