Certificate:
    Data:
        Version: 3 (0x2)
        Serial Number: 32 (0x20)
        Signature Algorithm: ecdsa-with-SHA256
        Issuer: CN=Regione Abruzzo, C=IT, ST=Italia, O=E-Voting system, OU=E-Voting system authority/emailAddress=Abruzzo@evoting.it
        Validity
            Not Before: Aug  3 13:27:11 2022 GMT
            Not After : Aug  3 13:27:11 2023 GMT
        Subject: CN=Kyle, C=IT, ST=Italia, O=Regione Abruzzo
        Subject Public Key Info:
            Public Key Algorithm: id-ecPublicKey
                Public-Key: (256 bit)
                pub:
                    04:36:00:84:57:29:4b:0f:d7:ba:ec:a3:78:ad:dc:
                    79:a8:6b:5e:5c:2a:4c:a9:1a:47:1a:78:a4:02:b3:
                    bd:59:dc:f8:62:70:e4:2c:22:2c:d4:59:81:56:22:
                    c2:79:ac:f8:1b:f3:ba:ad:4b:06:b5:70:6f:75:45:
                    a6:fc:ba:e3:a6
                ASN1 OID: prime256v1
                NIST CURVE: P-256
        X509v3 extensions:
            X509v3 Key Usage: critical
                Digital Signature, Key Encipherment
            X509v3 Basic Constraints: critical
                CA:FALSE, pathlen:3
    Signature Algorithm: ecdsa-with-SHA256
         30:45:02:20:4b:0f:71:71:59:4d:a5:ce:ba:38:5a:31:a2:bf:
         72:22:9c:eb:15:75:28:a5:90:3f:21:ce:2e:d8:72:0f:8f:cd:
         02:21:00:f0:27:2a:c5:10:a6:28:8f:4e:15:67:d7:52:c8:8e:
         e1:4c:4e:62:62:37:81:53:71:6c:27:55:47:f6:ab:64:c7
-----BEGIN CERTIFICATE-----
MIIB8zCCAZmgAwIBAgIBIDAKBggqhkjOPQQDAjCBmTEYMBYGA1UEAwwPUmVnaW9u
ZSBBYnJ1enpvMQswCQYDVQQGEwJJVDEPMA0GA1UECAwGSXRhbGlhMRgwFgYDVQQK
DA9FLVZvdGluZyBzeXN0ZW0xIjAgBgNVBAsMGUUtVm90aW5nIHN5c3RlbSBhdXRo
b3JpdHkxITAfBgkqhkiG9w0BCQEWEkFicnV6em9AZXZvdGluZy5pdDAeFw0yMjA4
MDMxMzI3MTFaFw0yMzA4MDMxMzI3MTFaMEcxDTALBgNVBAMMBEt5bGUxCzAJBgNV
BAYTAklUMQ8wDQYDVQQIDAZJdGFsaWExGDAWBgNVBAoMD1JlZ2lvbmUgQWJydXp6
bzBZMBMGByqGSM49AgEGCCqGSM49AwEHA0IABDYAhFcpSw/XuuyjeK3ceahrXlwq
TKkaRxp4pAKzvVnc+GJw5CwiLNRZgVYiwnms+Bvzuq1LBrVwb3VFpvy646ajIzAh
MA4GA1UdDwEB/wQEAwIFoDAPBgNVHRMBAf8EBTADAgEDMAoGCCqGSM49BAMCA0gA
MEUCIEsPcXFZTaXOujhaMaK/ciKc6xV1KKWQPyHOLthyD4/NAiEA8CcqxRCmKI9O
FWfXUsiO4UxOYmI3gVNxbCdVR/arZMc=
-----END CERTIFICATE-----
