Certificate:
    Data:
        Version: 3 (0x2)
        Serial Number: 14 (0xe)
        Signature Algorithm: ecdsa-with-SHA256
        Issuer: CN=Regione Marche, C=IT, ST=Italia, O=E-Voting system, OU=E-Voting system authority/emailAddress=Marche@evoting.it
        Validity
            Not Before: Aug 26 15:19:45 2022 GMT
            Not After : Aug 26 15:19:45 2023 GMT
        Subject: CN=Lacey, C=IT, ST=Italia, O=Regione Marche
        Subject Public Key Info:
            Public Key Algorithm: id-ecPublicKey
                Public-Key: (256 bit)
                pub:
                    04:99:2a:28:b1:ef:88:47:8b:b6:e0:b1:48:b1:79:
                    89:c4:6e:b6:b2:79:45:74:89:b9:ef:89:57:cb:8d:
                    f2:f0:90:f2:50:8d:e7:77:7c:ec:38:d2:b9:9f:09:
                    0e:0d:7b:c2:be:22:3e:06:d2:77:ea:ed:f4:a0:97:
                    e5:9c:0b:de:e9
                ASN1 OID: secp256k1
        X509v3 extensions:
            X509v3 Key Usage: critical
                Digital Signature, Key Encipherment
            X509v3 Basic Constraints: critical
                CA:FALSE, pathlen:3
    Signature Algorithm: ecdsa-with-SHA256
         30:46:02:21:00:e5:93:ab:98:c9:8a:16:22:5c:d7:8f:3d:53:
         07:ce:61:c2:7a:08:e8:f4:25:42:ad:ad:05:62:c3:6e:ea:3c:
         b4:02:21:00:8a:cd:bc:b6:05:ca:8a:ef:84:c4:8b:af:05:08:
         53:9a:df:c0:08:18:9e:75:3d:47:e0:6a:30:da:5f:3a:f7:b2
-----BEGIN CERTIFICATE-----
MIIB7zCCAZSgAwIBAgIBDjAKBggqhkjOPQQDAjCBlzEXMBUGA1UEAwwOUmVnaW9u
ZSBNYXJjaGUxCzAJBgNVBAYTAklUMQ8wDQYDVQQIDAZJdGFsaWExGDAWBgNVBAoM
D0UtVm90aW5nIHN5c3RlbTEiMCAGA1UECwwZRS1Wb3Rpbmcgc3lzdGVtIGF1dGhv
cml0eTEgMB4GCSqGSIb3DQEJARYRTWFyY2hlQGV2b3RpbmcuaXQwHhcNMjIwODI2
MTUxOTQ1WhcNMjMwODI2MTUxOTQ1WjBHMQ4wDAYDVQQDDAVMYWNleTELMAkGA1UE
BhMCSVQxDzANBgNVBAgMBkl0YWxpYTEXMBUGA1UECgwOUmVnaW9uZSBNYXJjaGUw
VjAQBgcqhkjOPQIBBgUrgQQACgNCAASZKiix74hHi7bgsUixeYnEbrayeUV0ibnv
iVfLjfLwkPJQjed3fOw40rmfCQ4Ne8K+Ij4G0nfq7fSgl+WcC97poyMwITAOBgNV
HQ8BAf8EBAMCBaAwDwYDVR0TAQH/BAUwAwIBAzAKBggqhkjOPQQDAgNJADBGAiEA
5ZOrmMmKFiJc1489UwfOYcJ6COj0JUKtrQViw27qPLQCIQCKzby2BcqK74TEi68F
CFOa38AIGJ51PUfgajDaXzr3sg==
-----END CERTIFICATE-----
