Certificate:
    Data:
        Version: 3 (0x2)
        Serial Number: 9 (0x9)
        Signature Algorithm: ecdsa-with-SHA256
        Issuer: CN=Regione Molise, C=IT, ST=Italia, O=E-Voting system, OU=E-Voting system authority/emailAddress=Molise@evoting.it
        Validity
            Not Before: Aug  3 13:26:01 2022 GMT
            Not After : Aug  3 13:26:01 2023 GMT
        Subject: CN=Lacey, C=IT, ST=Italia, O=Regione Molise
        Subject Public Key Info:
            Public Key Algorithm: id-ecPublicKey
                Public-Key: (256 bit)
                pub:
                    04:16:36:ab:72:64:da:38:04:a1:d4:01:5c:1f:65:
                    62:1e:4a:d0:1c:3b:00:84:0d:99:88:40:d6:14:3f:
                    78:ef:42:83:f3:31:96:e9:4e:db:19:c2:46:1c:26:
                    31:69:91:8c:ba:e0:a2:fc:ca:a1:2a:38:9c:7b:bc:
                    06:18:b8:79:ff
                ASN1 OID: prime256v1
                NIST CURVE: P-256
        X509v3 extensions:
            X509v3 Key Usage: critical
                Digital Signature, Key Encipherment
            X509v3 Basic Constraints: critical
                CA:FALSE, pathlen:3
    Signature Algorithm: ecdsa-with-SHA256
         30:45:02:21:00:d7:7e:f7:62:a4:28:61:16:df:2e:8e:62:4b:
         ce:e6:c9:37:67:14:3f:22:9d:c7:07:32:12:04:49:d1:f2:2c:
         d2:02:20:4e:bf:ba:97:62:59:83:bf:2d:29:05:63:36:5a:37:
         48:10:76:2e:f3:27:c9:f0:6c:60:38:46:95:76:7b:62:36
-----BEGIN CERTIFICATE-----
MIIB8TCCAZegAwIBAgIBCTAKBggqhkjOPQQDAjCBlzEXMBUGA1UEAwwOUmVnaW9u
ZSBNb2xpc2UxCzAJBgNVBAYTAklUMQ8wDQYDVQQIDAZJdGFsaWExGDAWBgNVBAoM
D0UtVm90aW5nIHN5c3RlbTEiMCAGA1UECwwZRS1Wb3Rpbmcgc3lzdGVtIGF1dGhv
cml0eTEgMB4GCSqGSIb3DQEJARYRTW9saXNlQGV2b3RpbmcuaXQwHhcNMjIwODAz
MTMyNjAxWhcNMjMwODAzMTMyNjAxWjBHMQ4wDAYDVQQDDAVMYWNleTELMAkGA1UE
BhMCSVQxDzANBgNVBAgMBkl0YWxpYTEXMBUGA1UECgwOUmVnaW9uZSBNb2xpc2Uw
WTATBgcqhkjOPQIBBggqhkjOPQMBBwNCAAQWNqtyZNo4BKHUAVwfZWIeStAcOwCE
DZmIQNYUP3jvQoPzMZbpTtsZwkYcJjFpkYy64KL8yqEqOJx7vAYYuHn/oyMwITAO
BgNVHQ8BAf8EBAMCBaAwDwYDVR0TAQH/BAUwAwIBAzAKBggqhkjOPQQDAgNIADBF
AiEA1373YqQoYRbfLo5iS87myTdnFD8inccHMhIESdHyLNICIE6/updiWYO/LSkF
YzZaN0gQdi7zJ8nwbGA4RpV2e2I2
-----END CERTIFICATE-----
