Certificate:
    Data:
        Version: 3 (0x2)
        Serial Number: 38 (0x26)
        Signature Algorithm: ecdsa-with-SHA256
        Issuer: CN=Regione Molise, C=IT, ST=Italia, O=E-Voting system, OU=E-Voting system authority/emailAddress=Molise@evoting.it
        Validity
            Not Before: Aug  3 13:27:52 2022 GMT
            Not After : Aug  3 13:27:52 2023 GMT
        Subject: CN=Lacy, C=IT, ST=Italia, O=Regione Molise
        Subject Public Key Info:
            Public Key Algorithm: id-ecPublicKey
                Public-Key: (256 bit)
                pub:
                    04:a9:e8:c6:a3:49:0c:21:32:f9:0b:e2:ce:f2:c9:
                    53:3e:a4:82:d5:79:02:65:38:5e:b1:c7:01:e2:4f:
                    c2:c2:2a:83:e0:00:5c:85:ae:b4:15:21:51:90:14:
                    d4:4a:cc:aa:5c:e1:9a:03:c3:b0:ad:92:4d:45:29:
                    7d:12:f4:29:e4
                ASN1 OID: prime256v1
                NIST CURVE: P-256
        X509v3 extensions:
            X509v3 Key Usage: critical
                Digital Signature, Key Encipherment
            X509v3 Basic Constraints: critical
                CA:FALSE, pathlen:3
    Signature Algorithm: ecdsa-with-SHA256
         30:45:02:20:20:ba:e7:26:cf:93:54:00:28:8a:91:53:d1:dd:
         6d:83:3d:3e:bc:f8:43:ac:07:4b:c4:23:aa:68:2d:88:26:13:
         02:21:00:b1:85:d3:37:33:1b:71:84:09:b4:eb:b8:e6:2a:ff:
         4d:38:ec:42:4a:4b:f0:93:8f:0a:2c:62:5b:e7:7d:55:84
-----BEGIN CERTIFICATE-----
MIIB8DCCAZagAwIBAgIBJjAKBggqhkjOPQQDAjCBlzEXMBUGA1UEAwwOUmVnaW9u
ZSBNb2xpc2UxCzAJBgNVBAYTAklUMQ8wDQYDVQQIDAZJdGFsaWExGDAWBgNVBAoM
D0UtVm90aW5nIHN5c3RlbTEiMCAGA1UECwwZRS1Wb3Rpbmcgc3lzdGVtIGF1dGhv
cml0eTEgMB4GCSqGSIb3DQEJARYRTW9saXNlQGV2b3RpbmcuaXQwHhcNMjIwODAz
MTMyNzUyWhcNMjMwODAzMTMyNzUyWjBGMQ0wCwYDVQQDDARMYWN5MQswCQYDVQQG
EwJJVDEPMA0GA1UECAwGSXRhbGlhMRcwFQYDVQQKDA5SZWdpb25lIE1vbGlzZTBZ
MBMGByqGSM49AgEGCCqGSM49AwEHA0IABKnoxqNJDCEy+QvizvLJUz6kgtV5AmU4
XrHHAeJPwsIqg+AAXIWutBUhUZAU1ErMqlzhmgPDsK2STUUpfRL0KeSjIzAhMA4G
A1UdDwEB/wQEAwIFoDAPBgNVHRMBAf8EBTADAgEDMAoGCCqGSM49BAMCA0gAMEUC
ICC65ybPk1QAKIqRU9HdbYM9Prz4Q6wHS8QjqmgtiCYTAiEAsYXTNzMbcYQJtOu4
5ir/TTjsQkpL8JOPCixiW+d9VYQ=
-----END CERTIFICATE-----
