Certificate:
    Data:
        Version: 3 (0x2)
        Serial Number: 27 (0x1b)
        Signature Algorithm: ecdsa-with-SHA256
        Issuer: CN=Regione Friuli_Venezia_Giulia, C=IT, ST=Italia, O=E-Voting system, OU=E-Voting system authority/emailAddress=Friuli_Venezia_Giulia@evoting.it
        Validity
            Not Before: Aug 26 15:20:41 2022 GMT
            Not After : Aug 26 15:20:41 2023 GMT
        Subject: CN=Lacy, C=IT, ST=Italia, O=Regione Friuli_Venezia_Giulia
        Subject Public Key Info:
            Public Key Algorithm: id-ecPublicKey
                Public-Key: (256 bit)
                pub:
                    04:f6:40:70:43:83:cf:64:d1:e4:c6:da:33:5b:09:
                    23:4f:17:f5:1e:3e:84:0b:d4:5a:e1:73:70:f6:2a:
                    94:47:51:d3:2e:c6:49:19:9b:d5:c3:a7:4d:fd:cf:
                    50:d3:c0:9c:a5:3a:5a:4b:e7:36:dd:ad:d2:99:5e:
                    65:65:1a:24:3a
                ASN1 OID: secp256k1
        X509v3 extensions:
            X509v3 Key Usage: critical
                Digital Signature, Key Encipherment
            X509v3 Basic Constraints: critical
                CA:FALSE, pathlen:3
    Signature Algorithm: ecdsa-with-SHA256
         30:44:02:20:27:79:45:de:d3:7d:ad:8c:16:a4:34:bb:0c:ea:
         1b:21:f8:2c:0f:57:56:91:f6:df:8f:0b:28:24:c0:6e:90:e2:
         02:20:59:22:0e:73:c3:6c:f0:0d:03:df:89:6d:62:19:78:68:
         0a:22:41:86:a4:b1:e1:69:36:c3:a8:53:c8:e1:c5:04
-----BEGIN CERTIFICATE-----
MIICGTCCAcCgAwIBAgIBGzAKBggqhkjOPQQDAjCBtTEmMCQGA1UEAwwdUmVnaW9u
ZSBGcml1bGlfVmVuZXppYV9HaXVsaWExCzAJBgNVBAYTAklUMQ8wDQYDVQQIDAZJ
dGFsaWExGDAWBgNVBAoMD0UtVm90aW5nIHN5c3RlbTEiMCAGA1UECwwZRS1Wb3Rp
bmcgc3lzdGVtIGF1dGhvcml0eTEvMC0GCSqGSIb3DQEJARYgRnJpdWxpX1ZlbmV6
aWFfR2l1bGlhQGV2b3RpbmcuaXQwHhcNMjIwODI2MTUyMDQxWhcNMjMwODI2MTUy
MDQxWjBVMQ0wCwYDVQQDDARMYWN5MQswCQYDVQQGEwJJVDEPMA0GA1UECAwGSXRh
bGlhMSYwJAYDVQQKDB1SZWdpb25lIEZyaXVsaV9WZW5lemlhX0dpdWxpYTBWMBAG
ByqGSM49AgEGBSuBBAAKA0IABPZAcEODz2TR5MbaM1sJI08X9R4+hAvUWuFzcPYq
lEdR0y7GSRmb1cOnTf3PUNPAnKU6WkvnNt2t0pleZWUaJDqjIzAhMA4GA1UdDwEB
/wQEAwIFoDAPBgNVHRMBAf8EBTADAgEDMAoGCCqGSM49BAMCA0cAMEQCICd5Rd7T
fa2MFqQ0uwzqGyH4LA9XVpH2348LKCTAbpDiAiBZIg5zw2zwDQPfiW1iGXhoCiJB
hqSx4Wk2w6hTyOHFBA==
-----END CERTIFICATE-----
