Certificate:
    Data:
        Version: 3 (0x2)
        Serial Number: 10 (0xa)
        Signature Algorithm: ecdsa-with-SHA256
        Issuer: CN=Regione Piemonte, C=IT, ST=Italia, O=E-Voting system, OU=E-Voting system authority/emailAddress=Piemonte@evoting.it
        Validity
            Not Before: Aug  3 13:26:01 2022 GMT
            Not After : Aug  3 13:26:01 2023 GMT
        Subject: CN=Lakisha, C=IT, ST=Italia, O=Regione Piemonte
        Subject Public Key Info:
            Public Key Algorithm: id-ecPublicKey
                Public-Key: (256 bit)
                pub:
                    04:f6:32:61:fb:85:23:4c:c9:95:80:f9:f6:66:e4:
                    40:88:77:5f:6d:a5:16:ff:5b:63:dc:70:8f:93:fb:
                    10:4a:57:f6:5d:20:d4:74:77:7a:04:f5:bc:cd:c4:
                    ed:f8:16:f7:2c:d7:ca:ca:e2:a8:d3:f9:b7:f0:a9:
                    e3:de:f0:e3:8f
                ASN1 OID: prime256v1
                NIST CURVE: P-256
        X509v3 extensions:
            X509v3 Key Usage: critical
                Digital Signature, Key Encipherment
            X509v3 Basic Constraints: critical
                CA:FALSE, pathlen:3
    Signature Algorithm: ecdsa-with-SHA256
         30:46:02:21:00:a8:c9:15:99:48:b6:d5:0b:81:c1:28:39:58:
         9d:91:d0:86:b5:17:3b:e0:fd:ea:5f:fc:77:c1:0c:c5:2f:6f:
         ba:02:21:00:94:f8:22:98:60:76:e3:b9:2c:8d:c7:ba:07:b6:
         5e:76:77:22:89:79:95:8d:f8:e2:14:d1:e7:32:d2:50:04:71
-----BEGIN CERTIFICATE-----
MIIB+jCCAZ+gAwIBAgIBCjAKBggqhkjOPQQDAjCBmzEZMBcGA1UEAwwQUmVnaW9u
ZSBQaWVtb250ZTELMAkGA1UEBhMCSVQxDzANBgNVBAgMBkl0YWxpYTEYMBYGA1UE
CgwPRS1Wb3Rpbmcgc3lzdGVtMSIwIAYDVQQLDBlFLVZvdGluZyBzeXN0ZW0gYXV0
aG9yaXR5MSIwIAYJKoZIhvcNAQkBFhNQaWVtb250ZUBldm90aW5nLml0MB4XDTIy
MDgwMzEzMjYwMVoXDTIzMDgwMzEzMjYwMVowSzEQMA4GA1UEAwwHTGFraXNoYTEL
MAkGA1UEBhMCSVQxDzANBgNVBAgMBkl0YWxpYTEZMBcGA1UECgwQUmVnaW9uZSBQ
aWVtb250ZTBZMBMGByqGSM49AgEGCCqGSM49AwEHA0IABPYyYfuFI0zJlYD59mbk
QIh3X22lFv9bY9xwj5P7EEpX9l0g1HR3egT1vM3E7fgW9yzXysriqNP5t/Cp497w
44+jIzAhMA4GA1UdDwEB/wQEAwIFoDAPBgNVHRMBAf8EBTADAgEDMAoGCCqGSM49
BAMCA0kAMEYCIQCoyRWZSLbVC4HBKDlYnZHQhrUXO+D96l/8d8EMxS9vugIhAJT4
IphgduO5LI3Huge2XnZ3Iol5lY344hTR5zLSUARx
-----END CERTIFICATE-----
