Certificate:
    Data:
        Version: 3 (0x2)
        Serial Number: 15 (0xf)
        Signature Algorithm: ecdsa-with-SHA256
        Issuer: CN=Regione Calabria, C=IT, ST=Italia, O=E-Voting system, OU=E-Voting system authority/emailAddress=Calabria@evoting.it
        Validity
            Not Before: Aug 26 15:19:30 2022 GMT
            Not After : Aug 26 15:19:30 2023 GMT
        Subject: CN=Lance, C=IT, ST=Italia, O=Regione Calabria
        Subject Public Key Info:
            Public Key Algorithm: id-ecPublicKey
                Public-Key: (256 bit)
                pub:
                    04:76:94:9a:22:36:dc:e8:b0:c5:e6:85:4d:61:d8:
                    03:c1:6f:53:07:f7:db:70:f9:a2:ac:aa:4d:cb:f1:
                    fb:a2:55:5e:5e:6e:66:84:2d:68:16:5d:f8:59:09:
                    52:ef:7e:f6:4d:c2:41:eb:6b:16:5e:a3:54:54:7f:
                    3b:71:a7:6a:b9
                ASN1 OID: secp256k1
        X509v3 extensions:
            X509v3 Key Usage: critical
                Digital Signature, Key Encipherment
            X509v3 Basic Constraints: critical
                CA:FALSE, pathlen:3
    Signature Algorithm: ecdsa-with-SHA256
         30:46:02:21:00:e3:45:e6:4c:cb:6e:f3:68:f4:8c:f3:4b:d9:
         e3:e4:cf:96:91:91:04:bd:b7:90:69:70:03:ce:76:e9:45:43:
         20:02:21:00:a5:a0:1c:89:2e:fa:fb:0e:94:66:be:d7:cc:ce:
         c8:14:0e:e4:52:d5:24:19:21:68:5b:3a:2b:2d:51:98:30:b7
-----BEGIN CERTIFICATE-----
MIIB9TCCAZqgAwIBAgIBDzAKBggqhkjOPQQDAjCBmzEZMBcGA1UEAwwQUmVnaW9u
ZSBDYWxhYnJpYTELMAkGA1UEBhMCSVQxDzANBgNVBAgMBkl0YWxpYTEYMBYGA1UE
CgwPRS1Wb3Rpbmcgc3lzdGVtMSIwIAYDVQQLDBlFLVZvdGluZyBzeXN0ZW0gYXV0
aG9yaXR5MSIwIAYJKoZIhvcNAQkBFhNDYWxhYnJpYUBldm90aW5nLml0MB4XDTIy
MDgyNjE1MTkzMFoXDTIzMDgyNjE1MTkzMFowSTEOMAwGA1UEAwwFTGFuY2UxCzAJ
BgNVBAYTAklUMQ8wDQYDVQQIDAZJdGFsaWExGTAXBgNVBAoMEFJlZ2lvbmUgQ2Fs
YWJyaWEwVjAQBgcqhkjOPQIBBgUrgQQACgNCAAR2lJoiNtzosMXmhU1h2APBb1MH
99tw+aKsqk3L8fuiVV5ebmaELWgWXfhZCVLvfvZNwkHraxZeo1RUfztxp2q5oyMw
ITAOBgNVHQ8BAf8EBAMCBaAwDwYDVR0TAQH/BAUwAwIBAzAKBggqhkjOPQQDAgNJ
ADBGAiEA40XmTMtu82j0jPNL2ePkz5aRkQS9t5BpcAPOdulFQyACIQCloByJLvr7
DpRmvtfMzsgUDuRS1SQZIWhbOistUZgwtw==
-----END CERTIFICATE-----
