Certificate:
    Data:
        Version: 3 (0x2)
        Serial Number: 20 (0x14)
        Signature Algorithm: ecdsa-with-SHA256
        Issuer: CN=Regione Puglia, C=IT, ST=Italia, O=E-Voting system, OU=E-Voting system authority/emailAddress=Puglia@evoting.it
        Validity
            Not Before: Aug  3 13:26:57 2022 GMT
            Not After : Aug  3 13:26:57 2023 GMT
        Subject: CN=Larry, C=IT, ST=Italia, O=Regione Puglia
        Subject Public Key Info:
            Public Key Algorithm: id-ecPublicKey
                Public-Key: (256 bit)
                pub:
                    04:d9:db:a8:21:fb:af:2d:ad:64:10:26:3b:c2:d2:
                    92:2d:3a:51:e5:4d:3e:62:f6:58:8b:a7:4f:0f:59:
                    36:99:c0:2b:6f:63:46:1d:d3:52:a4:16:e6:4d:92:
                    b9:ac:82:ef:d6:97:6f:96:ed:8e:26:86:51:6d:e3:
                    b7:fd:0a:72:92
                ASN1 OID: prime256v1
                NIST CURVE: P-256
        X509v3 extensions:
            X509v3 Key Usage: critical
                Digital Signature, Key Encipherment
            X509v3 Basic Constraints: critical
                CA:FALSE, pathlen:3
    Signature Algorithm: ecdsa-with-SHA256
         30:45:02:21:00:e9:7c:f3:31:7f:01:56:f6:d3:ca:fb:b7:32:
         e5:24:fa:6c:09:f6:46:07:dd:8f:09:95:df:b7:e3:3e:ef:4d:
         cc:02:20:0e:09:cf:bf:db:28:0c:bb:b5:0c:1d:b6:4a:b4:31:
         c8:d4:df:14:10:95:82:de:f2:37:90:61:12:dc:c5:4e:d1
-----BEGIN CERTIFICATE-----
MIIB8TCCAZegAwIBAgIBFDAKBggqhkjOPQQDAjCBlzEXMBUGA1UEAwwOUmVnaW9u
ZSBQdWdsaWExCzAJBgNVBAYTAklUMQ8wDQYDVQQIDAZJdGFsaWExGDAWBgNVBAoM
D0UtVm90aW5nIHN5c3RlbTEiMCAGA1UECwwZRS1Wb3Rpbmcgc3lzdGVtIGF1dGhv
cml0eTEgMB4GCSqGSIb3DQEJARYRUHVnbGlhQGV2b3RpbmcuaXQwHhcNMjIwODAz
MTMyNjU3WhcNMjMwODAzMTMyNjU3WjBHMQ4wDAYDVQQDDAVMYXJyeTELMAkGA1UE
BhMCSVQxDzANBgNVBAgMBkl0YWxpYTEXMBUGA1UECgwOUmVnaW9uZSBQdWdsaWEw
WTATBgcqhkjOPQIBBggqhkjOPQMBBwNCAATZ26gh+68trWQQJjvC0pItOlHlTT5i
9liLp08PWTaZwCtvY0Yd01KkFuZNkrmsgu/Wl2+W7Y4mhlFt47f9CnKSoyMwITAO
BgNVHQ8BAf8EBAMCBaAwDwYDVR0TAQH/BAUwAwIBAzAKBggqhkjOPQQDAgNIADBF
AiEA6XzzMX8BVvbTyvu3MuUk+mwJ9kYH3Y8Jld+34z7vTcwCIA4Jz7/bKAy7tQwd
tkq0McjU3xQQlYLe8jeQYRLcxU7R
-----END CERTIFICATE-----
