Certificate:
    Data:
        Version: 3 (0x2)
        Serial Number: 15 (0xf)
        Signature Algorithm: ecdsa-with-SHA256
        Issuer: CN=Regione Sardegna, C=IT, ST=Italia, O=E-Voting system, OU=E-Voting system authority/emailAddress=Sardegna@evoting.it
        Validity
            Not Before: Aug 26 15:19:41 2022 GMT
            Not After : Aug 26 15:19:41 2023 GMT
        Subject: CN=Larry, C=IT, ST=Italia, O=Regione Sardegna
        Subject Public Key Info:
            Public Key Algorithm: id-ecPublicKey
                Public-Key: (256 bit)
                pub:
                    04:bf:2f:03:0b:5b:f7:d0:30:df:03:49:31:f0:26:
                    8e:5c:03:bf:49:7a:8c:aa:82:f9:72:92:f1:9d:fc:
                    a6:11:45:e2:da:84:08:40:c3:02:43:28:30:47:bf:
                    ea:f1:99:9b:2c:b0:6e:13:0a:93:25:06:e9:49:ef:
                    7d:d0:e8:f9:c1
                ASN1 OID: secp256k1
        X509v3 extensions:
            X509v3 Key Usage: critical
                Digital Signature, Key Encipherment
            X509v3 Basic Constraints: critical
                CA:FALSE, pathlen:3
    Signature Algorithm: ecdsa-with-SHA256
         30:46:02:21:00:a8:44:e8:48:05:44:17:c7:eb:21:75:41:60:
         2f:db:a5:41:78:47:27:af:ac:17:57:94:9a:ae:e5:01:53:5a:
         5d:02:21:00:da:42:4a:74:14:b1:44:97:ca:09:90:9d:84:b5:
         23:46:f7:ee:32:a7:6a:86:cd:45:2b:01:4d:9f:a4:37:09:29
-----BEGIN CERTIFICATE-----
MIIB9TCCAZqgAwIBAgIBDzAKBggqhkjOPQQDAjCBmzEZMBcGA1UEAwwQUmVnaW9u
ZSBTYXJkZWduYTELMAkGA1UEBhMCSVQxDzANBgNVBAgMBkl0YWxpYTEYMBYGA1UE
CgwPRS1Wb3Rpbmcgc3lzdGVtMSIwIAYDVQQLDBlFLVZvdGluZyBzeXN0ZW0gYXV0
aG9yaXR5MSIwIAYJKoZIhvcNAQkBFhNTYXJkZWduYUBldm90aW5nLml0MB4XDTIy
MDgyNjE1MTk0MVoXDTIzMDgyNjE1MTk0MVowSTEOMAwGA1UEAwwFTGFycnkxCzAJ
BgNVBAYTAklUMQ8wDQYDVQQIDAZJdGFsaWExGTAXBgNVBAoMEFJlZ2lvbmUgU2Fy
ZGVnbmEwVjAQBgcqhkjOPQIBBgUrgQQACgNCAAS/LwMLW/fQMN8DSTHwJo5cA79J
eoyqgvlykvGd/KYRReLahAhAwwJDKDBHv+rxmZsssG4TCpMlBulJ733Q6PnBoyMw
ITAOBgNVHQ8BAf8EBAMCBaAwDwYDVR0TAQH/BAUwAwIBAzAKBggqhkjOPQQDAgNJ
ADBGAiEAqEToSAVEF8frIXVBYC/bpUF4RyevrBdXlJqu5QFTWl0CIQDaQkp0FLFE
l8oJkJ2EtSNG9+4yp2qGzUUrAU2fpDcJKQ==
-----END CERTIFICATE-----
