Certificate:
    Data:
        Version: 3 (0x2)
        Serial Number: 7 (0x7)
        Signature Algorithm: ecdsa-with-SHA256
        Issuer: CN=Regione Lazio, C=IT, ST=Italia, O=E-Voting system, OU=E-Voting system authority/emailAddress=Lazio@evoting.it
        Validity
            Not Before: Aug 26 15:18:52 2022 GMT
            Not After : Aug 26 15:18:52 2023 GMT
        Subject: CN=Laurie, C=IT, ST=Italia, O=Regione Lazio
        Subject Public Key Info:
            Public Key Algorithm: id-ecPublicKey
                Public-Key: (256 bit)
                pub:
                    04:97:5b:4d:8e:9a:23:1a:7e:15:bd:0c:98:68:84:
                    f9:93:03:fd:c4:d4:bd:e2:77:c0:c3:88:c1:19:94:
                    de:50:69:b2:d8:44:6e:4a:2d:c3:eb:47:b8:d8:8b:
                    a9:ee:ef:ee:ac:13:92:df:c4:c4:99:0d:25:7c:7b:
                    48:a3:1d:03:19
                ASN1 OID: secp256k1
        X509v3 extensions:
            X509v3 Key Usage: critical
                Digital Signature, Key Encipherment
            X509v3 Basic Constraints: critical
                CA:FALSE, pathlen:3
    Signature Algorithm: ecdsa-with-SHA256
         30:44:02:20:67:f9:fb:dd:2c:ed:4a:1e:aa:df:9d:16:73:ea:
         f8:41:bc:a9:4d:ed:14:ae:ab:b9:f8:c8:37:fa:d0:2b:10:a3:
         02:20:38:00:17:29:d0:f6:9b:75:a4:c9:10:85:e3:2d:3b:b1:
         74:c7:2e:4b:fe:28:01:10:a2:b2:fa:9d:15:2c:3a:50
-----BEGIN CERTIFICATE-----
MIIB6zCCAZKgAwIBAgIBBzAKBggqhkjOPQQDAjCBlTEWMBQGA1UEAwwNUmVnaW9u
ZSBMYXppbzELMAkGA1UEBhMCSVQxDzANBgNVBAgMBkl0YWxpYTEYMBYGA1UECgwP
RS1Wb3Rpbmcgc3lzdGVtMSIwIAYDVQQLDBlFLVZvdGluZyBzeXN0ZW0gYXV0aG9y
aXR5MR8wHQYJKoZIhvcNAQkBFhBMYXppb0Bldm90aW5nLml0MB4XDTIyMDgyNjE1
MTg1MloXDTIzMDgyNjE1MTg1MlowRzEPMA0GA1UEAwwGTGF1cmllMQswCQYDVQQG
EwJJVDEPMA0GA1UECAwGSXRhbGlhMRYwFAYDVQQKDA1SZWdpb25lIExhemlvMFYw
EAYHKoZIzj0CAQYFK4EEAAoDQgAEl1tNjpojGn4VvQyYaIT5kwP9xNS94nfAw4jB
GZTeUGmy2ERuSi3D60e42Iup7u/urBOS38TEmQ0lfHtIox0DGaMjMCEwDgYDVR0P
AQH/BAQDAgWgMA8GA1UdEwEB/wQFMAMCAQMwCgYIKoZIzj0EAwIDRwAwRAIgZ/n7
3SztSh6q350Wc+r4QbypTe0Urqu5+Mg3+tArEKMCIDgAFynQ9pt1pMkQheMtO7F0
xy5L/igBEKKy+p0VLDpQ
-----END CERTIFICATE-----
