Certificate:
    Data:
        Version: 3 (0x2)
        Serial Number: 5 (0x5)
        Signature Algorithm: ecdsa-with-SHA256
        Issuer: CN=Regione Piemonte, C=IT, ST=Italia, O=E-Voting system, OU=E-Voting system authority/emailAddress=Piemonte@evoting.it
        Validity
            Not Before: Aug  3 13:25:46 2022 GMT
            Not After : Aug  3 13:25:46 2023 GMT
        Subject: CN=Lauren, C=IT, ST=Italia, O=Regione Piemonte
        Subject Public Key Info:
            Public Key Algorithm: id-ecPublicKey
                Public-Key: (256 bit)
                pub:
                    04:65:ab:0d:02:a8:95:b9:08:38:49:93:1f:fd:2b:
                    bd:f1:a0:b7:4e:df:5e:58:cf:99:8a:48:01:e5:fb:
                    57:54:dd:ee:c7:0b:f3:47:e2:42:c9:54:41:ee:b2:
                    e4:1d:52:15:e4:d2:3a:56:80:f6:0d:8a:8f:ff:60:
                    64:ea:5f:a0:b8
                ASN1 OID: prime256v1
                NIST CURVE: P-256
        X509v3 extensions:
            X509v3 Key Usage: critical
                Digital Signature, Key Encipherment
            X509v3 Basic Constraints: critical
                CA:FALSE, pathlen:3
    Signature Algorithm: ecdsa-with-SHA256
         30:45:02:20:7d:75:5e:1f:eb:36:69:81:d5:20:d2:7e:cd:28:
         11:21:2d:92:90:72:4e:e6:42:86:f9:e0:dc:70:a8:e4:4a:82:
         02:21:00:ea:cd:6d:19:35:0a:91:f7:6b:39:8d:e1:76:bf:2f:
         96:1f:85:1f:a6:66:4f:d7:0c:4b:f3:d0:84:86:ea:8e:51
-----BEGIN CERTIFICATE-----
MIIB+DCCAZ6gAwIBAgIBBTAKBggqhkjOPQQDAjCBmzEZMBcGA1UEAwwQUmVnaW9u
ZSBQaWVtb250ZTELMAkGA1UEBhMCSVQxDzANBgNVBAgMBkl0YWxpYTEYMBYGA1UE
CgwPRS1Wb3Rpbmcgc3lzdGVtMSIwIAYDVQQLDBlFLVZvdGluZyBzeXN0ZW0gYXV0
aG9yaXR5MSIwIAYJKoZIhvcNAQkBFhNQaWVtb250ZUBldm90aW5nLml0MB4XDTIy
MDgwMzEzMjU0NloXDTIzMDgwMzEzMjU0NlowSjEPMA0GA1UEAwwGTGF1cmVuMQsw
CQYDVQQGEwJJVDEPMA0GA1UECAwGSXRhbGlhMRkwFwYDVQQKDBBSZWdpb25lIFBp
ZW1vbnRlMFkwEwYHKoZIzj0CAQYIKoZIzj0DAQcDQgAEZasNAqiVuQg4SZMf/Su9
8aC3Tt9eWM+ZikgB5ftXVN3uxwvzR+JCyVRB7rLkHVIV5NI6VoD2DYqP/2Bk6l+g
uKMjMCEwDgYDVR0PAQH/BAQDAgWgMA8GA1UdEwEB/wQFMAMCAQMwCgYIKoZIzj0E
AwIDSAAwRQIgfXVeH+s2aYHVINJ+zSgRIS2SkHJO5kKG+eDccKjkSoICIQDqzW0Z
NQqR92s5jeF2vy+WH4UfpmZP1wxL89CEhuqOUQ==
-----END CERTIFICATE-----
