Certificate:
    Data:
        Version: 3 (0x2)
        Serial Number: 13 (0xd)
        Signature Algorithm: ecdsa-with-SHA256
        Issuer: CN=Regione Veneto, C=IT, ST=Italia, O=E-Voting system, OU=E-Voting system authority/emailAddress=Veneto@evoting.it
        Validity
            Not Before: Aug 26 15:20:17 2022 GMT
            Not After : Aug 26 15:20:17 2023 GMT
        Subject: CN=Lauren, C=IT, ST=Italia, O=Regione Veneto
        Subject Public Key Info:
            Public Key Algorithm: id-ecPublicKey
                Public-Key: (256 bit)
                pub:
                    04:fd:d9:24:0a:e2:2f:bf:98:6a:0d:7a:7b:95:8e:
                    06:49:4a:51:d7:77:3f:c2:b9:1f:f1:68:bf:28:10:
                    1a:79:28:e6:4c:6a:d3:3c:10:ac:ec:a5:13:52:5c:
                    3d:19:ea:d0:88:43:b4:40:27:66:37:91:11:5a:ab:
                    73:28:a5:ae:05
                ASN1 OID: secp256k1
        X509v3 extensions:
            X509v3 Key Usage: critical
                Digital Signature, Key Encipherment
            X509v3 Basic Constraints: critical
                CA:FALSE, pathlen:3
    Signature Algorithm: ecdsa-with-SHA256
         30:46:02:21:00:f0:90:82:6b:06:5f:a9:39:9b:b7:44:35:0b:
         63:02:26:6a:2e:7f:84:2a:71:f7:9a:cc:53:ec:a3:f4:78:6a:
         b8:02:21:00:b9:c7:86:cd:1d:7c:ce:7a:e9:06:03:c7:8d:81:
         8a:eb:00:71:32:b9:aa:66:2d:f2:9d:27:76:63:3b:34:0d:7d
-----BEGIN CERTIFICATE-----
MIIB8DCCAZWgAwIBAgIBDTAKBggqhkjOPQQDAjCBlzEXMBUGA1UEAwwOUmVnaW9u
ZSBWZW5ldG8xCzAJBgNVBAYTAklUMQ8wDQYDVQQIDAZJdGFsaWExGDAWBgNVBAoM
D0UtVm90aW5nIHN5c3RlbTEiMCAGA1UECwwZRS1Wb3Rpbmcgc3lzdGVtIGF1dGhv
cml0eTEgMB4GCSqGSIb3DQEJARYRVmVuZXRvQGV2b3RpbmcuaXQwHhcNMjIwODI2
MTUyMDE3WhcNMjMwODI2MTUyMDE3WjBIMQ8wDQYDVQQDDAZMYXVyZW4xCzAJBgNV
BAYTAklUMQ8wDQYDVQQIDAZJdGFsaWExFzAVBgNVBAoMDlJlZ2lvbmUgVmVuZXRv
MFYwEAYHKoZIzj0CAQYFK4EEAAoDQgAE/dkkCuIvv5hqDXp7lY4GSUpR13c/wrkf
8Wi/KBAaeSjmTGrTPBCs7KUTUlw9GerQiEO0QCdmN5ERWqtzKKWuBaMjMCEwDgYD
VR0PAQH/BAQDAgWgMA8GA1UdEwEB/wQFMAMCAQMwCgYIKoZIzj0EAwIDSQAwRgIh
APCQgmsGX6k5m7dENQtjAiZqLn+EKnH3msxT7KP0eGq4AiEAuceGzR18znrpBgPH
jYGK6wBxMrmqZi3ynSd2Yzs0DX0=
-----END CERTIFICATE-----
