Certificate:
    Data:
        Version: 3 (0x2)
        Serial Number: 26 (0x1a)
        Signature Algorithm: ecdsa-with-SHA256
        Issuer: CN=Regione Emilia_Romagna, C=IT, ST=Italia, O=E-Voting system, OU=E-Voting system authority/emailAddress=Emilia_Romagna@evoting.it
        Validity
            Not Before: Aug 26 15:20:02 2022 GMT
            Not After : Aug 26 15:20:02 2023 GMT
        Subject: CN=Laverne, C=IT, ST=Italia, O=Regione Emilia_Romagna
        Subject Public Key Info:
            Public Key Algorithm: id-ecPublicKey
                Public-Key: (256 bit)
                pub:
                    04:55:3e:36:2c:f0:71:a6:fc:f5:9b:65:24:12:66:
                    0a:13:be:49:95:9a:25:16:e0:39:30:4f:97:97:9f:
                    18:9b:15:14:00:49:4d:b5:ea:65:b0:ad:3f:30:4d:
                    19:38:e6:f0:54:d9:2b:af:5f:4a:e0:46:2d:68:6e:
                    4b:7b:95:bf:c5
                ASN1 OID: secp256k1
        X509v3 extensions:
            X509v3 Key Usage: critical
                Digital Signature, Key Encipherment
            X509v3 Basic Constraints: critical
                CA:FALSE, pathlen:3
    Signature Algorithm: ecdsa-with-SHA256
         30:44:02:20:2b:ce:25:75:77:b3:8f:e7:9b:05:38:c1:37:bd:
         30:98:b8:8e:6c:8b:ed:f1:c2:49:9f:2f:07:2e:94:bc:03:26:
         02:20:7e:3b:f3:bc:29:dd:a7:22:e7:9a:d2:84:93:e8:c2:83:
         5a:88:d6:94:88:d2:35:a8:51:35:cb:f4:49:15:4e:3f
-----BEGIN CERTIFICATE-----
MIICBzCCAa6gAwIBAgIBGjAKBggqhkjOPQQDAjCBpzEfMB0GA1UEAwwWUmVnaW9u
ZSBFbWlsaWFfUm9tYWduYTELMAkGA1UEBhMCSVQxDzANBgNVBAgMBkl0YWxpYTEY
MBYGA1UECgwPRS1Wb3Rpbmcgc3lzdGVtMSIwIAYDVQQLDBlFLVZvdGluZyBzeXN0
ZW0gYXV0aG9yaXR5MSgwJgYJKoZIhvcNAQkBFhlFbWlsaWFfUm9tYWduYUBldm90
aW5nLml0MB4XDTIyMDgyNjE1MjAwMloXDTIzMDgyNjE1MjAwMlowUTEQMA4GA1UE
AwwHTGF2ZXJuZTELMAkGA1UEBhMCSVQxDzANBgNVBAgMBkl0YWxpYTEfMB0GA1UE
CgwWUmVnaW9uZSBFbWlsaWFfUm9tYWduYTBWMBAGByqGSM49AgEGBSuBBAAKA0IA
BFU+Nizwcab89ZtlJBJmChO+SZWaJRbgOTBPl5efGJsVFABJTbXqZbCtPzBNGTjm
8FTZK69fSuBGLWhuS3uVv8WjIzAhMA4GA1UdDwEB/wQEAwIFoDAPBgNVHRMBAf8E
BTADAgEDMAoGCCqGSM49BAMCA0cAMEQCICvOJXV3s4/nmwU4wTe9MJi4jmyL7fHC
SZ8vBy6UvAMmAiB+O/O8Kd2nIuea0oST6MKDWojWlIjSNahRNcv0SRVOPw==
-----END CERTIFICATE-----
