Certificate:
    Data:
        Version: 3 (0x2)
        Serial Number: 2 (0x2)
        Signature Algorithm: ecdsa-with-SHA256
        Issuer: CN=Regione Umbria, C=IT, ST=Italia, O=E-Voting system, OU=E-Voting system authority/emailAddress=Umbria@evoting.it
        Validity
            Not Before: Aug  3 13:25:54 2022 GMT
            Not After : Aug  3 13:25:54 2023 GMT
        Subject: CN=Laverne, C=IT, ST=Italia, O=Regione Umbria
        Subject Public Key Info:
            Public Key Algorithm: id-ecPublicKey
                Public-Key: (256 bit)
                pub:
                    04:a6:51:31:cb:91:b8:ee:ba:32:77:aa:3b:c2:72:
                    5f:2a:c7:0c:d9:a4:70:e3:ce:95:83:65:56:9f:df:
                    03:25:67:c3:55:cb:c9:01:3d:23:f5:7c:19:60:cc:
                    f9:a6:70:bf:40:2e:d3:ec:ea:8f:57:8b:5e:29:52:
                    1d:50:8a:b7:d7
                ASN1 OID: prime256v1
                NIST CURVE: P-256
        X509v3 extensions:
            X509v3 Key Usage: critical
                Digital Signature, Key Encipherment
            X509v3 Basic Constraints: critical
                CA:FALSE, pathlen:3
    Signature Algorithm: ecdsa-with-SHA256
         30:45:02:20:7e:d9:5e:2b:e4:c6:32:b9:6b:a1:ac:a1:0a:6a:
         24:fa:64:c1:1f:b0:fb:09:03:55:06:1e:9a:0b:10:19:de:49:
         02:21:00:e8:0f:a6:92:0b:bd:a2:77:ca:0f:85:99:fb:d3:9e:
         bd:9a:d2:cb:2d:f5:aa:44:4a:a6:48:1e:11:c2:73:d8:25
-----BEGIN CERTIFICATE-----
MIIB8zCCAZmgAwIBAgIBAjAKBggqhkjOPQQDAjCBlzEXMBUGA1UEAwwOUmVnaW9u
ZSBVbWJyaWExCzAJBgNVBAYTAklUMQ8wDQYDVQQIDAZJdGFsaWExGDAWBgNVBAoM
D0UtVm90aW5nIHN5c3RlbTEiMCAGA1UECwwZRS1Wb3Rpbmcgc3lzdGVtIGF1dGhv
cml0eTEgMB4GCSqGSIb3DQEJARYRVW1icmlhQGV2b3RpbmcuaXQwHhcNMjIwODAz
MTMyNTU0WhcNMjMwODAzMTMyNTU0WjBJMRAwDgYDVQQDDAdMYXZlcm5lMQswCQYD
VQQGEwJJVDEPMA0GA1UECAwGSXRhbGlhMRcwFQYDVQQKDA5SZWdpb25lIFVtYnJp
YTBZMBMGByqGSM49AgEGCCqGSM49AwEHA0IABKZRMcuRuO66MneqO8JyXyrHDNmk
cOPOlYNlVp/fAyVnw1XLyQE9I/V8GWDM+aZwv0Au0+zqj1eLXilSHVCKt9ejIzAh
MA4GA1UdDwEB/wQEAwIFoDAPBgNVHRMBAf8EBTADAgEDMAoGCCqGSM49BAMCA0gA
MEUCIH7ZXivkxjK5a6GsoQpqJPpkwR+w+wkDVQYemgsQGd5JAiEA6A+mkgu9onfK
D4WZ+9OevZrSyy31qkRKpkgeEcJz2CU=
-----END CERTIFICATE-----
