Certificate:
    Data:
        Version: 3 (0x2)
        Serial Number: 53 (0x35)
        Signature Algorithm: ecdsa-with-SHA256
        Issuer: CN=Regione Liguria, C=IT, ST=Italia, O=E-Voting system, OU=E-Voting system authority/emailAddress=Liguria@evoting.it
        Validity
            Not Before: Aug  3 13:28:29 2022 GMT
            Not After : Aug  3 13:28:29 2023 GMT
        Subject: CN=Lavonne, C=IT, ST=Italia, O=Regione Liguria
        Subject Public Key Info:
            Public Key Algorithm: id-ecPublicKey
                Public-Key: (256 bit)
                pub:
                    04:f9:32:da:76:01:78:44:94:af:c1:ee:e5:bc:27:
                    5f:38:c4:99:ed:0c:af:02:62:f5:63:08:e8:bc:c5:
                    ea:53:16:f6:25:59:01:c8:86:56:b3:6a:a1:b9:f4:
                    e7:9d:ca:7d:f3:97:5b:ae:6a:65:71:73:43:60:3a:
                    45:7c:a2:b1:df
                ASN1 OID: prime256v1
                NIST CURVE: P-256
        X509v3 extensions:
            X509v3 Key Usage: critical
                Digital Signature, Key Encipherment
            X509v3 Basic Constraints: critical
                CA:FALSE, pathlen:3
    Signature Algorithm: ecdsa-with-SHA256
         30:45:02:21:00:a9:c8:ad:2a:12:a4:59:48:b8:bb:53:31:82:
         59:2f:2e:87:40:b7:aa:97:87:88:1a:c1:1d:54:dd:ca:16:bb:
         d3:02:20:7a:8b:4f:07:2f:34:29:a4:4e:a1:09:29:cd:94:b3:
         e2:0a:b2:61:d9:50:73:e6:87:00:5f:7d:f0:28:61:78:a0
-----BEGIN CERTIFICATE-----
MIIB9jCCAZygAwIBAgIBNTAKBggqhkjOPQQDAjCBmTEYMBYGA1UEAwwPUmVnaW9u
ZSBMaWd1cmlhMQswCQYDVQQGEwJJVDEPMA0GA1UECAwGSXRhbGlhMRgwFgYDVQQK
DA9FLVZvdGluZyBzeXN0ZW0xIjAgBgNVBAsMGUUtVm90aW5nIHN5c3RlbSBhdXRo
b3JpdHkxITAfBgkqhkiG9w0BCQEWEkxpZ3VyaWFAZXZvdGluZy5pdDAeFw0yMjA4
MDMxMzI4MjlaFw0yMzA4MDMxMzI4MjlaMEoxEDAOBgNVBAMMB0xhdm9ubmUxCzAJ
BgNVBAYTAklUMQ8wDQYDVQQIDAZJdGFsaWExGDAWBgNVBAoMD1JlZ2lvbmUgTGln
dXJpYTBZMBMGByqGSM49AgEGCCqGSM49AwEHA0IABPky2nYBeESUr8Hu5bwnXzjE
me0MrwJi9WMI6LzF6lMW9iVZAciGVrNqobn0553KffOXW65qZXFzQ2A6RXyisd+j
IzAhMA4GA1UdDwEB/wQEAwIFoDAPBgNVHRMBAf8EBTADAgEDMAoGCCqGSM49BAMC
A0gAMEUCIQCpyK0qEqRZSLi7UzGCWS8uh0C3qpeHiBrBHVTdyha70wIgeotPBy80
KaROoQkpzZSz4gqyYdlQc+aHAF998ChheKA=
-----END CERTIFICATE-----
