Certificate:
    Data:
        Version: 3 (0x2)
        Serial Number: 51 (0x33)
        Signature Algorithm: ecdsa-with-SHA256
        Issuer: CN=Regione Sicilia, C=IT, ST=Italia, O=E-Voting system, OU=E-Voting system authority/emailAddress=Sicilia@evoting.it
        Validity
            Not Before: Aug 26 15:21:29 2022 GMT
            Not After : Aug 26 15:21:29 2023 GMT
        Subject: CN=Leanna, C=IT, ST=Italia, O=Regione Sicilia
        Subject Public Key Info:
            Public Key Algorithm: id-ecPublicKey
                Public-Key: (256 bit)
                pub:
                    04:98:8a:ad:f9:66:e9:f1:82:30:55:d5:83:6f:9f:
                    f7:bd:ff:f0:7f:db:91:42:e6:73:88:cb:11:d4:7d:
                    c0:fc:c0:b6:62:07:f1:73:20:6d:e5:20:25:fd:f3:
                    12:b6:d4:8a:1f:97:65:fb:16:d2:9b:d3:d7:0e:17:
                    3e:8a:70:82:c8
                ASN1 OID: secp256k1
        X509v3 extensions:
            X509v3 Key Usage: critical
                Digital Signature, Key Encipherment
            X509v3 Basic Constraints: critical
                CA:FALSE, pathlen:3
    Signature Algorithm: ecdsa-with-SHA256
         30:44:02:20:27:b1:9c:bc:62:d8:57:04:81:04:5a:ea:6a:5a:
         18:67:4d:84:ac:05:76:e3:eb:33:0c:be:b5:82:a5:ab:b7:85:
         02:20:69:95:73:3b:82:2c:33:63:e8:67:d7:5d:02:8a:bc:bd:
         0b:da:20:53:53:77:0e:5d:df:51:fb:9a:15:5e:a1:1e
-----BEGIN CERTIFICATE-----
MIIB8TCCAZigAwIBAgIBMzAKBggqhkjOPQQDAjCBmTEYMBYGA1UEAwwPUmVnaW9u
ZSBTaWNpbGlhMQswCQYDVQQGEwJJVDEPMA0GA1UECAwGSXRhbGlhMRgwFgYDVQQK
DA9FLVZvdGluZyBzeXN0ZW0xIjAgBgNVBAsMGUUtVm90aW5nIHN5c3RlbSBhdXRo
b3JpdHkxITAfBgkqhkiG9w0BCQEWElNpY2lsaWFAZXZvdGluZy5pdDAeFw0yMjA4
MjYxNTIxMjlaFw0yMzA4MjYxNTIxMjlaMEkxDzANBgNVBAMMBkxlYW5uYTELMAkG
A1UEBhMCSVQxDzANBgNVBAgMBkl0YWxpYTEYMBYGA1UECgwPUmVnaW9uZSBTaWNp
bGlhMFYwEAYHKoZIzj0CAQYFK4EEAAoDQgAEmIqt+Wbp8YIwVdWDb5/3vf/wf9uR
QuZziMsR1H3A/MC2YgfxcyBt5SAl/fMSttSKH5dl+xbSm9PXDhc+inCCyKMjMCEw
DgYDVR0PAQH/BAQDAgWgMA8GA1UdEwEB/wQFMAMCAQMwCgYIKoZIzj0EAwIDRwAw
RAIgJ7GcvGLYVwSBBFrqaloYZ02ErAV24+szDL61gqWrt4UCIGmVczuCLDNj6GfX
XQKKvL0L2iBTU3cOXd9R+5oVXqEe
-----END CERTIFICATE-----
