Certificate:
    Data:
        Version: 3 (0x2)
        Serial Number: 27 (0x1b)
        Signature Algorithm: ecdsa-with-SHA256
        Issuer: CN=Regione Trentino_Alto_Adige, C=IT, ST=Italia, O=E-Voting system, OU=E-Voting system authority/emailAddress=Trentino_Alto_Adige@evoting.it
        Validity
            Not Before: Aug 26 15:20:15 2022 GMT
            Not After : Aug 26 15:20:15 2023 GMT
        Subject: CN=Lee, C=IT, ST=Italia, O=Regione Trentino_Alto_Adige
        Subject Public Key Info:
            Public Key Algorithm: id-ecPublicKey
                Public-Key: (256 bit)
                pub:
                    04:92:8f:d4:eb:24:29:00:2e:6a:d9:e4:b1:12:91:
                    93:1c:b5:6d:5a:57:75:d0:de:6b:b3:8d:20:37:56:
                    4c:72:85:dc:e4:f3:e3:ca:44:a9:60:b7:c5:0e:5b:
                    e3:46:76:46:5f:61:f9:14:1d:ed:a8:79:d9:92:29:
                    23:26:80:94:b2
                ASN1 OID: secp256k1
        X509v3 extensions:
            X509v3 Key Usage: critical
                Digital Signature, Key Encipherment
            X509v3 Basic Constraints: critical
                CA:FALSE, pathlen:3
    Signature Algorithm: ecdsa-with-SHA256
         30:46:02:21:00:da:12:b6:15:11:da:e7:0f:24:f3:a4:16:cb:
         04:b5:d4:8f:dc:84:2b:fa:7f:fa:a7:ca:7a:8f:f2:f0:f3:7f:
         97:02:21:00:b0:7d:37:1e:62:0d:41:40:fd:3a:11:ed:0e:fe:
         a3:23:ad:ac:4f:76:f8:7e:c0:eb:87:a4:01:35:a7:60:41:c2
-----BEGIN CERTIFICATE-----
MIICFDCCAbmgAwIBAgIBGzAKBggqhkjOPQQDAjCBsTEkMCIGA1UEAwwbUmVnaW9u
ZSBUcmVudGlub19BbHRvX0FkaWdlMQswCQYDVQQGEwJJVDEPMA0GA1UECAwGSXRh
bGlhMRgwFgYDVQQKDA9FLVZvdGluZyBzeXN0ZW0xIjAgBgNVBAsMGUUtVm90aW5n
IHN5c3RlbSBhdXRob3JpdHkxLTArBgkqhkiG9w0BCQEWHlRyZW50aW5vX0FsdG9f
QWRpZ2VAZXZvdGluZy5pdDAeFw0yMjA4MjYxNTIwMTVaFw0yMzA4MjYxNTIwMTVa
MFIxDDAKBgNVBAMMA0xlZTELMAkGA1UEBhMCSVQxDzANBgNVBAgMBkl0YWxpYTEk
MCIGA1UECgwbUmVnaW9uZSBUcmVudGlub19BbHRvX0FkaWdlMFYwEAYHKoZIzj0C
AQYFK4EEAAoDQgAEko/U6yQpAC5q2eSxEpGTHLVtWld10N5rs40gN1ZMcoXc5PPj
ykSpYLfFDlvjRnZGX2H5FB3tqHnZkikjJoCUsqMjMCEwDgYDVR0PAQH/BAQDAgWg
MA8GA1UdEwEB/wQFMAMCAQMwCgYIKoZIzj0EAwIDSQAwRgIhANoSthUR2ucPJPOk
FssEtdSP3IQr+n/6p8p6j/Lw83+XAiEAsH03HmINQUD9OhHtDv6jI62sT3b4fsDr
h6QBNadgQcI=
-----END CERTIFICATE-----
