Certificate:
    Data:
        Version: 3 (0x2)
        Serial Number: 41 (0x29)
        Signature Algorithm: ecdsa-with-SHA256
        Issuer: CN=Regione Lazio, C=IT, ST=Italia, O=E-Voting system, OU=E-Voting system authority/emailAddress=Lazio@evoting.it
        Validity
            Not Before: Aug  3 13:28:04 2022 GMT
            Not After : Aug  3 13:28:04 2023 GMT
        Subject: CN=Lee, C=IT, ST=Italia, O=Regione Lazio
        Subject Public Key Info:
            Public Key Algorithm: id-ecPublicKey
                Public-Key: (256 bit)
                pub:
                    04:58:94:33:8a:72:fd:7f:c7:58:11:e5:22:70:f5:
                    7b:22:7c:92:a7:48:75:6d:44:05:b8:93:93:3b:ab:
                    8f:39:3b:b3:5b:cb:fa:a9:d0:b2:db:03:a4:f8:31:
                    94:87:68:5d:91:66:21:18:4a:68:a2:8e:dd:6d:19:
                    c9:4e:60:ad:08
                ASN1 OID: prime256v1
                NIST CURVE: P-256
        X509v3 extensions:
            X509v3 Key Usage: critical
                Digital Signature, Key Encipherment
            X509v3 Basic Constraints: critical
                CA:FALSE, pathlen:3
    Signature Algorithm: ecdsa-with-SHA256
         30:46:02:21:00:eb:78:e4:1f:aa:89:17:f2:be:5e:b1:83:ee:
         ac:f4:64:de:dc:4c:82:67:c2:ba:b0:81:a0:38:71:12:ea:ad:
         92:02:21:00:e5:d5:2c:00:0b:77:d4:81:9b:24:4c:dc:6b:99:
         f8:eb:58:ad:eb:fc:cb:dc:3c:e5:ea:06:45:b5:49:68:39:a2
-----BEGIN CERTIFICATE-----
MIIB7TCCAZKgAwIBAgIBKTAKBggqhkjOPQQDAjCBlTEWMBQGA1UEAwwNUmVnaW9u
ZSBMYXppbzELMAkGA1UEBhMCSVQxDzANBgNVBAgMBkl0YWxpYTEYMBYGA1UECgwP
RS1Wb3Rpbmcgc3lzdGVtMSIwIAYDVQQLDBlFLVZvdGluZyBzeXN0ZW0gYXV0aG9y
aXR5MR8wHQYJKoZIhvcNAQkBFhBMYXppb0Bldm90aW5nLml0MB4XDTIyMDgwMzEz
MjgwNFoXDTIzMDgwMzEzMjgwNFowRDEMMAoGA1UEAwwDTGVlMQswCQYDVQQGEwJJ
VDEPMA0GA1UECAwGSXRhbGlhMRYwFAYDVQQKDA1SZWdpb25lIExhemlvMFkwEwYH
KoZIzj0CAQYIKoZIzj0DAQcDQgAEWJQzinL9f8dYEeUicPV7InySp0h1bUQFuJOT
O6uPOTuzW8v6qdCy2wOk+DGUh2hdkWYhGEpooo7dbRnJTmCtCKMjMCEwDgYDVR0P
AQH/BAQDAgWgMA8GA1UdEwEB/wQFMAMCAQMwCgYIKoZIzj0EAwIDSQAwRgIhAOt4
5B+qiRfyvl6xg+6s9GTe3EyCZ8K6sIGgOHES6q2SAiEA5dUsAAt31IGbJEzca5n4
61it6/zL3Dzl6gZFtUloOaI=
-----END CERTIFICATE-----
