Certificate:
    Data:
        Version: 3 (0x2)
        Serial Number: 15 (0xf)
        Signature Algorithm: ecdsa-with-SHA256
        Issuer: CN=Regione Trentino_Alto_Adige, C=IT, ST=Italia, O=E-Voting system, OU=E-Voting system authority/emailAddress=Trentino_Alto_Adige@evoting.it
        Validity
            Not Before: Aug 26 15:19:35 2022 GMT
            Not After : Aug 26 15:19:35 2023 GMT
        Subject: CN=Leigh, C=IT, ST=Italia, O=Regione Trentino_Alto_Adige
        Subject Public Key Info:
            Public Key Algorithm: id-ecPublicKey
                Public-Key: (256 bit)
                pub:
                    04:85:40:28:54:42:e7:58:01:96:46:9a:6a:cc:f1:
                    ff:44:b8:b5:eb:96:be:dd:a3:97:df:d5:e0:72:56:
                    88:6a:65:6e:6e:ff:34:20:21:10:6e:65:ae:ce:5a:
                    18:52:20:26:0c:e6:0b:19:8c:64:c1:b4:a9:ce:af:
                    77:35:03:92:b3
                ASN1 OID: secp256k1
        X509v3 extensions:
            X509v3 Key Usage: critical
                Digital Signature, Key Encipherment
            X509v3 Basic Constraints: critical
                CA:FALSE, pathlen:3
    Signature Algorithm: ecdsa-with-SHA256
         30:45:02:20:3e:09:17:ca:ba:d2:e5:ef:aa:eb:05:35:4e:5e:
         0a:ca:c0:e5:e3:64:4b:d0:75:d8:f5:86:38:f2:c5:5f:f5:b7:
         02:21:00:d4:18:58:ab:c3:7c:a7:f7:ec:a8:f1:6e:c6:3b:4b:
         2e:ac:1f:03:02:21:22:f7:00:19:fb:12:2f:ec:d8:44:5a
-----BEGIN CERTIFICATE-----
MIICFTCCAbugAwIBAgIBDzAKBggqhkjOPQQDAjCBsTEkMCIGA1UEAwwbUmVnaW9u
ZSBUcmVudGlub19BbHRvX0FkaWdlMQswCQYDVQQGEwJJVDEPMA0GA1UECAwGSXRh
bGlhMRgwFgYDVQQKDA9FLVZvdGluZyBzeXN0ZW0xIjAgBgNVBAsMGUUtVm90aW5n
IHN5c3RlbSBhdXRob3JpdHkxLTArBgkqhkiG9w0BCQEWHlRyZW50aW5vX0FsdG9f
QWRpZ2VAZXZvdGluZy5pdDAeFw0yMjA4MjYxNTE5MzVaFw0yMzA4MjYxNTE5MzVa
MFQxDjAMBgNVBAMMBUxlaWdoMQswCQYDVQQGEwJJVDEPMA0GA1UECAwGSXRhbGlh
MSQwIgYDVQQKDBtSZWdpb25lIFRyZW50aW5vX0FsdG9fQWRpZ2UwVjAQBgcqhkjO
PQIBBgUrgQQACgNCAASFQChUQudYAZZGmmrM8f9EuLXrlr7do5ff1eByVohqZW5u
/zQgIRBuZa7OWhhSICYM5gsZjGTBtKnOr3c1A5KzoyMwITAOBgNVHQ8BAf8EBAMC
BaAwDwYDVR0TAQH/BAUwAwIBAzAKBggqhkjOPQQDAgNIADBFAiA+CRfKutLl76rr
BTVOXgrKwOXjZEvQddj1hjjyxV/1twIhANQYWKvDfKf37KjxbsY7Sy6sHwMCISL3
ABn7Ei/s2ERa
-----END CERTIFICATE-----
