Certificate:
    Data:
        Version: 3 (0x2)
        Serial Number: 20 (0x14)
        Signature Algorithm: ecdsa-with-SHA256
        Issuer: CN=Regione Calabria, C=IT, ST=Italia, O=E-Voting system, OU=E-Voting system authority/emailAddress=Calabria@evoting.it
        Validity
            Not Before: Aug 26 15:20:01 2022 GMT
            Not After : Aug 26 15:20:01 2023 GMT
        Subject: CN=Lena, C=IT, ST=Italia, O=Regione Calabria
        Subject Public Key Info:
            Public Key Algorithm: id-ecPublicKey
                Public-Key: (256 bit)
                pub:
                    04:10:d2:52:3f:da:ec:d1:3a:38:07:9d:1e:98:42:
                    e7:1b:ca:13:6f:05:39:3a:ce:76:9d:01:83:de:b6:
                    45:ac:ca:f8:43:31:60:10:50:8a:7d:f3:45:98:8b:
                    96:9b:b0:7e:2b:e5:16:9a:dc:56:06:b5:3c:af:f5:
                    b5:2a:f1:48:52
                ASN1 OID: secp256k1
        X509v3 extensions:
            X509v3 Key Usage: critical
                Digital Signature, Key Encipherment
            X509v3 Basic Constraints: critical
                CA:FALSE, pathlen:3
    Signature Algorithm: ecdsa-with-SHA256
         30:46:02:21:00:dc:1d:66:1f:0a:bd:e5:02:04:11:27:31:81:
         19:59:02:41:ab:04:6d:18:39:ae:c4:12:14:4f:9f:7c:17:7c:
         13:02:21:00:e5:7f:76:bb:82:ab:9a:2e:57:04:46:66:dd:97:
         32:a8:e6:15:35:80:90:bd:88:c3:51:4a:40:9d:38:6b:5f:39
-----BEGIN CERTIFICATE-----
MIIB9DCCAZmgAwIBAgIBFDAKBggqhkjOPQQDAjCBmzEZMBcGA1UEAwwQUmVnaW9u
ZSBDYWxhYnJpYTELMAkGA1UEBhMCSVQxDzANBgNVBAgMBkl0YWxpYTEYMBYGA1UE
CgwPRS1Wb3Rpbmcgc3lzdGVtMSIwIAYDVQQLDBlFLVZvdGluZyBzeXN0ZW0gYXV0
aG9yaXR5MSIwIAYJKoZIhvcNAQkBFhNDYWxhYnJpYUBldm90aW5nLml0MB4XDTIy
MDgyNjE1MjAwMVoXDTIzMDgyNjE1MjAwMVowSDENMAsGA1UEAwwETGVuYTELMAkG
A1UEBhMCSVQxDzANBgNVBAgMBkl0YWxpYTEZMBcGA1UECgwQUmVnaW9uZSBDYWxh
YnJpYTBWMBAGByqGSM49AgEGBSuBBAAKA0IABBDSUj/a7NE6OAedHphC5xvKE28F
OTrOdp0Bg962RazK+EMxYBBQin3zRZiLlpuwfivlFprcVga1PK/1tSrxSFKjIzAh
MA4GA1UdDwEB/wQEAwIFoDAPBgNVHRMBAf8EBTADAgEDMAoGCCqGSM49BAMCA0kA
MEYCIQDcHWYfCr3lAgQRJzGBGVkCQasEbRg5rsQSFE+ffBd8EwIhAOV/druCq5ou
VwRGZt2XMqjmFTWAkL2Iw1FKQJ04a185
-----END CERTIFICATE-----
