Certificate:
    Data:
        Version: 3 (0x2)
        Serial Number: 24 (0x18)
        Signature Algorithm: ecdsa-with-SHA256
        Issuer: CN=Regione Sicilia, C=IT, ST=Italia, O=E-Voting system, OU=E-Voting system authority/emailAddress=Sicilia@evoting.it
        Validity
            Not Before: Aug 26 15:19:52 2022 GMT
            Not After : Aug 26 15:19:52 2023 GMT
        Subject: CN=Leo, C=IT, ST=Italia, O=Regione Sicilia
        Subject Public Key Info:
            Public Key Algorithm: id-ecPublicKey
                Public-Key: (256 bit)
                pub:
                    04:df:98:26:a3:66:76:b4:2c:4a:27:81:2e:80:a5:
                    51:85:fa:04:f7:c6:0d:b1:12:e4:5f:67:f9:63:a6:
                    09:cd:9c:99:34:cc:51:22:03:a8:0b:8b:1f:4d:91:
                    ae:3d:c8:42:8d:53:d6:5a:97:a6:c3:9f:20:16:c0:
                    b2:25:bd:2e:35
                ASN1 OID: secp256k1
        X509v3 extensions:
            X509v3 Key Usage: critical
                Digital Signature, Key Encipherment
            X509v3 Basic Constraints: critical
                CA:FALSE, pathlen:3
    Signature Algorithm: ecdsa-with-SHA256
         30:45:02:21:00:d5:de:0c:6b:40:86:87:cb:70:df:0b:27:e2:
         c7:35:08:7a:ba:4d:f5:ce:54:a3:74:a7:85:d7:53:f9:ad:59:
         a6:02:20:3c:8b:7f:6c:0a:d0:7e:ce:22:24:65:97:c8:8c:df:
         17:f1:54:19:e3:01:dc:8c:3b:35:ff:84:6c:78:8e:98:d9
-----BEGIN CERTIFICATE-----
MIIB7zCCAZWgAwIBAgIBGDAKBggqhkjOPQQDAjCBmTEYMBYGA1UEAwwPUmVnaW9u
ZSBTaWNpbGlhMQswCQYDVQQGEwJJVDEPMA0GA1UECAwGSXRhbGlhMRgwFgYDVQQK
DA9FLVZvdGluZyBzeXN0ZW0xIjAgBgNVBAsMGUUtVm90aW5nIHN5c3RlbSBhdXRo
b3JpdHkxITAfBgkqhkiG9w0BCQEWElNpY2lsaWFAZXZvdGluZy5pdDAeFw0yMjA4
MjYxNTE5NTJaFw0yMzA4MjYxNTE5NTJaMEYxDDAKBgNVBAMMA0xlbzELMAkGA1UE
BhMCSVQxDzANBgNVBAgMBkl0YWxpYTEYMBYGA1UECgwPUmVnaW9uZSBTaWNpbGlh
MFYwEAYHKoZIzj0CAQYFK4EEAAoDQgAE35gmo2Z2tCxKJ4EugKVRhfoE98YNsRLk
X2f5Y6YJzZyZNMxRIgOoC4sfTZGuPchCjVPWWpemw58gFsCyJb0uNaMjMCEwDgYD
VR0PAQH/BAQDAgWgMA8GA1UdEwEB/wQFMAMCAQMwCgYIKoZIzj0EAwIDSAAwRQIh
ANXeDGtAhofLcN8LJ+LHNQh6uk31zlSjdKeF11P5rVmmAiA8i39sCtB+ziIkZZfI
jN8X8VQZ4wHcjDs1/4RseI6Y2Q==
-----END CERTIFICATE-----
