Certificate:
    Data:
        Version: 3 (0x2)
        Serial Number: 31 (0x1f)
        Signature Algorithm: ecdsa-with-SHA256
        Issuer: CN=Regione Basilicata, C=IT, ST=Italia, O=E-Voting system, OU=E-Voting system authority/emailAddress=Basilicata@evoting.it
        Validity
            Not Before: Aug 26 15:20:43 2022 GMT
            Not After : Aug 26 15:20:43 2023 GMT
        Subject: CN=Leonard, C=IT, ST=Italia, O=Regione Basilicata
        Subject Public Key Info:
            Public Key Algorithm: id-ecPublicKey
                Public-Key: (256 bit)
                pub:
                    04:d1:e5:d9:22:14:32:a8:d2:a5:bf:f7:57:99:a5:
                    de:37:6b:a1:a2:80:6e:b1:ae:65:79:dd:08:40:61:
                    46:56:35:b2:15:b3:fd:54:8e:93:9f:45:94:b8:49:
                    1b:b9:f1:35:78:53:28:11:74:69:52:96:25:44:86:
                    1f:d4:91:76:fa
                ASN1 OID: secp256k1
        X509v3 extensions:
            X509v3 Key Usage: critical
                Digital Signature, Key Encipherment
            X509v3 Basic Constraints: critical
                CA:FALSE, pathlen:3
    Signature Algorithm: ecdsa-with-SHA256
         30:46:02:21:00:f4:5d:15:d1:b5:af:82:c3:d3:24:2b:00:5f:
         db:ac:11:e7:85:ba:04:46:ee:26:1b:f7:45:73:5f:cd:51:de:
         4d:02:21:00:ba:36:c2:b8:d4:2b:8a:fc:82:87:e0:a5:6a:c6:
         52:65:a1:74:77:9b:26:5d:f1:89:cb:7b:fb:36:96:01:02:3a
-----BEGIN CERTIFICATE-----
MIIB/TCCAaKgAwIBAgIBHzAKBggqhkjOPQQDAjCBnzEbMBkGA1UEAwwSUmVnaW9u
ZSBCYXNpbGljYXRhMQswCQYDVQQGEwJJVDEPMA0GA1UECAwGSXRhbGlhMRgwFgYD
VQQKDA9FLVZvdGluZyBzeXN0ZW0xIjAgBgNVBAsMGUUtVm90aW5nIHN5c3RlbSBh
dXRob3JpdHkxJDAiBgkqhkiG9w0BCQEWFUJhc2lsaWNhdGFAZXZvdGluZy5pdDAe
Fw0yMjA4MjYxNTIwNDNaFw0yMzA4MjYxNTIwNDNaME0xEDAOBgNVBAMMB0xlb25h
cmQxCzAJBgNVBAYTAklUMQ8wDQYDVQQIDAZJdGFsaWExGzAZBgNVBAoMElJlZ2lv
bmUgQmFzaWxpY2F0YTBWMBAGByqGSM49AgEGBSuBBAAKA0IABNHl2SIUMqjSpb/3
V5ml3jdroaKAbrGuZXndCEBhRlY1shWz/VSOk59FlLhJG7nxNXhTKBF0aVKWJUSG
H9SRdvqjIzAhMA4GA1UdDwEB/wQEAwIFoDAPBgNVHRMBAf8EBTADAgEDMAoGCCqG
SM49BAMCA0kAMEYCIQD0XRXRta+Cw9MkKwBf26wR54W6BEbuJhv3RXNfzVHeTQIh
ALo2wrjUK4r8gofgpWrGUmWhdHebJl3xict7+zaWAQI6
-----END CERTIFICATE-----
