Certificate:
    Data:
        Version: 3 (0x2)
        Serial Number: 51 (0x33)
        Signature Algorithm: ecdsa-with-SHA256
        Issuer: CN=Regione Emilia_Romagna, C=IT, ST=Italia, O=E-Voting system, OU=E-Voting system authority/emailAddress=Emilia_Romagna@evoting.it
        Validity
            Not Before: Aug 26 15:21:28 2022 GMT
            Not After : Aug 26 15:21:28 2023 GMT
        Subject: CN=Leon, C=IT, ST=Italia, O=Regione Emilia_Romagna
        Subject Public Key Info:
            Public Key Algorithm: id-ecPublicKey
                Public-Key: (256 bit)
                pub:
                    04:5c:72:da:0d:95:4f:43:41:b1:fb:1d:e9:df:ab:
                    b4:cc:08:ca:40:f5:16:61:a8:7d:6d:97:90:66:92:
                    3a:1a:08:b8:aa:c7:74:4d:86:1f:11:86:75:cf:6c:
                    ed:e7:63:e9:ff:69:d9:d7:1c:62:34:55:8c:60:23:
                    b9:7f:e4:48:7f
                ASN1 OID: secp256k1
        X509v3 extensions:
            X509v3 Key Usage: critical
                Digital Signature, Key Encipherment
            X509v3 Basic Constraints: critical
                CA:FALSE, pathlen:3
    Signature Algorithm: ecdsa-with-SHA256
         30:44:02:20:19:02:4d:48:f3:73:8b:18:2b:fc:61:e8:42:ec:
         e6:cb:44:f3:68:8a:ee:e5:e1:13:47:ca:d9:4d:a6:0d:a8:1e:
         02:20:52:79:3c:46:b3:48:0e:32:40:da:00:5c:17:ba:ab:b9:
         82:ef:68:3c:f1:6c:a7:00:ef:14:f9:20:cb:e1:e2:80
-----BEGIN CERTIFICATE-----
MIICBDCCAaugAwIBAgIBMzAKBggqhkjOPQQDAjCBpzEfMB0GA1UEAwwWUmVnaW9u
ZSBFbWlsaWFfUm9tYWduYTELMAkGA1UEBhMCSVQxDzANBgNVBAgMBkl0YWxpYTEY
MBYGA1UECgwPRS1Wb3Rpbmcgc3lzdGVtMSIwIAYDVQQLDBlFLVZvdGluZyBzeXN0
ZW0gYXV0aG9yaXR5MSgwJgYJKoZIhvcNAQkBFhlFbWlsaWFfUm9tYWduYUBldm90
aW5nLml0MB4XDTIyMDgyNjE1MjEyOFoXDTIzMDgyNjE1MjEyOFowTjENMAsGA1UE
AwwETGVvbjELMAkGA1UEBhMCSVQxDzANBgNVBAgMBkl0YWxpYTEfMB0GA1UECgwW
UmVnaW9uZSBFbWlsaWFfUm9tYWduYTBWMBAGByqGSM49AgEGBSuBBAAKA0IABFxy
2g2VT0NBsfsd6d+rtMwIykD1FmGofW2XkGaSOhoIuKrHdE2GHxGGdc9s7edj6f9p
2dccYjRVjGAjuX/kSH+jIzAhMA4GA1UdDwEB/wQEAwIFoDAPBgNVHRMBAf8EBTAD
AgEDMAoGCCqGSM49BAMCA0cAMEQCIBkCTUjzc4sYK/xh6ELs5stE82iK7uXhE0fK
2U2mDageAiBSeTxGs0gOMkDaAFwXuqu5gu9oPPFspwDvFPkgy+HigA==
-----END CERTIFICATE-----
