Certificate:
    Data:
        Version: 3 (0x2)
        Serial Number: 42 (0x2a)
        Signature Algorithm: ecdsa-with-SHA256
        Issuer: CN=Regione Molise, C=IT, ST=Italia, O=E-Voting system, OU=E-Voting system authority/emailAddress=Molise@evoting.it
        Validity
            Not Before: Aug 26 15:21:24 2022 GMT
            Not After : Aug 26 15:21:24 2023 GMT
        Subject: CN=Leonore, C=IT, ST=Italia, O=Regione Molise
        Subject Public Key Info:
            Public Key Algorithm: id-ecPublicKey
                Public-Key: (256 bit)
                pub:
                    04:84:a9:8f:d0:75:ca:7b:fb:1e:89:4e:31:12:37:
                    f4:82:d9:2e:10:6a:dc:4f:c1:8c:e1:b6:a6:c2:cf:
                    e2:0d:e4:af:31:ad:8d:ef:0d:20:db:02:fa:3b:2d:
                    21:f8:f7:19:93:85:df:68:b3:17:34:f4:ef:83:6e:
                    1b:a0:82:f1:b4
                ASN1 OID: secp256k1
        X509v3 extensions:
            X509v3 Key Usage: critical
                Digital Signature, Key Encipherment
            X509v3 Basic Constraints: critical
                CA:FALSE, pathlen:3
    Signature Algorithm: ecdsa-with-SHA256
         30:44:02:20:10:5f:cf:54:ae:7c:58:12:07:17:a0:14:fb:4e:
         41:c7:5c:79:82:13:23:78:6f:23:82:99:47:cb:0c:ae:92:df:
         02:20:79:fc:01:26:f8:81:69:cf:48:58:bc:57:41:bd:d1:79:
         06:b2:bd:b8:1b:49:be:ce:da:9e:ff:ba:55:71:81:56
-----BEGIN CERTIFICATE-----
MIIB7zCCAZagAwIBAgIBKjAKBggqhkjOPQQDAjCBlzEXMBUGA1UEAwwOUmVnaW9u
ZSBNb2xpc2UxCzAJBgNVBAYTAklUMQ8wDQYDVQQIDAZJdGFsaWExGDAWBgNVBAoM
D0UtVm90aW5nIHN5c3RlbTEiMCAGA1UECwwZRS1Wb3Rpbmcgc3lzdGVtIGF1dGhv
cml0eTEgMB4GCSqGSIb3DQEJARYRTW9saXNlQGV2b3RpbmcuaXQwHhcNMjIwODI2
MTUyMTI0WhcNMjMwODI2MTUyMTI0WjBJMRAwDgYDVQQDDAdMZW9ub3JlMQswCQYD
VQQGEwJJVDEPMA0GA1UECAwGSXRhbGlhMRcwFQYDVQQKDA5SZWdpb25lIE1vbGlz
ZTBWMBAGByqGSM49AgEGBSuBBAAKA0IABISpj9B1ynv7HolOMRI39ILZLhBq3E/B
jOG2psLP4g3krzGtje8NINsC+jstIfj3GZOF32izFzT074NuG6CC8bSjIzAhMA4G
A1UdDwEB/wQEAwIFoDAPBgNVHRMBAf8EBTADAgEDMAoGCCqGSM49BAMCA0cAMEQC
IBBfz1SufFgSBxegFPtOQcdceYITI3hvI4KZR8sMrpLfAiB5/AEm+IFpz0hYvFdB
vdF5BrK9uBtJvs7anv+6VXGBVg==
-----END CERTIFICATE-----
