Certificate:
    Data:
        Version: 3 (0x2)
        Serial Number: 11 (0xb)
        Signature Algorithm: ecdsa-with-SHA256
        Issuer: CN=Regione Basilicata, C=IT, ST=Italia, O=E-Voting system, OU=E-Voting system authority/emailAddress=Basilicata@evoting.it
        Validity
            Not Before: Aug  3 13:26:10 2022 GMT
            Not After : Aug  3 13:26:10 2023 GMT
        Subject: CN=Leonila, C=IT, ST=Italia, O=Regione Basilicata
        Subject Public Key Info:
            Public Key Algorithm: id-ecPublicKey
                Public-Key: (256 bit)
                pub:
                    04:56:88:3e:05:22:7b:66:95:dd:3d:18:a8:5d:31:
                    0c:1c:bd:da:e0:db:a0:9c:24:e3:7a:63:26:46:dd:
                    a4:23:17:52:ee:20:ea:06:87:8d:ad:e2:9a:0f:72:
                    f8:c5:bb:1a:d5:8f:8c:d8:98:78:84:2d:45:5f:97:
                    64:07:d3:0e:68
                ASN1 OID: prime256v1
                NIST CURVE: P-256
        X509v3 extensions:
            X509v3 Key Usage: critical
                Digital Signature, Key Encipherment
            X509v3 Basic Constraints: critical
                CA:FALSE, pathlen:3
    Signature Algorithm: ecdsa-with-SHA256
         30:46:02:21:00:f7:bc:80:e2:1a:4b:fd:27:41:ae:7c:4b:7f:
         1f:6c:55:1d:30:ff:62:2c:2a:1c:c8:c7:25:70:8b:ec:78:e9:
         04:02:21:00:ba:4b:08:c6:9c:0f:51:ec:28:c9:56:db:20:51:
         d8:49:b0:0c:26:32:c4:56:17:fa:92:24:e6:95:aa:97:92:39
-----BEGIN CERTIFICATE-----
MIICADCCAaWgAwIBAgIBCzAKBggqhkjOPQQDAjCBnzEbMBkGA1UEAwwSUmVnaW9u
ZSBCYXNpbGljYXRhMQswCQYDVQQGEwJJVDEPMA0GA1UECAwGSXRhbGlhMRgwFgYD
VQQKDA9FLVZvdGluZyBzeXN0ZW0xIjAgBgNVBAsMGUUtVm90aW5nIHN5c3RlbSBh
dXRob3JpdHkxJDAiBgkqhkiG9w0BCQEWFUJhc2lsaWNhdGFAZXZvdGluZy5pdDAe
Fw0yMjA4MDMxMzI2MTBaFw0yMzA4MDMxMzI2MTBaME0xEDAOBgNVBAMMB0xlb25p
bGExCzAJBgNVBAYTAklUMQ8wDQYDVQQIDAZJdGFsaWExGzAZBgNVBAoMElJlZ2lv
bmUgQmFzaWxpY2F0YTBZMBMGByqGSM49AgEGCCqGSM49AwEHA0IABFaIPgUie2aV
3T0YqF0xDBy92uDboJwk43pjJkbdpCMXUu4g6gaHja3img9y+MW7GtWPjNiYeIQt
RV+XZAfTDmijIzAhMA4GA1UdDwEB/wQEAwIFoDAPBgNVHRMBAf8EBTADAgEDMAoG
CCqGSM49BAMCA0kAMEYCIQD3vIDiGkv9J0GufEt/H2xVHTD/YiwqHMjHJXCL7Hjp
BAIhALpLCMacD1HsKMlW2yBR2EmwDCYyxFYX+pIk5pWql5I5
-----END CERTIFICATE-----
