Certificate:
    Data:
        Version: 3 (0x2)
        Serial Number: 22 (0x16)
        Signature Algorithm: ecdsa-with-SHA256
        Issuer: CN=Regione Veneto, C=IT, ST=Italia, O=E-Voting system, OU=E-Voting system authority/emailAddress=Veneto@evoting.it
        Validity
            Not Before: Aug 26 15:20:48 2022 GMT
            Not After : Aug 26 15:20:48 2023 GMT
        Subject: CN=Leona, C=IT, ST=Italia, O=Regione Veneto
        Subject Public Key Info:
            Public Key Algorithm: id-ecPublicKey
                Public-Key: (256 bit)
                pub:
                    04:b5:bc:99:c0:f2:85:fd:20:ba:f5:2a:68:2e:26:
                    57:5a:3c:2f:37:7b:8d:79:9a:fd:90:e7:a1:97:12:
                    d0:e3:9a:ed:2b:31:f6:36:1e:4d:80:a9:b8:ee:94:
                    82:ae:01:15:9b:d4:c0:53:04:d5:f7:da:17:0e:34:
                    b4:eb:2f:39:f9
                ASN1 OID: secp256k1
        X509v3 extensions:
            X509v3 Key Usage: critical
                Digital Signature, Key Encipherment
            X509v3 Basic Constraints: critical
                CA:FALSE, pathlen:3
    Signature Algorithm: ecdsa-with-SHA256
         30:45:02:20:1b:67:84:c3:3e:d1:6a:3c:85:dd:ae:17:92:24:
         0a:7b:8a:9e:b4:d4:a5:fd:49:4d:a9:a5:2d:d7:a3:70:0a:b2:
         02:21:00:9f:be:b0:1b:4c:7e:01:01:18:8a:7f:d1:46:87:2b:
         d1:83:0c:7e:c4:bc:56:46:1b:b3:40:e3:59:2c:1d:0a:e8
-----BEGIN CERTIFICATE-----
MIIB7jCCAZSgAwIBAgIBFjAKBggqhkjOPQQDAjCBlzEXMBUGA1UEAwwOUmVnaW9u
ZSBWZW5ldG8xCzAJBgNVBAYTAklUMQ8wDQYDVQQIDAZJdGFsaWExGDAWBgNVBAoM
D0UtVm90aW5nIHN5c3RlbTEiMCAGA1UECwwZRS1Wb3Rpbmcgc3lzdGVtIGF1dGhv
cml0eTEgMB4GCSqGSIb3DQEJARYRVmVuZXRvQGV2b3RpbmcuaXQwHhcNMjIwODI2
MTUyMDQ4WhcNMjMwODI2MTUyMDQ4WjBHMQ4wDAYDVQQDDAVMZW9uYTELMAkGA1UE
BhMCSVQxDzANBgNVBAgMBkl0YWxpYTEXMBUGA1UECgwOUmVnaW9uZSBWZW5ldG8w
VjAQBgcqhkjOPQIBBgUrgQQACgNCAAS1vJnA8oX9ILr1KmguJldaPC83e415mv2Q
56GXEtDjmu0rMfY2Hk2AqbjulIKuARWb1MBTBNX32hcONLTrLzn5oyMwITAOBgNV
HQ8BAf8EBAMCBaAwDwYDVR0TAQH/BAUwAwIBAzAKBggqhkjOPQQDAgNIADBFAiAb
Z4TDPtFqPIXdrheSJAp7ip601KX9SU2ppS3Xo3AKsgIhAJ++sBtMfgEBGIp/0UaH
K9GDDH7EvFZGG7NA41ksHQro
-----END CERTIFICATE-----
