Certificate:
    Data:
        Version: 3 (0x2)
        Serial Number: 50 (0x32)
        Signature Algorithm: ecdsa-with-SHA256
        Issuer: CN=Regione Calabria, C=IT, ST=Italia, O=E-Voting system, OU=E-Voting system authority/emailAddress=Calabria@evoting.it
        Validity
            Not Before: Aug  3 13:28:22 2022 GMT
            Not After : Aug  3 13:28:22 2023 GMT
        Subject: CN=Leroy, C=IT, ST=Italia, O=Regione Calabria
        Subject Public Key Info:
            Public Key Algorithm: id-ecPublicKey
                Public-Key: (256 bit)
                pub:
                    04:44:51:fa:dc:25:cb:f8:19:58:25:75:34:05:a8:
                    16:67:ee:35:74:62:20:e5:00:1f:0c:57:cc:6b:03:
                    27:73:3b:56:8b:cc:35:9b:30:94:76:26:cc:f8:99:
                    9f:fc:09:ce:65:bd:a4:d2:27:bd:96:11:be:f2:46:
                    d1:fb:00:92:fc
                ASN1 OID: prime256v1
                NIST CURVE: P-256
        X509v3 extensions:
            X509v3 Key Usage: critical
                Digital Signature, Key Encipherment
            X509v3 Basic Constraints: critical
                CA:FALSE, pathlen:3
    Signature Algorithm: ecdsa-with-SHA256
         30:46:02:21:00:f9:99:f0:a8:14:49:7b:f9:d2:c9:e9:0a:cd:
         d4:fd:55:0b:5b:56:d0:7b:40:b1:43:ba:bc:45:70:b2:a6:91:
         2f:02:21:00:f6:b1:e9:48:c0:06:f5:d8:3f:d0:45:05:2f:3a:
         2f:70:8b:e3:0f:45:e9:e7:b8:d0:32:9e:cf:bd:c5:70:f8:46
-----BEGIN CERTIFICATE-----
MIIB+DCCAZ2gAwIBAgIBMjAKBggqhkjOPQQDAjCBmzEZMBcGA1UEAwwQUmVnaW9u
ZSBDYWxhYnJpYTELMAkGA1UEBhMCSVQxDzANBgNVBAgMBkl0YWxpYTEYMBYGA1UE
CgwPRS1Wb3Rpbmcgc3lzdGVtMSIwIAYDVQQLDBlFLVZvdGluZyBzeXN0ZW0gYXV0
aG9yaXR5MSIwIAYJKoZIhvcNAQkBFhNDYWxhYnJpYUBldm90aW5nLml0MB4XDTIy
MDgwMzEzMjgyMloXDTIzMDgwMzEzMjgyMlowSTEOMAwGA1UEAwwFTGVyb3kxCzAJ
BgNVBAYTAklUMQ8wDQYDVQQIDAZJdGFsaWExGTAXBgNVBAoMEFJlZ2lvbmUgQ2Fs
YWJyaWEwWTATBgcqhkjOPQIBBggqhkjOPQMBBwNCAAREUfrcJcv4GVgldTQFqBZn
7jV0YiDlAB8MV8xrAydzO1aLzDWbMJR2Jsz4mZ/8Cc5lvaTSJ72WEb7yRtH7AJL8
oyMwITAOBgNVHQ8BAf8EBAMCBaAwDwYDVR0TAQH/BAUwAwIBAzAKBggqhkjOPQQD
AgNJADBGAiEA+ZnwqBRJe/nSyekKzdT9VQtbVtB7QLFDurxFcLKmkS8CIQD2selI
wAb12D/QRQUvOi9wi+MPRennuNAyns+9xXD4Rg==
-----END CERTIFICATE-----
