Certificate:
    Data:
        Version: 3 (0x2)
        Serial Number: 40 (0x28)
        Signature Algorithm: ecdsa-with-SHA256
        Issuer: CN=Regione Calabria, C=IT, ST=Italia, O=E-Voting system, OU=E-Voting system authority/emailAddress=Calabria@evoting.it
        Validity
            Not Before: Aug 26 15:21:32 2022 GMT
            Not After : Aug 26 15:21:32 2023 GMT
        Subject: CN=Leroy, C=IT, ST=Italia, O=Regione Calabria
        Subject Public Key Info:
            Public Key Algorithm: id-ecPublicKey
                Public-Key: (256 bit)
                pub:
                    04:51:7f:9f:a5:f5:5d:8d:d0:96:64:c0:b4:92:4d:
                    22:e0:1c:6e:3c:1a:4c:0e:0b:33:e6:8e:97:5b:e7:
                    52:fe:d5:53:1d:01:79:0c:cc:89:5f:b8:56:d6:c6:
                    91:1d:ca:c1:bd:4e:c1:13:65:68:08:65:e4:75:61:
                    fd:03:26:58:1b
                ASN1 OID: secp256k1
        X509v3 extensions:
            X509v3 Key Usage: critical
                Digital Signature, Key Encipherment
            X509v3 Basic Constraints: critical
                CA:FALSE, pathlen:3
    Signature Algorithm: ecdsa-with-SHA256
         30:44:02:20:0e:83:21:43:54:2f:e8:2a:32:8c:29:b4:7e:50:
         3b:0a:fa:7a:52:22:be:ca:bf:7f:54:54:31:b0:04:86:38:61:
         02:20:4c:3a:e1:c6:a1:fa:c5:ca:3e:9e:4c:37:0d:6c:d9:7a:
         dd:f8:21:e2:a3:13:07:35:1b:47:d5:21:ae:54:06:6f
-----BEGIN CERTIFICATE-----
MIIB8zCCAZqgAwIBAgIBKDAKBggqhkjOPQQDAjCBmzEZMBcGA1UEAwwQUmVnaW9u
ZSBDYWxhYnJpYTELMAkGA1UEBhMCSVQxDzANBgNVBAgMBkl0YWxpYTEYMBYGA1UE
CgwPRS1Wb3Rpbmcgc3lzdGVtMSIwIAYDVQQLDBlFLVZvdGluZyBzeXN0ZW0gYXV0
aG9yaXR5MSIwIAYJKoZIhvcNAQkBFhNDYWxhYnJpYUBldm90aW5nLml0MB4XDTIy
MDgyNjE1MjEzMloXDTIzMDgyNjE1MjEzMlowSTEOMAwGA1UEAwwFTGVyb3kxCzAJ
BgNVBAYTAklUMQ8wDQYDVQQIDAZJdGFsaWExGTAXBgNVBAoMEFJlZ2lvbmUgQ2Fs
YWJyaWEwVjAQBgcqhkjOPQIBBgUrgQQACgNCAARRf5+l9V2N0JZkwLSSTSLgHG48
GkwOCzPmjpdb51L+1VMdAXkMzIlfuFbWxpEdysG9TsETZWgIZeR1Yf0DJlgboyMw
ITAOBgNVHQ8BAf8EBAMCBaAwDwYDVR0TAQH/BAUwAwIBAzAKBggqhkjOPQQDAgNH
ADBEAiAOgyFDVC/oKjKMKbR+UDsK+npSIr7Kv39UVDGwBIY4YQIgTDrhxqH6xco+
nkw3DWzZet34IeKjEwc1G0fVIa5UBm8=
-----END CERTIFICATE-----
