Certificate:
    Data:
        Version: 3 (0x2)
        Serial Number: 45 (0x2d)
        Signature Algorithm: ecdsa-with-SHA256
        Issuer: CN=Regione Calabria, C=IT, ST=Italia, O=E-Voting system, OU=E-Voting system authority/emailAddress=Calabria@evoting.it
        Validity
            Not Before: Aug 26 15:21:41 2022 GMT
            Not After : Aug 26 15:21:41 2023 GMT
        Subject: CN=Leslie, C=IT, ST=Italia, O=Regione Calabria
        Subject Public Key Info:
            Public Key Algorithm: id-ecPublicKey
                Public-Key: (256 bit)
                pub:
                    04:a3:3a:17:a6:87:6b:6f:54:0d:02:58:5b:63:22:
                    27:28:5a:18:9b:29:ef:5d:96:f2:e6:47:a0:d6:31:
                    58:6d:3c:15:86:78:eb:e5:6b:17:3f:57:45:5a:de:
                    20:3c:88:0b:69:1a:72:33:05:7e:60:68:92:19:93:
                    95:cf:df:22:33
                ASN1 OID: secp256k1
        X509v3 extensions:
            X509v3 Key Usage: critical
                Digital Signature, Key Encipherment
            X509v3 Basic Constraints: critical
                CA:FALSE, pathlen:3
    Signature Algorithm: ecdsa-with-SHA256
         30:45:02:20:02:02:8f:64:36:aa:49:c1:8f:a6:a8:35:3c:9f:
         d2:bf:75:a4:f8:a8:ed:bd:c5:67:49:09:7a:f4:96:56:e5:01:
         02:21:00:a8:43:9b:e3:18:7d:01:64:4b:f7:b9:18:cf:9b:a4:
         af:ad:cc:0a:40:2a:a6:29:80:70:27:98:75:ef:22:81:31
-----BEGIN CERTIFICATE-----
MIIB9TCCAZugAwIBAgIBLTAKBggqhkjOPQQDAjCBmzEZMBcGA1UEAwwQUmVnaW9u
ZSBDYWxhYnJpYTELMAkGA1UEBhMCSVQxDzANBgNVBAgMBkl0YWxpYTEYMBYGA1UE
CgwPRS1Wb3Rpbmcgc3lzdGVtMSIwIAYDVQQLDBlFLVZvdGluZyBzeXN0ZW0gYXV0
aG9yaXR5MSIwIAYJKoZIhvcNAQkBFhNDYWxhYnJpYUBldm90aW5nLml0MB4XDTIy
MDgyNjE1MjE0MVoXDTIzMDgyNjE1MjE0MVowSjEPMA0GA1UEAwwGTGVzbGllMQsw
CQYDVQQGEwJJVDEPMA0GA1UECAwGSXRhbGlhMRkwFwYDVQQKDBBSZWdpb25lIENh
bGFicmlhMFYwEAYHKoZIzj0CAQYFK4EEAAoDQgAEozoXpodrb1QNAlhbYyInKFoY
mynvXZby5keg1jFYbTwVhnjr5WsXP1dFWt4gPIgLaRpyMwV+YGiSGZOVz98iM6Mj
MCEwDgYDVR0PAQH/BAQDAgWgMA8GA1UdEwEB/wQFMAMCAQMwCgYIKoZIzj0EAwID
SAAwRQIgAgKPZDaqScGPpqg1PJ/Sv3Wk+KjtvcVnSQl69JZW5QECIQCoQ5vjGH0B
ZEv3uRjPm6SvrcwKQCqmKYBwJ5h17yKBMQ==
-----END CERTIFICATE-----
