Certificate:
    Data:
        Version: 3 (0x2)
        Serial Number: 31 (0x1f)
        Signature Algorithm: ecdsa-with-SHA256
        Issuer: CN=Regione Friuli_Venezia_Giulia, C=IT, ST=Italia, O=E-Voting system, OU=E-Voting system authority/emailAddress=Friuli_Venezia_Giulia@evoting.it
        Validity
            Not Before: Aug 26 15:21:01 2022 GMT
            Not After : Aug 26 15:21:01 2023 GMT
        Subject: CN=Lester, C=IT, ST=Italia, O=Regione Friuli_Venezia_Giulia
        Subject Public Key Info:
            Public Key Algorithm: id-ecPublicKey
                Public-Key: (256 bit)
                pub:
                    04:bb:7a:ee:5c:1e:a5:c4:b6:ca:77:d0:f7:a3:e9:
                    4c:7e:fe:34:97:99:6e:32:a0:e7:18:f0:25:23:61:
                    ce:32:0c:be:0e:08:6b:07:3a:6b:27:c7:8c:2c:18:
                    ab:3b:a0:4d:5c:c8:76:23:9d:72:88:5e:5f:61:57:
                    83:0e:33:6d:9f
                ASN1 OID: secp256k1
        X509v3 extensions:
            X509v3 Key Usage: critical
                Digital Signature, Key Encipherment
            X509v3 Basic Constraints: critical
                CA:FALSE, pathlen:3
    Signature Algorithm: ecdsa-with-SHA256
         30:45:02:20:7d:d6:60:fa:88:45:dd:4f:d8:e5:0a:b9:9a:ba:
         44:df:e1:25:5b:36:30:58:05:ee:d8:7d:d8:29:28:84:15:2b:
         02:21:00:a0:04:db:39:a7:bf:01:21:e9:42:63:c8:d3:58:1d:
         03:cd:eb:f3:a0:8b:f8:de:13:1f:c4:5c:63:30:d4:99:d4
-----BEGIN CERTIFICATE-----
MIICHDCCAcKgAwIBAgIBHzAKBggqhkjOPQQDAjCBtTEmMCQGA1UEAwwdUmVnaW9u
ZSBGcml1bGlfVmVuZXppYV9HaXVsaWExCzAJBgNVBAYTAklUMQ8wDQYDVQQIDAZJ
dGFsaWExGDAWBgNVBAoMD0UtVm90aW5nIHN5c3RlbTEiMCAGA1UECwwZRS1Wb3Rp
bmcgc3lzdGVtIGF1dGhvcml0eTEvMC0GCSqGSIb3DQEJARYgRnJpdWxpX1ZlbmV6
aWFfR2l1bGlhQGV2b3RpbmcuaXQwHhcNMjIwODI2MTUyMTAxWhcNMjMwODI2MTUy
MTAxWjBXMQ8wDQYDVQQDDAZMZXN0ZXIxCzAJBgNVBAYTAklUMQ8wDQYDVQQIDAZJ
dGFsaWExJjAkBgNVBAoMHVJlZ2lvbmUgRnJpdWxpX1ZlbmV6aWFfR2l1bGlhMFYw
EAYHKoZIzj0CAQYFK4EEAAoDQgAEu3ruXB6lxLbKd9D3o+lMfv40l5luMqDnGPAl
I2HOMgy+DghrBzprJ8eMLBirO6BNXMh2I51yiF5fYVeDDjNtn6MjMCEwDgYDVR0P
AQH/BAQDAgWgMA8GA1UdEwEB/wQFMAMCAQMwCgYIKoZIzj0EAwIDSAAwRQIgfdZg
+ohF3U/Y5Qq5mrpE3+ElWzYwWAXu2H3YKSiEFSsCIQCgBNs5p78BIelCY8jTWB0D
zevzoIv43hMfxFxjMNSZ1A==
-----END CERTIFICATE-----
