Certificate:
    Data:
        Version: 3 (0x2)
        Serial Number: 15 (0xf)
        Signature Algorithm: ecdsa-with-SHA256
        Issuer: CN=Regione Trentino_Alto_Adige, C=IT, ST=Italia, O=E-Voting system, OU=E-Voting system authority/emailAddress=Trentino_Alto_Adige@evoting.it
        Validity
            Not Before: Aug  3 13:26:41 2022 GMT
            Not After : Aug  3 13:26:41 2023 GMT
        Subject: CN=Leticia, C=IT, ST=Italia, O=Regione Trentino_Alto_Adige
        Subject Public Key Info:
            Public Key Algorithm: id-ecPublicKey
                Public-Key: (256 bit)
                pub:
                    04:6c:cb:45:9f:cd:bb:be:2f:18:eb:13:54:81:97:
                    df:0a:55:cf:6e:e3:60:90:60:e6:1f:4c:1b:80:9e:
                    09:c2:ed:65:aa:d9:a4:e3:cc:e8:d6:10:6f:39:93:
                    6e:75:a9:d4:e9:8e:46:e2:44:5c:24:e9:9d:08:e1:
                    02:29:cc:f6:3a
                ASN1 OID: prime256v1
                NIST CURVE: P-256
        X509v3 extensions:
            X509v3 Key Usage: critical
                Digital Signature, Key Encipherment
            X509v3 Basic Constraints: critical
                CA:FALSE, pathlen:3
    Signature Algorithm: ecdsa-with-SHA256
         30:46:02:21:00:a0:dc:8f:a4:54:5c:a3:c6:40:43:6a:37:48:
         71:dd:e4:88:ee:f7:48:c1:eb:2c:e2:4e:ec:f9:7e:a3:4d:4d:
         1d:02:21:00:a6:00:ab:9d:68:9a:7e:0c:af:8c:1b:94:19:e7:
         cc:dd:18:fc:cc:ac:88:4e:7d:5d:8a:6d:c2:ed:3a:e9:ac:d8
-----BEGIN CERTIFICATE-----
MIICGzCCAcCgAwIBAgIBDzAKBggqhkjOPQQDAjCBsTEkMCIGA1UEAwwbUmVnaW9u
ZSBUcmVudGlub19BbHRvX0FkaWdlMQswCQYDVQQGEwJJVDEPMA0GA1UECAwGSXRh
bGlhMRgwFgYDVQQKDA9FLVZvdGluZyBzeXN0ZW0xIjAgBgNVBAsMGUUtVm90aW5n
IHN5c3RlbSBhdXRob3JpdHkxLTArBgkqhkiG9w0BCQEWHlRyZW50aW5vX0FsdG9f
QWRpZ2VAZXZvdGluZy5pdDAeFw0yMjA4MDMxMzI2NDFaFw0yMzA4MDMxMzI2NDFa
MFYxEDAOBgNVBAMMB0xldGljaWExCzAJBgNVBAYTAklUMQ8wDQYDVQQIDAZJdGFs
aWExJDAiBgNVBAoMG1JlZ2lvbmUgVHJlbnRpbm9fQWx0b19BZGlnZTBZMBMGByqG
SM49AgEGCCqGSM49AwEHA0IABGzLRZ/Nu74vGOsTVIGX3wpVz27jYJBg5h9MG4Ce
CcLtZarZpOPM6NYQbzmTbnWp1OmORuJEXCTpnQjhAinM9jqjIzAhMA4GA1UdDwEB
/wQEAwIFoDAPBgNVHRMBAf8EBTADAgEDMAoGCCqGSM49BAMCA0kAMEYCIQCg3I+k
VFyjxkBDajdIcd3kiO73SMHrLOJO7Pl+o01NHQIhAKYAq51omn4Mr4wblBnnzN0Y
/MysiE59XYptwu066azY
-----END CERTIFICATE-----
