Certificate:
    Data:
        Version: 3 (0x2)
        Serial Number: 46 (0x2e)
        Signature Algorithm: ecdsa-with-SHA256
        Issuer: CN=Regione Emilia_Romagna, C=IT, ST=Italia, O=E-Voting system, OU=E-Voting system authority/emailAddress=Emilia_Romagna@evoting.it
        Validity
            Not Before: Aug  3 13:28:42 2022 GMT
            Not After : Aug  3 13:28:42 2023 GMT
        Subject: CN=Lettie, C=IT, ST=Italia, O=Regione Emilia_Romagna
        Subject Public Key Info:
            Public Key Algorithm: id-ecPublicKey
                Public-Key: (256 bit)
                pub:
                    04:44:5b:85:1f:2b:fa:d4:9f:59:f4:74:c6:a8:f7:
                    9d:dc:ba:e9:e3:de:e5:89:55:70:c4:35:c0:8b:1e:
                    08:95:71:3e:f7:db:50:12:3c:67:df:4a:12:7c:da:
                    b2:c8:83:44:1b:e3:2b:df:09:d7:0b:4d:f8:37:b8:
                    4f:a6:58:7b:18
                ASN1 OID: prime256v1
                NIST CURVE: P-256
        X509v3 extensions:
            X509v3 Key Usage: critical
                Digital Signature, Key Encipherment
            X509v3 Basic Constraints: critical
                CA:FALSE, pathlen:3
    Signature Algorithm: ecdsa-with-SHA256
         30:44:02:20:18:e0:7a:ea:ee:89:db:4c:5c:1e:78:5b:bd:ee:
         92:96:d1:f9:bf:52:67:09:84:3d:ba:a1:72:09:f4:5b:56:db:
         02:20:53:b0:ec:98:f9:92:9a:12:e2:90:42:4a:a7:85:88:8c:
         a5:80:cf:68:9c:ad:af:30:34:0b:aa:43:50:6c:41:e9
-----BEGIN CERTIFICATE-----
MIICCTCCAbCgAwIBAgIBLjAKBggqhkjOPQQDAjCBpzEfMB0GA1UEAwwWUmVnaW9u
ZSBFbWlsaWFfUm9tYWduYTELMAkGA1UEBhMCSVQxDzANBgNVBAgMBkl0YWxpYTEY
MBYGA1UECgwPRS1Wb3Rpbmcgc3lzdGVtMSIwIAYDVQQLDBlFLVZvdGluZyBzeXN0
ZW0gYXV0aG9yaXR5MSgwJgYJKoZIhvcNAQkBFhlFbWlsaWFfUm9tYWduYUBldm90
aW5nLml0MB4XDTIyMDgwMzEzMjg0MloXDTIzMDgwMzEzMjg0MlowUDEPMA0GA1UE
AwwGTGV0dGllMQswCQYDVQQGEwJJVDEPMA0GA1UECAwGSXRhbGlhMR8wHQYDVQQK
DBZSZWdpb25lIEVtaWxpYV9Sb21hZ25hMFkwEwYHKoZIzj0CAQYIKoZIzj0DAQcD
QgAERFuFHyv61J9Z9HTGqPed3Lrp497liVVwxDXAix4IlXE+99tQEjxn30oSfNqy
yINEG+Mr3wnXC034N7hPplh7GKMjMCEwDgYDVR0PAQH/BAQDAgWgMA8GA1UdEwEB
/wQFMAMCAQMwCgYIKoZIzj0EAwIDRwAwRAIgGOB66u6J20xcHnhbve6SltH5v1Jn
CYQ9uqFyCfRbVtsCIFOw7Jj5kpoS4pBCSqeFiIylgM9onK2vMDQLqkNQbEHp
-----END CERTIFICATE-----
