Certificate:
    Data:
        Version: 3 (0x2)
        Serial Number: 11 (0xb)
        Signature Algorithm: ecdsa-with-SHA256
        Issuer: CN=Regione Friuli_Venezia_Giulia, C=IT, ST=Italia, O=E-Voting system, OU=E-Voting system authority/emailAddress=Friuli_Venezia_Giulia@evoting.it
        Validity
            Not Before: Aug  3 13:26:27 2022 GMT
            Not After : Aug  3 13:26:27 2023 GMT
        Subject: CN=Lewis, C=IT, ST=Italia, O=Regione Friuli_Venezia_Giulia
        Subject Public Key Info:
            Public Key Algorithm: id-ecPublicKey
                Public-Key: (256 bit)
                pub:
                    04:d2:f1:a3:6d:a0:b1:5c:89:3f:70:96:af:76:48:
                    27:cd:7d:3e:bb:02:8a:96:9f:ed:3b:38:e3:e4:fe:
                    66:cb:1d:48:49:91:7c:f6:d6:da:62:db:3f:81:3e:
                    bd:96:cc:ca:8c:8e:ae:a0:aa:47:a2:02:cc:77:08:
                    9b:9a:ff:cb:9e
                ASN1 OID: prime256v1
                NIST CURVE: P-256
        X509v3 extensions:
            X509v3 Key Usage: critical
                Digital Signature, Key Encipherment
            X509v3 Basic Constraints: critical
                CA:FALSE, pathlen:3
    Signature Algorithm: ecdsa-with-SHA256
         30:46:02:21:00:ad:70:52:cd:ba:82:36:6a:8f:c2:53:98:bf:
         94:08:59:f5:82:c9:57:4f:25:5d:31:ff:1a:db:31:3a:ed:9b:
         39:02:21:00:be:65:a8:7f:22:cf:64:33:17:63:70:b6:41:22:
         5a:f9:54:cc:66:ed:25:10:a4:12:5c:57:fa:07:cb:df:7d:8a
-----BEGIN CERTIFICATE-----
MIICHzCCAcSgAwIBAgIBCzAKBggqhkjOPQQDAjCBtTEmMCQGA1UEAwwdUmVnaW9u
ZSBGcml1bGlfVmVuZXppYV9HaXVsaWExCzAJBgNVBAYTAklUMQ8wDQYDVQQIDAZJ
dGFsaWExGDAWBgNVBAoMD0UtVm90aW5nIHN5c3RlbTEiMCAGA1UECwwZRS1Wb3Rp
bmcgc3lzdGVtIGF1dGhvcml0eTEvMC0GCSqGSIb3DQEJARYgRnJpdWxpX1ZlbmV6
aWFfR2l1bGlhQGV2b3RpbmcuaXQwHhcNMjIwODAzMTMyNjI3WhcNMjMwODAzMTMy
NjI3WjBWMQ4wDAYDVQQDDAVMZXdpczELMAkGA1UEBhMCSVQxDzANBgNVBAgMBkl0
YWxpYTEmMCQGA1UECgwdUmVnaW9uZSBGcml1bGlfVmVuZXppYV9HaXVsaWEwWTAT
BgcqhkjOPQIBBggqhkjOPQMBBwNCAATS8aNtoLFciT9wlq92SCfNfT67AoqWn+07
OOPk/mbLHUhJkXz21tpi2z+BPr2WzMqMjq6gqkeiAsx3CJua/8ueoyMwITAOBgNV
HQ8BAf8EBAMCBaAwDwYDVR0TAQH/BAUwAwIBAzAKBggqhkjOPQQDAgNJADBGAiEA
rXBSzbqCNmqPwlOYv5QIWfWCyVdPJV0x/xrbMTrtmzkCIQC+Zah/Is9kMxdjcLZB
Ilr5VMxm7SUQpBJcV/oHy999ig==
-----END CERTIFICATE-----
