Certificate:
    Data:
        Version: 3 (0x2)
        Serial Number: 1 (0x1)
        Signature Algorithm: ecdsa-with-SHA256
        Issuer: CN=Regione Liguria, C=IT, ST=Italia, O=E-Voting system, OU=E-Voting system authority/emailAddress=Liguria@evoting.it
        Validity
            Not Before: Aug 26 15:18:24 2022 GMT
            Not After : Aug 26 15:18:24 2023 GMT
        Subject: CN=Lewis, C=IT, ST=Italia, O=Regione Liguria
        Subject Public Key Info:
            Public Key Algorithm: id-ecPublicKey
                Public-Key: (256 bit)
                pub:
                    04:59:3d:42:ad:c1:5e:5c:10:d2:12:e6:3c:43:6e:
                    de:2b:9b:6d:f4:c3:fa:3c:46:31:a3:30:61:6b:74:
                    85:67:55:c5:6b:00:90:03:66:5e:ff:f8:64:75:8f:
                    5c:ee:2d:c0:07:b9:78:97:52:9e:df:36:e8:60:fe:
                    40:78:78:08:f8
                ASN1 OID: secp256k1
        X509v3 extensions:
            X509v3 Key Usage: critical
                Digital Signature, Key Encipherment
            X509v3 Basic Constraints: critical
                CA:FALSE, pathlen:3
    Signature Algorithm: ecdsa-with-SHA256
         30:46:02:21:00:db:a5:fb:68:8c:1b:7e:dd:93:4a:95:36:a5:
         fc:d2:41:f3:c7:46:4e:29:26:55:46:97:e2:1a:1e:62:2f:87:
         a5:02:21:00:98:a9:58:81:c1:ae:f7:cb:c6:24:2b:c9:76:7d:
         d7:f7:28:31:91:0b:03:52:3e:f7:57:c4:56:77:25:e7:d0:d3
-----BEGIN CERTIFICATE-----
MIIB8jCCAZegAwIBAgIBATAKBggqhkjOPQQDAjCBmTEYMBYGA1UEAwwPUmVnaW9u
ZSBMaWd1cmlhMQswCQYDVQQGEwJJVDEPMA0GA1UECAwGSXRhbGlhMRgwFgYDVQQK
DA9FLVZvdGluZyBzeXN0ZW0xIjAgBgNVBAsMGUUtVm90aW5nIHN5c3RlbSBhdXRo
b3JpdHkxITAfBgkqhkiG9w0BCQEWEkxpZ3VyaWFAZXZvdGluZy5pdDAeFw0yMjA4
MjYxNTE4MjRaFw0yMzA4MjYxNTE4MjRaMEgxDjAMBgNVBAMMBUxld2lzMQswCQYD
VQQGEwJJVDEPMA0GA1UECAwGSXRhbGlhMRgwFgYDVQQKDA9SZWdpb25lIExpZ3Vy
aWEwVjAQBgcqhkjOPQIBBgUrgQQACgNCAARZPUKtwV5cENIS5jxDbt4rm230w/o8
RjGjMGFrdIVnVcVrAJADZl7/+GR1j1zuLcAHuXiXUp7fNuhg/kB4eAj4oyMwITAO
BgNVHQ8BAf8EBAMCBaAwDwYDVR0TAQH/BAUwAwIBAzAKBggqhkjOPQQDAgNJADBG
AiEA26X7aIwbft2TSpU2pfzSQfPHRk4pJlVGl+IaHmIvh6UCIQCYqViBwa73y8Yk
K8l2fdf3KDGRCwNSPvdXxFZ3JefQ0w==
-----END CERTIFICATE-----
