Certificate:
    Data:
        Version: 3 (0x2)
        Serial Number: 4 (0x4)
        Signature Algorithm: ecdsa-with-SHA256
        Issuer: CN=Regione Emilia_Romagna, C=IT, ST=Italia, O=E-Voting system, OU=E-Voting system authority/emailAddress=Emilia_Romagna@evoting.it
        Validity
            Not Before: Aug  3 13:25:53 2022 GMT
            Not After : Aug  3 13:25:53 2023 GMT
        Subject: CN=Lila, C=IT, ST=Italia, O=Regione Emilia_Romagna
        Subject Public Key Info:
            Public Key Algorithm: id-ecPublicKey
                Public-Key: (256 bit)
                pub:
                    04:07:40:a2:8c:c6:0c:65:01:0e:20:dc:87:69:1f:
                    1e:c6:72:7c:6d:d4:7d:7e:26:99:bf:ed:37:31:ad:
                    f8:82:86:ca:8e:ba:20:88:db:a9:c5:a3:0d:d5:57:
                    de:28:4d:f6:15:86:5a:86:09:00:e3:e6:d7:b2:4b:
                    42:13:19:84:64
                ASN1 OID: prime256v1
                NIST CURVE: P-256
        X509v3 extensions:
            X509v3 Key Usage: critical
                Digital Signature, Key Encipherment
            X509v3 Basic Constraints: critical
                CA:FALSE, pathlen:3
    Signature Algorithm: ecdsa-with-SHA256
         30:46:02:21:00:87:25:bd:68:66:a1:9a:df:94:94:57:d8:2b:
         56:1b:38:e0:23:6b:a1:b2:34:20:4d:35:db:dc:0e:a6:45:16:
         6d:02:21:00:8f:dc:5a:1f:20:a2:62:71:ac:d4:31:04:b5:08:
         2d:f6:b6:17:48:d1:e9:74:30:36:02:74:29:84:c2:86:fb:26
-----BEGIN CERTIFICATE-----
MIICCTCCAa6gAwIBAgIBBDAKBggqhkjOPQQDAjCBpzEfMB0GA1UEAwwWUmVnaW9u
ZSBFbWlsaWFfUm9tYWduYTELMAkGA1UEBhMCSVQxDzANBgNVBAgMBkl0YWxpYTEY
MBYGA1UECgwPRS1Wb3Rpbmcgc3lzdGVtMSIwIAYDVQQLDBlFLVZvdGluZyBzeXN0
ZW0gYXV0aG9yaXR5MSgwJgYJKoZIhvcNAQkBFhlFbWlsaWFfUm9tYWduYUBldm90
aW5nLml0MB4XDTIyMDgwMzEzMjU1M1oXDTIzMDgwMzEzMjU1M1owTjENMAsGA1UE
AwwETGlsYTELMAkGA1UEBhMCSVQxDzANBgNVBAgMBkl0YWxpYTEfMB0GA1UECgwW
UmVnaW9uZSBFbWlsaWFfUm9tYWduYTBZMBMGByqGSM49AgEGCCqGSM49AwEHA0IA
BAdAoozGDGUBDiDch2kfHsZyfG3UfX4mmb/tNzGt+IKGyo66IIjbqcWjDdVX3ihN
9hWGWoYJAOPm17JLQhMZhGSjIzAhMA4GA1UdDwEB/wQEAwIFoDAPBgNVHRMBAf8E
BTADAgEDMAoGCCqGSM49BAMCA0kAMEYCIQCHJb1oZqGa35SUV9grVhs44CNrobI0
IE0129wOpkUWbQIhAI/cWh8gomJxrNQxBLUILfa2F0jR6XQwNgJ0KYTChvsm
-----END CERTIFICATE-----
