Certificate:
    Data:
        Version: 3 (0x2)
        Serial Number: 33 (0x21)
        Signature Algorithm: ecdsa-with-SHA256
        Issuer: CN=Regione Puglia, C=IT, ST=Italia, O=E-Voting system, OU=E-Voting system authority/emailAddress=Puglia@evoting.it
        Validity
            Not Before: Aug 26 15:20:34 2022 GMT
            Not After : Aug 26 15:20:34 2023 GMT
        Subject: CN=Liliana, C=IT, ST=Italia, O=Regione Puglia
        Subject Public Key Info:
            Public Key Algorithm: id-ecPublicKey
                Public-Key: (256 bit)
                pub:
                    04:7e:c5:ff:e2:53:e3:ca:24:7c:ab:6d:ad:c0:69:
                    23:b1:c6:c5:8d:17:1b:a3:e3:52:be:42:76:36:73:
                    68:36:07:f5:ea:f9:cd:f9:c6:5e:78:4f:50:6c:25:
                    c2:ae:c6:a3:2a:b9:8c:1c:36:39:fa:b1:6a:3b:f4:
                    3f:1b:3f:80:a8
                ASN1 OID: secp256k1
        X509v3 extensions:
            X509v3 Key Usage: critical
                Digital Signature, Key Encipherment
            X509v3 Basic Constraints: critical
                CA:FALSE, pathlen:3
    Signature Algorithm: ecdsa-with-SHA256
         30:44:02:20:5f:95:ad:ff:9e:4a:60:10:db:62:36:d3:37:96:
         8e:6f:c1:8c:2b:36:f7:82:17:80:d7:0a:3e:04:19:e8:8f:23:
         02:20:16:a0:8d:86:28:1c:96:ef:c7:27:8f:c4:dc:19:8f:f7:
         eb:a8:cd:0b:fe:ad:1d:2e:59:f8:d3:46:35:e6:28:a4
-----BEGIN CERTIFICATE-----
MIIB7zCCAZagAwIBAgIBITAKBggqhkjOPQQDAjCBlzEXMBUGA1UEAwwOUmVnaW9u
ZSBQdWdsaWExCzAJBgNVBAYTAklUMQ8wDQYDVQQIDAZJdGFsaWExGDAWBgNVBAoM
D0UtVm90aW5nIHN5c3RlbTEiMCAGA1UECwwZRS1Wb3Rpbmcgc3lzdGVtIGF1dGhv
cml0eTEgMB4GCSqGSIb3DQEJARYRUHVnbGlhQGV2b3RpbmcuaXQwHhcNMjIwODI2
MTUyMDM0WhcNMjMwODI2MTUyMDM0WjBJMRAwDgYDVQQDDAdMaWxpYW5hMQswCQYD
VQQGEwJJVDEPMA0GA1UECAwGSXRhbGlhMRcwFQYDVQQKDA5SZWdpb25lIFB1Z2xp
YTBWMBAGByqGSM49AgEGBSuBBAAKA0IABH7F/+JT48okfKttrcBpI7HGxY0XG6Pj
Ur5CdjZzaDYH9er5zfnGXnhPUGwlwq7Goyq5jBw2Ofqxajv0Pxs/gKijIzAhMA4G
A1UdDwEB/wQEAwIFoDAPBgNVHRMBAf8EBTADAgEDMAoGCCqGSM49BAMCA0cAMEQC
IF+Vrf+eSmAQ22I20zeWjm/BjCs294IXgNcKPgQZ6I8jAiAWoI2GKByW78cnj8Tc
GY/366jNC/6tHS5Z+NNGNeYopA==
-----END CERTIFICATE-----
