Certificate:
    Data:
        Version: 3 (0x2)
        Serial Number: 6 (0x6)
        Signature Algorithm: ecdsa-with-SHA256
        Issuer: CN=Regione Lombardia, C=IT, ST=Italia, O=E-Voting system, OU=E-Voting system authority/emailAddress=Lombardia@evoting.it
        Validity
            Not Before: Aug 26 15:19:11 2022 GMT
            Not After : Aug 26 15:19:11 2023 GMT
        Subject: CN=Lillian, C=IT, ST=Italia, O=Regione Lombardia
        Subject Public Key Info:
            Public Key Algorithm: id-ecPublicKey
                Public-Key: (256 bit)
                pub:
                    04:73:e4:2c:e3:fe:74:8b:18:19:54:bf:d8:dc:38:
                    92:6f:e1:a7:2a:21:01:dc:13:c8:e0:09:48:47:49:
                    19:ef:86:76:4b:e8:b0:4e:5f:d0:18:49:fa:ab:5c:
                    66:89:f0:53:53:b3:ba:e1:33:74:54:b4:cc:93:cf:
                    f0:45:f0:09:73
                ASN1 OID: secp256k1
        X509v3 extensions:
            X509v3 Key Usage: critical
                Digital Signature, Key Encipherment
            X509v3 Basic Constraints: critical
                CA:FALSE, pathlen:3
    Signature Algorithm: ecdsa-with-SHA256
         30:45:02:20:02:e5:2d:93:4a:86:c0:aa:07:d2:a3:a0:e6:f3:
         52:d8:dd:92:a8:39:1c:d1:22:af:a1:3d:e3:b5:e1:aa:e3:c7:
         02:21:00:b5:f1:20:9d:70:2f:eb:9a:d4:48:50:1b:e7:b7:51:
         57:87:ad:ba:69:82:52:60:12:78:e8:d3:1f:19:fa:f2:48
-----BEGIN CERTIFICATE-----
MIIB+TCCAZ+gAwIBAgIBBjAKBggqhkjOPQQDAjCBnTEaMBgGA1UEAwwRUmVnaW9u
ZSBMb21iYXJkaWExCzAJBgNVBAYTAklUMQ8wDQYDVQQIDAZJdGFsaWExGDAWBgNV
BAoMD0UtVm90aW5nIHN5c3RlbTEiMCAGA1UECwwZRS1Wb3Rpbmcgc3lzdGVtIGF1
dGhvcml0eTEjMCEGCSqGSIb3DQEJARYUTG9tYmFyZGlhQGV2b3RpbmcuaXQwHhcN
MjIwODI2MTUxOTExWhcNMjMwODI2MTUxOTExWjBMMRAwDgYDVQQDDAdMaWxsaWFu
MQswCQYDVQQGEwJJVDEPMA0GA1UECAwGSXRhbGlhMRowGAYDVQQKDBFSZWdpb25l
IExvbWJhcmRpYTBWMBAGByqGSM49AgEGBSuBBAAKA0IABHPkLOP+dIsYGVS/2Nw4
km/hpyohAdwTyOAJSEdJGe+GdkvosE5f0BhJ+qtcZonwU1OzuuEzdFS0zJPP8EXw
CXOjIzAhMA4GA1UdDwEB/wQEAwIFoDAPBgNVHRMBAf8EBTADAgEDMAoGCCqGSM49
BAMCA0gAMEUCIALlLZNKhsCqB9KjoObzUtjdkqg5HNEir6E947XhquPHAiEAtfEg
nXAv65rUSFAb57dRV4etummCUmASeOjTHxn68kg=
-----END CERTIFICATE-----
