Certificate:
    Data:
        Version: 3 (0x2)
        Serial Number: 4 (0x4)
        Signature Algorithm: ecdsa-with-SHA256
        Issuer: CN=Regione Valle_d_Aosta, C=IT, ST=Italia, O=E-Voting system, OU=E-Voting system authority/emailAddress=Valle_d_Aosta@evoting.it
        Validity
            Not Before: Aug  3 13:25:57 2022 GMT
            Not After : Aug  3 13:25:57 2023 GMT
        Subject: CN=Lillie, C=IT, ST=Italia, O=Regione Valle_d_Aosta
        Subject Public Key Info:
            Public Key Algorithm: id-ecPublicKey
                Public-Key: (256 bit)
                pub:
                    04:c2:1f:1c:51:87:1e:f6:5a:59:7a:7b:46:f0:00:
                    38:89:6c:fc:b8:4b:5e:a8:de:6d:cd:0b:f8:87:95:
                    08:d9:2b:c5:c0:50:83:96:dc:2a:69:25:ef:47:eb:
                    c6:e4:a3:c7:98:33:33:56:dd:8d:9d:44:ac:cb:3a:
                    c2:49:9b:9a:7f
                ASN1 OID: prime256v1
                NIST CURVE: P-256
        X509v3 extensions:
            X509v3 Key Usage: critical
                Digital Signature, Key Encipherment
            X509v3 Basic Constraints: critical
                CA:FALSE, pathlen:3
    Signature Algorithm: ecdsa-with-SHA256
         30:44:02:20:65:f2:b9:a2:55:f0:b6:9e:0a:de:52:f3:a7:ee:
         09:89:56:3b:a1:64:0b:88:de:4b:a0:dd:a4:20:2e:43:53:68:
         02:20:46:fa:b0:76:62:27:65:97:8a:84:fc:47:df:af:89:5f:
         63:c9:c7:16:23:01:4f:84:72:c6:e2:e7:a9:cc:a0:ed
-----BEGIN CERTIFICATE-----
MIICBjCCAa2gAwIBAgIBBDAKBggqhkjOPQQDAjCBpTEeMBwGA1UEAwwVUmVnaW9u
ZSBWYWxsZV9kX0Fvc3RhMQswCQYDVQQGEwJJVDEPMA0GA1UECAwGSXRhbGlhMRgw
FgYDVQQKDA9FLVZvdGluZyBzeXN0ZW0xIjAgBgNVBAsMGUUtVm90aW5nIHN5c3Rl
bSBhdXRob3JpdHkxJzAlBgkqhkiG9w0BCQEWGFZhbGxlX2RfQW9zdGFAZXZvdGlu
Zy5pdDAeFw0yMjA4MDMxMzI1NTdaFw0yMzA4MDMxMzI1NTdaME8xDzANBgNVBAMM
BkxpbGxpZTELMAkGA1UEBhMCSVQxDzANBgNVBAgMBkl0YWxpYTEeMBwGA1UECgwV
UmVnaW9uZSBWYWxsZV9kX0Fvc3RhMFkwEwYHKoZIzj0CAQYIKoZIzj0DAQcDQgAE
wh8cUYce9lpZentG8AA4iWz8uEteqN5tzQv4h5UI2SvFwFCDltwqaSXvR+vG5KPH
mDMzVt2NnUSsyzrCSZuaf6MjMCEwDgYDVR0PAQH/BAQDAgWgMA8GA1UdEwEB/wQF
MAMCAQMwCgYIKoZIzj0EAwIDRwAwRAIgZfK5olXwtp4K3lLzp+4JiVY7oWQLiN5L
oN2kIC5DU2gCIEb6sHZiJ2WXioT8R9+viV9jyccWIwFPhHLG4uepzKDt
-----END CERTIFICATE-----
