Certificate:
    Data:
        Version: 3 (0x2)
        Serial Number: 38 (0x26)
        Signature Algorithm: ecdsa-with-SHA256
        Issuer: CN=Regione Emilia_Romagna, C=IT, ST=Italia, O=E-Voting system, OU=E-Voting system authority/emailAddress=Emilia_Romagna@evoting.it
        Validity
            Not Before: Aug 26 15:20:56 2022 GMT
            Not After : Aug 26 15:20:56 2023 GMT
        Subject: CN=Lindsay, C=IT, ST=Italia, O=Regione Emilia_Romagna
        Subject Public Key Info:
            Public Key Algorithm: id-ecPublicKey
                Public-Key: (256 bit)
                pub:
                    04:5f:79:0a:14:e1:85:6b:a5:6b:1b:70:51:bd:ba:
                    17:10:52:48:bf:00:1d:56:86:db:51:22:da:9d:b5:
                    d0:a1:5d:a9:27:0a:42:99:57:1e:df:b2:f8:5c:26:
                    de:3c:89:48:3d:4d:68:15:f3:b1:70:20:1c:f6:03:
                    50:dd:c6:71:83
                ASN1 OID: secp256k1
        X509v3 extensions:
            X509v3 Key Usage: critical
                Digital Signature, Key Encipherment
            X509v3 Basic Constraints: critical
                CA:FALSE, pathlen:3
    Signature Algorithm: ecdsa-with-SHA256
         30:45:02:21:00:f7:2e:e8:62:02:a6:ca:66:dd:56:db:67:fe:
         42:6e:7a:a4:c7:e0:d3:f1:6f:1c:a0:62:53:bf:9a:b6:ed:41:
         24:02:20:36:10:8a:3e:10:d1:7e:b3:09:59:04:50:4c:aa:c5:
         5d:66:95:45:50:49:92:bf:df:a5:ca:06:2e:ca:20:bc:e0
-----BEGIN CERTIFICATE-----
MIICCDCCAa6gAwIBAgIBJjAKBggqhkjOPQQDAjCBpzEfMB0GA1UEAwwWUmVnaW9u
ZSBFbWlsaWFfUm9tYWduYTELMAkGA1UEBhMCSVQxDzANBgNVBAgMBkl0YWxpYTEY
MBYGA1UECgwPRS1Wb3Rpbmcgc3lzdGVtMSIwIAYDVQQLDBlFLVZvdGluZyBzeXN0
ZW0gYXV0aG9yaXR5MSgwJgYJKoZIhvcNAQkBFhlFbWlsaWFfUm9tYWduYUBldm90
aW5nLml0MB4XDTIyMDgyNjE1MjA1NloXDTIzMDgyNjE1MjA1NlowUTEQMA4GA1UE
AwwHTGluZHNheTELMAkGA1UEBhMCSVQxDzANBgNVBAgMBkl0YWxpYTEfMB0GA1UE
CgwWUmVnaW9uZSBFbWlsaWFfUm9tYWduYTBWMBAGByqGSM49AgEGBSuBBAAKA0IA
BF95ChThhWulaxtwUb26FxBSSL8AHVaG21Ei2p210KFdqScKQplXHt+y+Fwm3jyJ
SD1NaBXzsXAgHPYDUN3GcYOjIzAhMA4GA1UdDwEB/wQEAwIFoDAPBgNVHRMBAf8E
BTADAgEDMAoGCCqGSM49BAMCA0gAMEUCIQD3LuhiAqbKZt1W22f+Qm56pMfg0/Fv
HKBiU7+atu1BJAIgNhCKPhDRfrMJWQRQTKrFXWaVRVBJkr/fpcoGLsogvOA=
-----END CERTIFICATE-----
