Certificate:
    Data:
        Version: 3 (0x2)
        Serial Number: 48 (0x30)
        Signature Algorithm: ecdsa-with-SHA256
        Issuer: CN=Regione Piemonte, C=IT, ST=Italia, O=E-Voting system, OU=E-Voting system authority/emailAddress=Piemonte@evoting.it
        Validity
            Not Before: Aug 26 15:21:36 2022 GMT
            Not After : Aug 26 15:21:36 2023 GMT
        Subject: CN=Lindsey, C=IT, ST=Italia, O=Regione Piemonte
        Subject Public Key Info:
            Public Key Algorithm: id-ecPublicKey
                Public-Key: (256 bit)
                pub:
                    04:fe:bf:00:d0:ae:8d:23:54:38:5e:ed:87:bb:75:
                    15:b2:b3:a4:02:57:80:26:c1:7b:57:e4:78:4d:8f:
                    ff:91:62:79:f3:fd:95:a3:bb:7d:37:8e:a3:65:9d:
                    0a:31:bd:95:6a:f9:e2:5c:ec:91:bf:91:ec:a3:25:
                    95:5c:0c:0c:96
                ASN1 OID: secp256k1
        X509v3 extensions:
            X509v3 Key Usage: critical
                Digital Signature, Key Encipherment
            X509v3 Basic Constraints: critical
                CA:FALSE, pathlen:3
    Signature Algorithm: ecdsa-with-SHA256
         30:45:02:21:00:cd:b1:07:81:bc:bf:90:35:0c:72:4e:c7:62:
         dd:9d:0e:6b:04:a3:12:57:81:a8:9c:32:2f:f4:43:94:57:37:
         ab:02:20:70:08:a2:00:72:1d:a3:4d:ca:d9:a2:0f:49:7c:56:
         1f:32:1d:5a:2f:bb:b2:8a:8e:fd:07:b4:dc:ab:41:bb:bf
-----BEGIN CERTIFICATE-----
MIIB9jCCAZygAwIBAgIBMDAKBggqhkjOPQQDAjCBmzEZMBcGA1UEAwwQUmVnaW9u
ZSBQaWVtb250ZTELMAkGA1UEBhMCSVQxDzANBgNVBAgMBkl0YWxpYTEYMBYGA1UE
CgwPRS1Wb3Rpbmcgc3lzdGVtMSIwIAYDVQQLDBlFLVZvdGluZyBzeXN0ZW0gYXV0
aG9yaXR5MSIwIAYJKoZIhvcNAQkBFhNQaWVtb250ZUBldm90aW5nLml0MB4XDTIy
MDgyNjE1MjEzNloXDTIzMDgyNjE1MjEzNlowSzEQMA4GA1UEAwwHTGluZHNleTEL
MAkGA1UEBhMCSVQxDzANBgNVBAgMBkl0YWxpYTEZMBcGA1UECgwQUmVnaW9uZSBQ
aWVtb250ZTBWMBAGByqGSM49AgEGBSuBBAAKA0IABP6/ANCujSNUOF7th7t1FbKz
pAJXgCbBe1fkeE2P/5FiefP9laO7fTeOo2WdCjG9lWr54lzskb+R7KMllVwMDJaj
IzAhMA4GA1UdDwEB/wQEAwIFoDAPBgNVHRMBAf8EBTADAgEDMAoGCCqGSM49BAMC
A0gAMEUCIQDNsQeBvL+QNQxyTsdi3Z0OawSjEleBqJwyL/RDlFc3qwIgcAiiAHId
o03K2aIPSXxWHzIdWi+7soqO/Qe03KtBu78=
-----END CERTIFICATE-----
