Certificate:
    Data:
        Version: 3 (0x2)
        Serial Number: 54 (0x36)
        Signature Algorithm: ecdsa-with-SHA256
        Issuer: CN=Regione Piemonte, C=IT, ST=Italia, O=E-Voting system, OU=E-Voting system authority/emailAddress=Piemonte@evoting.it
        Validity
            Not Before: Aug  3 13:27:55 2022 GMT
            Not After : Aug  3 13:27:55 2023 GMT
        Subject: CN=Lindsey, C=IT, ST=Italia, O=Regione Piemonte
        Subject Public Key Info:
            Public Key Algorithm: id-ecPublicKey
                Public-Key: (256 bit)
                pub:
                    04:5c:92:a1:d9:3f:e6:47:4f:ff:43:2f:d1:90:d2:
                    03:b1:25:6d:58:48:b6:89:fb:e1:6b:b7:f6:24:00:
                    be:21:ea:f8:95:78:70:3c:f1:3f:26:59:2d:39:3a:
                    1a:63:aa:64:77:9f:87:a9:4c:11:12:41:d4:2a:1f:
                    02:2c:b5:de:8a
                ASN1 OID: prime256v1
                NIST CURVE: P-256
        X509v3 extensions:
            X509v3 Key Usage: critical
                Digital Signature, Key Encipherment
            X509v3 Basic Constraints: critical
                CA:FALSE, pathlen:3
    Signature Algorithm: ecdsa-with-SHA256
         30:44:02:20:7b:a5:97:5d:ed:92:72:fa:3c:83:68:6b:fd:2a:
         19:1d:8a:83:90:ee:40:35:57:17:83:e2:b8:11:0c:40:6b:5f:
         02:20:2e:84:12:e2:ee:f2:e6:64:6e:58:56:7e:6d:cc:95:b7:
         fb:39:fa:a8:60:5a:db:da:78:db:f7:4f:98:0c:f4:01
-----BEGIN CERTIFICATE-----
MIIB+DCCAZ+gAwIBAgIBNjAKBggqhkjOPQQDAjCBmzEZMBcGA1UEAwwQUmVnaW9u
ZSBQaWVtb250ZTELMAkGA1UEBhMCSVQxDzANBgNVBAgMBkl0YWxpYTEYMBYGA1UE
CgwPRS1Wb3Rpbmcgc3lzdGVtMSIwIAYDVQQLDBlFLVZvdGluZyBzeXN0ZW0gYXV0
aG9yaXR5MSIwIAYJKoZIhvcNAQkBFhNQaWVtb250ZUBldm90aW5nLml0MB4XDTIy
MDgwMzEzMjc1NVoXDTIzMDgwMzEzMjc1NVowSzEQMA4GA1UEAwwHTGluZHNleTEL
MAkGA1UEBhMCSVQxDzANBgNVBAgMBkl0YWxpYTEZMBcGA1UECgwQUmVnaW9uZSBQ
aWVtb250ZTBZMBMGByqGSM49AgEGCCqGSM49AwEHA0IABFySodk/5kdP/0Mv0ZDS
A7ElbVhIton74Wu39iQAviHq+JV4cDzxPyZZLTk6GmOqZHefh6lMERJB1CofAiy1
3oqjIzAhMA4GA1UdDwEB/wQEAwIFoDAPBgNVHRMBAf8EBTADAgEDMAoGCCqGSM49
BAMCA0cAMEQCIHull13tknL6PINoa/0qGR2Kg5DuQDVXF4PiuBEMQGtfAiAuhBLi
7vLmZG5YVn5tzJW3+zn6qGBa29p42/dPmAz0AQ==
-----END CERTIFICATE-----
