Certificate:
    Data:
        Version: 3 (0x2)
        Serial Number: 48 (0x30)
        Signature Algorithm: ecdsa-with-SHA256
        Issuer: CN=Regione Lombardia, C=IT, ST=Italia, O=E-Voting system, OU=E-Voting system authority/emailAddress=Lombardia@evoting.it
        Validity
            Not Before: Aug  3 13:28:22 2022 GMT
            Not After : Aug  3 13:28:22 2023 GMT
        Subject: CN=Linda, C=IT, ST=Italia, O=Regione Lombardia
        Subject Public Key Info:
            Public Key Algorithm: id-ecPublicKey
                Public-Key: (256 bit)
                pub:
                    04:0a:dd:99:60:e5:e1:43:ec:12:51:ec:90:5c:6e:
                    d7:f8:ea:3b:46:99:fc:0e:c0:e8:0c:00:13:d3:22:
                    f0:37:4d:9d:98:58:9e:84:58:17:41:1f:1b:97:57:
                    7b:da:40:45:bc:5c:9f:96:a8:8f:71:58:7b:e2:d6:
                    5b:f5:48:85:79
                ASN1 OID: prime256v1
                NIST CURVE: P-256
        X509v3 extensions:
            X509v3 Key Usage: critical
                Digital Signature, Key Encipherment
            X509v3 Basic Constraints: critical
                CA:FALSE, pathlen:3
    Signature Algorithm: ecdsa-with-SHA256
         30:43:02:1f:70:77:c9:16:42:cd:4e:99:ce:ad:19:7e:69:84:
         78:a9:0f:13:03:a1:df:be:aa:aa:2c:ef:15:3a:45:61:74:02:
         20:44:c2:22:dd:74:ae:e7:fb:23:32:ef:fd:73:4f:7b:cd:0e:
         d0:15:96:9f:fc:66:5f:de:1f:ce:90:02:1b:6c:27
-----BEGIN CERTIFICATE-----
MIIB+DCCAaCgAwIBAgIBMDAKBggqhkjOPQQDAjCBnTEaMBgGA1UEAwwRUmVnaW9u
ZSBMb21iYXJkaWExCzAJBgNVBAYTAklUMQ8wDQYDVQQIDAZJdGFsaWExGDAWBgNV
BAoMD0UtVm90aW5nIHN5c3RlbTEiMCAGA1UECwwZRS1Wb3Rpbmcgc3lzdGVtIGF1
dGhvcml0eTEjMCEGCSqGSIb3DQEJARYUTG9tYmFyZGlhQGV2b3RpbmcuaXQwHhcN
MjIwODAzMTMyODIyWhcNMjMwODAzMTMyODIyWjBKMQ4wDAYDVQQDDAVMaW5kYTEL
MAkGA1UEBhMCSVQxDzANBgNVBAgMBkl0YWxpYTEaMBgGA1UECgwRUmVnaW9uZSBM
b21iYXJkaWEwWTATBgcqhkjOPQIBBggqhkjOPQMBBwNCAAQK3Zlg5eFD7BJR7JBc
btf46jtGmfwOwOgMABPTIvA3TZ2YWJ6EWBdBHxuXV3vaQEW8XJ+WqI9xWHvi1lv1
SIV5oyMwITAOBgNVHQ8BAf8EBAMCBaAwDwYDVR0TAQH/BAUwAwIBAzAKBggqhkjO
PQQDAgNGADBDAh9wd8kWQs1Omc6tGX5phHipDxMDod++qqos7xU6RWF0AiBEwiLd
dK7n+yMy7/1zT3vNDtAVlp/8Zl/eH86QAhtsJw==
-----END CERTIFICATE-----
