Certificate:
    Data:
        Version: 3 (0x2)
        Serial Number: 14 (0xe)
        Signature Algorithm: ecdsa-with-SHA256
        Issuer: CN=Regione Friuli_Venezia_Giulia, C=IT, ST=Italia, O=E-Voting system, OU=E-Voting system authority/emailAddress=Friuli_Venezia_Giulia@evoting.it
        Validity
            Not Before: Aug 26 15:19:22 2022 GMT
            Not After : Aug 26 15:19:22 2023 GMT
        Subject: CN=Linda, C=IT, ST=Italia, O=Regione Friuli_Venezia_Giulia
        Subject Public Key Info:
            Public Key Algorithm: id-ecPublicKey
                Public-Key: (256 bit)
                pub:
                    04:14:5e:59:2e:ad:f2:fb:a9:c8:02:f4:04:88:ed:
                    56:a1:2b:8a:90:ce:11:75:be:fd:6a:49:27:b6:15:
                    51:42:2b:38:bf:cf:f0:bb:07:9f:b2:4d:a2:d1:d0:
                    08:64:fc:63:85:68:f6:ec:7e:68:cd:6d:50:ac:d8:
                    85:bf:a1:8d:03
                ASN1 OID: secp256k1
        X509v3 extensions:
            X509v3 Key Usage: critical
                Digital Signature, Key Encipherment
            X509v3 Basic Constraints: critical
                CA:FALSE, pathlen:3
    Signature Algorithm: ecdsa-with-SHA256
         30:45:02:21:00:95:09:c7:b2:9c:b0:9b:f3:30:62:39:08:03:
         f4:ac:77:90:8d:de:19:7f:75:45:d4:65:72:ed:1f:12:e8:74:
         53:02:20:43:d9:f9:a8:29:b6:1c:78:d0:99:3b:7c:99:5e:fe:
         1b:81:65:34:0a:ae:82:9d:d8:44:f4:e9:3a:91:f0:34:31
-----BEGIN CERTIFICATE-----
MIICGzCCAcGgAwIBAgIBDjAKBggqhkjOPQQDAjCBtTEmMCQGA1UEAwwdUmVnaW9u
ZSBGcml1bGlfVmVuZXppYV9HaXVsaWExCzAJBgNVBAYTAklUMQ8wDQYDVQQIDAZJ
dGFsaWExGDAWBgNVBAoMD0UtVm90aW5nIHN5c3RlbTEiMCAGA1UECwwZRS1Wb3Rp
bmcgc3lzdGVtIGF1dGhvcml0eTEvMC0GCSqGSIb3DQEJARYgRnJpdWxpX1ZlbmV6
aWFfR2l1bGlhQGV2b3RpbmcuaXQwHhcNMjIwODI2MTUxOTIyWhcNMjMwODI2MTUx
OTIyWjBWMQ4wDAYDVQQDDAVMaW5kYTELMAkGA1UEBhMCSVQxDzANBgNVBAgMBkl0
YWxpYTEmMCQGA1UECgwdUmVnaW9uZSBGcml1bGlfVmVuZXppYV9HaXVsaWEwVjAQ
BgcqhkjOPQIBBgUrgQQACgNCAAQUXlkurfL7qcgC9ASI7VahK4qQzhF1vv1qSSe2
FVFCKzi/z/C7B5+yTaLR0Ahk/GOFaPbsfmjNbVCs2IW/oY0DoyMwITAOBgNVHQ8B
Af8EBAMCBaAwDwYDVR0TAQH/BAUwAwIBAzAKBggqhkjOPQQDAgNIADBFAiEAlQnH
spywm/MwYjkIA/Ssd5CN3hl/dUXUZXLtHxLodFMCIEPZ+agpthx40Jk7fJle/huB
ZTQKroKd2ET06TqR8DQx
-----END CERTIFICATE-----
