Certificate:
    Data:
        Version: 3 (0x2)
        Serial Number: 44 (0x2c)
        Signature Algorithm: ecdsa-with-SHA256
        Issuer: CN=Regione Piemonte, C=IT, ST=Italia, O=E-Voting system, OU=E-Voting system authority/emailAddress=Piemonte@evoting.it
        Validity
            Not Before: Aug  3 13:27:25 2022 GMT
            Not After : Aug  3 13:27:25 2023 GMT
        Subject: CN=Lino, C=IT, ST=Italia, O=Regione Piemonte
        Subject Public Key Info:
            Public Key Algorithm: id-ecPublicKey
                Public-Key: (256 bit)
                pub:
                    04:8e:ba:78:d5:1e:63:85:52:a0:79:53:c7:e9:e7:
                    8e:f1:66:64:b1:4f:d2:74:92:f2:f9:9a:76:4f:94:
                    7c:77:17:8e:e4:30:6f:3a:a5:fd:86:a5:8e:92:98:
                    96:e3:65:e0:ad:94:b8:90:75:2b:c8:87:f0:c8:22:
                    b0:48:fa:fe:21
                ASN1 OID: prime256v1
                NIST CURVE: P-256
        X509v3 extensions:
            X509v3 Key Usage: critical
                Digital Signature, Key Encipherment
            X509v3 Basic Constraints: critical
                CA:FALSE, pathlen:3
    Signature Algorithm: ecdsa-with-SHA256
         30:44:02:20:6f:f9:70:08:73:f7:b2:0b:78:8c:20:ce:68:b6:
         ec:c8:f5:c3:cb:f7:db:c8:f5:20:93:b0:ef:f4:1c:82:c4:df:
         02:20:26:77:a8:87:ea:7a:c1:0b:40:68:85:2c:b3:4e:c9:11:
         37:d7:1f:f1:08:1f:3e:87:df:c1:5b:9b:9c:51:a3:81
-----BEGIN CERTIFICATE-----
MIIB9TCCAZygAwIBAgIBLDAKBggqhkjOPQQDAjCBmzEZMBcGA1UEAwwQUmVnaW9u
ZSBQaWVtb250ZTELMAkGA1UEBhMCSVQxDzANBgNVBAgMBkl0YWxpYTEYMBYGA1UE
CgwPRS1Wb3Rpbmcgc3lzdGVtMSIwIAYDVQQLDBlFLVZvdGluZyBzeXN0ZW0gYXV0
aG9yaXR5MSIwIAYJKoZIhvcNAQkBFhNQaWVtb250ZUBldm90aW5nLml0MB4XDTIy
MDgwMzEzMjcyNVoXDTIzMDgwMzEzMjcyNVowSDENMAsGA1UEAwwETGlubzELMAkG
A1UEBhMCSVQxDzANBgNVBAgMBkl0YWxpYTEZMBcGA1UECgwQUmVnaW9uZSBQaWVt
b250ZTBZMBMGByqGSM49AgEGCCqGSM49AwEHA0IABI66eNUeY4VSoHlTx+nnjvFm
ZLFP0nSS8vmadk+UfHcXjuQwbzql/YaljpKYluNl4K2UuJB1K8iH8MgisEj6/iGj
IzAhMA4GA1UdDwEB/wQEAwIFoDAPBgNVHRMBAf8EBTADAgEDMAoGCCqGSM49BAMC
A0cAMEQCIG/5cAhz97ILeIwgzmi27Mj1w8v328j1IJOw7/QcgsTfAiAmd6iH6nrB
C0BohSyzTskRN9cf8QgfPoffwVubnFGjgQ==
-----END CERTIFICATE-----
