Certificate:
    Data:
        Version: 3 (0x2)
        Serial Number: 25 (0x19)
        Signature Algorithm: ecdsa-with-SHA256
        Issuer: CN=Regione Basilicata, C=IT, ST=Italia, O=E-Voting system, OU=E-Voting system authority/emailAddress=Basilicata@evoting.it
        Validity
            Not Before: Aug 26 15:20:28 2022 GMT
            Not After : Aug 26 15:20:28 2023 GMT
        Subject: CN=Lisa, C=IT, ST=Italia, O=Regione Basilicata
        Subject Public Key Info:
            Public Key Algorithm: id-ecPublicKey
                Public-Key: (256 bit)
                pub:
                    04:5a:ed:10:05:c4:c9:2b:34:39:ae:fa:25:7d:b9:
                    14:84:fd:c0:2c:52:f4:1f:19:74:06:3e:26:c2:54:
                    2b:77:b3:f1:73:46:0d:43:3e:68:34:3f:15:8f:86:
                    ea:99:8a:b6:9a:0d:1f:10:3b:ec:19:63:42:1c:7f:
                    6e:33:c3:fc:41
                ASN1 OID: secp256k1
        X509v3 extensions:
            X509v3 Key Usage: critical
                Digital Signature, Key Encipherment
            X509v3 Basic Constraints: critical
                CA:FALSE, pathlen:3
    Signature Algorithm: ecdsa-with-SHA256
         30:46:02:21:00:b5:a2:6a:22:d6:2c:eb:bc:8b:f7:29:26:46:
         20:73:74:91:75:6a:a1:f6:e5:c5:15:65:1d:a1:35:57:d1:4d:
         8d:02:21:00:b7:5c:d1:9c:21:09:a5:49:96:29:06:8d:7d:e0:
         05:2c:f7:d2:03:c6:e9:92:23:d2:51:43:99:1f:8b:96:4c:99
-----BEGIN CERTIFICATE-----
MIIB+jCCAZ+gAwIBAgIBGTAKBggqhkjOPQQDAjCBnzEbMBkGA1UEAwwSUmVnaW9u
ZSBCYXNpbGljYXRhMQswCQYDVQQGEwJJVDEPMA0GA1UECAwGSXRhbGlhMRgwFgYD
VQQKDA9FLVZvdGluZyBzeXN0ZW0xIjAgBgNVBAsMGUUtVm90aW5nIHN5c3RlbSBh
dXRob3JpdHkxJDAiBgkqhkiG9w0BCQEWFUJhc2lsaWNhdGFAZXZvdGluZy5pdDAe
Fw0yMjA4MjYxNTIwMjhaFw0yMzA4MjYxNTIwMjhaMEoxDTALBgNVBAMMBExpc2Ex
CzAJBgNVBAYTAklUMQ8wDQYDVQQIDAZJdGFsaWExGzAZBgNVBAoMElJlZ2lvbmUg
QmFzaWxpY2F0YTBWMBAGByqGSM49AgEGBSuBBAAKA0IABFrtEAXEySs0Oa76JX25
FIT9wCxS9B8ZdAY+JsJUK3ez8XNGDUM+aDQ/FY+G6pmKtpoNHxA77BljQhx/bjPD
/EGjIzAhMA4GA1UdDwEB/wQEAwIFoDAPBgNVHRMBAf8EBTADAgEDMAoGCCqGSM49
BAMCA0kAMEYCIQC1omoi1izrvIv3KSZGIHN0kXVqofblxRVlHaE1V9FNjQIhALdc
0ZwhCaVJlikGjX3gBSz30gPG6ZIj0lFDmR+LlkyZ
-----END CERTIFICATE-----
