Certificate:
    Data:
        Version: 3 (0x2)
        Serial Number: 26 (0x1a)
        Signature Algorithm: ecdsa-with-SHA256
        Issuer: CN=Regione Calabria, C=IT, ST=Italia, O=E-Voting system, OU=E-Voting system authority/emailAddress=Calabria@evoting.it
        Validity
            Not Before: Aug  3 13:27:08 2022 GMT
            Not After : Aug  3 13:27:08 2023 GMT
        Subject: CN=Lisette, C=IT, ST=Italia, O=Regione Calabria
        Subject Public Key Info:
            Public Key Algorithm: id-ecPublicKey
                Public-Key: (256 bit)
                pub:
                    04:70:8e:b2:ef:c1:8c:fb:20:2a:2f:2c:0c:3f:1e:
                    2b:53:8b:2e:d6:7c:cb:da:2f:0d:d0:b9:77:9b:45:
                    10:71:4a:df:86:45:e8:a8:dc:6f:0e:69:57:32:12:
                    bb:ce:75:32:95:54:1d:07:f6:9e:00:c3:7d:33:ed:
                    b6:26:62:7f:95
                ASN1 OID: prime256v1
                NIST CURVE: P-256
        X509v3 extensions:
            X509v3 Key Usage: critical
                Digital Signature, Key Encipherment
            X509v3 Basic Constraints: critical
                CA:FALSE, pathlen:3
    Signature Algorithm: ecdsa-with-SHA256
         30:46:02:21:00:da:f9:59:41:2c:aa:a5:e7:86:11:32:92:3f:
         ad:dc:e2:63:cc:e7:7b:4d:be:c9:12:ca:46:ff:10:d3:1c:a9:
         70:02:21:00:c9:91:bb:bb:e1:9a:2f:7a:bd:bb:32:48:01:d2:
         9c:70:57:55:db:2a:8b:ed:08:95:94:8b:81:d7:0f:15:3b:1e
-----BEGIN CERTIFICATE-----
MIIB+jCCAZ+gAwIBAgIBGjAKBggqhkjOPQQDAjCBmzEZMBcGA1UEAwwQUmVnaW9u
ZSBDYWxhYnJpYTELMAkGA1UEBhMCSVQxDzANBgNVBAgMBkl0YWxpYTEYMBYGA1UE
CgwPRS1Wb3Rpbmcgc3lzdGVtMSIwIAYDVQQLDBlFLVZvdGluZyBzeXN0ZW0gYXV0
aG9yaXR5MSIwIAYJKoZIhvcNAQkBFhNDYWxhYnJpYUBldm90aW5nLml0MB4XDTIy
MDgwMzEzMjcwOFoXDTIzMDgwMzEzMjcwOFowSzEQMA4GA1UEAwwHTGlzZXR0ZTEL
MAkGA1UEBhMCSVQxDzANBgNVBAgMBkl0YWxpYTEZMBcGA1UECgwQUmVnaW9uZSBD
YWxhYnJpYTBZMBMGByqGSM49AgEGCCqGSM49AwEHA0IABHCOsu/BjPsgKi8sDD8e
K1OLLtZ8y9ovDdC5d5tFEHFK34ZF6Kjcbw5pVzISu851MpVUHQf2ngDDfTPttiZi
f5WjIzAhMA4GA1UdDwEB/wQEAwIFoDAPBgNVHRMBAf8EBTADAgEDMAoGCCqGSM49
BAMCA0kAMEYCIQDa+VlBLKql54YRMpI/rdziY8zne02+yRLKRv8Q0xypcAIhAMmR
u7vhmi96vbsySAHSnHBXVdsqi+0IlZSLgdcPFTse
-----END CERTIFICATE-----
