Certificate:
    Data:
        Version: 3 (0x2)
        Serial Number: 51 (0x33)
        Signature Algorithm: ecdsa-with-SHA256
        Issuer: CN=Regione Abruzzo, C=IT, ST=Italia, O=E-Voting system, OU=E-Voting system authority/emailAddress=Abruzzo@evoting.it
        Validity
            Not Before: Aug 26 15:21:47 2022 GMT
            Not After : Aug 26 15:21:47 2023 GMT
        Subject: CN=Lizabeth, C=IT, ST=Italia, O=Regione Abruzzo
        Subject Public Key Info:
            Public Key Algorithm: id-ecPublicKey
                Public-Key: (256 bit)
                pub:
                    04:32:d0:cd:19:0e:14:33:f9:e4:76:db:eb:e8:27:
                    f2:0c:87:95:4f:2e:a9:4a:a4:9b:1a:cc:92:2c:cd:
                    d1:2a:55:49:80:20:9e:b5:b1:b5:99:d7:ff:04:5d:
                    ff:ea:cf:45:fa:01:0c:57:b8:79:4f:f2:49:8c:3d:
                    8c:ff:f6:c6:fd
                ASN1 OID: secp256k1
        X509v3 extensions:
            X509v3 Key Usage: critical
                Digital Signature, Key Encipherment
            X509v3 Basic Constraints: critical
                CA:FALSE, pathlen:3
    Signature Algorithm: ecdsa-with-SHA256
         30:46:02:21:00:ac:67:62:c7:ef:66:e5:c6:b0:b4:3e:26:1a:
         dc:36:8f:90:00:a1:10:ac:58:2f:44:a4:d4:65:e8:84:44:44:
         cd:02:21:00:98:37:09:82:d4:ff:97:1e:35:a7:3e:4f:22:e9:
         3d:33:ba:31:76:cd:72:44:de:64:54:b9:9d:1e:4b:7a:bb:40
-----BEGIN CERTIFICATE-----
MIIB9TCCAZqgAwIBAgIBMzAKBggqhkjOPQQDAjCBmTEYMBYGA1UEAwwPUmVnaW9u
ZSBBYnJ1enpvMQswCQYDVQQGEwJJVDEPMA0GA1UECAwGSXRhbGlhMRgwFgYDVQQK
DA9FLVZvdGluZyBzeXN0ZW0xIjAgBgNVBAsMGUUtVm90aW5nIHN5c3RlbSBhdXRo
b3JpdHkxITAfBgkqhkiG9w0BCQEWEkFicnV6em9AZXZvdGluZy5pdDAeFw0yMjA4
MjYxNTIxNDdaFw0yMzA4MjYxNTIxNDdaMEsxETAPBgNVBAMMCExpemFiZXRoMQsw
CQYDVQQGEwJJVDEPMA0GA1UECAwGSXRhbGlhMRgwFgYDVQQKDA9SZWdpb25lIEFi
cnV6em8wVjAQBgcqhkjOPQIBBgUrgQQACgNCAAQy0M0ZDhQz+eR22+voJ/IMh5VP
LqlKpJsazJIszdEqVUmAIJ61sbWZ1/8EXf/qz0X6AQxXuHlP8kmMPYz/9sb9oyMw
ITAOBgNVHQ8BAf8EBAMCBaAwDwYDVR0TAQH/BAUwAwIBAzAKBggqhkjOPQQDAgNJ
ADBGAiEArGdix+9m5cawtD4mGtw2j5AAoRCsWC9EpNRl6IRERM0CIQCYNwmC1P+X
HjWnPk8i6T0zujF2zXJE3mRUuZ0eS3q7QA==
-----END CERTIFICATE-----
