Certificate:
    Data:
        Version: 3 (0x2)
        Serial Number: 38 (0x26)
        Signature Algorithm: ecdsa-with-SHA256
        Issuer: CN=Regione Valle_d_Aosta, C=IT, ST=Italia, O=E-Voting system, OU=E-Voting system authority/emailAddress=Valle_d_Aosta@evoting.it
        Validity
            Not Before: Aug  3 13:27:46 2022 GMT
            Not After : Aug  3 13:27:46 2023 GMT
        Subject: CN=Lizzie, C=IT, ST=Italia, O=Regione Valle_d_Aosta
        Subject Public Key Info:
            Public Key Algorithm: id-ecPublicKey
                Public-Key: (256 bit)
                pub:
                    04:e7:ef:b0:f8:8a:36:4c:c5:4d:9e:22:4d:dd:6f:
                    78:84:dc:69:1f:5f:57:85:3c:bb:6d:44:4b:60:3e:
                    bc:4d:5f:0b:68:9d:c7:56:8c:56:93:4a:25:37:14:
                    65:08:0c:e4:87:0d:59:b1:b9:15:6d:b3:59:56:fe:
                    66:2e:e4:5a:74
                ASN1 OID: prime256v1
                NIST CURVE: P-256
        X509v3 extensions:
            X509v3 Key Usage: critical
                Digital Signature, Key Encipherment
            X509v3 Basic Constraints: critical
                CA:FALSE, pathlen:3
    Signature Algorithm: ecdsa-with-SHA256
         30:45:02:21:00:9c:2f:d0:d8:fd:48:ee:44:02:ee:ce:7c:98:
         20:4a:e0:da:20:1b:10:3b:db:db:e6:9a:e6:e2:c6:0c:fb:4d:
         8b:02:20:66:32:a6:f3:3e:e4:ad:be:99:b8:61:fd:84:21:ea:
         6d:13:3b:ce:43:de:56:a8:11:05:c1:26:ec:05:6f:25:4f
-----BEGIN CERTIFICATE-----
MIICBzCCAa2gAwIBAgIBJjAKBggqhkjOPQQDAjCBpTEeMBwGA1UEAwwVUmVnaW9u
ZSBWYWxsZV9kX0Fvc3RhMQswCQYDVQQGEwJJVDEPMA0GA1UECAwGSXRhbGlhMRgw
FgYDVQQKDA9FLVZvdGluZyBzeXN0ZW0xIjAgBgNVBAsMGUUtVm90aW5nIHN5c3Rl
bSBhdXRob3JpdHkxJzAlBgkqhkiG9w0BCQEWGFZhbGxlX2RfQW9zdGFAZXZvdGlu
Zy5pdDAeFw0yMjA4MDMxMzI3NDZaFw0yMzA4MDMxMzI3NDZaME8xDzANBgNVBAMM
BkxpenppZTELMAkGA1UEBhMCSVQxDzANBgNVBAgMBkl0YWxpYTEeMBwGA1UECgwV
UmVnaW9uZSBWYWxsZV9kX0Fvc3RhMFkwEwYHKoZIzj0CAQYIKoZIzj0DAQcDQgAE
5++w+Io2TMVNniJN3W94hNxpH19XhTy7bURLYD68TV8LaJ3HVoxWk0olNxRlCAzk
hw1ZsbkVbbNZVv5mLuRadKMjMCEwDgYDVR0PAQH/BAQDAgWgMA8GA1UdEwEB/wQF
MAMCAQMwCgYIKoZIzj0EAwIDSAAwRQIhAJwv0Nj9SO5EAu7OfJggSuDaIBsQO9vb
5prm4sYM+02LAiBmMqbzPuStvpm4Yf2EIeptEzvOQ95WqBEFwSbsBW8lTw==
-----END CERTIFICATE-----
