Certificate:
    Data:
        Version: 3 (0x2)
        Serial Number: 33 (0x21)
        Signature Algorithm: ecdsa-with-SHA256
        Issuer: CN=Regione Sicilia, C=IT, ST=Italia, O=E-Voting system, OU=E-Voting system authority/emailAddress=Sicilia@evoting.it
        Validity
            Not Before: Aug 26 15:20:31 2022 GMT
            Not After : Aug 26 15:20:31 2023 GMT
        Subject: CN=Logan, C=IT, ST=Italia, O=Regione Sicilia
        Subject Public Key Info:
            Public Key Algorithm: id-ecPublicKey
                Public-Key: (256 bit)
                pub:
                    04:ed:3d:f2:f3:4e:de:d3:01:77:f6:86:37:2d:31:
                    60:6d:64:4b:52:8f:9e:bb:ef:19:0b:04:cb:58:cb:
                    7b:0a:58:c9:86:ca:2d:63:f1:6d:66:9a:40:c8:83:
                    3e:c5:88:57:66:ab:4f:d6:c5:02:7c:97:1c:b5:a1:
                    4c:cf:69:ea:27
                ASN1 OID: secp256k1
        X509v3 extensions:
            X509v3 Key Usage: critical
                Digital Signature, Key Encipherment
            X509v3 Basic Constraints: critical
                CA:FALSE, pathlen:3
    Signature Algorithm: ecdsa-with-SHA256
         30:44:02:20:19:a4:46:b0:f8:45:63:1c:70:c8:41:a3:9f:47:
         40:aa:86:73:f8:05:d0:96:7e:35:f6:45:d0:99:e7:7b:03:59:
         02:20:45:4a:3d:46:a9:cb:f9:bb:19:69:fe:27:78:be:5d:cc:
         ba:9b:72:d9:f5:de:eb:77:3c:5f:91:94:12:5e:5a:2e
-----BEGIN CERTIFICATE-----
MIIB8DCCAZegAwIBAgIBITAKBggqhkjOPQQDAjCBmTEYMBYGA1UEAwwPUmVnaW9u
ZSBTaWNpbGlhMQswCQYDVQQGEwJJVDEPMA0GA1UECAwGSXRhbGlhMRgwFgYDVQQK
DA9FLVZvdGluZyBzeXN0ZW0xIjAgBgNVBAsMGUUtVm90aW5nIHN5c3RlbSBhdXRo
b3JpdHkxITAfBgkqhkiG9w0BCQEWElNpY2lsaWFAZXZvdGluZy5pdDAeFw0yMjA4
MjYxNTIwMzFaFw0yMzA4MjYxNTIwMzFaMEgxDjAMBgNVBAMMBUxvZ2FuMQswCQYD
VQQGEwJJVDEPMA0GA1UECAwGSXRhbGlhMRgwFgYDVQQKDA9SZWdpb25lIFNpY2ls
aWEwVjAQBgcqhkjOPQIBBgUrgQQACgNCAATtPfLzTt7TAXf2hjctMWBtZEtSj567
7xkLBMtYy3sKWMmGyi1j8W1mmkDIgz7FiFdmq0/WxQJ8lxy1oUzPaeonoyMwITAO
BgNVHQ8BAf8EBAMCBaAwDwYDVR0TAQH/BAUwAwIBAzAKBggqhkjOPQQDAgNHADBE
AiAZpEaw+EVjHHDIQaOfR0CqhnP4BdCWfjX2RdCZ53sDWQIgRUo9RqnL+bsZaf4n
eL5dzLqbctn13ut3PF+RlBJeWi4=
-----END CERTIFICATE-----
