Certificate:
    Data:
        Version: 3 (0x2)
        Serial Number: 32 (0x20)
        Signature Algorithm: ecdsa-with-SHA256
        Issuer: CN=Regione Campania, C=IT, ST=Italia, O=E-Voting system, OU=E-Voting system authority/emailAddress=Campania@evoting.it
        Validity
            Not Before: Aug 26 15:20:42 2022 GMT
            Not After : Aug 26 15:20:42 2023 GMT
        Subject: CN=Loida, C=IT, ST=Italia, O=Regione Campania
        Subject Public Key Info:
            Public Key Algorithm: id-ecPublicKey
                Public-Key: (256 bit)
                pub:
                    04:51:4e:51:3f:16:ce:f6:e1:15:07:15:07:ca:da:
                    da:e9:fa:15:6a:c4:80:d2:a7:55:bf:54:50:e6:bb:
                    de:3a:bb:99:40:4d:49:ed:cb:fd:b3:0c:46:1e:a7:
                    5f:41:55:49:4d:12:6b:0c:b2:64:39:ee:6d:29:6f:
                    2e:a1:be:b1:aa
                ASN1 OID: secp256k1
        X509v3 extensions:
            X509v3 Key Usage: critical
                Digital Signature, Key Encipherment
            X509v3 Basic Constraints: critical
                CA:FALSE, pathlen:3
    Signature Algorithm: ecdsa-with-SHA256
         30:45:02:21:00:bc:f6:cd:e4:7a:28:76:de:de:a7:76:28:57:
         28:fb:56:28:e7:d1:b3:85:69:c9:22:17:72:54:6d:d8:e2:58:
         da:02:20:12:36:96:3a:87:9e:a6:d9:fe:aa:16:75:87:cd:b2:
         20:5c:d7:ba:de:4c:a7:c6:15:90:5c:36:60:08:7a:6d:68
-----BEGIN CERTIFICATE-----
MIIB9DCCAZqgAwIBAgIBIDAKBggqhkjOPQQDAjCBmzEZMBcGA1UEAwwQUmVnaW9u
ZSBDYW1wYW5pYTELMAkGA1UEBhMCSVQxDzANBgNVBAgMBkl0YWxpYTEYMBYGA1UE
CgwPRS1Wb3Rpbmcgc3lzdGVtMSIwIAYDVQQLDBlFLVZvdGluZyBzeXN0ZW0gYXV0
aG9yaXR5MSIwIAYJKoZIhvcNAQkBFhNDYW1wYW5pYUBldm90aW5nLml0MB4XDTIy
MDgyNjE1MjA0MloXDTIzMDgyNjE1MjA0MlowSTEOMAwGA1UEAwwFTG9pZGExCzAJ
BgNVBAYTAklUMQ8wDQYDVQQIDAZJdGFsaWExGTAXBgNVBAoMEFJlZ2lvbmUgQ2Ft
cGFuaWEwVjAQBgcqhkjOPQIBBgUrgQQACgNCAARRTlE/Fs724RUHFQfK2trp+hVq
xIDSp1W/VFDmu946u5lATUnty/2zDEYep19BVUlNEmsMsmQ57m0pby6hvrGqoyMw
ITAOBgNVHQ8BAf8EBAMCBaAwDwYDVR0TAQH/BAUwAwIBAzAKBggqhkjOPQQDAgNI
ADBFAiEAvPbN5Hoodt7ep3YoVyj7Vijn0bOFackiF3JUbdjiWNoCIBI2ljqHnqbZ
/qoWdYfNsiBc17reTKfGFZBcNmAIem1o
-----END CERTIFICATE-----
