Certificate:
    Data:
        Version: 3 (0x2)
        Serial Number: 25 (0x19)
        Signature Algorithm: ecdsa-with-SHA256
        Issuer: CN=Regione Friuli_Venezia_Giulia, C=IT, ST=Italia, O=E-Voting system, OU=E-Voting system authority/emailAddress=Friuli_Venezia_Giulia@evoting.it
        Validity
            Not Before: Aug  3 13:27:00 2022 GMT
            Not After : Aug  3 13:27:00 2023 GMT
        Subject: CN=Lois, C=IT, ST=Italia, O=Regione Friuli_Venezia_Giulia
        Subject Public Key Info:
            Public Key Algorithm: id-ecPublicKey
                Public-Key: (256 bit)
                pub:
                    04:23:64:a1:f1:76:90:dc:2a:eb:77:cd:ac:0c:47:
                    59:a1:af:f8:53:7f:e4:f3:b8:66:5d:9d:cb:b3:14:
                    da:c7:8c:41:37:61:b8:5c:bc:68:9b:cb:5f:1f:3f:
                    dd:a8:bf:e5:bd:4f:38:c6:9e:89:f7:e5:ae:e3:54:
                    c2:5d:85:44:bb
                ASN1 OID: prime256v1
                NIST CURVE: P-256
        X509v3 extensions:
            X509v3 Key Usage: critical
                Digital Signature, Key Encipherment
            X509v3 Basic Constraints: critical
                CA:FALSE, pathlen:3
    Signature Algorithm: ecdsa-with-SHA256
         30:45:02:20:4c:e4:13:a8:df:a5:b4:d1:e7:95:7d:58:0d:67:
         4f:ca:73:26:11:c3:d1:25:04:87:33:a8:1e:b3:02:d5:a3:4e:
         02:21:00:af:23:e9:25:ed:30:5f:cd:ad:49:20:6c:d2:84:22:
         c4:0e:ce:b7:a9:3e:15:a6:02:27:4f:18:49:69:76:eb:37
-----BEGIN CERTIFICATE-----
MIICHTCCAcOgAwIBAgIBGTAKBggqhkjOPQQDAjCBtTEmMCQGA1UEAwwdUmVnaW9u
ZSBGcml1bGlfVmVuZXppYV9HaXVsaWExCzAJBgNVBAYTAklUMQ8wDQYDVQQIDAZJ
dGFsaWExGDAWBgNVBAoMD0UtVm90aW5nIHN5c3RlbTEiMCAGA1UECwwZRS1Wb3Rp
bmcgc3lzdGVtIGF1dGhvcml0eTEvMC0GCSqGSIb3DQEJARYgRnJpdWxpX1ZlbmV6
aWFfR2l1bGlhQGV2b3RpbmcuaXQwHhcNMjIwODAzMTMyNzAwWhcNMjMwODAzMTMy
NzAwWjBVMQ0wCwYDVQQDDARMb2lzMQswCQYDVQQGEwJJVDEPMA0GA1UECAwGSXRh
bGlhMSYwJAYDVQQKDB1SZWdpb25lIEZyaXVsaV9WZW5lemlhX0dpdWxpYTBZMBMG
ByqGSM49AgEGCCqGSM49AwEHA0IABCNkofF2kNwq63fNrAxHWaGv+FN/5PO4Zl2d
y7MU2seMQTdhuFy8aJvLXx8/3ai/5b1POMaeifflruNUwl2FRLujIzAhMA4GA1Ud
DwEB/wQEAwIFoDAPBgNVHRMBAf8EBTADAgEDMAoGCCqGSM49BAMCA0gAMEUCIEzk
E6jfpbTR55V9WA1nT8pzJhHD0SUEhzOoHrMC1aNOAiEAryPpJe0wX82tSSBs0oQi
xA7Ot6k+FaYCJ08YSWl26zc=
-----END CERTIFICATE-----
