Certificate:
    Data:
        Version: 3 (0x2)
        Serial Number: 19 (0x13)
        Signature Algorithm: ecdsa-with-SHA256
        Issuer: CN=Regione Sardegna, C=IT, ST=Italia, O=E-Voting system, OU=E-Voting system authority/emailAddress=Sardegna@evoting.it
        Validity
            Not Before: Aug 26 15:20:01 2022 GMT
            Not After : Aug 26 15:20:01 2023 GMT
        Subject: CN=Lois, C=IT, ST=Italia, O=Regione Sardegna
        Subject Public Key Info:
            Public Key Algorithm: id-ecPublicKey
                Public-Key: (256 bit)
                pub:
                    04:f9:d7:c6:f7:cc:43:52:7b:f4:e7:62:cf:fa:1f:
                    ce:0f:86:79:b0:cb:4f:4a:66:91:7f:38:3d:28:c8:
                    93:4e:5c:53:4c:65:1c:fb:cf:78:68:6c:d4:15:01:
                    48:c0:90:66:42:d9:92:c9:cb:93:a4:6d:5e:c4:5b:
                    74:59:49:c3:39
                ASN1 OID: secp256k1
        X509v3 extensions:
            X509v3 Key Usage: critical
                Digital Signature, Key Encipherment
            X509v3 Basic Constraints: critical
                CA:FALSE, pathlen:3
    Signature Algorithm: ecdsa-with-SHA256
         30:45:02:20:4a:27:74:5e:df:b2:35:54:89:08:13:a5:04:9f:
         d5:b8:32:eb:4a:7e:eb:92:bb:8e:34:d0:40:9b:3c:e0:fe:05:
         02:21:00:ce:fa:78:cb:a4:4a:5c:40:fd:09:b3:3e:1e:29:c6:
         7b:b5:5e:9e:f8:8f:f5:42:fc:83:7a:9b:ee:f3:b8:b6:a9
-----BEGIN CERTIFICATE-----
MIIB8zCCAZmgAwIBAgIBEzAKBggqhkjOPQQDAjCBmzEZMBcGA1UEAwwQUmVnaW9u
ZSBTYXJkZWduYTELMAkGA1UEBhMCSVQxDzANBgNVBAgMBkl0YWxpYTEYMBYGA1UE
CgwPRS1Wb3Rpbmcgc3lzdGVtMSIwIAYDVQQLDBlFLVZvdGluZyBzeXN0ZW0gYXV0
aG9yaXR5MSIwIAYJKoZIhvcNAQkBFhNTYXJkZWduYUBldm90aW5nLml0MB4XDTIy
MDgyNjE1MjAwMVoXDTIzMDgyNjE1MjAwMVowSDENMAsGA1UEAwwETG9pczELMAkG
A1UEBhMCSVQxDzANBgNVBAgMBkl0YWxpYTEZMBcGA1UECgwQUmVnaW9uZSBTYXJk
ZWduYTBWMBAGByqGSM49AgEGBSuBBAAKA0IABPnXxvfMQ1J79Odiz/ofzg+GebDL
T0pmkX84PSjIk05cU0xlHPvPeGhs1BUBSMCQZkLZksnLk6RtXsRbdFlJwzmjIzAh
MA4GA1UdDwEB/wQEAwIFoDAPBgNVHRMBAf8EBTADAgEDMAoGCCqGSM49BAMCA0gA
MEUCIEondF7fsjVUiQgTpQSf1bgy60p+65K7jjTQQJs84P4FAiEAzvp4y6RKXED9
CbM+HinGe7VenviP9UL8g3qb7vO4tqk=
-----END CERTIFICATE-----
