Certificate:
    Data:
        Version: 3 (0x2)
        Serial Number: 9 (0x9)
        Signature Algorithm: ecdsa-with-SHA256
        Issuer: CN=Regione Veneto, C=IT, ST=Italia, O=E-Voting system, OU=E-Voting system authority/emailAddress=Veneto@evoting.it
        Validity
            Not Before: Aug 26 15:19:23 2022 GMT
            Not After : Aug 26 15:19:23 2023 GMT
        Subject: CN=Lola, C=IT, ST=Italia, O=Regione Veneto
        Subject Public Key Info:
            Public Key Algorithm: id-ecPublicKey
                Public-Key: (256 bit)
                pub:
                    04:02:8b:47:15:f9:8b:48:bf:57:aa:36:b2:ba:d6:
                    93:88:2f:ba:da:19:53:88:d2:81:3a:f7:55:8c:bf:
                    e4:50:28:f1:44:5e:e2:b8:b7:f6:32:9c:1c:8c:30:
                    04:45:3c:52:1a:ef:99:22:7e:0f:63:00:bf:c6:50:
                    ad:eb:5e:a4:67
                ASN1 OID: secp256k1
        X509v3 extensions:
            X509v3 Key Usage: critical
                Digital Signature, Key Encipherment
            X509v3 Basic Constraints: critical
                CA:FALSE, pathlen:3
    Signature Algorithm: ecdsa-with-SHA256
         30:44:02:20:52:a0:32:97:ef:fa:66:c5:dd:ea:38:61:dd:bf:
         97:76:92:66:32:f9:fe:30:08:e2:72:9c:b8:f5:d6:3b:fe:47:
         02:20:3e:4a:16:bb:3c:ff:4f:1e:1f:10:90:22:16:e6:79:a7:
         62:35:c7:c4:09:14:33:a3:3f:72:e3:6c:88:a5:66:be
-----BEGIN CERTIFICATE-----
MIIB7DCCAZOgAwIBAgIBCTAKBggqhkjOPQQDAjCBlzEXMBUGA1UEAwwOUmVnaW9u
ZSBWZW5ldG8xCzAJBgNVBAYTAklUMQ8wDQYDVQQIDAZJdGFsaWExGDAWBgNVBAoM
D0UtVm90aW5nIHN5c3RlbTEiMCAGA1UECwwZRS1Wb3Rpbmcgc3lzdGVtIGF1dGhv
cml0eTEgMB4GCSqGSIb3DQEJARYRVmVuZXRvQGV2b3RpbmcuaXQwHhcNMjIwODI2
MTUxOTIzWhcNMjMwODI2MTUxOTIzWjBGMQ0wCwYDVQQDDARMb2xhMQswCQYDVQQG
EwJJVDEPMA0GA1UECAwGSXRhbGlhMRcwFQYDVQQKDA5SZWdpb25lIFZlbmV0bzBW
MBAGByqGSM49AgEGBSuBBAAKA0IABAKLRxX5i0i/V6o2srrWk4gvutoZU4jSgTr3
VYy/5FAo8URe4ri39jKcHIwwBEU8UhrvmSJ+D2MAv8ZQretepGejIzAhMA4GA1Ud
DwEB/wQEAwIFoDAPBgNVHRMBAf8EBTADAgEDMAoGCCqGSM49BAMCA0cAMEQCIFKg
Mpfv+mbF3eo4Yd2/l3aSZjL5/jAI4nKcuPXWO/5HAiA+Sha7PP9PHh8QkCIW5nmn
YjXHxAkUM6M/cuNsiKVmvg==
-----END CERTIFICATE-----
