Certificate:
    Data:
        Version: 3 (0x2)
        Serial Number: 3 (0x3)
        Signature Algorithm: ecdsa-with-SHA256
        Issuer: CN=Regione Toscana, C=IT, ST=Italia, O=E-Voting system, OU=E-Voting system authority/emailAddress=Toscana@evoting.it
        Validity
            Not Before: Aug 26 15:18:45 2022 GMT
            Not After : Aug 26 15:18:45 2023 GMT
        Subject: CN=Lonnie, C=IT, ST=Italia, O=Regione Toscana
        Subject Public Key Info:
            Public Key Algorithm: id-ecPublicKey
                Public-Key: (256 bit)
                pub:
                    04:61:2f:29:3f:be:61:3d:aa:31:eb:5b:65:04:99:
                    cf:e6:cf:1b:13:6b:30:14:3f:69:db:9e:ce:83:01:
                    88:e3:e1:83:ee:de:4a:1d:7f:2c:8f:16:8c:ad:9c:
                    97:d2:02:7f:50:b7:7c:f2:73:0f:82:fb:27:1e:4a:
                    a0:21:7d:a1:fb
                ASN1 OID: secp256k1
        X509v3 extensions:
            X509v3 Key Usage: critical
                Digital Signature, Key Encipherment
            X509v3 Basic Constraints: critical
                CA:FALSE, pathlen:3
    Signature Algorithm: ecdsa-with-SHA256
         30:45:02:21:00:b3:d4:a3:cf:5d:09:3e:98:07:f5:fd:86:c9:
         82:c8:cd:4c:90:34:db:f7:3a:ea:06:39:3f:4c:57:cc:a7:94:
         15:02:20:58:70:ea:b6:80:72:4b:da:12:a6:70:6d:13:04:16:
         55:6e:82:b3:8e:1a:bb:ab:44:77:f5:e4:5b:8b:47:0f:14
-----BEGIN CERTIFICATE-----
MIIB8jCCAZigAwIBAgIBAzAKBggqhkjOPQQDAjCBmTEYMBYGA1UEAwwPUmVnaW9u
ZSBUb3NjYW5hMQswCQYDVQQGEwJJVDEPMA0GA1UECAwGSXRhbGlhMRgwFgYDVQQK
DA9FLVZvdGluZyBzeXN0ZW0xIjAgBgNVBAsMGUUtVm90aW5nIHN5c3RlbSBhdXRo
b3JpdHkxITAfBgkqhkiG9w0BCQEWElRvc2NhbmFAZXZvdGluZy5pdDAeFw0yMjA4
MjYxNTE4NDVaFw0yMzA4MjYxNTE4NDVaMEkxDzANBgNVBAMMBkxvbm5pZTELMAkG
A1UEBhMCSVQxDzANBgNVBAgMBkl0YWxpYTEYMBYGA1UECgwPUmVnaW9uZSBUb3Nj
YW5hMFYwEAYHKoZIzj0CAQYFK4EEAAoDQgAEYS8pP75hPaox61tlBJnP5s8bE2sw
FD9p257OgwGI4+GD7t5KHX8sjxaMrZyX0gJ/ULd88nMPgvsnHkqgIX2h+6MjMCEw
DgYDVR0PAQH/BAQDAgWgMA8GA1UdEwEB/wQFMAMCAQMwCgYIKoZIzj0EAwIDSAAw
RQIhALPUo89dCT6YB/X9hsmCyM1MkDTb9zrqBjk/TFfMp5QVAiBYcOq2gHJL2hKm
cG0TBBZVboKzjhq7q0R39eRbi0cPFA==
-----END CERTIFICATE-----
