Certificate:
    Data:
        Version: 3 (0x2)
        Serial Number: 20 (0x14)
        Signature Algorithm: ecdsa-with-SHA256
        Issuer: CN=Regione Basilicata, C=IT, ST=Italia, O=E-Voting system, OU=E-Voting system authority/emailAddress=Basilicata@evoting.it
        Validity
            Not Before: Aug 26 15:19:55 2022 GMT
            Not After : Aug 26 15:19:55 2023 GMT
        Subject: CN=Lora, C=IT, ST=Italia, O=Regione Basilicata
        Subject Public Key Info:
            Public Key Algorithm: id-ecPublicKey
                Public-Key: (256 bit)
                pub:
                    04:f2:bd:9b:5e:fe:6e:db:c3:53:8e:18:4e:6e:56:
                    f2:af:ca:12:16:5f:5f:f9:71:16:b8:f3:e0:5f:84:
                    6f:dd:1c:5c:2b:1b:cc:2b:9e:ee:16:fd:55:49:8c:
                    16:ba:0d:39:de:d9:e0:19:79:67:e9:54:d6:f2:f9:
                    dc:08:a3:c0:85
                ASN1 OID: secp256k1
        X509v3 extensions:
            X509v3 Key Usage: critical
                Digital Signature, Key Encipherment
            X509v3 Basic Constraints: critical
                CA:FALSE, pathlen:3
    Signature Algorithm: ecdsa-with-SHA256
         30:45:02:21:00:c9:fc:aa:f7:6f:50:1f:75:78:6a:4c:45:a8:
         61:ec:bf:15:c7:34:ae:86:ca:71:66:1d:32:78:90:b0:30:7b:
         56:02:20:28:b6:3a:00:e0:7a:ef:c5:09:37:4e:69:84:d2:b3:
         cc:4f:c6:20:46:54:5d:99:0d:ce:be:fc:9a:51:ef:31:88
-----BEGIN CERTIFICATE-----
MIIB+TCCAZ+gAwIBAgIBFDAKBggqhkjOPQQDAjCBnzEbMBkGA1UEAwwSUmVnaW9u
ZSBCYXNpbGljYXRhMQswCQYDVQQGEwJJVDEPMA0GA1UECAwGSXRhbGlhMRgwFgYD
VQQKDA9FLVZvdGluZyBzeXN0ZW0xIjAgBgNVBAsMGUUtVm90aW5nIHN5c3RlbSBh
dXRob3JpdHkxJDAiBgkqhkiG9w0BCQEWFUJhc2lsaWNhdGFAZXZvdGluZy5pdDAe
Fw0yMjA4MjYxNTE5NTVaFw0yMzA4MjYxNTE5NTVaMEoxDTALBgNVBAMMBExvcmEx
CzAJBgNVBAYTAklUMQ8wDQYDVQQIDAZJdGFsaWExGzAZBgNVBAoMElJlZ2lvbmUg
QmFzaWxpY2F0YTBWMBAGByqGSM49AgEGBSuBBAAKA0IABPK9m17+btvDU44YTm5W
8q/KEhZfX/lxFrjz4F+Eb90cXCsbzCue7hb9VUmMFroNOd7Z4Bl5Z+lU1vL53Aij
wIWjIzAhMA4GA1UdDwEB/wQEAwIFoDAPBgNVHRMBAf8EBTADAgEDMAoGCCqGSM49
BAMCA0gAMEUCIQDJ/Kr3b1AfdXhqTEWoYey/Fcc0robKcWYdMniQsDB7VgIgKLY6
AOB678UJN05phNKzzE/GIEZUXZkNzr78mlHvMYg=
-----END CERTIFICATE-----
