Certificate:
    Data:
        Version: 3 (0x2)
        Serial Number: 18 (0x12)
        Signature Algorithm: ecdsa-with-SHA256
        Issuer: CN=Regione Campania, C=IT, ST=Italia, O=E-Voting system, OU=E-Voting system authority/emailAddress=Campania@evoting.it
        Validity
            Not Before: Aug 26 15:19:27 2022 GMT
            Not After : Aug 26 15:19:27 2023 GMT
        Subject: CN=Lorenzo, C=IT, ST=Italia, O=Regione Campania
        Subject Public Key Info:
            Public Key Algorithm: id-ecPublicKey
                Public-Key: (256 bit)
                pub:
                    04:e6:18:5f:c4:ff:18:cd:1f:c0:3e:81:f4:d9:77:
                    dc:ee:a8:bc:a6:9f:b2:19:fa:11:b5:91:68:ac:2a:
                    c0:b1:3e:d8:02:3a:0a:7b:bc:04:92:33:98:5a:48:
                    01:9b:d0:a8:a3:b8:43:83:7c:3b:4f:81:e2:24:b0:
                    40:0d:e6:69:e2
                ASN1 OID: secp256k1
        X509v3 extensions:
            X509v3 Key Usage: critical
                Digital Signature, Key Encipherment
            X509v3 Basic Constraints: critical
                CA:FALSE, pathlen:3
    Signature Algorithm: ecdsa-with-SHA256
         30:45:02:20:15:8b:8b:43:69:25:18:0a:2a:0b:3d:ed:51:a8:
         8e:91:00:01:a5:3b:df:1d:49:63:8d:b6:f5:79:5a:e4:8e:9d:
         02:21:00:ae:ef:77:90:13:d0:68:4e:f2:9d:f2:8b:67:79:f3:
         a7:cf:13:f1:2d:22:e7:8e:c2:06:d1:04:ee:23:1e:52:31
-----BEGIN CERTIFICATE-----
MIIB9jCCAZygAwIBAgIBEjAKBggqhkjOPQQDAjCBmzEZMBcGA1UEAwwQUmVnaW9u
ZSBDYW1wYW5pYTELMAkGA1UEBhMCSVQxDzANBgNVBAgMBkl0YWxpYTEYMBYGA1UE
CgwPRS1Wb3Rpbmcgc3lzdGVtMSIwIAYDVQQLDBlFLVZvdGluZyBzeXN0ZW0gYXV0
aG9yaXR5MSIwIAYJKoZIhvcNAQkBFhNDYW1wYW5pYUBldm90aW5nLml0MB4XDTIy
MDgyNjE1MTkyN1oXDTIzMDgyNjE1MTkyN1owSzEQMA4GA1UEAwwHTG9yZW56bzEL
MAkGA1UEBhMCSVQxDzANBgNVBAgMBkl0YWxpYTEZMBcGA1UECgwQUmVnaW9uZSBD
YW1wYW5pYTBWMBAGByqGSM49AgEGBSuBBAAKA0IABOYYX8T/GM0fwD6B9Nl33O6o
vKafshn6EbWRaKwqwLE+2AI6Cnu8BJIzmFpIAZvQqKO4Q4N8O0+B4iSwQA3maeKj
IzAhMA4GA1UdDwEB/wQEAwIFoDAPBgNVHRMBAf8EBTADAgEDMAoGCCqGSM49BAMC
A0gAMEUCIBWLi0NpJRgKKgs97VGojpEAAaU73x1JY4229Xla5I6dAiEAru93kBPQ
aE7ynfKLZ3nzp88T8S0i547CBtEE7iMeUjE=
-----END CERTIFICATE-----
