Certificate:
    Data:
        Version: 3 (0x2)
        Serial Number: 18 (0x12)
        Signature Algorithm: ecdsa-with-SHA256
        Issuer: CN=Regione Marche, C=IT, ST=Italia, O=E-Voting system, OU=E-Voting system authority/emailAddress=Marche@evoting.it
        Validity
            Not Before: Aug 26 15:20:22 2022 GMT
            Not After : Aug 26 15:20:22 2023 GMT
        Subject: CN=Loretta, C=IT, ST=Italia, O=Regione Marche
        Subject Public Key Info:
            Public Key Algorithm: id-ecPublicKey
                Public-Key: (256 bit)
                pub:
                    04:0b:5c:b7:8d:ae:27:bd:68:6a:e2:0f:86:14:67:
                    ed:e9:c3:8b:a6:77:80:29:93:14:08:10:c5:f0:8c:
                    4f:70:48:47:f6:97:b2:ba:5d:ad:80:b0:3b:8e:63:
                    27:f2:57:51:59:5d:46:8e:e1:01:f4:2d:6a:e5:7a:
                    8f:1c:74:83:9d
                ASN1 OID: secp256k1
        X509v3 extensions:
            X509v3 Key Usage: critical
                Digital Signature, Key Encipherment
            X509v3 Basic Constraints: critical
                CA:FALSE, pathlen:3
    Signature Algorithm: ecdsa-with-SHA256
         30:45:02:20:51:61:aa:09:d7:87:59:06:7e:bc:a1:f5:19:1a:
         c8:70:4e:5f:2e:ea:da:20:e0:73:89:41:ef:68:a0:5c:4a:f7:
         02:21:00:d5:5b:e8:28:6b:f3:1b:39:84:f6:68:19:8b:72:72:
         d3:97:26:70:3f:01:da:bd:f0:f4:5b:5a:d1:90:6a:be:92
-----BEGIN CERTIFICATE-----
MIIB8DCCAZagAwIBAgIBEjAKBggqhkjOPQQDAjCBlzEXMBUGA1UEAwwOUmVnaW9u
ZSBNYXJjaGUxCzAJBgNVBAYTAklUMQ8wDQYDVQQIDAZJdGFsaWExGDAWBgNVBAoM
D0UtVm90aW5nIHN5c3RlbTEiMCAGA1UECwwZRS1Wb3Rpbmcgc3lzdGVtIGF1dGhv
cml0eTEgMB4GCSqGSIb3DQEJARYRTWFyY2hlQGV2b3RpbmcuaXQwHhcNMjIwODI2
MTUyMDIyWhcNMjMwODI2MTUyMDIyWjBJMRAwDgYDVQQDDAdMb3JldHRhMQswCQYD
VQQGEwJJVDEPMA0GA1UECAwGSXRhbGlhMRcwFQYDVQQKDA5SZWdpb25lIE1hcmNo
ZTBWMBAGByqGSM49AgEGBSuBBAAKA0IABAtct42uJ71oauIPhhRn7enDi6Z3gCmT
FAgQxfCMT3BIR/aXsrpdrYCwO45jJ/JXUVldRo7hAfQtauV6jxx0g52jIzAhMA4G
A1UdDwEB/wQEAwIFoDAPBgNVHRMBAf8EBTADAgEDMAoGCCqGSM49BAMCA0gAMEUC
IFFhqgnXh1kGfryh9RkayHBOXy7q2iDgc4lB72igXEr3AiEA1VvoKGvzGzmE9mgZ
i3Jy05cmcD8B2r3w9Fta0ZBqvpI=
-----END CERTIFICATE-----
