Certificate:
    Data:
        Version: 3 (0x2)
        Serial Number: 37 (0x25)
        Signature Algorithm: ecdsa-with-SHA256
        Issuer: CN=Regione Abruzzo, C=IT, ST=Italia, O=E-Voting system, OU=E-Voting system authority/emailAddress=Abruzzo@evoting.it
        Validity
            Not Before: Aug  3 13:27:38 2022 GMT
            Not After : Aug  3 13:27:38 2023 GMT
        Subject: CN=Lorie, C=IT, ST=Italia, O=Regione Abruzzo
        Subject Public Key Info:
            Public Key Algorithm: id-ecPublicKey
                Public-Key: (256 bit)
                pub:
                    04:4c:d1:41:2a:16:c7:99:a4:f7:f2:ed:a0:7e:0f:
                    42:04:a5:16:8c:95:9d:d6:c1:d3:38:a4:50:e2:f1:
                    4c:5a:cb:b8:c6:f8:72:4b:d8:e3:81:ad:96:79:be:
                    42:21:a6:ca:6f:71:17:7c:39:78:9c:ab:8a:85:b8:
                    2d:6f:6f:b0:1f
                ASN1 OID: prime256v1
                NIST CURVE: P-256
        X509v3 extensions:
            X509v3 Key Usage: critical
                Digital Signature, Key Encipherment
            X509v3 Basic Constraints: critical
                CA:FALSE, pathlen:3
    Signature Algorithm: ecdsa-with-SHA256
         30:45:02:21:00:c6:18:e2:f4:7f:b1:e2:c7:47:43:be:60:55:
         3a:e7:8f:e5:ff:83:d6:35:b3:e8:13:24:81:db:d1:78:12:60:
         2c:02:20:20:9d:81:e4:37:4e:aa:06:93:ff:6d:15:48:66:57:
         3a:53:2c:3f:83:b3:55:d4:64:ef:3e:f1:09:8a:5f:10:cd
-----BEGIN CERTIFICATE-----
MIIB9DCCAZqgAwIBAgIBJTAKBggqhkjOPQQDAjCBmTEYMBYGA1UEAwwPUmVnaW9u
ZSBBYnJ1enpvMQswCQYDVQQGEwJJVDEPMA0GA1UECAwGSXRhbGlhMRgwFgYDVQQK
DA9FLVZvdGluZyBzeXN0ZW0xIjAgBgNVBAsMGUUtVm90aW5nIHN5c3RlbSBhdXRo
b3JpdHkxITAfBgkqhkiG9w0BCQEWEkFicnV6em9AZXZvdGluZy5pdDAeFw0yMjA4
MDMxMzI3MzhaFw0yMzA4MDMxMzI3MzhaMEgxDjAMBgNVBAMMBUxvcmllMQswCQYD
VQQGEwJJVDEPMA0GA1UECAwGSXRhbGlhMRgwFgYDVQQKDA9SZWdpb25lIEFicnV6
em8wWTATBgcqhkjOPQIBBggqhkjOPQMBBwNCAARM0UEqFseZpPfy7aB+D0IEpRaM
lZ3WwdM4pFDi8Uxay7jG+HJL2OOBrZZ5vkIhpspvcRd8OXicq4qFuC1vb7AfoyMw
ITAOBgNVHQ8BAf8EBAMCBaAwDwYDVR0TAQH/BAUwAwIBAzAKBggqhkjOPQQDAgNI
ADBFAiEAxhji9H+x4sdHQ75gVTrnj+X/g9Y1s+gTJIHb0XgSYCwCICCdgeQ3TqoG
k/9tFUhmVzpTLD+Ds1XUZO8+8QmKXxDN
-----END CERTIFICATE-----
