Certificate:
    Data:
        Version: 3 (0x2)
        Serial Number: 21 (0x15)
        Signature Algorithm: ecdsa-with-SHA256
        Issuer: CN=Regione Molise, C=IT, ST=Italia, O=E-Voting system, OU=E-Voting system authority/emailAddress=Molise@evoting.it
        Validity
            Not Before: Aug  3 13:26:49 2022 GMT
            Not After : Aug  3 13:26:49 2023 GMT
        Subject: CN=Lorna, C=IT, ST=Italia, O=Regione Molise
        Subject Public Key Info:
            Public Key Algorithm: id-ecPublicKey
                Public-Key: (256 bit)
                pub:
                    04:d6:b7:10:c3:fd:30:da:9c:2b:c5:1e:3b:bd:33:
                    fd:6d:36:6e:86:56:c4:86:20:e4:5b:f1:0a:e7:52:
                    44:63:78:e3:f5:9f:e2:7e:3a:59:ff:49:76:7e:42:
                    93:d0:2e:94:7c:a3:c0:25:e6:0f:0d:b6:da:57:f4:
                    d1:b4:38:13:4a
                ASN1 OID: prime256v1
                NIST CURVE: P-256
        X509v3 extensions:
            X509v3 Key Usage: critical
                Digital Signature, Key Encipherment
            X509v3 Basic Constraints: critical
                CA:FALSE, pathlen:3
    Signature Algorithm: ecdsa-with-SHA256
         30:44:02:20:73:6e:a1:13:1d:fc:28:a6:e6:ed:15:93:99:a2:
         de:2b:0e:a2:09:96:b5:3c:cc:b4:e5:3f:7b:d7:fa:40:bf:62:
         02:20:1d:5f:73:6d:dd:43:54:23:11:1f:f7:cb:c2:2a:97:3a:
         bb:ad:52:15:68:9e:26:6d:17:93:c4:4f:47:0e:f4:a7
-----BEGIN CERTIFICATE-----
MIIB8DCCAZegAwIBAgIBFTAKBggqhkjOPQQDAjCBlzEXMBUGA1UEAwwOUmVnaW9u
ZSBNb2xpc2UxCzAJBgNVBAYTAklUMQ8wDQYDVQQIDAZJdGFsaWExGDAWBgNVBAoM
D0UtVm90aW5nIHN5c3RlbTEiMCAGA1UECwwZRS1Wb3Rpbmcgc3lzdGVtIGF1dGhv
cml0eTEgMB4GCSqGSIb3DQEJARYRTW9saXNlQGV2b3RpbmcuaXQwHhcNMjIwODAz
MTMyNjQ5WhcNMjMwODAzMTMyNjQ5WjBHMQ4wDAYDVQQDDAVMb3JuYTELMAkGA1UE
BhMCSVQxDzANBgNVBAgMBkl0YWxpYTEXMBUGA1UECgwOUmVnaW9uZSBNb2xpc2Uw
WTATBgcqhkjOPQIBBggqhkjOPQMBBwNCAATWtxDD/TDanCvFHju9M/1tNm6GVsSG
IORb8QrnUkRjeOP1n+J+Oln/SXZ+QpPQLpR8o8Al5g8NttpX9NG0OBNKoyMwITAO
BgNVHQ8BAf8EBAMCBaAwDwYDVR0TAQH/BAUwAwIBAzAKBggqhkjOPQQDAgNHADBE
AiBzbqETHfwopubtFZOZot4rDqIJlrU8zLTlP3vX+kC/YgIgHV9zbd1DVCMRH/fL
wiqXOrutUhVoniZtF5PET0cO9Kc=
-----END CERTIFICATE-----
