Certificate:
    Data:
        Version: 3 (0x2)
        Serial Number: 15 (0xf)
        Signature Algorithm: ecdsa-with-SHA256
        Issuer: CN=Regione Puglia, C=IT, ST=Italia, O=E-Voting system, OU=E-Voting system authority/emailAddress=Puglia@evoting.it
        Validity
            Not Before: Aug  3 13:26:43 2022 GMT
            Not After : Aug  3 13:26:43 2023 GMT
        Subject: CN=Lorrie, C=IT, ST=Italia, O=Regione Puglia
        Subject Public Key Info:
            Public Key Algorithm: id-ecPublicKey
                Public-Key: (256 bit)
                pub:
                    04:1d:56:3f:b2:20:7a:50:8b:55:d9:d9:ee:2b:cf:
                    2c:9f:a4:85:23:ff:27:be:ad:bb:c3:0e:7d:43:59:
                    71:9a:12:ed:6e:7d:c1:7c:ac:a8:4e:e0:34:4a:4d:
                    62:cc:57:de:1b:77:ac:ee:d4:51:8e:50:2e:54:c0:
                    bc:92:5c:9e:0a
                ASN1 OID: prime256v1
                NIST CURVE: P-256
        X509v3 extensions:
            X509v3 Key Usage: critical
                Digital Signature, Key Encipherment
            X509v3 Basic Constraints: critical
                CA:FALSE, pathlen:3
    Signature Algorithm: ecdsa-with-SHA256
         30:45:02:20:4c:40:a2:b8:02:9f:ad:fd:42:8f:34:a2:61:ee:
         c1:e0:b8:5f:17:64:36:1b:d5:16:ab:92:24:0d:96:92:ba:69:
         02:21:00:80:03:62:e3:0d:dd:99:51:b5:89:ef:4c:5f:63:52:
         87:48:9b:08:74:7c:d8:c2:ce:0d:88:9a:08:36:b8:28:45
-----BEGIN CERTIFICATE-----
MIIB8jCCAZigAwIBAgIBDzAKBggqhkjOPQQDAjCBlzEXMBUGA1UEAwwOUmVnaW9u
ZSBQdWdsaWExCzAJBgNVBAYTAklUMQ8wDQYDVQQIDAZJdGFsaWExGDAWBgNVBAoM
D0UtVm90aW5nIHN5c3RlbTEiMCAGA1UECwwZRS1Wb3Rpbmcgc3lzdGVtIGF1dGhv
cml0eTEgMB4GCSqGSIb3DQEJARYRUHVnbGlhQGV2b3RpbmcuaXQwHhcNMjIwODAz
MTMyNjQzWhcNMjMwODAzMTMyNjQzWjBIMQ8wDQYDVQQDDAZMb3JyaWUxCzAJBgNV
BAYTAklUMQ8wDQYDVQQIDAZJdGFsaWExFzAVBgNVBAoMDlJlZ2lvbmUgUHVnbGlh
MFkwEwYHKoZIzj0CAQYIKoZIzj0DAQcDQgAEHVY/siB6UItV2dnuK88sn6SFI/8n
vq27ww59Q1lxmhLtbn3BfKyoTuA0Sk1izFfeG3es7tRRjlAuVMC8klyeCqMjMCEw
DgYDVR0PAQH/BAQDAgWgMA8GA1UdEwEB/wQFMAMCAQMwCgYIKoZIzj0EAwIDSAAw
RQIgTECiuAKfrf1CjzSiYe7B4LhfF2Q2G9UWq5IkDZaSumkCIQCAA2LjDd2ZUbWJ
70xfY1KHSJsIdHzYws4NiJoINrgoRQ==
-----END CERTIFICATE-----
