Certificate:
    Data:
        Version: 3 (0x2)
        Serial Number: 3 (0x3)
        Signature Algorithm: ecdsa-with-SHA256
        Issuer: CN=Regione Lombardia, C=IT, ST=Italia, O=E-Voting system, OU=E-Voting system authority/emailAddress=Lombardia@evoting.it
        Validity
            Not Before: Aug  3 13:25:48 2022 GMT
            Not After : Aug  3 13:25:48 2023 GMT
        Subject: CN=Lorraine, C=IT, ST=Italia, O=Regione Lombardia
        Subject Public Key Info:
            Public Key Algorithm: id-ecPublicKey
                Public-Key: (256 bit)
                pub:
                    04:46:9f:ec:71:cd:a8:1a:ed:9e:6e:99:8d:62:34:
                    ea:ef:68:72:26:4a:be:eb:c1:f7:67:8b:30:38:8e:
                    21:b7:7b:62:23:87:76:a3:9f:dc:6f:a4:94:36:16:
                    57:e7:50:10:66:c1:ac:9e:a9:8a:b6:e4:d9:de:27:
                    7e:2e:51:ed:1e
                ASN1 OID: prime256v1
                NIST CURVE: P-256
        X509v3 extensions:
            X509v3 Key Usage: critical
                Digital Signature, Key Encipherment
            X509v3 Basic Constraints: critical
                CA:FALSE, pathlen:3
    Signature Algorithm: ecdsa-with-SHA256
         30:46:02:21:00:88:1c:34:a5:31:de:3f:56:ee:ea:f8:d0:7c:
         54:e1:bf:35:03:16:d8:03:ab:1e:db:2e:b8:52:7c:c7:11:52:
         b1:02:21:00:9e:33:d7:66:14:85:7a:fb:7e:51:83:46:6b:54:
         30:f8:ab:07:6c:65:ea:c6:c0:c5:3d:0e:8b:89:e3:c8:2b:8c
-----BEGIN CERTIFICATE-----
MIIB/jCCAaOgAwIBAgIBAzAKBggqhkjOPQQDAjCBnTEaMBgGA1UEAwwRUmVnaW9u
ZSBMb21iYXJkaWExCzAJBgNVBAYTAklUMQ8wDQYDVQQIDAZJdGFsaWExGDAWBgNV
BAoMD0UtVm90aW5nIHN5c3RlbTEiMCAGA1UECwwZRS1Wb3Rpbmcgc3lzdGVtIGF1
dGhvcml0eTEjMCEGCSqGSIb3DQEJARYUTG9tYmFyZGlhQGV2b3RpbmcuaXQwHhcN
MjIwODAzMTMyNTQ4WhcNMjMwODAzMTMyNTQ4WjBNMREwDwYDVQQDDAhMb3JyYWlu
ZTELMAkGA1UEBhMCSVQxDzANBgNVBAgMBkl0YWxpYTEaMBgGA1UECgwRUmVnaW9u
ZSBMb21iYXJkaWEwWTATBgcqhkjOPQIBBggqhkjOPQMBBwNCAARGn+xxzaga7Z5u
mY1iNOrvaHImSr7rwfdnizA4jiG3e2Ijh3ajn9xvpJQ2FlfnUBBmwayeqYq25Nne
J34uUe0eoyMwITAOBgNVHQ8BAf8EBAMCBaAwDwYDVR0TAQH/BAUwAwIBAzAKBggq
hkjOPQQDAgNJADBGAiEAiBw0pTHeP1bu6vjQfFThvzUDFtgDqx7bLrhSfMcRUrEC
IQCeM9dmFIV6+35Rg0ZrVDD4qwdsZerGwMU9DouJ48grjA==
-----END CERTIFICATE-----
