Certificate:
    Data:
        Version: 3 (0x2)
        Serial Number: 21 (0x15)
        Signature Algorithm: ecdsa-with-SHA256
        Issuer: CN=Regione Toscana, C=IT, ST=Italia, O=E-Voting system, OU=E-Voting system authority/emailAddress=Toscana@evoting.it
        Validity
            Not Before: Aug 26 15:20:02 2022 GMT
            Not After : Aug 26 15:20:02 2023 GMT
        Subject: CN=Lorraine, C=IT, ST=Italia, O=Regione Toscana
        Subject Public Key Info:
            Public Key Algorithm: id-ecPublicKey
                Public-Key: (256 bit)
                pub:
                    04:55:dc:14:ac:71:a1:7d:2c:7b:e4:0e:f7:9e:2b:
                    e6:b0:e7:b0:93:14:7a:68:2f:d2:93:ba:c8:5a:13:
                    b5:0e:d5:98:0f:c2:0f:85:6c:ea:5f:ea:4a:7e:41:
                    67:06:21:dd:b2:6a:b5:4c:da:5c:be:32:67:68:51:
                    a4:5c:4f:c7:52
                ASN1 OID: secp256k1
        X509v3 extensions:
            X509v3 Key Usage: critical
                Digital Signature, Key Encipherment
            X509v3 Basic Constraints: critical
                CA:FALSE, pathlen:3
    Signature Algorithm: ecdsa-with-SHA256
         30:46:02:21:00:91:cc:5a:1c:a7:28:ba:9d:7e:59:64:4c:e1:
         7b:a9:c7:84:15:05:c7:7b:d1:a6:8d:9a:1f:97:41:a5:98:09:
         a4:02:21:00:e2:3b:25:46:a1:82:17:88:d1:db:49:12:6c:1d:
         14:28:2d:cf:b7:f4:b0:68:8c:34:1d:33:c6:48:c5:2a:f0:5c
-----BEGIN CERTIFICATE-----
MIIB9TCCAZqgAwIBAgIBFTAKBggqhkjOPQQDAjCBmTEYMBYGA1UEAwwPUmVnaW9u
ZSBUb3NjYW5hMQswCQYDVQQGEwJJVDEPMA0GA1UECAwGSXRhbGlhMRgwFgYDVQQK
DA9FLVZvdGluZyBzeXN0ZW0xIjAgBgNVBAsMGUUtVm90aW5nIHN5c3RlbSBhdXRo
b3JpdHkxITAfBgkqhkiG9w0BCQEWElRvc2NhbmFAZXZvdGluZy5pdDAeFw0yMjA4
MjYxNTIwMDJaFw0yMzA4MjYxNTIwMDJaMEsxETAPBgNVBAMMCExvcnJhaW5lMQsw
CQYDVQQGEwJJVDEPMA0GA1UECAwGSXRhbGlhMRgwFgYDVQQKDA9SZWdpb25lIFRv
c2NhbmEwVjAQBgcqhkjOPQIBBgUrgQQACgNCAARV3BSscaF9LHvkDveeK+aw57CT
FHpoL9KTushaE7UO1ZgPwg+FbOpf6kp+QWcGId2yarVM2ly+MmdoUaRcT8dSoyMw
ITAOBgNVHQ8BAf8EBAMCBaAwDwYDVR0TAQH/BAUwAwIBAzAKBggqhkjOPQQDAgNJ
ADBGAiEAkcxaHKcoup1+WWRM4Xupx4QVBcd70aaNmh+XQaWYCaQCIQDiOyVGoYIX
iNHbSRJsHRQoLc+39LBojDQdM8ZIxSrwXA==
-----END CERTIFICATE-----
