Certificate:
    Data:
        Version: 3 (0x2)
        Serial Number: 48 (0x30)
        Signature Algorithm: ecdsa-with-SHA256
        Issuer: CN=Regione Valle_d_Aosta, C=IT, ST=Italia, O=E-Voting system, OU=E-Voting system authority/emailAddress=Valle_d_Aosta@evoting.it
        Validity
            Not Before: Aug  3 13:28:20 2022 GMT
            Not After : Aug  3 13:28:20 2023 GMT
        Subject: CN=Louella, C=IT, ST=Italia, O=Regione Valle_d_Aosta
        Subject Public Key Info:
            Public Key Algorithm: id-ecPublicKey
                Public-Key: (256 bit)
                pub:
                    04:62:e4:7d:97:ea:58:83:76:29:36:45:49:da:7d:
                    f2:00:42:23:40:5b:44:66:c3:6b:18:70:a0:28:37:
                    f0:79:88:c3:cb:8d:12:31:7f:aa:58:94:e4:cd:4a:
                    7d:cd:6e:f9:33:04:70:a7:9c:1d:74:ff:a1:16:f1:
                    78:49:e8:c1:23
                ASN1 OID: prime256v1
                NIST CURVE: P-256
        X509v3 extensions:
            X509v3 Key Usage: critical
                Digital Signature, Key Encipherment
            X509v3 Basic Constraints: critical
                CA:FALSE, pathlen:3
    Signature Algorithm: ecdsa-with-SHA256
         30:45:02:21:00:b6:9c:00:2a:e8:70:cc:95:05:52:5a:b8:5e:
         8c:b7:e0:46:8c:dd:7e:54:c6:a3:f6:1b:78:f4:75:78:bc:74:
         93:02:20:1e:47:72:ca:d6:b6:6b:7c:28:e9:cd:e5:78:f0:bb:
         9f:05:9a:1a:47:2e:89:ce:c0:82:86:ad:89:33:d7:23:3d
-----BEGIN CERTIFICATE-----
MIICCDCCAa6gAwIBAgIBMDAKBggqhkjOPQQDAjCBpTEeMBwGA1UEAwwVUmVnaW9u
ZSBWYWxsZV9kX0Fvc3RhMQswCQYDVQQGEwJJVDEPMA0GA1UECAwGSXRhbGlhMRgw
FgYDVQQKDA9FLVZvdGluZyBzeXN0ZW0xIjAgBgNVBAsMGUUtVm90aW5nIHN5c3Rl
bSBhdXRob3JpdHkxJzAlBgkqhkiG9w0BCQEWGFZhbGxlX2RfQW9zdGFAZXZvdGlu
Zy5pdDAeFw0yMjA4MDMxMzI4MjBaFw0yMzA4MDMxMzI4MjBaMFAxEDAOBgNVBAMM
B0xvdWVsbGExCzAJBgNVBAYTAklUMQ8wDQYDVQQIDAZJdGFsaWExHjAcBgNVBAoM
FVJlZ2lvbmUgVmFsbGVfZF9Bb3N0YTBZMBMGByqGSM49AgEGCCqGSM49AwEHA0IA
BGLkfZfqWIN2KTZFSdp98gBCI0BbRGbDaxhwoCg38HmIw8uNEjF/qliU5M1Kfc1u
+TMEcKecHXT/oRbxeEnowSOjIzAhMA4GA1UdDwEB/wQEAwIFoDAPBgNVHRMBAf8E
BTADAgEDMAoGCCqGSM49BAMCA0gAMEUCIQC2nAAq6HDMlQVSWrhejLfgRozdflTG
o/YbePR1eLx0kwIgHkdyyta2a3wo6c3lePC7nwWaGkcuic7AgoatiTPXIz0=
-----END CERTIFICATE-----
