Certificate:
    Data:
        Version: 3 (0x2)
        Serial Number: 6 (0x6)
        Signature Algorithm: ecdsa-with-SHA256
        Issuer: CN=Regione Liguria, C=IT, ST=Italia, O=E-Voting system, OU=E-Voting system authority/emailAddress=Liguria@evoting.it
        Validity
            Not Before: Aug 26 15:18:36 2022 GMT
            Not After : Aug 26 15:18:36 2023 GMT
        Subject: CN=Louis, C=IT, ST=Italia, O=Regione Liguria
        Subject Public Key Info:
            Public Key Algorithm: id-ecPublicKey
                Public-Key: (256 bit)
                pub:
                    04:66:36:37:e9:38:68:ee:7f:1d:e9:1c:3e:39:06:
                    8a:49:54:71:7a:62:09:44:64:cc:ad:1c:31:39:c5:
                    ae:a7:93:e1:41:0e:1d:5d:a0:a0:76:d5:cf:c5:c4:
                    4a:2d:04:a7:1e:ba:50:61:93:25:c6:78:59:aa:cc:
                    a7:98:89:26:ca
                ASN1 OID: secp256k1
        X509v3 extensions:
            X509v3 Key Usage: critical
                Digital Signature, Key Encipherment
            X509v3 Basic Constraints: critical
                CA:FALSE, pathlen:3
    Signature Algorithm: ecdsa-with-SHA256
         30:46:02:21:00:a2:5b:52:a4:62:28:f2:6e:87:87:24:ab:8c:
         0e:92:87:4f:e1:3c:e0:89:d8:f5:f1:d8:ce:81:86:81:d8:63:
         bd:02:21:00:fc:82:19:26:f4:77:9c:e0:9c:2f:d9:7e:12:18:
         07:02:a7:9f:6a:04:b8:80:77:8a:f7:ad:d6:4f:2e:05:04:cc
-----BEGIN CERTIFICATE-----
MIIB8jCCAZegAwIBAgIBBjAKBggqhkjOPQQDAjCBmTEYMBYGA1UEAwwPUmVnaW9u
ZSBMaWd1cmlhMQswCQYDVQQGEwJJVDEPMA0GA1UECAwGSXRhbGlhMRgwFgYDVQQK
DA9FLVZvdGluZyBzeXN0ZW0xIjAgBgNVBAsMGUUtVm90aW5nIHN5c3RlbSBhdXRo
b3JpdHkxITAfBgkqhkiG9w0BCQEWEkxpZ3VyaWFAZXZvdGluZy5pdDAeFw0yMjA4
MjYxNTE4MzZaFw0yMzA4MjYxNTE4MzZaMEgxDjAMBgNVBAMMBUxvdWlzMQswCQYD
VQQGEwJJVDEPMA0GA1UECAwGSXRhbGlhMRgwFgYDVQQKDA9SZWdpb25lIExpZ3Vy
aWEwVjAQBgcqhkjOPQIBBgUrgQQACgNCAARmNjfpOGjufx3pHD45BopJVHF6YglE
ZMytHDE5xa6nk+FBDh1doKB21c/FxEotBKceulBhkyXGeFmqzKeYiSbKoyMwITAO
BgNVHQ8BAf8EBAMCBaAwDwYDVR0TAQH/BAUwAwIBAzAKBggqhkjOPQQDAgNJADBG
AiEAoltSpGIo8m6HhySrjA6Sh0/hPOCJ2PXx2M6BhoHYY70CIQD8ghkm9Hec4Jwv
2X4SGAcCp59qBLiAd4r3rdZPLgUEzA==
-----END CERTIFICATE-----
