Certificate:
    Data:
        Version: 3 (0x2)
        Serial Number: 16 (0x10)
        Signature Algorithm: ecdsa-with-SHA256
        Issuer: CN=Regione Lazio, C=IT, ST=Italia, O=E-Voting system, OU=E-Voting system authority/emailAddress=Lazio@evoting.it
        Validity
            Not Before: Aug 26 15:19:22 2022 GMT
            Not After : Aug 26 15:19:22 2023 GMT
        Subject: CN=Louise, C=IT, ST=Italia, O=Regione Lazio
        Subject Public Key Info:
            Public Key Algorithm: id-ecPublicKey
                Public-Key: (256 bit)
                pub:
                    04:a6:d6:d6:51:bb:0f:5f:f5:4f:4e:6e:7c:1a:72:
                    09:9b:67:02:8e:cf:3e:c2:94:6a:35:39:fe:92:58:
                    66:c8:5f:8c:69:d9:68:21:c0:92:df:f6:ef:08:c2:
                    6a:11:de:a8:86:52:22:2a:e8:dd:39:b8:9b:23:e3:
                    6a:a4:2d:ec:99
                ASN1 OID: secp256k1
        X509v3 extensions:
            X509v3 Key Usage: critical
                Digital Signature, Key Encipherment
            X509v3 Basic Constraints: critical
                CA:FALSE, pathlen:3
    Signature Algorithm: ecdsa-with-SHA256
         30:46:02:21:00:ba:05:54:5a:43:1c:72:6f:3b:fc:ed:07:5b:
         da:ab:11:99:4c:00:ad:5b:37:cd:8b:8f:83:bf:d1:1d:c0:a2:
         6d:02:21:00:c8:8c:1b:b0:7d:d5:8e:e9:c8:5f:99:57:d2:2f:
         7b:22:1c:89:8e:cd:82:fc:73:23:91:66:08:3a:ae:1e:a5:6a
-----BEGIN CERTIFICATE-----
MIIB7TCCAZKgAwIBAgIBEDAKBggqhkjOPQQDAjCBlTEWMBQGA1UEAwwNUmVnaW9u
ZSBMYXppbzELMAkGA1UEBhMCSVQxDzANBgNVBAgMBkl0YWxpYTEYMBYGA1UECgwP
RS1Wb3Rpbmcgc3lzdGVtMSIwIAYDVQQLDBlFLVZvdGluZyBzeXN0ZW0gYXV0aG9y
aXR5MR8wHQYJKoZIhvcNAQkBFhBMYXppb0Bldm90aW5nLml0MB4XDTIyMDgyNjE1
MTkyMloXDTIzMDgyNjE1MTkyMlowRzEPMA0GA1UEAwwGTG91aXNlMQswCQYDVQQG
EwJJVDEPMA0GA1UECAwGSXRhbGlhMRYwFAYDVQQKDA1SZWdpb25lIExhemlvMFYw
EAYHKoZIzj0CAQYFK4EEAAoDQgAEptbWUbsPX/VPTm58GnIJm2cCjs8+wpRqNTn+
klhmyF+MadloIcCS3/bvCMJqEd6ohlIiKujdObibI+NqpC3smaMjMCEwDgYDVR0P
AQH/BAQDAgWgMA8GA1UdEwEB/wQFMAMCAQMwCgYIKoZIzj0EAwIDSQAwRgIhALoF
VFpDHHJvO/ztB1vaqxGZTACtWzfNi4+Dv9EdwKJtAiEAyIwbsH3VjunIX5lX0i97
IhyJjs2C/HMjkWYIOq4epWo=
-----END CERTIFICATE-----
