Certificate:
    Data:
        Version: 3 (0x2)
        Serial Number: 30 (0x1e)
        Signature Algorithm: ecdsa-with-SHA256
        Issuer: CN=Regione Umbria, C=IT, ST=Italia, O=E-Voting system, OU=E-Voting system authority/emailAddress=Umbria@evoting.it
        Validity
            Not Before: Aug 26 15:20:34 2022 GMT
            Not After : Aug 26 15:20:34 2023 GMT
        Subject: CN=Lourdes, C=IT, ST=Italia, O=Regione Umbria
        Subject Public Key Info:
            Public Key Algorithm: id-ecPublicKey
                Public-Key: (256 bit)
                pub:
                    04:34:68:7e:fe:90:67:af:f1:31:d3:d3:d5:1f:e7:
                    7e:6c:5b:72:a3:8f:72:37:15:ad:ba:eb:06:b8:ad:
                    d3:54:c2:bf:21:f0:e7:0d:4f:89:40:0f:59:5e:33:
                    45:4a:3d:28:fd:b9:cb:ac:7a:7b:9c:cb:b2:ad:40:
                    13:76:9e:06:98
                ASN1 OID: secp256k1
        X509v3 extensions:
            X509v3 Key Usage: critical
                Digital Signature, Key Encipherment
            X509v3 Basic Constraints: critical
                CA:FALSE, pathlen:3
    Signature Algorithm: ecdsa-with-SHA256
         30:45:02:21:00:85:87:71:3d:8c:e3:a6:64:66:a8:96:fa:82:
         3b:ae:2f:f5:67:27:57:69:e8:81:91:ec:bd:99:86:4e:a1:27:
         ff:02:20:66:c1:46:2c:28:a5:a8:a3:43:37:b2:a4:f4:f6:dd:
         8c:5d:9b:32:f7:17:6e:03:0c:3f:29:2b:26:7e:41:de:bc
-----BEGIN CERTIFICATE-----
MIIB8DCCAZagAwIBAgIBHjAKBggqhkjOPQQDAjCBlzEXMBUGA1UEAwwOUmVnaW9u
ZSBVbWJyaWExCzAJBgNVBAYTAklUMQ8wDQYDVQQIDAZJdGFsaWExGDAWBgNVBAoM
D0UtVm90aW5nIHN5c3RlbTEiMCAGA1UECwwZRS1Wb3Rpbmcgc3lzdGVtIGF1dGhv
cml0eTEgMB4GCSqGSIb3DQEJARYRVW1icmlhQGV2b3RpbmcuaXQwHhcNMjIwODI2
MTUyMDM0WhcNMjMwODI2MTUyMDM0WjBJMRAwDgYDVQQDDAdMb3VyZGVzMQswCQYD
VQQGEwJJVDEPMA0GA1UECAwGSXRhbGlhMRcwFQYDVQQKDA5SZWdpb25lIFVtYnJp
YTBWMBAGByqGSM49AgEGBSuBBAAKA0IABDRofv6QZ6/xMdPT1R/nfmxbcqOPcjcV
rbrrBrit01TCvyHw5w1PiUAPWV4zRUo9KP25y6x6e5zLsq1AE3aeBpijIzAhMA4G
A1UdDwEB/wQEAwIFoDAPBgNVHRMBAf8EBTADAgEDMAoGCCqGSM49BAMCA0gAMEUC
IQCFh3E9jOOmZGaolvqCO64v9WcnV2nogZHsvZmGTqEn/wIgZsFGLCilqKNDN7Kk
9PbdjF2bMvcXbgMMPykrJn5B3rw=
-----END CERTIFICATE-----
