Certificate:
    Data:
        Version: 3 (0x2)
        Serial Number: 17 (0x11)
        Signature Algorithm: ecdsa-with-SHA256
        Issuer: CN=Regione Lazio, C=IT, ST=Italia, O=E-Voting system, OU=E-Voting system authority/emailAddress=Lazio@evoting.it
        Validity
            Not Before: Aug  3 13:26:11 2022 GMT
            Not After : Aug  3 13:26:11 2023 GMT
        Subject: CN=Lourdes, C=IT, ST=Italia, O=Regione Lazio
        Subject Public Key Info:
            Public Key Algorithm: id-ecPublicKey
                Public-Key: (256 bit)
                pub:
                    04:89:65:20:fd:18:17:dd:d2:f3:05:3b:83:d7:4d:
                    3f:8c:cb:25:84:53:e1:21:ac:8f:47:ce:66:ac:cf:
                    ac:09:e4:c5:1d:aa:75:b2:1d:0f:0d:88:18:6a:07:
                    79:1d:c7:f8:69:73:b6:43:d9:9f:c9:cc:aa:75:93:
                    26:84:3f:2b:2a
                ASN1 OID: prime256v1
                NIST CURVE: P-256
        X509v3 extensions:
            X509v3 Key Usage: critical
                Digital Signature, Key Encipherment
            X509v3 Basic Constraints: critical
                CA:FALSE, pathlen:3
    Signature Algorithm: ecdsa-with-SHA256
         30:44:02:20:5d:76:4f:3b:35:76:86:12:85:18:ed:55:e3:a1:
         66:ea:83:a2:87:6c:94:7b:d7:0d:c0:27:e8:09:f2:e2:ff:da:
         02:20:27:99:43:2e:31:7d:f0:72:34:ff:83:3b:1a:ff:a8:a5:
         d4:86:1d:65:a1:1f:87:f4:e3:99:29:49:f2:a6:fe:6b
-----BEGIN CERTIFICATE-----
MIIB7zCCAZagAwIBAgIBETAKBggqhkjOPQQDAjCBlTEWMBQGA1UEAwwNUmVnaW9u
ZSBMYXppbzELMAkGA1UEBhMCSVQxDzANBgNVBAgMBkl0YWxpYTEYMBYGA1UECgwP
RS1Wb3Rpbmcgc3lzdGVtMSIwIAYDVQQLDBlFLVZvdGluZyBzeXN0ZW0gYXV0aG9y
aXR5MR8wHQYJKoZIhvcNAQkBFhBMYXppb0Bldm90aW5nLml0MB4XDTIyMDgwMzEz
MjYxMVoXDTIzMDgwMzEzMjYxMVowSDEQMA4GA1UEAwwHTG91cmRlczELMAkGA1UE
BhMCSVQxDzANBgNVBAgMBkl0YWxpYTEWMBQGA1UECgwNUmVnaW9uZSBMYXppbzBZ
MBMGByqGSM49AgEGCCqGSM49AwEHA0IABIllIP0YF93S8wU7g9dNP4zLJYRT4SGs
j0fOZqzPrAnkxR2qdbIdDw2IGGoHeR3H+GlztkPZn8nMqnWTJoQ/KyqjIzAhMA4G
A1UdDwEB/wQEAwIFoDAPBgNVHRMBAf8EBTADAgEDMAoGCCqGSM49BAMCA0cAMEQC
IF12Tzs1doYShRjtVeOhZuqDoodslHvXDcAn6Any4v/aAiAnmUMuMX3wcjT/gzsa
/6il1IYdZaEfh/TjmSlJ8qb+aw==
-----END CERTIFICATE-----
