Certificate:
    Data:
        Version: 3 (0x2)
        Serial Number: 26 (0x1a)
        Signature Algorithm: ecdsa-with-SHA256
        Issuer: CN=Regione Sicilia, C=IT, ST=Italia, O=E-Voting system, OU=E-Voting system authority/emailAddress=Sicilia@evoting.it
        Validity
            Not Before: Aug 26 15:19:57 2022 GMT
            Not After : Aug 26 15:19:57 2023 GMT
        Subject: CN=Lourie, C=IT, ST=Italia, O=Regione Sicilia
        Subject Public Key Info:
            Public Key Algorithm: id-ecPublicKey
                Public-Key: (256 bit)
                pub:
                    04:83:d4:1f:f8:e6:9d:8e:e2:08:1b:96:c3:c3:1e:
                    e4:da:ed:8a:ee:9b:c9:b8:a4:e0:70:a2:9f:b7:d5:
                    37:b6:ac:00:35:d6:f3:79:d6:fe:73:c6:e1:a0:66:
                    24:6d:c5:4b:41:7d:eb:86:1a:a5:fa:e9:4e:15:81:
                    73:aa:12:69:e3
                ASN1 OID: secp256k1
        X509v3 extensions:
            X509v3 Key Usage: critical
                Digital Signature, Key Encipherment
            X509v3 Basic Constraints: critical
                CA:FALSE, pathlen:3
    Signature Algorithm: ecdsa-with-SHA256
         30:45:02:21:00:9d:be:c7:b6:56:5c:9d:86:b9:b6:04:6c:fe:
         c8:9f:8c:0c:6f:0b:81:29:d6:bb:af:e3:23:00:d7:ca:a6:f4:
         a9:02:20:3c:5b:49:dd:c2:2e:06:f7:74:81:48:e8:f4:c9:4e:
         b7:aa:c9:00:6d:8d:fe:d4:19:e1:99:13:71:16:88:cd:a9
-----BEGIN CERTIFICATE-----
MIIB8jCCAZigAwIBAgIBGjAKBggqhkjOPQQDAjCBmTEYMBYGA1UEAwwPUmVnaW9u
ZSBTaWNpbGlhMQswCQYDVQQGEwJJVDEPMA0GA1UECAwGSXRhbGlhMRgwFgYDVQQK
DA9FLVZvdGluZyBzeXN0ZW0xIjAgBgNVBAsMGUUtVm90aW5nIHN5c3RlbSBhdXRo
b3JpdHkxITAfBgkqhkiG9w0BCQEWElNpY2lsaWFAZXZvdGluZy5pdDAeFw0yMjA4
MjYxNTE5NTdaFw0yMzA4MjYxNTE5NTdaMEkxDzANBgNVBAMMBkxvdXJpZTELMAkG
A1UEBhMCSVQxDzANBgNVBAgMBkl0YWxpYTEYMBYGA1UECgwPUmVnaW9uZSBTaWNp
bGlhMFYwEAYHKoZIzj0CAQYFK4EEAAoDQgAEg9Qf+OadjuIIG5bDwx7k2u2K7pvJ
uKTgcKKft9U3tqwANdbzedb+c8bhoGYkbcVLQX3rhhql+ulOFYFzqhJp46MjMCEw
DgYDVR0PAQH/BAQDAgWgMA8GA1UdEwEB/wQFMAMCAQMwCgYIKoZIzj0EAwIDSAAw
RQIhAJ2+x7ZWXJ2GubYEbP7In4wMbwuBKda7r+MjANfKpvSpAiA8W0ndwi4G93SB
SOj0yU63qskAbY3+1BnhmRNxFojNqQ==
-----END CERTIFICATE-----
