Certificate:
    Data:
        Version: 3 (0x2)
        Serial Number: 30 (0x1e)
        Signature Algorithm: ecdsa-with-SHA256
        Issuer: CN=Regione Valle_d_Aosta, C=IT, ST=Italia, O=E-Voting system, OU=E-Voting system authority/emailAddress=Valle_d_Aosta@evoting.it
        Validity
            Not Before: Aug  3 13:27:07 2022 GMT
            Not After : Aug  3 13:27:07 2023 GMT
        Subject: CN=Lovie, C=IT, ST=Italia, O=Regione Valle_d_Aosta
        Subject Public Key Info:
            Public Key Algorithm: id-ecPublicKey
                Public-Key: (256 bit)
                pub:
                    04:9d:01:9c:50:83:4f:99:bd:5e:13:b6:11:95:28:
                    cb:61:bc:08:87:e4:79:82:ce:e0:46:a0:b1:ce:3a:
                    79:ad:27:a0:44:7e:db:7d:f4:10:c2:e6:8c:cf:36:
                    c1:3c:15:a2:04:9e:f6:9b:5e:54:81:b9:be:3a:9e:
                    53:fa:62:3f:a3
                ASN1 OID: prime256v1
                NIST CURVE: P-256
        X509v3 extensions:
            X509v3 Key Usage: critical
                Digital Signature, Key Encipherment
            X509v3 Basic Constraints: critical
                CA:FALSE, pathlen:3
    Signature Algorithm: ecdsa-with-SHA256
         30:44:02:20:3a:d7:8c:1c:c0:f3:f1:71:9e:79:b8:ee:bc:71:
         7b:5b:67:07:62:5e:d8:4c:7a:c2:2b:89:c5:5b:92:b3:61:d7:
         02:20:0e:41:67:70:58:99:d7:bd:f4:86:d6:f1:88:cf:75:b5:
         83:6b:3b:cb:1c:c7:e4:5e:8b:f5:4b:fc:79:fd:c3:3a
-----BEGIN CERTIFICATE-----
MIICBTCCAaygAwIBAgIBHjAKBggqhkjOPQQDAjCBpTEeMBwGA1UEAwwVUmVnaW9u
ZSBWYWxsZV9kX0Fvc3RhMQswCQYDVQQGEwJJVDEPMA0GA1UECAwGSXRhbGlhMRgw
FgYDVQQKDA9FLVZvdGluZyBzeXN0ZW0xIjAgBgNVBAsMGUUtVm90aW5nIHN5c3Rl
bSBhdXRob3JpdHkxJzAlBgkqhkiG9w0BCQEWGFZhbGxlX2RfQW9zdGFAZXZvdGlu
Zy5pdDAeFw0yMjA4MDMxMzI3MDdaFw0yMzA4MDMxMzI3MDdaME4xDjAMBgNVBAMM
BUxvdmllMQswCQYDVQQGEwJJVDEPMA0GA1UECAwGSXRhbGlhMR4wHAYDVQQKDBVS
ZWdpb25lIFZhbGxlX2RfQW9zdGEwWTATBgcqhkjOPQIBBggqhkjOPQMBBwNCAASd
AZxQg0+ZvV4TthGVKMthvAiH5HmCzuBGoLHOOnmtJ6BEftt99BDC5ozPNsE8FaIE
nvabXlSBub46nlP6Yj+joyMwITAOBgNVHQ8BAf8EBAMCBaAwDwYDVR0TAQH/BAUw
AwIBAzAKBggqhkjOPQQDAgNHADBEAiA614wcwPPxcZ55uO68cXtbZwdiXthMesIr
icVbkrNh1wIgDkFncFiZ1730htbxiM91tYNrO8scx+Rei/VL/Hn9wzo=
-----END CERTIFICATE-----
