Certificate:
    Data:
        Version: 3 (0x2)
        Serial Number: 24 (0x18)
        Signature Algorithm: ecdsa-with-SHA256
        Issuer: CN=Regione Sardegna, C=IT, ST=Italia, O=E-Voting system, OU=E-Voting system authority/emailAddress=Sardegna@evoting.it
        Validity
            Not Before: Aug  3 13:27:24 2022 GMT
            Not After : Aug  3 13:27:24 2023 GMT
        Subject: CN=Loyd, C=IT, ST=Italia, O=Regione Sardegna
        Subject Public Key Info:
            Public Key Algorithm: id-ecPublicKey
                Public-Key: (256 bit)
                pub:
                    04:58:ee:52:99:67:8d:c0:57:9b:57:0a:0a:8b:bf:
                    e1:30:94:0a:8d:b5:ec:f0:95:f5:02:3f:cc:62:36:
                    73:50:bd:a6:36:3b:1a:ed:da:11:76:e1:83:95:0e:
                    b4:44:2c:b9:f4:d9:d3:d8:54:89:62:e1:dc:53:22:
                    9d:90:8f:8b:4d
                ASN1 OID: prime256v1
                NIST CURVE: P-256
        X509v3 extensions:
            X509v3 Key Usage: critical
                Digital Signature, Key Encipherment
            X509v3 Basic Constraints: critical
                CA:FALSE, pathlen:3
    Signature Algorithm: ecdsa-with-SHA256
         30:45:02:20:2f:0a:5e:c2:75:9b:d5:ff:cd:eb:0e:ef:8e:0d:
         39:6d:17:2c:ab:ac:22:5c:40:ea:52:27:7e:99:38:b7:5e:a6:
         02:21:00:dc:a2:9d:65:6e:4e:e2:3e:de:82:20:34:2e:e7:53:
         7d:cf:1e:f2:3d:85:c8:4e:4c:cf:da:8b:a1:8e:a6:c1:e1
-----BEGIN CERTIFICATE-----
MIIB9jCCAZygAwIBAgIBGDAKBggqhkjOPQQDAjCBmzEZMBcGA1UEAwwQUmVnaW9u
ZSBTYXJkZWduYTELMAkGA1UEBhMCSVQxDzANBgNVBAgMBkl0YWxpYTEYMBYGA1UE
CgwPRS1Wb3Rpbmcgc3lzdGVtMSIwIAYDVQQLDBlFLVZvdGluZyBzeXN0ZW0gYXV0
aG9yaXR5MSIwIAYJKoZIhvcNAQkBFhNTYXJkZWduYUBldm90aW5nLml0MB4XDTIy
MDgwMzEzMjcyNFoXDTIzMDgwMzEzMjcyNFowSDENMAsGA1UEAwwETG95ZDELMAkG
A1UEBhMCSVQxDzANBgNVBAgMBkl0YWxpYTEZMBcGA1UECgwQUmVnaW9uZSBTYXJk
ZWduYTBZMBMGByqGSM49AgEGCCqGSM49AwEHA0IABFjuUplnjcBXm1cKCou/4TCU
Co217PCV9QI/zGI2c1C9pjY7Gu3aEXbhg5UOtEQsufTZ09hUiWLh3FMinZCPi02j
IzAhMA4GA1UdDwEB/wQEAwIFoDAPBgNVHRMBAf8EBTADAgEDMAoGCCqGSM49BAMC
A0gAMEUCIC8KXsJ1m9X/zesO744NOW0XLKusIlxA6lInfpk4t16mAiEA3KKdZW5O
4j7egiA0LudTfc8e8j2FyE5Mz9qLoY6mweE=
-----END CERTIFICATE-----
