Certificate:
    Data:
        Version: 3 (0x2)
        Serial Number: 9 (0x9)
        Signature Algorithm: ecdsa-with-SHA256
        Issuer: CN=Regione Abruzzo, C=IT, ST=Italia, O=E-Voting system, OU=E-Voting system authority/emailAddress=Abruzzo@evoting.it
        Validity
            Not Before: Aug 26 15:18:57 2022 GMT
            Not After : Aug 26 15:18:57 2023 GMT
        Subject: CN=Lucia, C=IT, ST=Italia, O=Regione Abruzzo
        Subject Public Key Info:
            Public Key Algorithm: id-ecPublicKey
                Public-Key: (256 bit)
                pub:
                    04:40:42:85:1c:56:cf:88:95:a5:4a:2a:25:2e:11:
                    24:72:eb:16:03:26:97:e7:ad:c6:60:6c:04:e2:ad:
                    0b:98:e3:0f:84:ad:dc:91:49:31:13:7d:aa:2b:4a:
                    e9:56:6d:b5:16:a5:1a:f6:67:0e:a2:46:15:77:ff:
                    3c:ad:c4:8e:77
                ASN1 OID: secp256k1
        X509v3 extensions:
            X509v3 Key Usage: critical
                Digital Signature, Key Encipherment
            X509v3 Basic Constraints: critical
                CA:FALSE, pathlen:3
    Signature Algorithm: ecdsa-with-SHA256
         30:44:02:20:71:11:e9:44:8a:e0:a2:b5:4c:ba:76:a8:64:3e:
         89:58:90:ad:c5:13:eb:e1:4c:eb:5a:4f:42:e0:62:97:26:4b:
         02:20:0c:63:9a:08:39:bc:d6:b8:67:91:51:0a:b9:94:2f:c4:
         82:d9:3b:6f:67:08:02:86:53:e2:cf:4b:0a:3e:db:79
-----BEGIN CERTIFICATE-----
MIIB8DCCAZegAwIBAgIBCTAKBggqhkjOPQQDAjCBmTEYMBYGA1UEAwwPUmVnaW9u
ZSBBYnJ1enpvMQswCQYDVQQGEwJJVDEPMA0GA1UECAwGSXRhbGlhMRgwFgYDVQQK
DA9FLVZvdGluZyBzeXN0ZW0xIjAgBgNVBAsMGUUtVm90aW5nIHN5c3RlbSBhdXRo
b3JpdHkxITAfBgkqhkiG9w0BCQEWEkFicnV6em9AZXZvdGluZy5pdDAeFw0yMjA4
MjYxNTE4NTdaFw0yMzA4MjYxNTE4NTdaMEgxDjAMBgNVBAMMBUx1Y2lhMQswCQYD
VQQGEwJJVDEPMA0GA1UECAwGSXRhbGlhMRgwFgYDVQQKDA9SZWdpb25lIEFicnV6
em8wVjAQBgcqhkjOPQIBBgUrgQQACgNCAARAQoUcVs+IlaVKKiUuESRy6xYDJpfn
rcZgbATirQuY4w+ErdyRSTETfaorSulWbbUWpRr2Zw6iRhV3/zytxI53oyMwITAO
BgNVHQ8BAf8EBAMCBaAwDwYDVR0TAQH/BAUwAwIBAzAKBggqhkjOPQQDAgNHADBE
AiBxEelEiuCitUy6dqhkPolYkK3FE+vhTOtaT0LgYpcmSwIgDGOaCDm81rhnkVEK
uZQvxILZO29nCAKGU+LPSwo+23k=
-----END CERTIFICATE-----
