Certificate:
    Data:
        Version: 3 (0x2)
        Serial Number: 51 (0x33)
        Signature Algorithm: ecdsa-with-SHA256
        Issuer: CN=Regione Trentino_Alto_Adige, C=IT, ST=Italia, O=E-Voting system, OU=E-Voting system authority/emailAddress=Trentino_Alto_Adige@evoting.it
        Validity
            Not Before: Aug 26 15:21:35 2022 GMT
            Not After : Aug 26 15:21:35 2023 GMT
        Subject: CN=Luis, C=IT, ST=Italia, O=Regione Trentino_Alto_Adige
        Subject Public Key Info:
            Public Key Algorithm: id-ecPublicKey
                Public-Key: (256 bit)
                pub:
                    04:af:74:46:3c:36:26:8b:2c:4b:28:9d:93:c2:aa:
                    18:58:f4:8e:56:2f:c5:2a:4e:e1:d1:0e:b3:9b:e7:
                    ed:b7:ca:ca:b8:80:ee:ef:65:8c:75:65:1f:bf:6e:
                    f3:a8:38:3b:09:fa:c8:c0:6f:b1:64:c7:78:9e:8f:
                    ec:84:e7:3c:e7
                ASN1 OID: secp256k1
        X509v3 extensions:
            X509v3 Key Usage: critical
                Digital Signature, Key Encipherment
            X509v3 Basic Constraints: critical
                CA:FALSE, pathlen:3
    Signature Algorithm: ecdsa-with-SHA256
         30:45:02:21:00:94:f1:4a:b6:9e:5f:22:55:9d:99:22:ee:ec:
         50:d3:2e:07:67:38:5f:de:3f:a8:0d:34:ec:73:36:07:84:a2:
         62:02:20:6c:1f:a1:90:e3:ae:c8:d8:aa:b8:c8:f3:13:9e:ec:
         9e:e8:7b:ae:95:33:40:44:03:f3:c5:ef:6c:3f:79:bb:87
-----BEGIN CERTIFICATE-----
MIICFDCCAbqgAwIBAgIBMzAKBggqhkjOPQQDAjCBsTEkMCIGA1UEAwwbUmVnaW9u
ZSBUcmVudGlub19BbHRvX0FkaWdlMQswCQYDVQQGEwJJVDEPMA0GA1UECAwGSXRh
bGlhMRgwFgYDVQQKDA9FLVZvdGluZyBzeXN0ZW0xIjAgBgNVBAsMGUUtVm90aW5n
IHN5c3RlbSBhdXRob3JpdHkxLTArBgkqhkiG9w0BCQEWHlRyZW50aW5vX0FsdG9f
QWRpZ2VAZXZvdGluZy5pdDAeFw0yMjA4MjYxNTIxMzVaFw0yMzA4MjYxNTIxMzVa
MFMxDTALBgNVBAMMBEx1aXMxCzAJBgNVBAYTAklUMQ8wDQYDVQQIDAZJdGFsaWEx
JDAiBgNVBAoMG1JlZ2lvbmUgVHJlbnRpbm9fQWx0b19BZGlnZTBWMBAGByqGSM49
AgEGBSuBBAAKA0IABK90Rjw2JossSyidk8KqGFj0jlYvxSpO4dEOs5vn7bfKyriA
7u9ljHVlH79u86g4Own6yMBvsWTHeJ6P7ITnPOejIzAhMA4GA1UdDwEB/wQEAwIF
oDAPBgNVHRMBAf8EBTADAgEDMAoGCCqGSM49BAMCA0gAMEUCIQCU8Uq2nl8iVZ2Z
Iu7sUNMuB2c4X94/qA007HM2B4SiYgIgbB+hkOOuyNiquMjzE57snuh7rpUzQEQD
88XvbD95u4c=
-----END CERTIFICATE-----
