Certificate:
    Data:
        Version: 3 (0x2)
        Serial Number: 1 (0x1)
        Signature Algorithm: ecdsa-with-SHA256
        Issuer: CN=Regione Sardegna, C=IT, ST=Italia, O=E-Voting system, OU=E-Voting system authority/emailAddress=Sardegna@evoting.it
        Validity
            Not Before: Aug 26 15:18:23 2022 GMT
            Not After : Aug 26 15:18:23 2023 GMT
        Subject: CN=Lupe, C=IT, ST=Italia, O=Regione Sardegna
        Subject Public Key Info:
            Public Key Algorithm: id-ecPublicKey
                Public-Key: (256 bit)
                pub:
                    04:16:0a:c4:f5:2d:5b:0d:6d:04:ef:0a:8a:e2:72:
                    a1:74:bf:16:8d:1a:51:ad:45:67:17:46:60:75:4e:
                    cf:a5:a2:3b:d5:1d:bc:59:e9:4d:f9:46:92:22:cf:
                    31:6f:d7:dc:d3:a9:45:28:5d:af:54:80:8c:3c:ba:
                    cf:10:a8:ba:75
                ASN1 OID: secp256k1
        X509v3 extensions:
            X509v3 Key Usage: critical
                Digital Signature, Key Encipherment
            X509v3 Basic Constraints: critical
                CA:FALSE, pathlen:3
    Signature Algorithm: ecdsa-with-SHA256
         30:45:02:21:00:84:ef:44:0f:47:9a:54:09:58:27:49:7f:66:
         86:ef:b1:b9:85:2d:f6:88:25:56:1e:17:d9:cc:3c:0e:7e:8b:
         5a:02:20:5f:86:6e:bf:3f:98:dc:aa:8c:13:20:6f:36:d9:cf:
         4b:64:4a:6d:ce:5c:00:68:5a:a3:31:a8:9c:01:fb:2b:45
-----BEGIN CERTIFICATE-----
MIIB8zCCAZmgAwIBAgIBATAKBggqhkjOPQQDAjCBmzEZMBcGA1UEAwwQUmVnaW9u
ZSBTYXJkZWduYTELMAkGA1UEBhMCSVQxDzANBgNVBAgMBkl0YWxpYTEYMBYGA1UE
CgwPRS1Wb3Rpbmcgc3lzdGVtMSIwIAYDVQQLDBlFLVZvdGluZyBzeXN0ZW0gYXV0
aG9yaXR5MSIwIAYJKoZIhvcNAQkBFhNTYXJkZWduYUBldm90aW5nLml0MB4XDTIy
MDgyNjE1MTgyM1oXDTIzMDgyNjE1MTgyM1owSDENMAsGA1UEAwwETHVwZTELMAkG
A1UEBhMCSVQxDzANBgNVBAgMBkl0YWxpYTEZMBcGA1UECgwQUmVnaW9uZSBTYXJk
ZWduYTBWMBAGByqGSM49AgEGBSuBBAAKA0IABBYKxPUtWw1tBO8KiuJyoXS/Fo0a
Ua1FZxdGYHVOz6WiO9UdvFnpTflGkiLPMW/X3NOpRShdr1SAjDy6zxCounWjIzAh
MA4GA1UdDwEB/wQEAwIFoDAPBgNVHRMBAf8EBTADAgEDMAoGCCqGSM49BAMCA0gA
MEUCIQCE70QPR5pUCVgnSX9mhu+xuYUt9oglVh4X2cw8Dn6LWgIgX4Zuvz+Y3KqM
EyBvNtnPS2RKbc5cAGhaozGonAH7K0U=
-----END CERTIFICATE-----
