Certificate:
    Data:
        Version: 3 (0x2)
        Serial Number: 41 (0x29)
        Signature Algorithm: ecdsa-with-SHA256
        Issuer: CN=Regione Marche, C=IT, ST=Italia, O=E-Voting system, OU=E-Voting system authority/emailAddress=Marche@evoting.it
        Validity
            Not Before: Aug  3 13:28:02 2022 GMT
            Not After : Aug  3 13:28:02 2023 GMT
        Subject: CN=Lurline, C=IT, ST=Italia, O=Regione Marche
        Subject Public Key Info:
            Public Key Algorithm: id-ecPublicKey
                Public-Key: (256 bit)
                pub:
                    04:6a:ed:05:20:8d:3a:1c:41:8c:6c:80:d0:84:94:
                    29:63:03:10:7d:e4:ba:4b:33:54:3a:d0:7f:fd:c6:
                    fd:b7:cd:80:7b:97:9b:70:3a:bb:90:e6:ab:cb:69:
                    d5:ab:72:ba:bb:8f:9c:73:c2:b3:b5:4c:75:29:1c:
                    e3:a0:75:43:8b
                ASN1 OID: prime256v1
                NIST CURVE: P-256
        X509v3 extensions:
            X509v3 Key Usage: critical
                Digital Signature, Key Encipherment
            X509v3 Basic Constraints: critical
                CA:FALSE, pathlen:3
    Signature Algorithm: ecdsa-with-SHA256
         30:45:02:21:00:9f:3d:d6:32:cd:b9:59:bc:50:ed:f0:0c:d5:
         5b:d9:0d:9f:2a:97:d3:d7:58:62:c2:34:13:d9:1b:23:71:45:
         09:02:20:28:23:57:ca:19:f2:00:b6:1a:e5:ab:88:80:56:19:
         11:a0:f1:b4:17:3e:ae:46:48:68:91:98:46:2b:88:00:e0
-----BEGIN CERTIFICATE-----
MIIB8zCCAZmgAwIBAgIBKTAKBggqhkjOPQQDAjCBlzEXMBUGA1UEAwwOUmVnaW9u
ZSBNYXJjaGUxCzAJBgNVBAYTAklUMQ8wDQYDVQQIDAZJdGFsaWExGDAWBgNVBAoM
D0UtVm90aW5nIHN5c3RlbTEiMCAGA1UECwwZRS1Wb3Rpbmcgc3lzdGVtIGF1dGhv
cml0eTEgMB4GCSqGSIb3DQEJARYRTWFyY2hlQGV2b3RpbmcuaXQwHhcNMjIwODAz
MTMyODAyWhcNMjMwODAzMTMyODAyWjBJMRAwDgYDVQQDDAdMdXJsaW5lMQswCQYD
VQQGEwJJVDEPMA0GA1UECAwGSXRhbGlhMRcwFQYDVQQKDA5SZWdpb25lIE1hcmNo
ZTBZMBMGByqGSM49AgEGCCqGSM49AwEHA0IABGrtBSCNOhxBjGyA0ISUKWMDEH3k
ukszVDrQf/3G/bfNgHuXm3A6u5Dmq8tp1atyuruPnHPCs7VMdSkc46B1Q4ujIzAh
MA4GA1UdDwEB/wQEAwIFoDAPBgNVHRMBAf8EBTADAgEDMAoGCCqGSM49BAMCA0gA
MEUCIQCfPdYyzblZvFDt8AzVW9kNnyqX09dYYsI0E9kbI3FFCQIgKCNXyhnyALYa
5auIgFYZEaDxtBc+rkZIaJGYRiuIAOA=
-----END CERTIFICATE-----
