Certificate:
    Data:
        Version: 3 (0x2)
        Serial Number: 1 (0x1)
        Signature Algorithm: ecdsa-with-SHA256
        Issuer: CN=Regione Friuli_Venezia_Giulia, C=IT, ST=Italia, O=E-Voting system, OU=E-Voting system authority/emailAddress=Friuli_Venezia_Giulia@evoting.it
        Validity
            Not Before: Aug 26 15:18:23 2022 GMT
            Not After : Aug 26 15:18:23 2023 GMT
        Subject: CN=Lydia, C=IT, ST=Italia, O=Regione Friuli_Venezia_Giulia
        Subject Public Key Info:
            Public Key Algorithm: id-ecPublicKey
                Public-Key: (256 bit)
                pub:
                    04:61:49:49:c8:52:f4:7e:6f:94:fe:32:65:73:d2:
                    2c:86:4f:1b:f9:6f:b9:7a:14:f0:14:9a:5a:9d:1f:
                    21:cc:f2:ae:78:3b:dd:06:c6:89:bd:66:59:15:49:
                    7d:2c:1e:2d:9c:48:8b:30:7d:eb:24:54:85:88:b3:
                    4f:5b:0c:bc:5d
                ASN1 OID: secp256k1
        X509v3 extensions:
            X509v3 Key Usage: critical
                Digital Signature, Key Encipherment
            X509v3 Basic Constraints: critical
                CA:FALSE, pathlen:3
    Signature Algorithm: ecdsa-with-SHA256
         30:45:02:20:22:d2:3d:44:e9:37:4d:1c:4c:c2:53:3a:27:a3:
         8f:5b:15:63:26:23:39:4a:4b:4c:f5:a5:09:63:11:ea:12:70:
         02:21:00:fb:87:bf:cf:7b:9e:81:b7:28:a5:f9:66:47:9d:00:
         75:dd:2f:13:aa:4d:27:db:40:78:b3:9f:80:79:89:2f:33
-----BEGIN CERTIFICATE-----
MIICGzCCAcGgAwIBAgIBATAKBggqhkjOPQQDAjCBtTEmMCQGA1UEAwwdUmVnaW9u
ZSBGcml1bGlfVmVuZXppYV9HaXVsaWExCzAJBgNVBAYTAklUMQ8wDQYDVQQIDAZJ
dGFsaWExGDAWBgNVBAoMD0UtVm90aW5nIHN5c3RlbTEiMCAGA1UECwwZRS1Wb3Rp
bmcgc3lzdGVtIGF1dGhvcml0eTEvMC0GCSqGSIb3DQEJARYgRnJpdWxpX1ZlbmV6
aWFfR2l1bGlhQGV2b3RpbmcuaXQwHhcNMjIwODI2MTUxODIzWhcNMjMwODI2MTUx
ODIzWjBWMQ4wDAYDVQQDDAVMeWRpYTELMAkGA1UEBhMCSVQxDzANBgNVBAgMBkl0
YWxpYTEmMCQGA1UECgwdUmVnaW9uZSBGcml1bGlfVmVuZXppYV9HaXVsaWEwVjAQ
BgcqhkjOPQIBBgUrgQQACgNCAARhSUnIUvR+b5T+MmVz0iyGTxv5b7l6FPAUmlqd
HyHM8q54O90Gxom9ZlkVSX0sHi2cSIswfeskVIWIs09bDLxdoyMwITAOBgNVHQ8B
Af8EBAMCBaAwDwYDVR0TAQH/BAUwAwIBAzAKBggqhkjOPQQDAgNIADBFAiAi0j1E
6TdNHEzCUzono49bFWMmIzlKS0z1pQljEeoScAIhAPuHv897noG3KKX5ZkedAHXd
LxOqTSfbQHizn4B5iS8z
-----END CERTIFICATE-----
