Certificate:
    Data:
        Version: 3 (0x2)
        Serial Number: 54 (0x36)
        Signature Algorithm: ecdsa-with-SHA256
        Issuer: CN=Regione Lazio, C=IT, ST=Italia, O=E-Voting system, OU=E-Voting system authority/emailAddress=Lazio@evoting.it
        Validity
            Not Before: Aug  3 13:28:39 2022 GMT
            Not After : Aug  3 13:28:39 2023 GMT
        Subject: CN=Lyle, C=IT, ST=Italia, O=Regione Lazio
        Subject Public Key Info:
            Public Key Algorithm: id-ecPublicKey
                Public-Key: (256 bit)
                pub:
                    04:d3:2e:84:83:a5:68:10:11:c6:a3:f5:58:e6:ac:
                    e9:25:d8:00:8c:17:6a:7b:d7:fd:b2:9d:8e:50:2d:
                    65:0f:5f:67:f5:b3:ca:53:21:aa:8d:34:90:cc:3c:
                    25:f8:dc:26:db:df:f1:00:2a:57:32:30:10:89:51:
                    99:2d:12:3b:0a
                ASN1 OID: prime256v1
                NIST CURVE: P-256
        X509v3 extensions:
            X509v3 Key Usage: critical
                Digital Signature, Key Encipherment
            X509v3 Basic Constraints: critical
                CA:FALSE, pathlen:3
    Signature Algorithm: ecdsa-with-SHA256
         30:44:02:20:0c:dd:24:ac:2a:70:cc:9f:0a:a2:5f:bb:7b:1a:
         6c:06:f8:6f:0d:b5:0c:63:66:7e:d8:d6:66:40:fa:f9:02:14:
         02:20:0f:f6:83:1b:60:38:66:aa:4d:24:bd:d0:9e:86:83:1e:
         18:2a:c7:b9:85:32:d3:85:b5:68:75:30:88:94:c6:f8
-----BEGIN CERTIFICATE-----
MIIB7DCCAZOgAwIBAgIBNjAKBggqhkjOPQQDAjCBlTEWMBQGA1UEAwwNUmVnaW9u
ZSBMYXppbzELMAkGA1UEBhMCSVQxDzANBgNVBAgMBkl0YWxpYTEYMBYGA1UECgwP
RS1Wb3Rpbmcgc3lzdGVtMSIwIAYDVQQLDBlFLVZvdGluZyBzeXN0ZW0gYXV0aG9y
aXR5MR8wHQYJKoZIhvcNAQkBFhBMYXppb0Bldm90aW5nLml0MB4XDTIyMDgwMzEz
MjgzOVoXDTIzMDgwMzEzMjgzOVowRTENMAsGA1UEAwwETHlsZTELMAkGA1UEBhMC
SVQxDzANBgNVBAgMBkl0YWxpYTEWMBQGA1UECgwNUmVnaW9uZSBMYXppbzBZMBMG
ByqGSM49AgEGCCqGSM49AwEHA0IABNMuhIOlaBARxqP1WOas6SXYAIwXanvX/bKd
jlAtZQ9fZ/WzylMhqo00kMw8JfjcJtvf8QAqVzIwEIlRmS0SOwqjIzAhMA4GA1Ud
DwEB/wQEAwIFoDAPBgNVHRMBAf8EBTADAgEDMAoGCCqGSM49BAMCA0cAMEQCIAzd
JKwqcMyfCqJfu3sabAb4bw21DGNmftjWZkD6+QIUAiAP9oMbYDhmqk0kvdCehoMe
GCrHuYUy04W1aHUwiJTG+A==
-----END CERTIFICATE-----
