Certificate:
    Data:
        Version: 3 (0x2)
        Serial Number: 51 (0x33)
        Signature Algorithm: ecdsa-with-SHA256
        Issuer: CN=Regione Puglia, C=IT, ST=Italia, O=E-Voting system, OU=E-Voting system authority/emailAddress=Puglia@evoting.it
        Validity
            Not Before: Aug 26 15:21:23 2022 GMT
            Not After : Aug 26 15:21:23 2023 GMT
        Subject: CN=Lynda, C=IT, ST=Italia, O=Regione Puglia
        Subject Public Key Info:
            Public Key Algorithm: id-ecPublicKey
                Public-Key: (256 bit)
                pub:
                    04:80:4c:a8:cd:76:7d:c6:42:45:43:5b:c6:5f:8c:
                    a5:44:d6:a9:ad:84:6c:13:77:a0:bd:8d:40:db:96:
                    ef:af:06:79:d0:f2:08:69:e5:a1:68:64:f9:33:9a:
                    2d:5f:97:1e:ce:d3:30:ad:9f:14:18:25:29:99:b4:
                    29:9b:53:7e:5f
                ASN1 OID: secp256k1
        X509v3 extensions:
            X509v3 Key Usage: critical
                Digital Signature, Key Encipherment
            X509v3 Basic Constraints: critical
                CA:FALSE, pathlen:3
    Signature Algorithm: ecdsa-with-SHA256
         30:45:02:21:00:c4:4b:63:8a:45:16:c3:9c:d7:76:c0:08:87:
         9b:a7:a4:dc:66:67:26:3f:93:76:3b:1b:13:6e:67:96:db:87:
         4b:02:20:69:64:35:a9:c4:b9:4f:45:74:18:63:df:20:58:7d:
         04:d0:d4:fa:8a:13:bc:ba:80:7d:21:dd:b7:da:b5:45:8f
-----BEGIN CERTIFICATE-----
MIIB7jCCAZSgAwIBAgIBMzAKBggqhkjOPQQDAjCBlzEXMBUGA1UEAwwOUmVnaW9u
ZSBQdWdsaWExCzAJBgNVBAYTAklUMQ8wDQYDVQQIDAZJdGFsaWExGDAWBgNVBAoM
D0UtVm90aW5nIHN5c3RlbTEiMCAGA1UECwwZRS1Wb3Rpbmcgc3lzdGVtIGF1dGhv
cml0eTEgMB4GCSqGSIb3DQEJARYRUHVnbGlhQGV2b3RpbmcuaXQwHhcNMjIwODI2
MTUyMTIzWhcNMjMwODI2MTUyMTIzWjBHMQ4wDAYDVQQDDAVMeW5kYTELMAkGA1UE
BhMCSVQxDzANBgNVBAgMBkl0YWxpYTEXMBUGA1UECgwOUmVnaW9uZSBQdWdsaWEw
VjAQBgcqhkjOPQIBBgUrgQQACgNCAASATKjNdn3GQkVDW8ZfjKVE1qmthGwTd6C9
jUDblu+vBnnQ8ghp5aFoZPkzmi1flx7O0zCtnxQYJSmZtCmbU35foyMwITAOBgNV
HQ8BAf8EBAMCBaAwDwYDVR0TAQH/BAUwAwIBAzAKBggqhkjOPQQDAgNIADBFAiEA
xEtjikUWw5zXdsAIh5unpNxmZyY/k3Y7GxNuZ5bbh0sCIGlkNanEuU9FdBhj3yBY
fQTQ1PqKE7y6gH0h3bfatUWP
-----END CERTIFICATE-----
