Certificate:
    Data:
        Version: 3 (0x2)
        Serial Number: 21 (0x15)
        Signature Algorithm: ecdsa-with-SHA256
        Issuer: CN=Regione Lombardia, C=IT, ST=Italia, O=E-Voting system, OU=E-Voting system authority/emailAddress=Lombardia@evoting.it
        Validity
            Not Before: Aug  3 13:26:52 2022 GMT
            Not After : Aug  3 13:26:52 2023 GMT
        Subject: CN=Lynda, C=IT, ST=Italia, O=Regione Lombardia
        Subject Public Key Info:
            Public Key Algorithm: id-ecPublicKey
                Public-Key: (256 bit)
                pub:
                    04:1e:f2:df:8c:a5:2e:6e:e6:51:b4:20:b6:4f:85:
                    e6:09:db:36:a0:32:cd:9b:2f:90:6c:9b:c6:f9:b6:
                    d4:ab:33:11:b8:b7:bb:08:78:57:c9:44:c1:1c:55:
                    64:d1:22:d0:be:1a:36:c2:91:f3:0d:20:ed:60:e4:
                    e5:e9:25:f6:f2
                ASN1 OID: prime256v1
                NIST CURVE: P-256
        X509v3 extensions:
            X509v3 Key Usage: critical
                Digital Signature, Key Encipherment
            X509v3 Basic Constraints: critical
                CA:FALSE, pathlen:3
    Signature Algorithm: ecdsa-with-SHA256
         30:45:02:20:2b:25:88:d5:34:ed:97:5b:8e:08:2d:1a:30:d3:
         03:1a:b2:09:cb:ce:85:59:6e:af:88:65:4f:79:e3:a0:a8:98:
         02:21:00:b6:49:15:b5:f5:44:94:ef:8a:10:27:46:92:b6:b2:
         cb:10:2c:cc:9e:9f:cc:12:07:d9:26:90:10:1b:b5:19:a2
-----BEGIN CERTIFICATE-----
MIIB+jCCAaCgAwIBAgIBFTAKBggqhkjOPQQDAjCBnTEaMBgGA1UEAwwRUmVnaW9u
ZSBMb21iYXJkaWExCzAJBgNVBAYTAklUMQ8wDQYDVQQIDAZJdGFsaWExGDAWBgNV
BAoMD0UtVm90aW5nIHN5c3RlbTEiMCAGA1UECwwZRS1Wb3Rpbmcgc3lzdGVtIGF1
dGhvcml0eTEjMCEGCSqGSIb3DQEJARYUTG9tYmFyZGlhQGV2b3RpbmcuaXQwHhcN
MjIwODAzMTMyNjUyWhcNMjMwODAzMTMyNjUyWjBKMQ4wDAYDVQQDDAVMeW5kYTEL
MAkGA1UEBhMCSVQxDzANBgNVBAgMBkl0YWxpYTEaMBgGA1UECgwRUmVnaW9uZSBM
b21iYXJkaWEwWTATBgcqhkjOPQIBBggqhkjOPQMBBwNCAAQe8t+MpS5u5lG0ILZP
heYJ2zagMs2bL5Bsm8b5ttSrMxG4t7sIeFfJRMEcVWTRItC+GjbCkfMNIO1g5OXp
JfbyoyMwITAOBgNVHQ8BAf8EBAMCBaAwDwYDVR0TAQH/BAUwAwIBAzAKBggqhkjO
PQQDAgNIADBFAiArJYjVNO2XW44ILRow0wMasgnLzoVZbq+IZU9546ComAIhALZJ
FbX1RJTvihAnRpK2sssQLMyen8wSB9kmkBAbtRmi
-----END CERTIFICATE-----
