Certificate:
    Data:
        Version: 3 (0x2)
        Serial Number: 23 (0x17)
        Signature Algorithm: ecdsa-with-SHA256
        Issuer: CN=Regione Marche, C=IT, ST=Italia, O=E-Voting system, OU=E-Voting system authority/emailAddress=Marche@evoting.it
        Validity
            Not Before: Aug 26 15:20:59 2022 GMT
            Not After : Aug 26 15:20:59 2023 GMT
        Subject: CN=Lynn, C=IT, ST=Italia, O=Regione Marche
        Subject Public Key Info:
            Public Key Algorithm: id-ecPublicKey
                Public-Key: (256 bit)
                pub:
                    04:6e:fe:7b:d0:52:71:bf:58:14:1c:14:ec:5d:80:
                    38:af:11:08:f4:2e:f0:67:08:08:b1:24:93:de:1d:
                    d5:0d:c3:3e:2f:a8:19:2e:96:1f:80:ee:4f:22:f4:
                    3b:89:9e:04:7a:9c:c2:a4:1b:4c:8c:31:eb:a8:92:
                    8a:dc:e3:aa:2e
                ASN1 OID: secp256k1
        X509v3 extensions:
            X509v3 Key Usage: critical
                Digital Signature, Key Encipherment
            X509v3 Basic Constraints: critical
                CA:FALSE, pathlen:3
    Signature Algorithm: ecdsa-with-SHA256
         30:46:02:21:00:c0:a2:46:93:c9:b6:a4:30:b7:67:0e:b6:0b:
         0e:53:c7:0c:e0:74:b8:de:5e:b0:88:d6:74:e9:20:0a:17:df:
         60:02:21:00:b2:5e:0b:a7:33:ca:eb:c2:fb:57:92:29:e2:55:
         3a:46:14:59:67:48:50:77:6f:5a:7f:a9:78:54:52:57:26:50
-----BEGIN CERTIFICATE-----
MIIB7jCCAZOgAwIBAgIBFzAKBggqhkjOPQQDAjCBlzEXMBUGA1UEAwwOUmVnaW9u
ZSBNYXJjaGUxCzAJBgNVBAYTAklUMQ8wDQYDVQQIDAZJdGFsaWExGDAWBgNVBAoM
D0UtVm90aW5nIHN5c3RlbTEiMCAGA1UECwwZRS1Wb3Rpbmcgc3lzdGVtIGF1dGhv
cml0eTEgMB4GCSqGSIb3DQEJARYRTWFyY2hlQGV2b3RpbmcuaXQwHhcNMjIwODI2
MTUyMDU5WhcNMjMwODI2MTUyMDU5WjBGMQ0wCwYDVQQDDARMeW5uMQswCQYDVQQG
EwJJVDEPMA0GA1UECAwGSXRhbGlhMRcwFQYDVQQKDA5SZWdpb25lIE1hcmNoZTBW
MBAGByqGSM49AgEGBSuBBAAKA0IABG7+e9BScb9YFBwU7F2AOK8RCPQu8GcICLEk
k94d1Q3DPi+oGS6WH4DuTyL0O4meBHqcwqQbTIwx66iSitzjqi6jIzAhMA4GA1Ud
DwEB/wQEAwIFoDAPBgNVHRMBAf8EBTADAgEDMAoGCCqGSM49BAMCA0kAMEYCIQDA
okaTybakMLdnDrYLDlPHDOB0uN5esIjWdOkgChffYAIhALJeC6czyuvC+1eSKeJV
OkYUWWdIUHdvWn+peFRSVyZQ
-----END CERTIFICATE-----
