Certificate:
    Data:
        Version: 3 (0x2)
        Serial Number: 9 (0x9)
        Signature Algorithm: ecdsa-with-SHA256
        Issuer: CN=Regione Puglia, C=IT, ST=Italia, O=E-Voting system, OU=E-Voting system authority/emailAddress=Puglia@evoting.it
        Validity
            Not Before: Aug 26 15:19:01 2022 GMT
            Not After : Aug 26 15:19:01 2023 GMT
        Subject: CN=Mabel, C=IT, ST=Italia, O=Regione Puglia
        Subject Public Key Info:
            Public Key Algorithm: id-ecPublicKey
                Public-Key: (256 bit)
                pub:
                    04:ca:02:32:e7:aa:47:1b:da:7f:fd:2f:7c:37:27:
                    fd:da:2e:76:3f:fd:30:5b:0c:36:8f:42:fb:21:f5:
                    cb:ba:aa:a3:a0:81:de:02:ef:2f:a5:22:f9:69:5f:
                    ef:c0:63:7c:ae:43:62:d7:16:e2:c4:0c:12:e8:84:
                    e9:fb:07:f7:ca
                ASN1 OID: secp256k1
        X509v3 extensions:
            X509v3 Key Usage: critical
                Digital Signature, Key Encipherment
            X509v3 Basic Constraints: critical
                CA:FALSE, pathlen:3
    Signature Algorithm: ecdsa-with-SHA256
         30:46:02:21:00:fa:4a:cd:8a:3b:cc:53:08:26:63:3d:08:d4:
         bb:02:0b:90:75:8a:a7:ff:bd:93:a1:28:9b:c5:d1:f1:13:28:
         70:02:21:00:b3:89:73:22:01:94:57:53:67:2e:9c:e1:93:c7:
         d5:55:f9:07:08:3e:82:dd:b5:b8:72:1c:27:d0:3a:93:f2:84
-----BEGIN CERTIFICATE-----
MIIB7zCCAZSgAwIBAgIBCTAKBggqhkjOPQQDAjCBlzEXMBUGA1UEAwwOUmVnaW9u
ZSBQdWdsaWExCzAJBgNVBAYTAklUMQ8wDQYDVQQIDAZJdGFsaWExGDAWBgNVBAoM
D0UtVm90aW5nIHN5c3RlbTEiMCAGA1UECwwZRS1Wb3Rpbmcgc3lzdGVtIGF1dGhv
cml0eTEgMB4GCSqGSIb3DQEJARYRUHVnbGlhQGV2b3RpbmcuaXQwHhcNMjIwODI2
MTUxOTAxWhcNMjMwODI2MTUxOTAxWjBHMQ4wDAYDVQQDDAVNYWJlbDELMAkGA1UE
BhMCSVQxDzANBgNVBAgMBkl0YWxpYTEXMBUGA1UECgwOUmVnaW9uZSBQdWdsaWEw
VjAQBgcqhkjOPQIBBgUrgQQACgNCAATKAjLnqkcb2n/9L3w3J/3aLnY//TBbDDaP
Qvsh9cu6qqOggd4C7y+lIvlpX+/AY3yuQ2LXFuLEDBLohOn7B/fKoyMwITAOBgNV
HQ8BAf8EBAMCBaAwDwYDVR0TAQH/BAUwAwIBAzAKBggqhkjOPQQDAgNJADBGAiEA
+krNijvMUwgmYz0I1LsCC5B1iqf/vZOhKJvF0fETKHACIQCziXMiAZRXU2cunOGT
x9VV+QcIPoLdtbhyHCfQOpPyhA==
-----END CERTIFICATE-----
