Certificate:
    Data:
        Version: 3 (0x2)
        Serial Number: 19 (0x13)
        Signature Algorithm: ecdsa-with-SHA256
        Issuer: CN=Regione Umbria, C=IT, ST=Italia, O=E-Voting system, OU=E-Voting system authority/emailAddress=Umbria@evoting.it
        Validity
            Not Before: Aug 26 15:19:42 2022 GMT
            Not After : Aug 26 15:19:42 2023 GMT
        Subject: CN=Mae, C=IT, ST=Italia, O=Regione Umbria
        Subject Public Key Info:
            Public Key Algorithm: id-ecPublicKey
                Public-Key: (256 bit)
                pub:
                    04:75:c0:76:28:64:b1:69:eb:bb:2d:ac:55:5d:e2:
                    bc:70:5e:c0:e4:78:39:e0:0e:31:ce:f0:eb:fc:77:
                    ae:12:78:b9:eb:90:d0:db:8f:15:ff:95:9f:e1:91:
                    fc:a8:d8:cf:6c:d4:dd:7a:36:85:bd:13:1f:e9:e4:
                    47:d1:3e:61:33
                ASN1 OID: secp256k1
        X509v3 extensions:
            X509v3 Key Usage: critical
                Digital Signature, Key Encipherment
            X509v3 Basic Constraints: critical
                CA:FALSE, pathlen:3
    Signature Algorithm: ecdsa-with-SHA256
         30:44:02:20:73:74:6d:3e:c9:dd:95:cb:fa:1f:f0:2c:b4:0f:
         0e:72:aa:0e:ee:03:8b:4f:89:a4:d6:44:8d:58:ec:e9:7a:a8:
         02:20:4c:25:5c:70:4a:b1:00:78:c1:11:e5:97:1e:79:35:dd:
         2a:cc:cc:3f:49:17:fa:cf:97:e8:76:bc:c3:5e:13:60
-----BEGIN CERTIFICATE-----
MIIB6zCCAZKgAwIBAgIBEzAKBggqhkjOPQQDAjCBlzEXMBUGA1UEAwwOUmVnaW9u
ZSBVbWJyaWExCzAJBgNVBAYTAklUMQ8wDQYDVQQIDAZJdGFsaWExGDAWBgNVBAoM
D0UtVm90aW5nIHN5c3RlbTEiMCAGA1UECwwZRS1Wb3Rpbmcgc3lzdGVtIGF1dGhv
cml0eTEgMB4GCSqGSIb3DQEJARYRVW1icmlhQGV2b3RpbmcuaXQwHhcNMjIwODI2
MTUxOTQyWhcNMjMwODI2MTUxOTQyWjBFMQwwCgYDVQQDDANNYWUxCzAJBgNVBAYT
AklUMQ8wDQYDVQQIDAZJdGFsaWExFzAVBgNVBAoMDlJlZ2lvbmUgVW1icmlhMFYw
EAYHKoZIzj0CAQYFK4EEAAoDQgAEdcB2KGSxaeu7LaxVXeK8cF7A5Hg54A4xzvDr
/HeuEni565DQ248V/5Wf4ZH8qNjPbNTdejaFvRMf6eRH0T5hM6MjMCEwDgYDVR0P
AQH/BAQDAgWgMA8GA1UdEwEB/wQFMAMCAQMwCgYIKoZIzj0EAwIDRwAwRAIgc3Rt
Psndlcv6H/AstA8OcqoO7gOLT4mk1kSNWOzpeqgCIEwlXHBKsQB4wRHllx55Nd0q
zMw/SRf6z5fodrzDXhNg
-----END CERTIFICATE-----
