Certificate:
    Data:
        Version: 3 (0x2)
        Serial Number: 33 (0x21)
        Signature Algorithm: ecdsa-with-SHA256
        Issuer: CN=Regione Trentino_Alto_Adige, C=IT, ST=Italia, O=E-Voting system, OU=E-Voting system authority/emailAddress=Trentino_Alto_Adige@evoting.it
        Validity
            Not Before: Aug  3 13:27:59 2022 GMT
            Not After : Aug  3 13:27:59 2023 GMT
        Subject: CN=Malik, C=IT, ST=Italia, O=Regione Trentino_Alto_Adige
        Subject Public Key Info:
            Public Key Algorithm: id-ecPublicKey
                Public-Key: (256 bit)
                pub:
                    04:89:5a:bd:06:c2:02:b8:d2:7c:f0:15:8a:f4:ca:
                    1a:61:03:50:e8:b0:07:0b:4b:3a:70:83:19:da:41:
                    6c:f6:67:11:b3:c3:fc:0a:5e:46:18:b0:89:89:cf:
                    ee:fc:10:a1:c1:fa:23:9c:41:7a:ed:df:ac:47:9d:
                    db:28:d7:2b:ec
                ASN1 OID: prime256v1
                NIST CURVE: P-256
        X509v3 extensions:
            X509v3 Key Usage: critical
                Digital Signature, Key Encipherment
            X509v3 Basic Constraints: critical
                CA:FALSE, pathlen:3
    Signature Algorithm: ecdsa-with-SHA256
         30:44:02:20:44:cc:c4:6e:3e:8d:23:99:46:d6:ac:4d:40:18:
         2b:19:be:ca:0a:02:36:9d:0b:44:ae:f0:22:64:67:19:2e:82:
         02:20:53:9f:f1:60:c0:d6:84:81:93:54:99:5d:6b:01:d8:41:
         15:5b:a2:f6:e9:08:c2:c0:3d:dd:e6:1f:a4:10:68:1a
-----BEGIN CERTIFICATE-----
MIICFzCCAb6gAwIBAgIBITAKBggqhkjOPQQDAjCBsTEkMCIGA1UEAwwbUmVnaW9u
ZSBUcmVudGlub19BbHRvX0FkaWdlMQswCQYDVQQGEwJJVDEPMA0GA1UECAwGSXRh
bGlhMRgwFgYDVQQKDA9FLVZvdGluZyBzeXN0ZW0xIjAgBgNVBAsMGUUtVm90aW5n
IHN5c3RlbSBhdXRob3JpdHkxLTArBgkqhkiG9w0BCQEWHlRyZW50aW5vX0FsdG9f
QWRpZ2VAZXZvdGluZy5pdDAeFw0yMjA4MDMxMzI3NTlaFw0yMzA4MDMxMzI3NTla
MFQxDjAMBgNVBAMMBU1hbGlrMQswCQYDVQQGEwJJVDEPMA0GA1UECAwGSXRhbGlh
MSQwIgYDVQQKDBtSZWdpb25lIFRyZW50aW5vX0FsdG9fQWRpZ2UwWTATBgcqhkjO
PQIBBggqhkjOPQMBBwNCAASJWr0GwgK40nzwFYr0yhphA1DosAcLSzpwgxnaQWz2
ZxGzw/wKXkYYsImJz+78EKHB+iOcQXrt36xHndso1yvsoyMwITAOBgNVHQ8BAf8E
BAMCBaAwDwYDVR0TAQH/BAUwAwIBAzAKBggqhkjOPQQDAgNHADBEAiBEzMRuPo0j
mUbWrE1AGCsZvsoKAjadC0Su8CJkZxkuggIgU5/xYMDWhIGTVJldawHYQRVbovbp
CMLAPd3mH6QQaBo=
-----END CERTIFICATE-----
