Certificate:
    Data:
        Version: 3 (0x2)
        Serial Number: 2 (0x2)
        Signature Algorithm: ecdsa-with-SHA256
        Issuer: CN=Regione Sicilia, C=IT, ST=Italia, O=E-Voting system, OU=E-Voting system authority/emailAddress=Sicilia@evoting.it
        Validity
            Not Before: Aug  3 13:25:51 2022 GMT
            Not After : Aug  3 13:25:51 2023 GMT
        Subject: CN=Malissa, C=IT, ST=Italia, O=Regione Sicilia
        Subject Public Key Info:
            Public Key Algorithm: id-ecPublicKey
                Public-Key: (256 bit)
                pub:
                    04:5f:bb:88:71:ea:ab:29:73:4b:a9:b6:21:9a:6c:
                    b7:d2:04:85:89:22:b7:96:63:ad:96:47:64:ba:c0:
                    db:b1:99:97:c7:b5:75:06:37:8a:a8:01:eb:ee:c2:
                    54:9d:6f:90:b1:eb:37:42:b5:00:35:ec:ef:98:8e:
                    b7:52:7f:5e:2a
                ASN1 OID: prime256v1
                NIST CURVE: P-256
        X509v3 extensions:
            X509v3 Key Usage: critical
                Digital Signature, Key Encipherment
            X509v3 Basic Constraints: critical
                CA:FALSE, pathlen:3
    Signature Algorithm: ecdsa-with-SHA256
         30:45:02:20:2b:e9:cd:de:83:4d:08:65:d2:0e:e4:d8:05:ad:
         ca:5e:18:81:e8:2f:35:84:7f:68:be:c3:7a:bc:85:2b:6c:56:
         02:21:00:9a:73:d5:24:f2:f0:79:9f:8a:ab:1b:69:0a:e6:88:
         46:6e:e1:cb:09:b5:1b:db:b0:89:c4:23:a7:31:c4:9e:f8
-----BEGIN CERTIFICATE-----
MIIB9jCCAZygAwIBAgIBAjAKBggqhkjOPQQDAjCBmTEYMBYGA1UEAwwPUmVnaW9u
ZSBTaWNpbGlhMQswCQYDVQQGEwJJVDEPMA0GA1UECAwGSXRhbGlhMRgwFgYDVQQK
DA9FLVZvdGluZyBzeXN0ZW0xIjAgBgNVBAsMGUUtVm90aW5nIHN5c3RlbSBhdXRo
b3JpdHkxITAfBgkqhkiG9w0BCQEWElNpY2lsaWFAZXZvdGluZy5pdDAeFw0yMjA4
MDMxMzI1NTFaFw0yMzA4MDMxMzI1NTFaMEoxEDAOBgNVBAMMB01hbGlzc2ExCzAJ
BgNVBAYTAklUMQ8wDQYDVQQIDAZJdGFsaWExGDAWBgNVBAoMD1JlZ2lvbmUgU2lj
aWxpYTBZMBMGByqGSM49AgEGCCqGSM49AwEHA0IABF+7iHHqqylzS6m2IZpst9IE
hYkit5ZjrZZHZLrA27GZl8e1dQY3iqgB6+7CVJ1vkLHrN0K1ADXs75iOt1J/Xiqj
IzAhMA4GA1UdDwEB/wQEAwIFoDAPBgNVHRMBAf8EBTADAgEDMAoGCCqGSM49BAMC
A0gAMEUCICvpzd6DTQhl0g7k2AWtyl4YgegvNYR/aL7DeryFK2xWAiEAmnPVJPLw
eZ+KqxtpCuaIRm7hywm1G9uwicQjpzHEnvg=
-----END CERTIFICATE-----
