Certificate:
    Data:
        Version: 3 (0x2)
        Serial Number: 8 (0x8)
        Signature Algorithm: ecdsa-with-SHA256
        Issuer: CN=Regione Calabria, C=IT, ST=Italia, O=E-Voting system, OU=E-Voting system authority/emailAddress=Calabria@evoting.it
        Validity
            Not Before: Aug  3 13:26:11 2022 GMT
            Not After : Aug  3 13:26:11 2023 GMT
        Subject: CN=Malvina, C=IT, ST=Italia, O=Regione Calabria
        Subject Public Key Info:
            Public Key Algorithm: id-ecPublicKey
                Public-Key: (256 bit)
                pub:
                    04:08:0c:8d:b2:b8:92:2b:e5:51:81:d3:46:51:5b:
                    e7:5c:1f:78:2e:e5:db:9f:93:60:66:d7:33:13:b9:
                    20:8f:99:3d:7c:48:96:53:59:33:1c:2c:ce:54:0a:
                    45:fc:0c:b9:b5:3f:e3:0f:ae:84:8b:07:31:a5:2c:
                    13:5d:0a:28:fe
                ASN1 OID: prime256v1
                NIST CURVE: P-256
        X509v3 extensions:
            X509v3 Key Usage: critical
                Digital Signature, Key Encipherment
            X509v3 Basic Constraints: critical
                CA:FALSE, pathlen:3
    Signature Algorithm: ecdsa-with-SHA256
         30:46:02:21:00:a9:61:c6:23:45:af:9b:2d:aa:a8:c0:15:b6:
         b3:57:57:76:dc:40:a8:39:4a:e0:d1:fa:d9:54:53:79:b4:e2:
         3c:02:21:00:92:04:0d:6c:85:c1:09:d3:76:c3:50:5d:a9:1d:
         b4:f4:25:48:b7:0a:dd:6d:4d:40:49:77:a3:67:ef:c0:39:84
-----BEGIN CERTIFICATE-----
MIIB+jCCAZ+gAwIBAgIBCDAKBggqhkjOPQQDAjCBmzEZMBcGA1UEAwwQUmVnaW9u
ZSBDYWxhYnJpYTELMAkGA1UEBhMCSVQxDzANBgNVBAgMBkl0YWxpYTEYMBYGA1UE
CgwPRS1Wb3Rpbmcgc3lzdGVtMSIwIAYDVQQLDBlFLVZvdGluZyBzeXN0ZW0gYXV0
aG9yaXR5MSIwIAYJKoZIhvcNAQkBFhNDYWxhYnJpYUBldm90aW5nLml0MB4XDTIy
MDgwMzEzMjYxMVoXDTIzMDgwMzEzMjYxMVowSzEQMA4GA1UEAwwHTWFsdmluYTEL
MAkGA1UEBhMCSVQxDzANBgNVBAgMBkl0YWxpYTEZMBcGA1UECgwQUmVnaW9uZSBD
YWxhYnJpYTBZMBMGByqGSM49AgEGCCqGSM49AwEHA0IABAgMjbK4kivlUYHTRlFb
51wfeC7l25+TYGbXMxO5II+ZPXxIllNZMxwszlQKRfwMubU/4w+uhIsHMaUsE10K
KP6jIzAhMA4GA1UdDwEB/wQEAwIFoDAPBgNVHRMBAf8EBTADAgEDMAoGCCqGSM49
BAMCA0kAMEYCIQCpYcYjRa+bLaqowBW2s1dXdtxAqDlK4NH62VRTebTiPAIhAJIE
DWyFwQnTdsNQXakdtPQlSLcK3W1NQEl3o2fvwDmE
-----END CERTIFICATE-----
