Certificate:
    Data:
        Version: 3 (0x2)
        Serial Number: 6 (0x6)
        Signature Algorithm: ecdsa-with-SHA256
        Issuer: CN=Regione Lazio, C=IT, ST=Italia, O=E-Voting system, OU=E-Voting system authority/emailAddress=Lazio@evoting.it
        Validity
            Not Before: Aug  3 13:25:50 2022 GMT
            Not After : Aug  3 13:25:50 2023 GMT
        Subject: CN=Mandi, C=IT, ST=Italia, O=Regione Lazio
        Subject Public Key Info:
            Public Key Algorithm: id-ecPublicKey
                Public-Key: (256 bit)
                pub:
                    04:f9:2c:74:22:9a:d8:4e:23:3e:89:d4:ec:10:4c:
                    ea:bc:85:d6:66:11:de:4c:9e:d5:ae:1d:27:48:54:
                    fc:59:90:af:4c:43:d4:24:6a:cb:4a:a4:da:38:9a:
                    7a:b2:0f:10:49:78:88:a7:cd:8b:de:20:20:ba:9f:
                    26:30:b8:71:07
                ASN1 OID: prime256v1
                NIST CURVE: P-256
        X509v3 extensions:
            X509v3 Key Usage: critical
                Digital Signature, Key Encipherment
            X509v3 Basic Constraints: critical
                CA:FALSE, pathlen:3
    Signature Algorithm: ecdsa-with-SHA256
         30:44:02:20:22:3a:c4:b5:a3:12:1c:16:e2:98:d6:a6:28:c7:
         7f:ce:6d:d7:af:3a:6c:fd:5f:67:f9:e6:bc:99:9b:f3:c9:32:
         02:20:46:b2:c4:69:af:51:91:5e:57:b8:23:25:61:d5:86:0c:
         8b:72:18:26:b1:f0:5e:59:00:81:34:9c:54:0e:65:e4
-----BEGIN CERTIFICATE-----
MIIB7TCCAZSgAwIBAgIBBjAKBggqhkjOPQQDAjCBlTEWMBQGA1UEAwwNUmVnaW9u
ZSBMYXppbzELMAkGA1UEBhMCSVQxDzANBgNVBAgMBkl0YWxpYTEYMBYGA1UECgwP
RS1Wb3Rpbmcgc3lzdGVtMSIwIAYDVQQLDBlFLVZvdGluZyBzeXN0ZW0gYXV0aG9y
aXR5MR8wHQYJKoZIhvcNAQkBFhBMYXppb0Bldm90aW5nLml0MB4XDTIyMDgwMzEz
MjU1MFoXDTIzMDgwMzEzMjU1MFowRjEOMAwGA1UEAwwFTWFuZGkxCzAJBgNVBAYT
AklUMQ8wDQYDVQQIDAZJdGFsaWExFjAUBgNVBAoMDVJlZ2lvbmUgTGF6aW8wWTAT
BgcqhkjOPQIBBggqhkjOPQMBBwNCAAT5LHQimthOIz6J1OwQTOq8hdZmEd5MntWu
HSdIVPxZkK9MQ9QkastKpNo4mnqyDxBJeIinzYveICC6nyYwuHEHoyMwITAOBgNV
HQ8BAf8EBAMCBaAwDwYDVR0TAQH/BAUwAwIBAzAKBggqhkjOPQQDAgNHADBEAiAi
OsS1oxIcFuKY1qYox3/ObdevOmz9X2f55ryZm/PJMgIgRrLEaa9RkV5XuCMlYdWG
DItyGCax8F5ZAIE0nFQOZeQ=
-----END CERTIFICATE-----
