Certificate:
    Data:
        Version: 3 (0x2)
        Serial Number: 4 (0x4)
        Signature Algorithm: ecdsa-with-SHA256
        Issuer: CN=Regione Liguria, C=IT, ST=Italia, O=E-Voting system, OU=E-Voting system authority/emailAddress=Liguria@evoting.it
        Validity
            Not Before: Aug 26 15:18:30 2022 GMT
            Not After : Aug 26 15:18:30 2023 GMT
        Subject: CN=Mandy, C=IT, ST=Italia, O=Regione Liguria
        Subject Public Key Info:
            Public Key Algorithm: id-ecPublicKey
                Public-Key: (256 bit)
                pub:
                    04:27:7c:41:d3:31:aa:4e:2c:ea:9a:36:59:56:65:
                    80:ea:9b:3d:eb:41:a1:c1:e0:07:4f:4b:da:03:3b:
                    a4:04:ed:92:27:0a:6c:8a:28:21:58:ff:8d:5a:91:
                    75:28:96:09:44:25:bf:02:97:a9:27:9a:cb:88:cc:
                    e9:84:d2:32:31
                ASN1 OID: secp256k1
        X509v3 extensions:
            X509v3 Key Usage: critical
                Digital Signature, Key Encipherment
            X509v3 Basic Constraints: critical
                CA:FALSE, pathlen:3
    Signature Algorithm: ecdsa-with-SHA256
         30:45:02:21:00:e3:9b:51:65:66:90:2e:78:a5:f1:6b:df:51:
         ca:bb:5c:5c:da:67:a8:f0:89:d5:a3:4f:e0:59:ac:e8:fd:3b:
         6f:02:20:54:89:ef:e9:82:62:90:d5:30:86:c0:54:17:04:fc:
         ed:dd:45:5f:7b:35:d5:77:6a:1c:91:45:99:26:d8:63:a3
-----BEGIN CERTIFICATE-----
MIIB8TCCAZegAwIBAgIBBDAKBggqhkjOPQQDAjCBmTEYMBYGA1UEAwwPUmVnaW9u
ZSBMaWd1cmlhMQswCQYDVQQGEwJJVDEPMA0GA1UECAwGSXRhbGlhMRgwFgYDVQQK
DA9FLVZvdGluZyBzeXN0ZW0xIjAgBgNVBAsMGUUtVm90aW5nIHN5c3RlbSBhdXRo
b3JpdHkxITAfBgkqhkiG9w0BCQEWEkxpZ3VyaWFAZXZvdGluZy5pdDAeFw0yMjA4
MjYxNTE4MzBaFw0yMzA4MjYxNTE4MzBaMEgxDjAMBgNVBAMMBU1hbmR5MQswCQYD
VQQGEwJJVDEPMA0GA1UECAwGSXRhbGlhMRgwFgYDVQQKDA9SZWdpb25lIExpZ3Vy
aWEwVjAQBgcqhkjOPQIBBgUrgQQACgNCAAQnfEHTMapOLOqaNllWZYDqmz3rQaHB
4AdPS9oDO6QE7ZInCmyKKCFY/41akXUolglEJb8Cl6knmsuIzOmE0jIxoyMwITAO
BgNVHQ8BAf8EBAMCBaAwDwYDVR0TAQH/BAUwAwIBAzAKBggqhkjOPQQDAgNIADBF
AiEA45tRZWaQLnil8WvfUcq7XFzaZ6jwidWjT+BZrOj9O28CIFSJ7+mCYpDVMIbA
VBcE/O3dRV97NdV3ahyRRZkm2GOj
-----END CERTIFICATE-----
