Certificate:
    Data:
        Version: 3 (0x2)
        Serial Number: 50 (0x32)
        Signature Algorithm: ecdsa-with-SHA256
        Issuer: CN=Regione Sicilia, C=IT, ST=Italia, O=E-Voting system, OU=E-Voting system authority/emailAddress=Sicilia@evoting.it
        Validity
            Not Before: Aug 26 15:21:28 2022 GMT
            Not After : Aug 26 15:21:28 2023 GMT
        Subject: CN=Manuela, C=IT, ST=Italia, O=Regione Sicilia
        Subject Public Key Info:
            Public Key Algorithm: id-ecPublicKey
                Public-Key: (256 bit)
                pub:
                    04:fb:51:e8:42:eb:44:36:2d:0e:50:bc:36:19:e1:
                    6f:12:86:a7:d7:cb:43:6b:0c:60:5e:1c:a5:d1:cb:
                    4f:00:81:52:c4:21:97:d3:7d:6c:62:f2:ff:dd:ec:
                    f4:8b:ec:ee:c5:41:5f:d5:4e:34:a6:3e:e6:3c:ce:
                    7c:42:6b:1d:fd
                ASN1 OID: secp256k1
        X509v3 extensions:
            X509v3 Key Usage: critical
                Digital Signature, Key Encipherment
            X509v3 Basic Constraints: critical
                CA:FALSE, pathlen:3
    Signature Algorithm: ecdsa-with-SHA256
         30:45:02:20:1d:5b:88:d4:a3:1d:d4:ff:d0:b0:80:c1:0e:cf:
         71:b6:b7:84:96:cb:13:5c:1a:e0:1f:9f:ca:27:19:ec:2a:cf:
         02:21:00:9f:e7:f4:b9:f8:3b:ff:f0:13:21:c8:bb:d5:ed:13:
         d2:d1:01:ad:b9:c6:63:2f:6d:ed:29:a4:29:ec:0d:9a:9f
-----BEGIN CERTIFICATE-----
MIIB8zCCAZmgAwIBAgIBMjAKBggqhkjOPQQDAjCBmTEYMBYGA1UEAwwPUmVnaW9u
ZSBTaWNpbGlhMQswCQYDVQQGEwJJVDEPMA0GA1UECAwGSXRhbGlhMRgwFgYDVQQK
DA9FLVZvdGluZyBzeXN0ZW0xIjAgBgNVBAsMGUUtVm90aW5nIHN5c3RlbSBhdXRo
b3JpdHkxITAfBgkqhkiG9w0BCQEWElNpY2lsaWFAZXZvdGluZy5pdDAeFw0yMjA4
MjYxNTIxMjhaFw0yMzA4MjYxNTIxMjhaMEoxEDAOBgNVBAMMB01hbnVlbGExCzAJ
BgNVBAYTAklUMQ8wDQYDVQQIDAZJdGFsaWExGDAWBgNVBAoMD1JlZ2lvbmUgU2lj
aWxpYTBWMBAGByqGSM49AgEGBSuBBAAKA0IABPtR6ELrRDYtDlC8NhnhbxKGp9fL
Q2sMYF4cpdHLTwCBUsQhl9N9bGLy/93s9Ivs7sVBX9VONKY+5jzOfEJrHf2jIzAh
MA4GA1UdDwEB/wQEAwIFoDAPBgNVHRMBAf8EBTADAgEDMAoGCCqGSM49BAMCA0gA
MEUCIB1biNSjHdT/0LCAwQ7Pcba3hJbLE1wa4B+fyicZ7CrPAiEAn+f0ufg7//AT
Ici71e0T0tEBrbnGYy9t7SmkKewNmp8=
-----END CERTIFICATE-----
