Certificate:
    Data:
        Version: 3 (0x2)
        Serial Number: 30 (0x1e)
        Signature Algorithm: ecdsa-with-SHA256
        Issuer: CN=Regione Piemonte, C=IT, ST=Italia, O=E-Voting system, OU=E-Voting system authority/emailAddress=Piemonte@evoting.it
        Validity
            Not Before: Aug 26 15:20:33 2022 GMT
            Not After : Aug 26 15:20:33 2023 GMT
        Subject: CN=Marcia, C=IT, ST=Italia, O=Regione Piemonte
        Subject Public Key Info:
            Public Key Algorithm: id-ecPublicKey
                Public-Key: (256 bit)
                pub:
                    04:c9:07:69:46:b9:92:8f:6d:02:65:4f:93:55:73:
                    c1:3b:ac:36:76:5f:9d:90:99:db:71:0c:32:ff:3e:
                    eb:ef:58:9e:77:b1:a5:f1:19:ce:5b:c4:ba:dc:10:
                    30:b4:13:0f:e8:c3:89:fa:26:fc:0a:1f:09:ab:64:
                    5d:64:6e:7b:1d
                ASN1 OID: secp256k1
        X509v3 extensions:
            X509v3 Key Usage: critical
                Digital Signature, Key Encipherment
            X509v3 Basic Constraints: critical
                CA:FALSE, pathlen:3
    Signature Algorithm: ecdsa-with-SHA256
         30:44:02:20:12:19:69:26:20:8d:81:63:0a:78:b6:b8:d3:8a:
         59:e4:7a:d5:ce:1f:d4:6b:a3:35:8f:7d:fb:73:9a:6c:4c:8d:
         02:20:71:89:19:9c:78:91:44:ea:fe:a4:9e:06:24:5a:6a:5e:
         95:9b:8f:0d:f0:1e:be:f9:2c:5e:56:d5:e8:f0:c7:ff
-----BEGIN CERTIFICATE-----
MIIB9DCCAZugAwIBAgIBHjAKBggqhkjOPQQDAjCBmzEZMBcGA1UEAwwQUmVnaW9u
ZSBQaWVtb250ZTELMAkGA1UEBhMCSVQxDzANBgNVBAgMBkl0YWxpYTEYMBYGA1UE
CgwPRS1Wb3Rpbmcgc3lzdGVtMSIwIAYDVQQLDBlFLVZvdGluZyBzeXN0ZW0gYXV0
aG9yaXR5MSIwIAYJKoZIhvcNAQkBFhNQaWVtb250ZUBldm90aW5nLml0MB4XDTIy
MDgyNjE1MjAzM1oXDTIzMDgyNjE1MjAzM1owSjEPMA0GA1UEAwwGTWFyY2lhMQsw
CQYDVQQGEwJJVDEPMA0GA1UECAwGSXRhbGlhMRkwFwYDVQQKDBBSZWdpb25lIFBp
ZW1vbnRlMFYwEAYHKoZIzj0CAQYFK4EEAAoDQgAEyQdpRrmSj20CZU+TVXPBO6w2
dl+dkJnbcQwy/z7r71ied7Gl8RnOW8S63BAwtBMP6MOJ+ib8Ch8Jq2RdZG57HaMj
MCEwDgYDVR0PAQH/BAQDAgWgMA8GA1UdEwEB/wQFMAMCAQMwCgYIKoZIzj0EAwID
RwAwRAIgEhlpJiCNgWMKeLa404pZ5HrVzh/Ua6M1j337c5psTI0CIHGJGZx4kUTq
/qSeBiRaal6Vm48N8B6++SxeVtXo8Mf/
-----END CERTIFICATE-----
