Certificate:
    Data:
        Version: 3 (0x2)
        Serial Number: 45 (0x2d)
        Signature Algorithm: ecdsa-with-SHA256
        Issuer: CN=Regione Friuli_Venezia_Giulia, C=IT, ST=Italia, O=E-Voting system, OU=E-Voting system authority/emailAddress=Friuli_Venezia_Giulia@evoting.it
        Validity
            Not Before: Aug 26 15:21:48 2022 GMT
            Not After : Aug 26 15:21:48 2023 GMT
        Subject: CN=Marcy, C=IT, ST=Italia, O=Regione Friuli_Venezia_Giulia
        Subject Public Key Info:
            Public Key Algorithm: id-ecPublicKey
                Public-Key: (256 bit)
                pub:
                    04:f8:d6:41:08:46:05:88:c2:3a:e3:99:61:57:0e:
                    44:a8:3c:57:36:49:75:94:8f:19:7c:ad:79:8c:d5:
                    75:21:51:f0:8b:bc:6d:b7:5f:59:e1:fe:6c:90:43:
                    d5:d2:0e:94:db:0e:05:0e:97:2b:ea:a9:41:8e:ab:
                    77:63:53:45:9a
                ASN1 OID: secp256k1
        X509v3 extensions:
            X509v3 Key Usage: critical
                Digital Signature, Key Encipherment
            X509v3 Basic Constraints: critical
                CA:FALSE, pathlen:3
    Signature Algorithm: ecdsa-with-SHA256
         30:45:02:20:27:79:7c:9f:84:5c:6a:21:c4:e9:e0:b7:f4:36:
         bf:30:2d:1d:ab:6f:e5:8f:99:6e:eb:2f:51:5b:f0:7f:aa:85:
         02:21:00:c5:b3:35:e9:13:a4:9e:07:ad:82:7a:34:22:90:27:
         8f:e6:14:73:95:9b:44:07:df:76:76:af:75:34:af:6a:6d
-----BEGIN CERTIFICATE-----
MIICGzCCAcGgAwIBAgIBLTAKBggqhkjOPQQDAjCBtTEmMCQGA1UEAwwdUmVnaW9u
ZSBGcml1bGlfVmVuZXppYV9HaXVsaWExCzAJBgNVBAYTAklUMQ8wDQYDVQQIDAZJ
dGFsaWExGDAWBgNVBAoMD0UtVm90aW5nIHN5c3RlbTEiMCAGA1UECwwZRS1Wb3Rp
bmcgc3lzdGVtIGF1dGhvcml0eTEvMC0GCSqGSIb3DQEJARYgRnJpdWxpX1ZlbmV6
aWFfR2l1bGlhQGV2b3RpbmcuaXQwHhcNMjIwODI2MTUyMTQ4WhcNMjMwODI2MTUy
MTQ4WjBWMQ4wDAYDVQQDDAVNYXJjeTELMAkGA1UEBhMCSVQxDzANBgNVBAgMBkl0
YWxpYTEmMCQGA1UECgwdUmVnaW9uZSBGcml1bGlfVmVuZXppYV9HaXVsaWEwVjAQ
BgcqhkjOPQIBBgUrgQQACgNCAAT41kEIRgWIwjrjmWFXDkSoPFc2SXWUjxl8rXmM
1XUhUfCLvG23X1nh/myQQ9XSDpTbDgUOlyvqqUGOq3djU0WaoyMwITAOBgNVHQ8B
Af8EBAMCBaAwDwYDVR0TAQH/BAUwAwIBAzAKBggqhkjOPQQDAgNIADBFAiAneXyf
hFxqIcTp4Lf0Nr8wLR2rb+WPmW7rL1Fb8H+qhQIhAMWzNekTpJ4HrYJ6NCKQJ4/m
FHOVm0QH33Z2r3U0r2pt
-----END CERTIFICATE-----
