Certificate:
    Data:
        Version: 3 (0x2)
        Serial Number: 2 (0x2)
        Signature Algorithm: ecdsa-with-SHA256
        Issuer: CN=Regione Emilia_Romagna, C=IT, ST=Italia, O=E-Voting system, OU=E-Voting system authority/emailAddress=Emilia_Romagna@evoting.it
        Validity
            Not Before: Aug  3 13:25:44 2022 GMT
            Not After : Aug  3 13:25:44 2023 GMT
        Subject: CN=Marci, C=IT, ST=Italia, O=Regione Emilia_Romagna
        Subject Public Key Info:
            Public Key Algorithm: id-ecPublicKey
                Public-Key: (256 bit)
                pub:
                    04:47:a6:66:54:bd:91:e4:5e:7f:c3:0b:24:43:c9:
                    23:dc:4a:b3:e7:dc:7a:a7:0f:ae:b1:61:8b:6b:7a:
                    0a:63:1d:d8:f5:b3:58:fa:a5:4e:4f:89:da:24:6f:
                    9f:10:39:b1:b0:cd:32:df:2b:c0:46:92:9f:56:08:
                    44:de:35:b0:ef
                ASN1 OID: prime256v1
                NIST CURVE: P-256
        X509v3 extensions:
            X509v3 Key Usage: critical
                Digital Signature, Key Encipherment
            X509v3 Basic Constraints: critical
                CA:FALSE, pathlen:3
    Signature Algorithm: ecdsa-with-SHA256
         30:45:02:20:52:8c:ac:64:d6:31:fd:8f:ee:90:00:b0:fa:db:
         92:63:ea:fb:30:79:4c:11:d2:d0:3d:60:a1:6d:e6:f8:7b:63:
         02:21:00:94:4b:38:c9:de:59:16:d3:23:4d:c6:cd:95:f2:1a:
         3a:fd:e9:96:f1:2d:77:ac:91:c5:1e:71:2d:17:71:58:f4
-----BEGIN CERTIFICATE-----
MIICCTCCAa+gAwIBAgIBAjAKBggqhkjOPQQDAjCBpzEfMB0GA1UEAwwWUmVnaW9u
ZSBFbWlsaWFfUm9tYWduYTELMAkGA1UEBhMCSVQxDzANBgNVBAgMBkl0YWxpYTEY
MBYGA1UECgwPRS1Wb3Rpbmcgc3lzdGVtMSIwIAYDVQQLDBlFLVZvdGluZyBzeXN0
ZW0gYXV0aG9yaXR5MSgwJgYJKoZIhvcNAQkBFhlFbWlsaWFfUm9tYWduYUBldm90
aW5nLml0MB4XDTIyMDgwMzEzMjU0NFoXDTIzMDgwMzEzMjU0NFowTzEOMAwGA1UE
AwwFTWFyY2kxCzAJBgNVBAYTAklUMQ8wDQYDVQQIDAZJdGFsaWExHzAdBgNVBAoM
FlJlZ2lvbmUgRW1pbGlhX1JvbWFnbmEwWTATBgcqhkjOPQIBBggqhkjOPQMBBwNC
AARHpmZUvZHkXn/DCyRDySPcSrPn3HqnD66xYYtregpjHdj1s1j6pU5Pidokb58Q
ObGwzTLfK8BGkp9WCETeNbDvoyMwITAOBgNVHQ8BAf8EBAMCBaAwDwYDVR0TAQH/
BAUwAwIBAzAKBggqhkjOPQQDAgNIADBFAiBSjKxk1jH9j+6QALD625Jj6vsweUwR
0tA9YKFt5vh7YwIhAJRLOMneWRbTI03GzZXyGjr96ZbxLXeskcUecS0XcVj0
-----END CERTIFICATE-----
