Certificate:
    Data:
        Version: 3 (0x2)
        Serial Number: 31 (0x1f)
        Signature Algorithm: ecdsa-with-SHA256
        Issuer: CN=Regione Trentino_Alto_Adige, C=IT, ST=Italia, O=E-Voting system, OU=E-Voting system authority/emailAddress=Trentino_Alto_Adige@evoting.it
        Validity
            Not Before: Aug  3 13:27:51 2022 GMT
            Not After : Aug  3 13:27:51 2023 GMT
        Subject: CN=Marcus, C=IT, ST=Italia, O=Regione Trentino_Alto_Adige
        Subject Public Key Info:
            Public Key Algorithm: id-ecPublicKey
                Public-Key: (256 bit)
                pub:
                    04:f6:15:59:8f:37:83:6f:f5:f2:86:e5:f8:27:35:
                    43:52:4d:6a:1e:5c:f1:c8:c5:b7:7e:b8:32:18:79:
                    f6:be:db:8d:d7:73:ca:08:75:2f:f5:62:ca:be:3d:
                    ca:2a:bc:02:f1:f5:19:bc:66:4a:c5:91:d8:c0:2b:
                    5a:4c:7d:6f:5d
                ASN1 OID: prime256v1
                NIST CURVE: P-256
        X509v3 extensions:
            X509v3 Key Usage: critical
                Digital Signature, Key Encipherment
            X509v3 Basic Constraints: critical
                CA:FALSE, pathlen:3
    Signature Algorithm: ecdsa-with-SHA256
         30:45:02:20:5c:49:81:64:53:51:4f:86:1c:78:84:38:39:b0:
         30:d6:26:dd:90:1e:27:4c:6d:16:42:dc:96:07:2f:53:85:20:
         02:21:00:e8:af:e4:f8:d1:b7:e8:9c:48:21:b3:e0:c2:1e:68:
         08:94:0b:3b:5a:c6:08:e0:9f:a1:46:1d:ee:a5:48:f9:c6
-----BEGIN CERTIFICATE-----
MIICGTCCAb+gAwIBAgIBHzAKBggqhkjOPQQDAjCBsTEkMCIGA1UEAwwbUmVnaW9u
ZSBUcmVudGlub19BbHRvX0FkaWdlMQswCQYDVQQGEwJJVDEPMA0GA1UECAwGSXRh
bGlhMRgwFgYDVQQKDA9FLVZvdGluZyBzeXN0ZW0xIjAgBgNVBAsMGUUtVm90aW5n
IHN5c3RlbSBhdXRob3JpdHkxLTArBgkqhkiG9w0BCQEWHlRyZW50aW5vX0FsdG9f
QWRpZ2VAZXZvdGluZy5pdDAeFw0yMjA4MDMxMzI3NTFaFw0yMzA4MDMxMzI3NTFa
MFUxDzANBgNVBAMMBk1hcmN1czELMAkGA1UEBhMCSVQxDzANBgNVBAgMBkl0YWxp
YTEkMCIGA1UECgwbUmVnaW9uZSBUcmVudGlub19BbHRvX0FkaWdlMFkwEwYHKoZI
zj0CAQYIKoZIzj0DAQcDQgAE9hVZjzeDb/XyhuX4JzVDUk1qHlzxyMW3frgyGHn2
vtuN13PKCHUv9WLKvj3KKrwC8fUZvGZKxZHYwCtaTH1vXaMjMCEwDgYDVR0PAQH/
BAQDAgWgMA8GA1UdEwEB/wQFMAMCAQMwCgYIKoZIzj0EAwIDSAAwRQIgXEmBZFNR
T4YceIQ4ObAw1ibdkB4nTG0WQtyWBy9ThSACIQDor+T40bfonEghs+DCHmgIlAs7
WsYI4J+hRh3upUj5xg==
-----END CERTIFICATE-----
