Certificate:
    Data:
        Version: 3 (0x2)
        Serial Number: 24 (0x18)
        Signature Algorithm: ecdsa-with-SHA256
        Issuer: CN=Regione Marche, C=IT, ST=Italia, O=E-Voting system, OU=E-Voting system authority/emailAddress=Marche@evoting.it
        Validity
            Not Before: Aug 26 15:21:02 2022 GMT
            Not After : Aug 26 15:21:02 2023 GMT
        Subject: CN=Margaret, C=IT, ST=Italia, O=Regione Marche
        Subject Public Key Info:
            Public Key Algorithm: id-ecPublicKey
                Public-Key: (256 bit)
                pub:
                    04:05:c6:77:c9:b7:a5:50:d4:00:fe:91:67:a7:bc:
                    e3:63:1a:00:24:da:41:4a:7c:9a:e6:17:c2:79:16:
                    bc:7a:b5:6c:3a:40:41:f5:13:90:13:bb:29:74:1b:
                    b5:f3:dd:3e:43:97:7c:7e:93:15:16:3b:f1:1d:63:
                    8f:a2:8e:a8:21
                ASN1 OID: secp256k1
        X509v3 extensions:
            X509v3 Key Usage: critical
                Digital Signature, Key Encipherment
            X509v3 Basic Constraints: critical
                CA:FALSE, pathlen:3
    Signature Algorithm: ecdsa-with-SHA256
         30:46:02:21:00:c6:3f:ea:d8:e6:f4:b6:59:10:1c:3d:d5:67:
         72:85:4f:7d:f2:f6:8c:6c:6c:46:ec:4c:f9:ab:a0:f7:62:4c:
         04:02:21:00:e8:54:46:0d:cc:a1:a1:63:c6:4c:d2:c7:43:c3:
         e8:2f:fc:9e:1d:ee:b5:ef:de:52:73:ff:87:e4:39:f2:ea:fa
-----BEGIN CERTIFICATE-----
MIIB8jCCAZegAwIBAgIBGDAKBggqhkjOPQQDAjCBlzEXMBUGA1UEAwwOUmVnaW9u
ZSBNYXJjaGUxCzAJBgNVBAYTAklUMQ8wDQYDVQQIDAZJdGFsaWExGDAWBgNVBAoM
D0UtVm90aW5nIHN5c3RlbTEiMCAGA1UECwwZRS1Wb3Rpbmcgc3lzdGVtIGF1dGhv
cml0eTEgMB4GCSqGSIb3DQEJARYRTWFyY2hlQGV2b3RpbmcuaXQwHhcNMjIwODI2
MTUyMTAyWhcNMjMwODI2MTUyMTAyWjBKMREwDwYDVQQDDAhNYXJnYXJldDELMAkG
A1UEBhMCSVQxDzANBgNVBAgMBkl0YWxpYTEXMBUGA1UECgwOUmVnaW9uZSBNYXJj
aGUwVjAQBgcqhkjOPQIBBgUrgQQACgNCAAQFxnfJt6VQ1AD+kWenvONjGgAk2kFK
fJrmF8J5Frx6tWw6QEH1E5ATuyl0G7Xz3T5Dl3x+kxUWO/EdY4+ijqghoyMwITAO
BgNVHQ8BAf8EBAMCBaAwDwYDVR0TAQH/BAUwAwIBAzAKBggqhkjOPQQDAgNJADBG
AiEAxj/q2Ob0tlkQHD3VZ3KFT33y9oxsbEbsTPmroPdiTAQCIQDoVEYNzKGhY8ZM
0sdDw+gv/J4d7rXv3lJz/4fkOfLq+g==
-----END CERTIFICATE-----
