Certificate:
    Data:
        Version: 3 (0x2)
        Serial Number: 57 (0x39)
        Signature Algorithm: ecdsa-with-SHA256
        Issuer: CN=Regione Emilia_Romagna, C=IT, ST=Italia, O=E-Voting system, OU=E-Voting system authority/emailAddress=Emilia_Romagna@evoting.it
        Validity
            Not Before: Aug 26 15:21:49 2022 GMT
            Not After : Aug 26 15:21:49 2023 GMT
        Subject: CN=Marie, C=IT, ST=Italia, O=Regione Emilia_Romagna
        Subject Public Key Info:
            Public Key Algorithm: id-ecPublicKey
                Public-Key: (256 bit)
                pub:
                    04:7a:d4:55:71:d3:fe:bd:ac:5d:45:f0:07:3c:99:
                    44:2b:55:9b:e0:d3:e6:48:36:55:0e:1a:a6:95:c8:
                    03:98:96:f8:d8:f9:2d:f3:6b:86:70:f4:f5:ac:1f:
                    76:6c:45:19:f8:e1:26:91:6a:44:fe:84:15:23:b8:
                    2a:85:df:f7:94
                ASN1 OID: secp256k1
        X509v3 extensions:
            X509v3 Key Usage: critical
                Digital Signature, Key Encipherment
            X509v3 Basic Constraints: critical
                CA:FALSE, pathlen:3
    Signature Algorithm: ecdsa-with-SHA256
         30:46:02:21:00:c0:70:fc:c1:d9:14:11:d3:3a:1c:f2:ba:f9:
         d2:a2:9a:3a:48:90:af:29:98:d9:aa:95:fe:fc:b8:b4:14:9a:
         66:02:21:00:a3:75:43:99:a7:1c:31:ef:d3:99:25:92:38:05:
         84:51:99:56:8c:0b:12:a6:3b:2b:54:4a:ca:c5:9c:08:3e:ba
-----BEGIN CERTIFICATE-----
MIICBzCCAaygAwIBAgIBOTAKBggqhkjOPQQDAjCBpzEfMB0GA1UEAwwWUmVnaW9u
ZSBFbWlsaWFfUm9tYWduYTELMAkGA1UEBhMCSVQxDzANBgNVBAgMBkl0YWxpYTEY
MBYGA1UECgwPRS1Wb3Rpbmcgc3lzdGVtMSIwIAYDVQQLDBlFLVZvdGluZyBzeXN0
ZW0gYXV0aG9yaXR5MSgwJgYJKoZIhvcNAQkBFhlFbWlsaWFfUm9tYWduYUBldm90
aW5nLml0MB4XDTIyMDgyNjE1MjE0OVoXDTIzMDgyNjE1MjE0OVowTzEOMAwGA1UE
AwwFTWFyaWUxCzAJBgNVBAYTAklUMQ8wDQYDVQQIDAZJdGFsaWExHzAdBgNVBAoM
FlJlZ2lvbmUgRW1pbGlhX1JvbWFnbmEwVjAQBgcqhkjOPQIBBgUrgQQACgNCAAR6
1FVx0/69rF1F8Ac8mUQrVZvg0+ZINlUOGqaVyAOYlvjY+S3za4Zw9PWsH3ZsRRn4
4SaRakT+hBUjuCqF3/eUoyMwITAOBgNVHQ8BAf8EBAMCBaAwDwYDVR0TAQH/BAUw
AwIBAzAKBggqhkjOPQQDAgNJADBGAiEAwHD8wdkUEdM6HPK6+dKimjpIkK8pmNmq
lf78uLQUmmYCIQCjdUOZpxwx79OZJZI4BYRRmVaMCxKmOytUSsrFnAg+ug==
-----END CERTIFICATE-----
