Certificate:
    Data:
        Version: 3 (0x2)
        Serial Number: 24 (0x18)
        Signature Algorithm: ecdsa-with-SHA256
        Issuer: CN=Regione Umbria, C=IT, ST=Italia, O=E-Voting system, OU=E-Voting system authority/emailAddress=Umbria@evoting.it
        Validity
            Not Before: Aug 26 15:20:20 2022 GMT
            Not After : Aug 26 15:20:20 2023 GMT
        Subject: CN=Maria, C=IT, ST=Italia, O=Regione Umbria
        Subject Public Key Info:
            Public Key Algorithm: id-ecPublicKey
                Public-Key: (256 bit)
                pub:
                    04:b4:12:90:9b:a1:57:71:58:3b:ac:83:83:14:40:
                    7f:2f:1c:fe:7e:c8:8e:0c:a9:59:e6:36:33:14:b7:
                    f9:8a:34:90:01:dd:97:8c:62:92:8c:35:79:d6:ef:
                    95:bc:15:8e:cb:57:df:97:47:74:5d:05:7e:ee:e3:
                    ed:0e:34:e0:86
                ASN1 OID: secp256k1
        X509v3 extensions:
            X509v3 Key Usage: critical
                Digital Signature, Key Encipherment
            X509v3 Basic Constraints: critical
                CA:FALSE, pathlen:3
    Signature Algorithm: ecdsa-with-SHA256
         30:46:02:21:00:b0:12:66:54:c5:4d:c3:25:7e:13:46:a8:c6:
         20:e8:82:49:5e:7d:ee:d5:f5:38:04:88:5d:bd:72:48:09:77:
         7d:02:21:00:a5:05:36:52:c0:24:1a:3b:3f:6c:75:a9:1d:13:
         89:01:34:d8:ee:b0:67:0b:bc:de:66:14:6f:3d:65:88:eb:51
-----BEGIN CERTIFICATE-----
MIIB7zCCAZSgAwIBAgIBGDAKBggqhkjOPQQDAjCBlzEXMBUGA1UEAwwOUmVnaW9u
ZSBVbWJyaWExCzAJBgNVBAYTAklUMQ8wDQYDVQQIDAZJdGFsaWExGDAWBgNVBAoM
D0UtVm90aW5nIHN5c3RlbTEiMCAGA1UECwwZRS1Wb3Rpbmcgc3lzdGVtIGF1dGhv
cml0eTEgMB4GCSqGSIb3DQEJARYRVW1icmlhQGV2b3RpbmcuaXQwHhcNMjIwODI2
MTUyMDIwWhcNMjMwODI2MTUyMDIwWjBHMQ4wDAYDVQQDDAVNYXJpYTELMAkGA1UE
BhMCSVQxDzANBgNVBAgMBkl0YWxpYTEXMBUGA1UECgwOUmVnaW9uZSBVbWJyaWEw
VjAQBgcqhkjOPQIBBgUrgQQACgNCAAS0EpCboVdxWDusg4MUQH8vHP5+yI4MqVnm
NjMUt/mKNJAB3ZeMYpKMNXnW75W8FY7LV9+XR3RdBX7u4+0ONOCGoyMwITAOBgNV
HQ8BAf8EBAMCBaAwDwYDVR0TAQH/BAUwAwIBAzAKBggqhkjOPQQDAgNJADBGAiEA
sBJmVMVNwyV+E0aoxiDogklefe7V9TgEiF29ckgJd30CIQClBTZSwCQaOz9sdakd
E4kBNNjusGcLvN5mFG89ZYjrUQ==
-----END CERTIFICATE-----
