Certificate:
    Data:
        Version: 3 (0x2)
        Serial Number: 15 (0xf)
        Signature Algorithm: ecdsa-with-SHA256
        Issuer: CN=Regione Veneto, C=IT, ST=Italia, O=E-Voting system, OU=E-Voting system authority/emailAddress=Veneto@evoting.it
        Validity
            Not Before: Aug  3 13:26:29 2022 GMT
            Not After : Aug  3 13:26:29 2023 GMT
        Subject: CN=Maria, C=IT, ST=Italia, O=Regione Veneto
        Subject Public Key Info:
            Public Key Algorithm: id-ecPublicKey
                Public-Key: (256 bit)
                pub:
                    04:1a:a8:7a:7b:65:40:2b:c1:c9:b5:0b:35:0b:37:
                    fe:ca:d8:f4:24:ca:86:ce:eb:af:75:fe:00:e2:7c:
                    92:b7:99:21:c1:54:4e:85:31:33:59:75:4c:b5:62:
                    35:11:98:c2:57:ff:37:72:04:ae:5f:5d:8e:92:d7:
                    36:60:3d:4a:3a
                ASN1 OID: prime256v1
                NIST CURVE: P-256
        X509v3 extensions:
            X509v3 Key Usage: critical
                Digital Signature, Key Encipherment
            X509v3 Basic Constraints: critical
                CA:FALSE, pathlen:3
    Signature Algorithm: ecdsa-with-SHA256
         30:45:02:20:02:59:8d:35:30:1d:1c:2d:17:d3:6f:fb:c9:97:
         08:59:fc:7c:cd:36:d9:4c:b5:28:89:1a:54:cf:30:75:58:8d:
         02:21:00:ac:0c:99:e5:b1:b3:99:9a:b7:f6:1f:46:b9:70:36:
         c3:40:e6:24:9b:4e:e5:ac:0e:6f:9c:92:8e:25:b7:50:e7
-----BEGIN CERTIFICATE-----
MIIB8TCCAZegAwIBAgIBDzAKBggqhkjOPQQDAjCBlzEXMBUGA1UEAwwOUmVnaW9u
ZSBWZW5ldG8xCzAJBgNVBAYTAklUMQ8wDQYDVQQIDAZJdGFsaWExGDAWBgNVBAoM
D0UtVm90aW5nIHN5c3RlbTEiMCAGA1UECwwZRS1Wb3Rpbmcgc3lzdGVtIGF1dGhv
cml0eTEgMB4GCSqGSIb3DQEJARYRVmVuZXRvQGV2b3RpbmcuaXQwHhcNMjIwODAz
MTMyNjI5WhcNMjMwODAzMTMyNjI5WjBHMQ4wDAYDVQQDDAVNYXJpYTELMAkGA1UE
BhMCSVQxDzANBgNVBAgMBkl0YWxpYTEXMBUGA1UECgwOUmVnaW9uZSBWZW5ldG8w
WTATBgcqhkjOPQIBBggqhkjOPQMBBwNCAAQaqHp7ZUArwcm1CzULN/7K2PQkyobO
6691/gDifJK3mSHBVE6FMTNZdUy1YjURmMJX/zdyBK5fXY6S1zZgPUo6oyMwITAO
BgNVHQ8BAf8EBAMCBaAwDwYDVR0TAQH/BAUwAwIBAzAKBggqhkjOPQQDAgNIADBF
AiACWY01MB0cLRfTb/vJlwhZ/HzNNtlMtSiJGlTPMHVYjQIhAKwMmeWxs5mat/Yf
RrlwNsNA5iSbTuWsDm+cko4lt1Dn
-----END CERTIFICATE-----
