Certificate:
    Data:
        Version: 3 (0x2)
        Serial Number: 25 (0x19)
        Signature Algorithm: ecdsa-with-SHA256
        Issuer: CN=Regione Veneto, C=IT, ST=Italia, O=E-Voting system, OU=E-Voting system authority/emailAddress=Veneto@evoting.it
        Validity
            Not Before: Aug 26 15:21:06 2022 GMT
            Not After : Aug 26 15:21:06 2023 GMT
        Subject: CN=Marilyn, C=IT, ST=Italia, O=Regione Veneto
        Subject Public Key Info:
            Public Key Algorithm: id-ecPublicKey
                Public-Key: (256 bit)
                pub:
                    04:43:c6:ee:7b:b7:c3:ce:76:f0:f7:25:1b:cf:d2:
                    17:7b:bc:c8:79:84:f6:45:5a:2c:20:e3:97:93:86:
                    dc:65:db:46:21:49:4d:0a:03:10:72:e1:b7:04:9e:
                    33:60:f9:12:b7:60:94:b7:fd:2f:48:6e:b1:8e:03:
                    ab:c9:9d:be:3c
                ASN1 OID: secp256k1
        X509v3 extensions:
            X509v3 Key Usage: critical
                Digital Signature, Key Encipherment
            X509v3 Basic Constraints: critical
                CA:FALSE, pathlen:3
    Signature Algorithm: ecdsa-with-SHA256
         30:45:02:21:00:aa:86:c6:cf:ad:94:5b:61:5c:1f:5b:91:4b:
         1d:ff:39:04:22:82:86:1a:24:40:ec:f1:e9:ad:21:f7:5e:df:
         18:02:20:02:86:b3:01:8d:72:3c:4f:5f:ac:f8:d7:1a:2b:57:
         d9:12:4b:8e:25:44:26:ba:0a:9b:7a:12:ec:ba:5e:b7:1d
-----BEGIN CERTIFICATE-----
MIIB8DCCAZagAwIBAgIBGTAKBggqhkjOPQQDAjCBlzEXMBUGA1UEAwwOUmVnaW9u
ZSBWZW5ldG8xCzAJBgNVBAYTAklUMQ8wDQYDVQQIDAZJdGFsaWExGDAWBgNVBAoM
D0UtVm90aW5nIHN5c3RlbTEiMCAGA1UECwwZRS1Wb3Rpbmcgc3lzdGVtIGF1dGhv
cml0eTEgMB4GCSqGSIb3DQEJARYRVmVuZXRvQGV2b3RpbmcuaXQwHhcNMjIwODI2
MTUyMTA2WhcNMjMwODI2MTUyMTA2WjBJMRAwDgYDVQQDDAdNYXJpbHluMQswCQYD
VQQGEwJJVDEPMA0GA1UECAwGSXRhbGlhMRcwFQYDVQQKDA5SZWdpb25lIFZlbmV0
bzBWMBAGByqGSM49AgEGBSuBBAAKA0IABEPG7nu3w8528PclG8/SF3u8yHmE9kVa
LCDjl5OG3GXbRiFJTQoDEHLhtwSeM2D5ErdglLf9L0husY4Dq8mdvjyjIzAhMA4G
A1UdDwEB/wQEAwIFoDAPBgNVHRMBAf8EBTADAgEDMAoGCCqGSM49BAMCA0gAMEUC
IQCqhsbPrZRbYVwfW5FLHf85BCKChhokQOzx6a0h917fGAIgAoazAY1yPE9frPjX
GitX2RJLjiVEJroKm3oS7Lpetx0=
-----END CERTIFICATE-----
