Certificate:
    Data:
        Version: 3 (0x2)
        Serial Number: 9 (0x9)
        Signature Algorithm: ecdsa-with-SHA256
        Issuer: CN=Regione Campania, C=IT, ST=Italia, O=E-Voting system, OU=E-Voting system authority/emailAddress=Campania@evoting.it
        Validity
            Not Before: Aug  3 13:25:56 2022 GMT
            Not After : Aug  3 13:25:56 2023 GMT
        Subject: CN=Marianne, C=IT, ST=Italia, O=Regione Campania
        Subject Public Key Info:
            Public Key Algorithm: id-ecPublicKey
                Public-Key: (256 bit)
                pub:
                    04:c4:ee:2c:d2:32:c3:ed:42:ad:c7:a8:5b:8e:de:
                    d2:1a:f6:b6:c9:34:7d:10:09:56:b1:b9:b2:cf:16:
                    54:2a:79:38:79:0d:5a:d0:06:af:18:d3:fe:99:22:
                    7b:d6:a0:e6:8d:5f:24:8c:91:3d:70:35:92:f1:be:
                    10:1b:70:20:27
                ASN1 OID: prime256v1
                NIST CURVE: P-256
        X509v3 extensions:
            X509v3 Key Usage: critical
                Digital Signature, Key Encipherment
            X509v3 Basic Constraints: critical
                CA:FALSE, pathlen:3
    Signature Algorithm: ecdsa-with-SHA256
         30:44:02:20:4e:81:ed:15:19:f3:ff:80:ae:d7:52:d2:65:54:
         a0:a7:31:3e:2e:d7:fb:90:40:b9:ba:76:5e:e2:df:a6:19:b3:
         02:20:3e:e3:8e:61:34:18:62:2c:c6:df:4b:8a:35:24:7d:c7:
         b8:88:8d:86:ce:ee:5f:8f:72:b3:1f:c9:76:ba:23:6a
-----BEGIN CERTIFICATE-----
MIIB+TCCAaCgAwIBAgIBCTAKBggqhkjOPQQDAjCBmzEZMBcGA1UEAwwQUmVnaW9u
ZSBDYW1wYW5pYTELMAkGA1UEBhMCSVQxDzANBgNVBAgMBkl0YWxpYTEYMBYGA1UE
CgwPRS1Wb3Rpbmcgc3lzdGVtMSIwIAYDVQQLDBlFLVZvdGluZyBzeXN0ZW0gYXV0
aG9yaXR5MSIwIAYJKoZIhvcNAQkBFhNDYW1wYW5pYUBldm90aW5nLml0MB4XDTIy
MDgwMzEzMjU1NloXDTIzMDgwMzEzMjU1NlowTDERMA8GA1UEAwwITWFyaWFubmUx
CzAJBgNVBAYTAklUMQ8wDQYDVQQIDAZJdGFsaWExGTAXBgNVBAoMEFJlZ2lvbmUg
Q2FtcGFuaWEwWTATBgcqhkjOPQIBBggqhkjOPQMBBwNCAATE7izSMsPtQq3HqFuO
3tIa9rbJNH0QCVaxubLPFlQqeTh5DVrQBq8Y0/6ZInvWoOaNXySMkT1wNZLxvhAb
cCAnoyMwITAOBgNVHQ8BAf8EBAMCBaAwDwYDVR0TAQH/BAUwAwIBAzAKBggqhkjO
PQQDAgNHADBEAiBOge0VGfP/gK7XUtJlVKCnMT4u1/uQQLm6dl7i36YZswIgPuOO
YTQYYizG30uKNSR9x7iIjYbO7l+PcrMfyXa6I2o=
-----END CERTIFICATE-----
