Certificate:
    Data:
        Version: 3 (0x2)
        Serial Number: 13 (0xd)
        Signature Algorithm: ecdsa-with-SHA256
        Issuer: CN=Regione Calabria, C=IT, ST=Italia, O=E-Voting system, OU=E-Voting system authority/emailAddress=Calabria@evoting.it
        Validity
            Not Before: Aug 26 15:19:29 2022 GMT
            Not After : Aug 26 15:19:29 2023 GMT
        Subject: CN=Marjorie, C=IT, ST=Italia, O=Regione Calabria
        Subject Public Key Info:
            Public Key Algorithm: id-ecPublicKey
                Public-Key: (256 bit)
                pub:
                    04:c0:01:9f:06:d6:a8:1f:86:fb:32:e6:e4:c4:c3:
                    53:ab:f8:54:52:b5:b2:3c:9a:3e:84:7e:36:64:7f:
                    a2:49:aa:7b:ec:69:5f:cf:9c:b9:b0:4c:eb:a9:3b:
                    5b:5e:ec:c4:08:af:ee:ea:71:b8:ed:aa:12:ac:79:
                    dd:1a:00:c0:7a
                ASN1 OID: secp256k1
        X509v3 extensions:
            X509v3 Key Usage: critical
                Digital Signature, Key Encipherment
            X509v3 Basic Constraints: critical
                CA:FALSE, pathlen:3
    Signature Algorithm: ecdsa-with-SHA256
         30:45:02:20:6b:19:95:47:18:ab:aa:8d:44:08:7e:75:31:04:
         31:34:71:d8:82:db:9c:d5:dd:81:03:07:ed:57:2e:dc:57:fe:
         02:21:00:95:26:46:aa:42:61:7d:27:30:1a:15:38:4c:ac:db:
         61:d7:38:a7:30:56:75:c8:74:24:e0:5e:05:13:e4:52:b1
-----BEGIN CERTIFICATE-----
MIIB9zCCAZ2gAwIBAgIBDTAKBggqhkjOPQQDAjCBmzEZMBcGA1UEAwwQUmVnaW9u
ZSBDYWxhYnJpYTELMAkGA1UEBhMCSVQxDzANBgNVBAgMBkl0YWxpYTEYMBYGA1UE
CgwPRS1Wb3Rpbmcgc3lzdGVtMSIwIAYDVQQLDBlFLVZvdGluZyBzeXN0ZW0gYXV0
aG9yaXR5MSIwIAYJKoZIhvcNAQkBFhNDYWxhYnJpYUBldm90aW5nLml0MB4XDTIy
MDgyNjE1MTkyOVoXDTIzMDgyNjE1MTkyOVowTDERMA8GA1UEAwwITWFyam9yaWUx
CzAJBgNVBAYTAklUMQ8wDQYDVQQIDAZJdGFsaWExGTAXBgNVBAoMEFJlZ2lvbmUg
Q2FsYWJyaWEwVjAQBgcqhkjOPQIBBgUrgQQACgNCAATAAZ8G1qgfhvsy5uTEw1Or
+FRStbI8mj6EfjZkf6JJqnvsaV/PnLmwTOupO1te7MQIr+7qcbjtqhKsed0aAMB6
oyMwITAOBgNVHQ8BAf8EBAMCBaAwDwYDVR0TAQH/BAUwAwIBAzAKBggqhkjOPQQD
AgNIADBFAiBrGZVHGKuqjUQIfnUxBDE0cdiC25zV3YEDB+1XLtxX/gIhAJUmRqpC
YX0nMBoVOEys22HXOKcwVnXIdCTgXgUT5FKx
-----END CERTIFICATE-----
