Certificate:
    Data:
        Version: 3 (0x2)
        Serial Number: 20 (0x14)
        Signature Algorithm: ecdsa-with-SHA256
        Issuer: CN=Regione Piemonte, C=IT, ST=Italia, O=E-Voting system, OU=E-Voting system authority/emailAddress=Piemonte@evoting.it
        Validity
            Not Before: Aug  3 13:26:24 2022 GMT
            Not After : Aug  3 13:26:24 2023 GMT
        Subject: CN=Marjorie, C=IT, ST=Italia, O=Regione Piemonte
        Subject Public Key Info:
            Public Key Algorithm: id-ecPublicKey
                Public-Key: (256 bit)
                pub:
                    04:0a:1b:19:4a:84:0c:08:30:93:6b:35:3e:ec:f0:
                    64:fd:09:56:91:bc:8a:59:ec:de:76:75:e9:3d:f4:
                    82:3e:4e:7d:65:39:28:c1:10:ad:44:fc:92:ed:38:
                    a2:aa:03:de:16:41:ea:f4:ba:84:00:a3:79:15:a9:
                    ec:19:c4:ea:6f
                ASN1 OID: prime256v1
                NIST CURVE: P-256
        X509v3 extensions:
            X509v3 Key Usage: critical
                Digital Signature, Key Encipherment
            X509v3 Basic Constraints: critical
                CA:FALSE, pathlen:3
    Signature Algorithm: ecdsa-with-SHA256
         30:46:02:21:00:98:6f:e6:8b:77:74:58:87:b9:38:39:47:73:
         a6:74:31:c7:f8:fd:18:c3:b6:88:d4:11:46:68:10:88:8a:5e:
         bb:02:21:00:c9:c2:5c:c3:61:ed:b2:ca:be:5e:da:68:54:53:
         0c:51:76:a0:f6:7c:30:13:03:b7:c5:60:ea:60:4a:71:d6:02
-----BEGIN CERTIFICATE-----
MIIB+zCCAaCgAwIBAgIBFDAKBggqhkjOPQQDAjCBmzEZMBcGA1UEAwwQUmVnaW9u
ZSBQaWVtb250ZTELMAkGA1UEBhMCSVQxDzANBgNVBAgMBkl0YWxpYTEYMBYGA1UE
CgwPRS1Wb3Rpbmcgc3lzdGVtMSIwIAYDVQQLDBlFLVZvdGluZyBzeXN0ZW0gYXV0
aG9yaXR5MSIwIAYJKoZIhvcNAQkBFhNQaWVtb250ZUBldm90aW5nLml0MB4XDTIy
MDgwMzEzMjYyNFoXDTIzMDgwMzEzMjYyNFowTDERMA8GA1UEAwwITWFyam9yaWUx
CzAJBgNVBAYTAklUMQ8wDQYDVQQIDAZJdGFsaWExGTAXBgNVBAoMEFJlZ2lvbmUg
UGllbW9udGUwWTATBgcqhkjOPQIBBggqhkjOPQMBBwNCAAQKGxlKhAwIMJNrNT7s
8GT9CVaRvIpZ7N52dek99II+Tn1lOSjBEK1E/JLtOKKqA94WQer0uoQAo3kVqewZ
xOpvoyMwITAOBgNVHQ8BAf8EBAMCBaAwDwYDVR0TAQH/BAUwAwIBAzAKBggqhkjO
PQQDAgNJADBGAiEAmG/mi3d0WIe5ODlHc6Z0Mcf4/RjDtojUEUZoEIiKXrsCIQDJ
wlzDYe2yyr5e2mhUUwxRdqD2fDATA7fFYOpgSnHWAg==
-----END CERTIFICATE-----
