Certificate:
    Data:
        Version: 3 (0x2)
        Serial Number: 57 (0x39)
        Signature Algorithm: ecdsa-with-SHA256
        Issuer: CN=Regione Abruzzo, C=IT, ST=Italia, O=E-Voting system, OU=E-Voting system authority/emailAddress=Abruzzo@evoting.it
        Validity
            Not Before: Aug  3 13:28:48 2022 GMT
            Not After : Aug  3 13:28:48 2023 GMT
        Subject: CN=Mark, C=IT, ST=Italia, O=Regione Abruzzo
        Subject Public Key Info:
            Public Key Algorithm: id-ecPublicKey
                Public-Key: (256 bit)
                pub:
                    04:63:f8:97:8c:3c:51:9a:bd:c5:b2:52:1f:8c:74:
                    5d:18:31:ab:43:c8:41:0f:55:57:90:7c:c7:95:8e:
                    fc:fe:3f:c2:92:ac:70:fd:ea:29:5d:54:20:ec:d0:
                    3b:ad:c5:24:b7:31:3d:6e:8b:0e:39:d6:95:3d:23:
                    5d:83:89:89:05
                ASN1 OID: prime256v1
                NIST CURVE: P-256
        X509v3 extensions:
            X509v3 Key Usage: critical
                Digital Signature, Key Encipherment
            X509v3 Basic Constraints: critical
                CA:FALSE, pathlen:3
    Signature Algorithm: ecdsa-with-SHA256
         30:45:02:20:11:fa:69:f3:2a:ce:0e:0c:80:dc:ad:f2:9c:20:
         95:0c:c2:d0:13:62:09:7c:f2:79:67:67:ad:58:54:b5:04:0d:
         02:21:00:f8:7f:46:f4:0f:94:4c:64:7b:b5:59:9b:ea:05:ac:
         b3:29:bc:c3:01:27:f1:f5:73:a3:16:d0:64:37:34:4e:e7
-----BEGIN CERTIFICATE-----
MIIB8zCCAZmgAwIBAgIBOTAKBggqhkjOPQQDAjCBmTEYMBYGA1UEAwwPUmVnaW9u
ZSBBYnJ1enpvMQswCQYDVQQGEwJJVDEPMA0GA1UECAwGSXRhbGlhMRgwFgYDVQQK
DA9FLVZvdGluZyBzeXN0ZW0xIjAgBgNVBAsMGUUtVm90aW5nIHN5c3RlbSBhdXRo
b3JpdHkxITAfBgkqhkiG9w0BCQEWEkFicnV6em9AZXZvdGluZy5pdDAeFw0yMjA4
MDMxMzI4NDhaFw0yMzA4MDMxMzI4NDhaMEcxDTALBgNVBAMMBE1hcmsxCzAJBgNV
BAYTAklUMQ8wDQYDVQQIDAZJdGFsaWExGDAWBgNVBAoMD1JlZ2lvbmUgQWJydXp6
bzBZMBMGByqGSM49AgEGCCqGSM49AwEHA0IABGP4l4w8UZq9xbJSH4x0XRgxq0PI
QQ9VV5B8x5WO/P4/wpKscP3qKV1UIOzQO63FJLcxPW6LDjnWlT0jXYOJiQWjIzAh
MA4GA1UdDwEB/wQEAwIFoDAPBgNVHRMBAf8EBTADAgEDMAoGCCqGSM49BAMCA0gA
MEUCIBH6afMqzg4MgNyt8pwglQzC0BNiCXzyeWdnrVhUtQQNAiEA+H9G9A+UTGR7
tVmb6gWssym8wwEn8fVzoxbQZDc0Tuc=
-----END CERTIFICATE-----
