Certificate:
    Data:
        Version: 3 (0x2)
        Serial Number: 24 (0x18)
        Signature Algorithm: ecdsa-with-SHA256
        Issuer: CN=Regione Lombardia, C=IT, ST=Italia, O=E-Voting system, OU=E-Voting system authority/emailAddress=Lombardia@evoting.it
        Validity
            Not Before: Aug  3 13:26:54 2022 GMT
            Not After : Aug  3 13:26:54 2023 GMT
        Subject: CN=Marlene, C=IT, ST=Italia, O=Regione Lombardia
        Subject Public Key Info:
            Public Key Algorithm: id-ecPublicKey
                Public-Key: (256 bit)
                pub:
                    04:74:04:68:e5:61:3f:3a:ae:da:bc:19:18:d5:89:
                    e0:81:c6:15:e6:fd:46:0c:9e:05:8c:73:59:5a:5c:
                    6f:89:19:0a:5c:f7:70:c8:34:8b:c5:fb:4b:ef:a0:
                    1a:19:be:ef:f5:ff:9d:28:a0:4a:72:95:d2:97:27:
                    7a:8d:b9:e3:4f
                ASN1 OID: prime256v1
                NIST CURVE: P-256
        X509v3 extensions:
            X509v3 Key Usage: critical
                Digital Signature, Key Encipherment
            X509v3 Basic Constraints: critical
                CA:FALSE, pathlen:3
    Signature Algorithm: ecdsa-with-SHA256
         30:44:02:20:15:26:d0:b3:a1:d8:b6:7a:e9:99:d9:93:cd:a4:
         11:bc:89:35:9c:1d:4e:68:b7:d1:4b:1d:26:f4:7c:7d:49:9e:
         02:20:0a:9b:fb:61:c2:7d:be:35:78:e1:96:17:b6:67:a3:8e:
         5c:dc:e6:70:16:fe:96:59:ec:40:93:17:3f:12:47:76
-----BEGIN CERTIFICATE-----
MIIB+zCCAaKgAwIBAgIBGDAKBggqhkjOPQQDAjCBnTEaMBgGA1UEAwwRUmVnaW9u
ZSBMb21iYXJkaWExCzAJBgNVBAYTAklUMQ8wDQYDVQQIDAZJdGFsaWExGDAWBgNV
BAoMD0UtVm90aW5nIHN5c3RlbTEiMCAGA1UECwwZRS1Wb3Rpbmcgc3lzdGVtIGF1
dGhvcml0eTEjMCEGCSqGSIb3DQEJARYUTG9tYmFyZGlhQGV2b3RpbmcuaXQwHhcN
MjIwODAzMTMyNjU0WhcNMjMwODAzMTMyNjU0WjBMMRAwDgYDVQQDDAdNYXJsZW5l
MQswCQYDVQQGEwJJVDEPMA0GA1UECAwGSXRhbGlhMRowGAYDVQQKDBFSZWdpb25l
IExvbWJhcmRpYTBZMBMGByqGSM49AgEGCCqGSM49AwEHA0IABHQEaOVhPzqu2rwZ
GNWJ4IHGFeb9RgyeBYxzWVpcb4kZClz3cMg0i8X7S++gGhm+7/X/nSigSnKV0pcn
eo2540+jIzAhMA4GA1UdDwEB/wQEAwIFoDAPBgNVHRMBAf8EBTADAgEDMAoGCCqG
SM49BAMCA0cAMEQCIBUm0LOh2LZ66ZnZk82kEbyJNZwdTmi30UsdJvR8fUmeAiAK
m/thwn2+NXjhlhe2Z6OOXNzmcBb+llnsQJMXPxJHdg==
-----END CERTIFICATE-----
