Certificate:
    Data:
        Version: 3 (0x2)
        Serial Number: 19 (0x13)
        Signature Algorithm: ecdsa-with-SHA256
        Issuer: CN=Regione Lazio, C=IT, ST=Italia, O=E-Voting system, OU=E-Voting system authority/emailAddress=Lazio@evoting.it
        Validity
            Not Before: Aug  3 13:26:20 2022 GMT
            Not After : Aug  3 13:26:20 2023 GMT
        Subject: CN=Marnie, C=IT, ST=Italia, O=Regione Lazio
        Subject Public Key Info:
            Public Key Algorithm: id-ecPublicKey
                Public-Key: (256 bit)
                pub:
                    04:11:cb:ff:d4:f4:e3:b5:1f:e2:d4:f9:e1:45:23:
                    90:a0:83:c9:18:5c:43:88:f8:d0:03:70:e0:88:7a:
                    b2:3d:d6:9d:76:5b:8d:5d:c7:e6:09:8d:6a:7b:03:
                    0f:40:86:4e:e2:3c:15:00:ed:2e:29:85:6d:f2:22:
                    cb:55:7a:2a:ff
                ASN1 OID: prime256v1
                NIST CURVE: P-256
        X509v3 extensions:
            X509v3 Key Usage: critical
                Digital Signature, Key Encipherment
            X509v3 Basic Constraints: critical
                CA:FALSE, pathlen:3
    Signature Algorithm: ecdsa-with-SHA256
         30:46:02:21:00:fd:cc:ed:d6:51:76:ac:26:8f:2d:9e:5f:a0:
         ef:c0:26:b3:b8:c8:96:ef:75:d7:73:0e:a5:cb:32:ed:60:ee:
         9a:02:21:00:c5:7a:be:6b:06:e7:af:c8:a3:7f:8f:79:6e:68:
         23:ba:80:eb:f0:8f:b5:9b:00:03:30:f0:87:d9:ba:40:94:71
-----BEGIN CERTIFICATE-----
MIIB8DCCAZWgAwIBAgIBEzAKBggqhkjOPQQDAjCBlTEWMBQGA1UEAwwNUmVnaW9u
ZSBMYXppbzELMAkGA1UEBhMCSVQxDzANBgNVBAgMBkl0YWxpYTEYMBYGA1UECgwP
RS1Wb3Rpbmcgc3lzdGVtMSIwIAYDVQQLDBlFLVZvdGluZyBzeXN0ZW0gYXV0aG9y
aXR5MR8wHQYJKoZIhvcNAQkBFhBMYXppb0Bldm90aW5nLml0MB4XDTIyMDgwMzEz
MjYyMFoXDTIzMDgwMzEzMjYyMFowRzEPMA0GA1UEAwwGTWFybmllMQswCQYDVQQG
EwJJVDEPMA0GA1UECAwGSXRhbGlhMRYwFAYDVQQKDA1SZWdpb25lIExhemlvMFkw
EwYHKoZIzj0CAQYIKoZIzj0DAQcDQgAEEcv/1PTjtR/i1PnhRSOQoIPJGFxDiPjQ
A3DgiHqyPdaddluNXcfmCY1qewMPQIZO4jwVAO0uKYVt8iLLVXoq/6MjMCEwDgYD
VR0PAQH/BAQDAgWgMA8GA1UdEwEB/wQFMAMCAQMwCgYIKoZIzj0EAwIDSQAwRgIh
AP3M7dZRdqwmjy2eX6DvwCazuMiW73XXcw6lyzLtYO6aAiEAxXq+awbnr8ijf495
bmgjuoDr8I+1mwADMPCH2bpAlHE=
-----END CERTIFICATE-----
