Certificate:
    Data:
        Version: 3 (0x2)
        Serial Number: 19 (0x13)
        Signature Algorithm: ecdsa-with-SHA256
        Issuer: CN=Regione Molise, C=IT, ST=Italia, O=E-Voting system, OU=E-Voting system authority/emailAddress=Molise@evoting.it
        Validity
            Not Before: Aug 26 15:20:03 2022 GMT
            Not After : Aug 26 15:20:03 2023 GMT
        Subject: CN=Marshall, C=IT, ST=Italia, O=Regione Molise
        Subject Public Key Info:
            Public Key Algorithm: id-ecPublicKey
                Public-Key: (256 bit)
                pub:
                    04:4d:95:2a:11:de:39:59:3a:93:c7:27:52:7a:d3:
                    b2:b0:33:fd:5e:f5:5b:28:59:61:02:45:d0:d2:a1:
                    69:47:1b:44:67:3e:3a:0c:b3:85:7d:34:18:91:08:
                    e9:a5:e5:18:69:93:4d:24:a3:50:e1:6e:52:7c:8a:
                    27:a3:f0:e4:71
                ASN1 OID: secp256k1
        X509v3 extensions:
            X509v3 Key Usage: critical
                Digital Signature, Key Encipherment
            X509v3 Basic Constraints: critical
                CA:FALSE, pathlen:3
    Signature Algorithm: ecdsa-with-SHA256
         30:45:02:20:70:4d:ca:77:58:39:c5:3f:76:ab:c6:df:48:22:
         69:d2:8a:b4:02:04:1c:1b:9b:eb:90:c9:7e:3a:6f:25:fd:da:
         02:21:00:ce:3b:f1:9d:75:ee:81:15:74:90:a7:ce:ec:09:61:
         b2:68:4a:12:cc:7e:ba:d3:fd:17:34:ab:85:33:5d:95:88
-----BEGIN CERTIFICATE-----
MIIB8TCCAZegAwIBAgIBEzAKBggqhkjOPQQDAjCBlzEXMBUGA1UEAwwOUmVnaW9u
ZSBNb2xpc2UxCzAJBgNVBAYTAklUMQ8wDQYDVQQIDAZJdGFsaWExGDAWBgNVBAoM
D0UtVm90aW5nIHN5c3RlbTEiMCAGA1UECwwZRS1Wb3Rpbmcgc3lzdGVtIGF1dGhv
cml0eTEgMB4GCSqGSIb3DQEJARYRTW9saXNlQGV2b3RpbmcuaXQwHhcNMjIwODI2
MTUyMDAzWhcNMjMwODI2MTUyMDAzWjBKMREwDwYDVQQDDAhNYXJzaGFsbDELMAkG
A1UEBhMCSVQxDzANBgNVBAgMBkl0YWxpYTEXMBUGA1UECgwOUmVnaW9uZSBNb2xp
c2UwVjAQBgcqhkjOPQIBBgUrgQQACgNCAARNlSoR3jlZOpPHJ1J607KwM/1e9Vso
WWECRdDSoWlHG0RnPjoMs4V9NBiRCOml5Rhpk00ko1DhblJ8iiej8ORxoyMwITAO
BgNVHQ8BAf8EBAMCBaAwDwYDVR0TAQH/BAUwAwIBAzAKBggqhkjOPQQDAgNIADBF
AiBwTcp3WDnFP3arxt9IImnSirQCBBwbm+uQyX46byX92gIhAM478Z117oEVdJCn
zuwJYbJoShLMfrrT/Rc0q4UzXZWI
-----END CERTIFICATE-----
