Certificate:
    Data:
        Version: 3 (0x2)
        Serial Number: 28 (0x1c)
        Signature Algorithm: ecdsa-with-SHA256
        Issuer: CN=Regione Lazio, C=IT, ST=Italia, O=E-Voting system, OU=E-Voting system authority/emailAddress=Lazio@evoting.it
        Validity
            Not Before: Aug  3 13:27:05 2022 GMT
            Not After : Aug  3 13:27:05 2023 GMT
        Subject: CN=Marsha, C=IT, ST=Italia, O=Regione Lazio
        Subject Public Key Info:
            Public Key Algorithm: id-ecPublicKey
                Public-Key: (256 bit)
                pub:
                    04:05:82:84:88:cc:9d:d6:25:a7:9e:ae:b3:53:d4:
                    32:cf:99:ca:c9:27:6a:7f:84:2e:0d:1a:25:54:77:
                    df:06:b4:85:81:b6:93:79:8e:3e:55:d1:1a:5e:9a:
                    ef:18:7a:43:0f:7d:59:8e:4b:2f:3b:00:23:df:8d:
                    ea:2a:53:30:4f
                ASN1 OID: prime256v1
                NIST CURVE: P-256
        X509v3 extensions:
            X509v3 Key Usage: critical
                Digital Signature, Key Encipherment
            X509v3 Basic Constraints: critical
                CA:FALSE, pathlen:3
    Signature Algorithm: ecdsa-with-SHA256
         30:46:02:21:00:dd:c3:d5:d3:00:a5:13:aa:01:7d:7e:5d:a6:
         6c:09:98:5b:b6:50:f2:0c:da:f3:67:fc:5d:d3:83:47:2e:84:
         d6:02:21:00:9a:85:7f:02:be:b0:b3:b2:90:38:d9:40:8a:66:
         cb:ae:f8:f7:c0:66:d1:3c:7a:19:87:86:50:10:a5:e6:e4:de
-----BEGIN CERTIFICATE-----
MIIB8DCCAZWgAwIBAgIBHDAKBggqhkjOPQQDAjCBlTEWMBQGA1UEAwwNUmVnaW9u
ZSBMYXppbzELMAkGA1UEBhMCSVQxDzANBgNVBAgMBkl0YWxpYTEYMBYGA1UECgwP
RS1Wb3Rpbmcgc3lzdGVtMSIwIAYDVQQLDBlFLVZvdGluZyBzeXN0ZW0gYXV0aG9y
aXR5MR8wHQYJKoZIhvcNAQkBFhBMYXppb0Bldm90aW5nLml0MB4XDTIyMDgwMzEz
MjcwNVoXDTIzMDgwMzEzMjcwNVowRzEPMA0GA1UEAwwGTWFyc2hhMQswCQYDVQQG
EwJJVDEPMA0GA1UECAwGSXRhbGlhMRYwFAYDVQQKDA1SZWdpb25lIExhemlvMFkw
EwYHKoZIzj0CAQYIKoZIzj0DAQcDQgAEBYKEiMyd1iWnnq6zU9Qyz5nKySdqf4Qu
DRolVHffBrSFgbaTeY4+VdEaXprvGHpDD31ZjksvOwAj343qKlMwT6MjMCEwDgYD
VR0PAQH/BAQDAgWgMA8GA1UdEwEB/wQFMAMCAQMwCgYIKoZIzj0EAwIDSQAwRgIh
AN3D1dMApROqAX1+XaZsCZhbtlDyDNrzZ/xd04NHLoTWAiEAmoV/Ar6ws7KQONlA
imbLrvj3wGbRPHoZh4ZQEKXm5N4=
-----END CERTIFICATE-----
