Certificate:
    Data:
        Version: 3 (0x2)
        Serial Number: 22 (0x16)
        Signature Algorithm: ecdsa-with-SHA256
        Issuer: CN=Regione Trentino_Alto_Adige, C=IT, ST=Italia, O=E-Voting system, OU=E-Voting system authority/emailAddress=Trentino_Alto_Adige@evoting.it
        Validity
            Not Before: Aug 26 15:19:56 2022 GMT
            Not After : Aug 26 15:19:56 2023 GMT
        Subject: CN=Martha, C=IT, ST=Italia, O=Regione Trentino_Alto_Adige
        Subject Public Key Info:
            Public Key Algorithm: id-ecPublicKey
                Public-Key: (256 bit)
                pub:
                    04:85:92:1e:d4:66:27:0f:47:1f:c2:f3:5b:79:b0:
                    8b:60:cd:bf:2e:b1:79:a9:c5:c9:36:25:b8:d6:91:
                    bb:9e:fa:6e:8a:d7:22:e4:9f:d5:25:00:3d:ce:09:
                    1d:75:31:77:8c:1d:5d:32:76:b1:4f:e2:7e:3a:7b:
                    ca:fd:7b:00:2d
                ASN1 OID: secp256k1
        X509v3 extensions:
            X509v3 Key Usage: critical
                Digital Signature, Key Encipherment
            X509v3 Basic Constraints: critical
                CA:FALSE, pathlen:3
    Signature Algorithm: ecdsa-with-SHA256
         30:44:02:20:12:ab:8b:6b:aa:2e:e8:d5:f2:4f:2a:97:91:f2:
         4f:86:74:b3:5f:54:f4:e3:7f:8f:1b:96:d6:61:47:15:02:b5:
         02:20:39:86:ed:08:22:d8:f8:9c:c5:94:70:33:d7:ef:62:a1:
         8d:17:e9:ad:89:7c:a3:76:4f:30:71:c2:68:25:4d:d3
-----BEGIN CERTIFICATE-----
MIICFTCCAbygAwIBAgIBFjAKBggqhkjOPQQDAjCBsTEkMCIGA1UEAwwbUmVnaW9u
ZSBUcmVudGlub19BbHRvX0FkaWdlMQswCQYDVQQGEwJJVDEPMA0GA1UECAwGSXRh
bGlhMRgwFgYDVQQKDA9FLVZvdGluZyBzeXN0ZW0xIjAgBgNVBAsMGUUtVm90aW5n
IHN5c3RlbSBhdXRob3JpdHkxLTArBgkqhkiG9w0BCQEWHlRyZW50aW5vX0FsdG9f
QWRpZ2VAZXZvdGluZy5pdDAeFw0yMjA4MjYxNTE5NTZaFw0yMzA4MjYxNTE5NTZa
MFUxDzANBgNVBAMMBk1hcnRoYTELMAkGA1UEBhMCSVQxDzANBgNVBAgMBkl0YWxp
YTEkMCIGA1UECgwbUmVnaW9uZSBUcmVudGlub19BbHRvX0FkaWdlMFYwEAYHKoZI
zj0CAQYFK4EEAAoDQgAEhZIe1GYnD0cfwvNbebCLYM2/LrF5qcXJNiW41pG7nvpu
itci5J/VJQA9zgkddTF3jB1dMnaxT+J+OnvK/XsALaMjMCEwDgYDVR0PAQH/BAQD
AgWgMA8GA1UdEwEB/wQFMAMCAQMwCgYIKoZIzj0EAwIDRwAwRAIgEquLa6ou6NXy
TyqXkfJPhnSzX1T043+PG5bWYUcVArUCIDmG7Qgi2PicxZRwM9fvYqGNF+mtiXyj
dk8wccJoJU3T
-----END CERTIFICATE-----
