Certificate:
    Data:
        Version: 3 (0x2)
        Serial Number: 38 (0x26)
        Signature Algorithm: ecdsa-with-SHA256
        Issuer: CN=Regione Puglia, C=IT, ST=Italia, O=E-Voting system, OU=E-Voting system authority/emailAddress=Puglia@evoting.it
        Validity
            Not Before: Aug 26 15:20:57 2022 GMT
            Not After : Aug 26 15:20:57 2023 GMT
        Subject: CN=Marta, C=IT, ST=Italia, O=Regione Puglia
        Subject Public Key Info:
            Public Key Algorithm: id-ecPublicKey
                Public-Key: (256 bit)
                pub:
                    04:a0:c4:1c:5a:8c:04:54:9b:93:d5:ae:21:b2:a2:
                    b8:bd:43:ff:e2:6f:17:af:32:25:3a:46:51:e2:3d:
                    bf:68:72:9d:7d:c4:7d:1d:0b:94:3c:d6:fa:0f:89:
                    22:f3:7f:4e:53:46:f9:49:53:df:53:bb:fb:70:94:
                    29:da:73:7b:9b
                ASN1 OID: secp256k1
        X509v3 extensions:
            X509v3 Key Usage: critical
                Digital Signature, Key Encipherment
            X509v3 Basic Constraints: critical
                CA:FALSE, pathlen:3
    Signature Algorithm: ecdsa-with-SHA256
         30:46:02:21:00:96:e1:3a:15:80:85:57:b9:84:77:16:f1:4a:
         c2:ce:e3:be:66:7f:df:a7:c7:fe:06:be:65:dc:5b:53:9e:e7:
         1d:02:21:00:c9:96:86:12:44:43:71:99:76:10:6e:7f:87:66:
         0b:bd:83:b7:fa:98:7c:45:06:f5:46:8e:46:6c:5f:1a:03:7b
-----BEGIN CERTIFICATE-----
MIIB7zCCAZSgAwIBAgIBJjAKBggqhkjOPQQDAjCBlzEXMBUGA1UEAwwOUmVnaW9u
ZSBQdWdsaWExCzAJBgNVBAYTAklUMQ8wDQYDVQQIDAZJdGFsaWExGDAWBgNVBAoM
D0UtVm90aW5nIHN5c3RlbTEiMCAGA1UECwwZRS1Wb3Rpbmcgc3lzdGVtIGF1dGhv
cml0eTEgMB4GCSqGSIb3DQEJARYRUHVnbGlhQGV2b3RpbmcuaXQwHhcNMjIwODI2
MTUyMDU3WhcNMjMwODI2MTUyMDU3WjBHMQ4wDAYDVQQDDAVNYXJ0YTELMAkGA1UE
BhMCSVQxDzANBgNVBAgMBkl0YWxpYTEXMBUGA1UECgwOUmVnaW9uZSBQdWdsaWEw
VjAQBgcqhkjOPQIBBgUrgQQACgNCAASgxBxajARUm5PVriGyori9Q//ibxevMiU6
RlHiPb9ocp19xH0dC5Q81voPiSLzf05TRvlJU99Tu/twlCnac3uboyMwITAOBgNV
HQ8BAf8EBAMCBaAwDwYDVR0TAQH/BAUwAwIBAzAKBggqhkjOPQQDAgNJADBGAiEA
luE6FYCFV7mEdxbxSsLO475mf9+nx/4GvmXcW1Oe5x0CIQDJloYSRENxmXYQbn+H
Zgu9g7f6mHxFBvVGjkZsXxoDew==
-----END CERTIFICATE-----
