Certificate:
    Data:
        Version: 3 (0x2)
        Serial Number: 50 (0x32)
        Signature Algorithm: ecdsa-with-SHA256
        Issuer: CN=Regione Lombardia, C=IT, ST=Italia, O=E-Voting system, OU=E-Voting system authority/emailAddress=Lombardia@evoting.it
        Validity
            Not Before: Aug 26 15:21:25 2022 GMT
            Not After : Aug 26 15:21:25 2023 GMT
        Subject: CN=Martin, C=IT, ST=Italia, O=Regione Lombardia
        Subject Public Key Info:
            Public Key Algorithm: id-ecPublicKey
                Public-Key: (256 bit)
                pub:
                    04:d8:ab:7d:cb:9e:4f:6b:7e:29:db:72:9c:58:f6:
                    86:fc:aa:21:3b:a5:ea:df:23:17:f7:98:30:73:36:
                    d6:5f:42:51:bf:3b:2d:01:aa:fa:5f:35:aa:b9:a5:
                    b0:4a:30:b2:b9:56:47:42:fb:81:87:9f:0d:c4:a4:
                    da:61:9f:82:9f
                ASN1 OID: secp256k1
        X509v3 extensions:
            X509v3 Key Usage: critical
                Digital Signature, Key Encipherment
            X509v3 Basic Constraints: critical
                CA:FALSE, pathlen:3
    Signature Algorithm: ecdsa-with-SHA256
         30:45:02:20:64:cc:0c:d5:ad:aa:38:b0:98:d1:5b:07:5e:52:
         45:ce:ec:5e:ef:3a:41:ff:fa:1e:c1:18:dc:f5:09:d2:bf:7b:
         02:21:00:94:42:0c:9e:db:37:9b:dc:05:76:ec:f1:9d:90:f2:
         2e:90:c6:d6:2f:25:bd:79:1c:f1:1a:d3:31:1c:e5:e5:b0
-----BEGIN CERTIFICATE-----
MIIB+DCCAZ6gAwIBAgIBMjAKBggqhkjOPQQDAjCBnTEaMBgGA1UEAwwRUmVnaW9u
ZSBMb21iYXJkaWExCzAJBgNVBAYTAklUMQ8wDQYDVQQIDAZJdGFsaWExGDAWBgNV
BAoMD0UtVm90aW5nIHN5c3RlbTEiMCAGA1UECwwZRS1Wb3Rpbmcgc3lzdGVtIGF1
dGhvcml0eTEjMCEGCSqGSIb3DQEJARYUTG9tYmFyZGlhQGV2b3RpbmcuaXQwHhcN
MjIwODI2MTUyMTI1WhcNMjMwODI2MTUyMTI1WjBLMQ8wDQYDVQQDDAZNYXJ0aW4x
CzAJBgNVBAYTAklUMQ8wDQYDVQQIDAZJdGFsaWExGjAYBgNVBAoMEVJlZ2lvbmUg
TG9tYmFyZGlhMFYwEAYHKoZIzj0CAQYFK4EEAAoDQgAE2Kt9y55Pa34p23KcWPaG
/KohO6Xq3yMX95gwczbWX0JRvzstAar6XzWquaWwSjCyuVZHQvuBh58NxKTaYZ+C
n6MjMCEwDgYDVR0PAQH/BAQDAgWgMA8GA1UdEwEB/wQFMAMCAQMwCgYIKoZIzj0E
AwIDSAAwRQIgZMwM1a2qOLCY0VsHXlJFzuxe7zpB//oewRjc9QnSv3sCIQCUQgye
2zeb3AV27PGdkPIukMbWLyW9eRzxGtMxHOXlsA==
-----END CERTIFICATE-----
