Certificate:
    Data:
        Version: 3 (0x2)
        Serial Number: 49 (0x31)
        Signature Algorithm: ecdsa-with-SHA256
        Issuer: CN=Regione Lazio, C=IT, ST=Italia, O=E-Voting system, OU=E-Voting system authority/emailAddress=Lazio@evoting.it
        Validity
            Not Before: Aug 26 15:21:46 2022 GMT
            Not After : Aug 26 15:21:46 2023 GMT
        Subject: CN=Marvin, C=IT, ST=Italia, O=Regione Lazio
        Subject Public Key Info:
            Public Key Algorithm: id-ecPublicKey
                Public-Key: (256 bit)
                pub:
                    04:e2:d8:b1:1f:de:fd:1d:d2:1a:ee:cd:95:6e:b5:
                    c1:dc:05:6c:79:43:7c:63:d3:af:f7:30:f6:7f:38:
                    a4:5f:fd:94:1b:a3:5d:29:33:bc:7c:c8:5d:c5:4d:
                    78:b9:77:8e:75:fa:9a:d0:c0:2e:d2:ea:19:e5:0a:
                    b4:bd:66:08:c4
                ASN1 OID: secp256k1
        X509v3 extensions:
            X509v3 Key Usage: critical
                Digital Signature, Key Encipherment
            X509v3 Basic Constraints: critical
                CA:FALSE, pathlen:3
    Signature Algorithm: ecdsa-with-SHA256
         30:45:02:20:23:b1:63:cc:f3:42:16:49:68:26:9d:fa:4d:fa:
         d7:9e:00:b2:b0:91:a1:ef:94:ec:34:01:50:27:8f:78:50:cf:
         02:21:00:d2:0a:f5:49:ad:47:d4:54:3a:fc:f4:bd:20:26:1d:
         58:ad:c4:4d:9e:bd:92:34:9a:45:30:e5:0a:ae:e7:a8:4b
-----BEGIN CERTIFICATE-----
MIIB7DCCAZKgAwIBAgIBMTAKBggqhkjOPQQDAjCBlTEWMBQGA1UEAwwNUmVnaW9u
ZSBMYXppbzELMAkGA1UEBhMCSVQxDzANBgNVBAgMBkl0YWxpYTEYMBYGA1UECgwP
RS1Wb3Rpbmcgc3lzdGVtMSIwIAYDVQQLDBlFLVZvdGluZyBzeXN0ZW0gYXV0aG9y
aXR5MR8wHQYJKoZIhvcNAQkBFhBMYXppb0Bldm90aW5nLml0MB4XDTIyMDgyNjE1
MjE0NloXDTIzMDgyNjE1MjE0NlowRzEPMA0GA1UEAwwGTWFydmluMQswCQYDVQQG
EwJJVDEPMA0GA1UECAwGSXRhbGlhMRYwFAYDVQQKDA1SZWdpb25lIExhemlvMFYw
EAYHKoZIzj0CAQYFK4EEAAoDQgAE4tixH979HdIa7s2VbrXB3AVseUN8Y9Ov9zD2
fzikX/2UG6NdKTO8fMhdxU14uXeOdfqa0MAu0uoZ5Qq0vWYIxKMjMCEwDgYDVR0P
AQH/BAQDAgWgMA8GA1UdEwEB/wQFMAMCAQMwCgYIKoZIzj0EAwIDSAAwRQIgI7Fj
zPNCFkloJp36TfrXngCysJGh75TsNAFQJ494UM8CIQDSCvVJrUfUVDr89L0gJh1Y
rcRNnr2SNJpFMOUKrueoSw==
-----END CERTIFICATE-----
