Certificate:
    Data:
        Version: 3 (0x2)
        Serial Number: 64 (0x40)
        Signature Algorithm: ecdsa-with-SHA256
        Issuer: CN=Regione Piemonte, C=IT, ST=Italia, O=E-Voting system, OU=E-Voting system authority/emailAddress=Piemonte@evoting.it
        Validity
            Not Before: Aug  3 13:28:23 2022 GMT
            Not After : Aug  3 13:28:23 2023 GMT
        Subject: CN=Mary, C=IT, ST=Italia, O=Regione Piemonte
        Subject Public Key Info:
            Public Key Algorithm: id-ecPublicKey
                Public-Key: (256 bit)
                pub:
                    04:ff:c7:bc:0d:b6:79:92:2b:57:dc:7b:61:61:83:
                    5b:81:cf:7f:80:1a:cb:e9:2f:a6:7b:ec:6e:59:3a:
                    3e:01:68:00:46:ac:fc:35:75:07:76:07:60:4c:de:
                    df:10:65:7f:05:4c:e9:a9:3e:bf:38:88:b7:86:51:
                    f9:0a:64:b6:4c
                ASN1 OID: prime256v1
                NIST CURVE: P-256
        X509v3 extensions:
            X509v3 Key Usage: critical
                Digital Signature, Key Encipherment
            X509v3 Basic Constraints: critical
                CA:FALSE, pathlen:3
    Signature Algorithm: ecdsa-with-SHA256
         30:45:02:20:0a:b1:28:50:19:35:e7:8c:0b:f0:fe:51:44:da:
         6d:94:fe:c6:57:0d:2e:ee:35:c3:93:43:2b:03:d5:f9:50:e1:
         02:21:00:a3:95:61:73:95:20:9d:73:cb:ae:61:d4:0e:32:20:
         6f:33:01:ac:ef:7f:eb:43:35:8b:85:48:6b:c3:cb:f3:96
-----BEGIN CERTIFICATE-----
MIIB9jCCAZygAwIBAgIBQDAKBggqhkjOPQQDAjCBmzEZMBcGA1UEAwwQUmVnaW9u
ZSBQaWVtb250ZTELMAkGA1UEBhMCSVQxDzANBgNVBAgMBkl0YWxpYTEYMBYGA1UE
CgwPRS1Wb3Rpbmcgc3lzdGVtMSIwIAYDVQQLDBlFLVZvdGluZyBzeXN0ZW0gYXV0
aG9yaXR5MSIwIAYJKoZIhvcNAQkBFhNQaWVtb250ZUBldm90aW5nLml0MB4XDTIy
MDgwMzEzMjgyM1oXDTIzMDgwMzEzMjgyM1owSDENMAsGA1UEAwwETWFyeTELMAkG
A1UEBhMCSVQxDzANBgNVBAgMBkl0YWxpYTEZMBcGA1UECgwQUmVnaW9uZSBQaWVt
b250ZTBZMBMGByqGSM49AgEGCCqGSM49AwEHA0IABP/HvA22eZIrV9x7YWGDW4HP
f4Aay+kvpnvsblk6PgFoAEas/DV1B3YHYEze3xBlfwVM6ak+vziIt4ZR+Qpktkyj
IzAhMA4GA1UdDwEB/wQEAwIFoDAPBgNVHRMBAf8EBTADAgEDMAoGCCqGSM49BAMC
A0gAMEUCIAqxKFAZNeeMC/D+UUTabZT+xlcNLu41w5NDKwPV+VDhAiEAo5Vhc5Ug
nXPLrmHUDjIgbzMBrO9/60M1i4VIa8PL85Y=
-----END CERTIFICATE-----
