Certificate:
    Data:
        Version: 3 (0x2)
        Serial Number: 17 (0x11)
        Signature Algorithm: ecdsa-with-SHA256
        Issuer: CN=Regione Toscana, C=IT, ST=Italia, O=E-Voting system, OU=E-Voting system authority/emailAddress=Toscana@evoting.it
        Validity
            Not Before: Aug 26 15:19:47 2022 GMT
            Not After : Aug 26 15:19:47 2023 GMT
        Subject: CN=Mary, C=IT, ST=Italia, O=Regione Toscana
        Subject Public Key Info:
            Public Key Algorithm: id-ecPublicKey
                Public-Key: (256 bit)
                pub:
                    04:4c:30:30:81:00:71:91:41:2f:b5:15:69:d8:d1:
                    b1:0a:07:93:83:78:30:1b:1c:47:09:99:68:f3:6d:
                    65:18:57:0d:86:6a:90:b2:fb:5a:eb:71:c5:69:b7:
                    db:32:fb:49:1d:93:65:a8:71:d0:e4:cd:42:ad:c4:
                    6b:f7:5d:10:6f
                ASN1 OID: secp256k1
        X509v3 extensions:
            X509v3 Key Usage: critical
                Digital Signature, Key Encipherment
            X509v3 Basic Constraints: critical
                CA:FALSE, pathlen:3
    Signature Algorithm: ecdsa-with-SHA256
         30:46:02:21:00:d3:18:37:b1:37:76:c2:6f:ac:47:4a:b0:d9:
         7c:dd:88:21:55:cd:42:19:7b:70:22:90:c2:71:b3:cc:f2:21:
         d5:02:21:00:e7:dc:b3:59:ea:97:88:f0:ed:13:f1:79:63:cb:
         fc:0c:fa:f7:93:ec:b6:e9:2e:8d:96:6d:15:a5:20:e2:c1:95
-----BEGIN CERTIFICATE-----
MIIB8TCCAZagAwIBAgIBETAKBggqhkjOPQQDAjCBmTEYMBYGA1UEAwwPUmVnaW9u
ZSBUb3NjYW5hMQswCQYDVQQGEwJJVDEPMA0GA1UECAwGSXRhbGlhMRgwFgYDVQQK
DA9FLVZvdGluZyBzeXN0ZW0xIjAgBgNVBAsMGUUtVm90aW5nIHN5c3RlbSBhdXRo
b3JpdHkxITAfBgkqhkiG9w0BCQEWElRvc2NhbmFAZXZvdGluZy5pdDAeFw0yMjA4
MjYxNTE5NDdaFw0yMzA4MjYxNTE5NDdaMEcxDTALBgNVBAMMBE1hcnkxCzAJBgNV
BAYTAklUMQ8wDQYDVQQIDAZJdGFsaWExGDAWBgNVBAoMD1JlZ2lvbmUgVG9zY2Fu
YTBWMBAGByqGSM49AgEGBSuBBAAKA0IABEwwMIEAcZFBL7UVadjRsQoHk4N4MBsc
RwmZaPNtZRhXDYZqkLL7WutxxWm32zL7SR2TZahx0OTNQq3Ea/ddEG+jIzAhMA4G
A1UdDwEB/wQEAwIFoDAPBgNVHRMBAf8EBTADAgEDMAoGCCqGSM49BAMCA0kAMEYC
IQDTGDexN3bCb6xHSrDZfN2IIVXNQhl7cCKQwnGzzPIh1QIhAOfcs1nql4jw7RPx
eWPL/Az695PstukujZZtFaUg4sGV
-----END CERTIFICATE-----
