Certificate:
    Data:
        Version: 3 (0x2)
        Serial Number: 43 (0x2b)
        Signature Algorithm: ecdsa-with-SHA256
        Issuer: CN=Regione Trentino_Alto_Adige, C=IT, ST=Italia, O=E-Voting system, OU=E-Voting system authority/emailAddress=Trentino_Alto_Adige@evoting.it
        Validity
            Not Before: Aug 26 15:21:07 2022 GMT
            Not After : Aug 26 15:21:07 2023 GMT
        Subject: CN=Marylyn, C=IT, ST=Italia, O=Regione Trentino_Alto_Adige
        Subject Public Key Info:
            Public Key Algorithm: id-ecPublicKey
                Public-Key: (256 bit)
                pub:
                    04:fd:b8:8d:0a:a9:97:12:ef:cd:11:67:1f:7c:5b:
                    ef:61:f4:8a:19:ac:bc:40:29:9e:98:f6:c4:9e:f8:
                    f6:da:56:24:b6:b5:72:af:a6:d8:0f:67:e4:b6:cf:
                    1d:0c:63:13:45:d2:d9:58:ff:b5:c2:13:91:8b:9b:
                    88:88:47:98:35
                ASN1 OID: secp256k1
        X509v3 extensions:
            X509v3 Key Usage: critical
                Digital Signature, Key Encipherment
            X509v3 Basic Constraints: critical
                CA:FALSE, pathlen:3
    Signature Algorithm: ecdsa-with-SHA256
         30:45:02:20:56:2e:cf:4e:5c:61:76:63:86:7c:f8:5e:d2:58:
         ac:d6:93:9b:b9:42:98:58:bc:6d:2b:5e:c3:d7:7d:2a:bf:40:
         02:21:00:ac:b5:ad:35:bb:e6:e0:ff:4f:ab:59:29:91:b6:18:
         9f:48:94:a3:d9:a2:61:06:0d:52:80:09:29:46:7f:21:3a
-----BEGIN CERTIFICATE-----
MIICFzCCAb2gAwIBAgIBKzAKBggqhkjOPQQDAjCBsTEkMCIGA1UEAwwbUmVnaW9u
ZSBUcmVudGlub19BbHRvX0FkaWdlMQswCQYDVQQGEwJJVDEPMA0GA1UECAwGSXRh
bGlhMRgwFgYDVQQKDA9FLVZvdGluZyBzeXN0ZW0xIjAgBgNVBAsMGUUtVm90aW5n
IHN5c3RlbSBhdXRob3JpdHkxLTArBgkqhkiG9w0BCQEWHlRyZW50aW5vX0FsdG9f
QWRpZ2VAZXZvdGluZy5pdDAeFw0yMjA4MjYxNTIxMDdaFw0yMzA4MjYxNTIxMDda
MFYxEDAOBgNVBAMMB01hcnlseW4xCzAJBgNVBAYTAklUMQ8wDQYDVQQIDAZJdGFs
aWExJDAiBgNVBAoMG1JlZ2lvbmUgVHJlbnRpbm9fQWx0b19BZGlnZTBWMBAGByqG
SM49AgEGBSuBBAAKA0IABP24jQqplxLvzRFnH3xb72H0ihmsvEApnpj2xJ749tpW
JLa1cq+m2A9n5LbPHQxjE0XS2Vj/tcITkYubiIhHmDWjIzAhMA4GA1UdDwEB/wQE
AwIFoDAPBgNVHRMBAf8EBTADAgEDMAoGCCqGSM49BAMCA0gAMEUCIFYuz05cYXZj
hnz4XtJYrNaTm7lCmFi8bStew9d9Kr9AAiEArLWtNbvm4P9Pq1kpkbYYn0iUo9mi
YQYNUoAJKUZ/ITo=
-----END CERTIFICATE-----
