Certificate:
    Data:
        Version: 3 (0x2)
        Serial Number: 46 (0x2e)
        Signature Algorithm: ecdsa-with-SHA256
        Issuer: CN=Regione Veneto, C=IT, ST=Italia, O=E-Voting system, OU=E-Voting system authority/emailAddress=Veneto@evoting.it
        Validity
            Not Before: Aug  3 13:28:29 2022 GMT
            Not After : Aug  3 13:28:29 2023 GMT
        Subject: CN=Mason, C=IT, ST=Italia, O=Regione Veneto
        Subject Public Key Info:
            Public Key Algorithm: id-ecPublicKey
                Public-Key: (256 bit)
                pub:
                    04:45:b1:3b:b5:43:31:8c:84:e8:7f:88:e1:89:38:
                    c9:f6:7c:38:34:35:d9:c8:48:a2:bf:0a:f9:09:df:
                    cb:62:ad:07:b6:9b:93:1e:ec:bd:81:e3:d8:8e:55:
                    bd:c7:fa:b1:23:6a:97:e2:b7:dc:af:1e:c6:4b:f1:
                    b8:14:02:54:22
                ASN1 OID: prime256v1
                NIST CURVE: P-256
        X509v3 extensions:
            X509v3 Key Usage: critical
                Digital Signature, Key Encipherment
            X509v3 Basic Constraints: critical
                CA:FALSE, pathlen:3
    Signature Algorithm: ecdsa-with-SHA256
         30:45:02:20:60:e5:73:80:59:9b:28:09:71:6e:d5:e7:5b:bf:
         9a:80:32:7a:d7:5c:0f:bb:17:28:6f:16:a6:16:20:04:c1:a9:
         02:21:00:b1:d3:05:a0:fc:40:ce:a3:e2:0f:d2:e7:86:fb:46:
         e5:cc:7e:42:4b:16:30:6b:d7:e2:55:60:ca:31:d9:8d:d3
-----BEGIN CERTIFICATE-----
MIIB8TCCAZegAwIBAgIBLjAKBggqhkjOPQQDAjCBlzEXMBUGA1UEAwwOUmVnaW9u
ZSBWZW5ldG8xCzAJBgNVBAYTAklUMQ8wDQYDVQQIDAZJdGFsaWExGDAWBgNVBAoM
D0UtVm90aW5nIHN5c3RlbTEiMCAGA1UECwwZRS1Wb3Rpbmcgc3lzdGVtIGF1dGhv
cml0eTEgMB4GCSqGSIb3DQEJARYRVmVuZXRvQGV2b3RpbmcuaXQwHhcNMjIwODAz
MTMyODI5WhcNMjMwODAzMTMyODI5WjBHMQ4wDAYDVQQDDAVNYXNvbjELMAkGA1UE
BhMCSVQxDzANBgNVBAgMBkl0YWxpYTEXMBUGA1UECgwOUmVnaW9uZSBWZW5ldG8w
WTATBgcqhkjOPQIBBggqhkjOPQMBBwNCAARFsTu1QzGMhOh/iOGJOMn2fDg0NdnI
SKK/CvkJ38tirQe2m5Me7L2B49iOVb3H+rEjapfit9yvHsZL8bgUAlQioyMwITAO
BgNVHQ8BAf8EBAMCBaAwDwYDVR0TAQH/BAUwAwIBAzAKBggqhkjOPQQDAgNIADBF
AiBg5XOAWZsoCXFu1edbv5qAMnrXXA+7FyhvFqYWIATBqQIhALHTBaD8QM6j4g/S
54b7RuXMfkJLFjBr1+JVYMox2Y3T
-----END CERTIFICATE-----
