Certificate:
    Data:
        Version: 3 (0x2)
        Serial Number: 41 (0x29)
        Signature Algorithm: ecdsa-with-SHA256
        Issuer: CN=Regione Friuli_Venezia_Giulia, C=IT, ST=Italia, O=E-Voting system, OU=E-Voting system authority/emailAddress=Friuli_Venezia_Giulia@evoting.it
        Validity
            Not Before: Aug  3 13:28:07 2022 GMT
            Not After : Aug  3 13:28:07 2023 GMT
        Subject: CN=Mathew, C=IT, ST=Italia, O=Regione Friuli_Venezia_Giulia
        Subject Public Key Info:
            Public Key Algorithm: id-ecPublicKey
                Public-Key: (256 bit)
                pub:
                    04:c3:d7:77:24:d8:35:fa:6f:af:8a:d6:18:1b:ae:
                    fa:00:78:1e:a7:c4:83:e2:80:54:5a:ac:9b:0b:1f:
                    44:aa:cf:b2:f3:3e:f3:79:96:4d:29:d8:30:9c:4f:
                    82:58:37:58:b0:a6:6f:68:d7:89:92:3c:05:ef:d1:
                    dd:ae:7b:0b:fe
                ASN1 OID: prime256v1
                NIST CURVE: P-256
        X509v3 extensions:
            X509v3 Key Usage: critical
                Digital Signature, Key Encipherment
            X509v3 Basic Constraints: critical
                CA:FALSE, pathlen:3
    Signature Algorithm: ecdsa-with-SHA256
         30:45:02:21:00:b4:0f:fc:f2:9c:ad:b5:a6:25:55:0f:a4:f1:
         ad:79:0b:ba:8f:91:e9:4a:55:a5:6e:74:65:86:15:64:7d:33:
         73:02:20:54:53:8f:4f:03:4b:b2:b3:36:be:17:d5:cf:46:9d:
         71:00:22:b9:e0:93:62:ed:1e:d3:f0:95:8e:4f:35:b9:d8
-----BEGIN CERTIFICATE-----
MIICHzCCAcWgAwIBAgIBKTAKBggqhkjOPQQDAjCBtTEmMCQGA1UEAwwdUmVnaW9u
ZSBGcml1bGlfVmVuZXppYV9HaXVsaWExCzAJBgNVBAYTAklUMQ8wDQYDVQQIDAZJ
dGFsaWExGDAWBgNVBAoMD0UtVm90aW5nIHN5c3RlbTEiMCAGA1UECwwZRS1Wb3Rp
bmcgc3lzdGVtIGF1dGhvcml0eTEvMC0GCSqGSIb3DQEJARYgRnJpdWxpX1ZlbmV6
aWFfR2l1bGlhQGV2b3RpbmcuaXQwHhcNMjIwODAzMTMyODA3WhcNMjMwODAzMTMy
ODA3WjBXMQ8wDQYDVQQDDAZNYXRoZXcxCzAJBgNVBAYTAklUMQ8wDQYDVQQIDAZJ
dGFsaWExJjAkBgNVBAoMHVJlZ2lvbmUgRnJpdWxpX1ZlbmV6aWFfR2l1bGlhMFkw
EwYHKoZIzj0CAQYIKoZIzj0DAQcDQgAEw9d3JNg1+m+vitYYG676AHgep8SD4oBU
WqybCx9Eqs+y8z7zeZZNKdgwnE+CWDdYsKZvaNeJkjwF79HdrnsL/qMjMCEwDgYD
VR0PAQH/BAQDAgWgMA8GA1UdEwEB/wQFMAMCAQMwCgYIKoZIzj0EAwIDSAAwRQIh
ALQP/PKcrbWmJVUPpPGteQu6j5HpSlWlbnRlhhVkfTNzAiBUU49PA0uysza+F9XP
Rp1xACK54JNi7R7T8JWOTzW52A==
-----END CERTIFICATE-----
