Certificate:
    Data:
        Version: 3 (0x2)
        Serial Number: 4 (0x4)
        Signature Algorithm: ecdsa-with-SHA256
        Issuer: CN=Regione Toscana, C=IT, ST=Italia, O=E-Voting system, OU=E-Voting system authority/emailAddress=Toscana@evoting.it
        Validity
            Not Before: Aug 26 15:18:48 2022 GMT
            Not After : Aug 26 15:18:48 2023 GMT
        Subject: CN=Mathew, C=IT, ST=Italia, O=Regione Toscana
        Subject Public Key Info:
            Public Key Algorithm: id-ecPublicKey
                Public-Key: (256 bit)
                pub:
                    04:5a:bf:0c:20:67:1d:7b:f8:c6:04:3c:67:1c:bf:
                    dd:0e:a0:d2:eb:f6:4d:5e:7a:97:94:a8:00:c9:2f:
                    1e:a8:03:dc:76:de:b8:c4:0a:e8:17:44:42:5a:96:
                    18:f0:51:f0:c9:a4:11:68:cd:fe:6c:f9:fa:84:68:
                    d5:bd:73:f4:4a
                ASN1 OID: secp256k1
        X509v3 extensions:
            X509v3 Key Usage: critical
                Digital Signature, Key Encipherment
            X509v3 Basic Constraints: critical
                CA:FALSE, pathlen:3
    Signature Algorithm: ecdsa-with-SHA256
         30:46:02:21:00:bc:b8:0c:12:f5:22:1b:27:2b:98:e0:0f:c3:
         93:44:f5:ee:9c:6d:46:46:cd:e0:c6:66:80:bd:66:1b:9e:af:
         e8:02:21:00:8d:b7:3c:91:67:8b:8c:52:e0:09:73:1d:76:f2:
         e5:40:27:10:ca:f1:14:17:17:80:e2:e4:38:c4:95:f8:b6:c9
-----BEGIN CERTIFICATE-----
MIIB8zCCAZigAwIBAgIBBDAKBggqhkjOPQQDAjCBmTEYMBYGA1UEAwwPUmVnaW9u
ZSBUb3NjYW5hMQswCQYDVQQGEwJJVDEPMA0GA1UECAwGSXRhbGlhMRgwFgYDVQQK
DA9FLVZvdGluZyBzeXN0ZW0xIjAgBgNVBAsMGUUtVm90aW5nIHN5c3RlbSBhdXRo
b3JpdHkxITAfBgkqhkiG9w0BCQEWElRvc2NhbmFAZXZvdGluZy5pdDAeFw0yMjA4
MjYxNTE4NDhaFw0yMzA4MjYxNTE4NDhaMEkxDzANBgNVBAMMBk1hdGhldzELMAkG
A1UEBhMCSVQxDzANBgNVBAgMBkl0YWxpYTEYMBYGA1UECgwPUmVnaW9uZSBUb3Nj
YW5hMFYwEAYHKoZIzj0CAQYFK4EEAAoDQgAEWr8MIGcde/jGBDxnHL/dDqDS6/ZN
XnqXlKgAyS8eqAPcdt64xAroF0RCWpYY8FHwyaQRaM3+bPn6hGjVvXP0SqMjMCEw
DgYDVR0PAQH/BAQDAgWgMA8GA1UdEwEB/wQFMAMCAQMwCgYIKoZIzj0EAwIDSQAw
RgIhALy4DBL1IhsnK5jgD8OTRPXunG1GRs3gxmaAvWYbnq/oAiEAjbc8kWeLjFLg
CXMddvLlQCcQyvEUFxeA4uQ4xJX4tsk=
-----END CERTIFICATE-----
