Certificate:
    Data:
        Version: 3 (0x2)
        Serial Number: 23 (0x17)
        Signature Algorithm: ecdsa-with-SHA256
        Issuer: CN=Regione Sicilia, C=IT, ST=Italia, O=E-Voting system, OU=E-Voting system authority/emailAddress=Sicilia@evoting.it
        Validity
            Not Before: Aug 26 15:19:43 2022 GMT
            Not After : Aug 26 15:19:43 2023 GMT
        Subject: CN=Matthew, C=IT, ST=Italia, O=Regione Sicilia
        Subject Public Key Info:
            Public Key Algorithm: id-ecPublicKey
                Public-Key: (256 bit)
                pub:
                    04:ac:ab:85:99:be:53:b6:01:ff:74:e9:64:b0:21:
                    f3:da:cd:e8:29:c6:31:9f:65:dd:c8:91:9f:b9:9a:
                    57:21:90:df:e1:5d:6d:8b:36:5b:03:6f:9e:ae:75:
                    91:85:61:0e:d1:68:6e:5e:7c:a0:a1:c4:0d:b7:ae:
                    35:eb:11:13:2b
                ASN1 OID: secp256k1
        X509v3 extensions:
            X509v3 Key Usage: critical
                Digital Signature, Key Encipherment
            X509v3 Basic Constraints: critical
                CA:FALSE, pathlen:3
    Signature Algorithm: ecdsa-with-SHA256
         30:46:02:21:00:92:1d:6c:9a:23:10:4a:04:88:18:5b:36:bb:
         cd:85:96:a7:33:ea:b1:a3:3a:23:f7:e0:7c:49:ec:80:c9:b2:
         35:02:21:00:9c:d1:2b:16:63:8b:de:3e:3b:a9:77:c1:2b:8e:
         18:87:db:ab:6e:c6:3f:cf:c8:8a:bc:b3:3c:59:26:ea:08:45
-----BEGIN CERTIFICATE-----
MIIB9DCCAZmgAwIBAgIBFzAKBggqhkjOPQQDAjCBmTEYMBYGA1UEAwwPUmVnaW9u
ZSBTaWNpbGlhMQswCQYDVQQGEwJJVDEPMA0GA1UECAwGSXRhbGlhMRgwFgYDVQQK
DA9FLVZvdGluZyBzeXN0ZW0xIjAgBgNVBAsMGUUtVm90aW5nIHN5c3RlbSBhdXRo
b3JpdHkxITAfBgkqhkiG9w0BCQEWElNpY2lsaWFAZXZvdGluZy5pdDAeFw0yMjA4
MjYxNTE5NDNaFw0yMzA4MjYxNTE5NDNaMEoxEDAOBgNVBAMMB01hdHRoZXcxCzAJ
BgNVBAYTAklUMQ8wDQYDVQQIDAZJdGFsaWExGDAWBgNVBAoMD1JlZ2lvbmUgU2lj
aWxpYTBWMBAGByqGSM49AgEGBSuBBAAKA0IABKyrhZm+U7YB/3TpZLAh89rN6CnG
MZ9l3ciRn7maVyGQ3+FdbYs2WwNvnq51kYVhDtFobl58oKHEDbeuNesREyujIzAh
MA4GA1UdDwEB/wQEAwIFoDAPBgNVHRMBAf8EBTADAgEDMAoGCCqGSM49BAMCA0kA
MEYCIQCSHWyaIxBKBIgYWza7zYWWpzPqsaM6I/fgfEnsgMmyNQIhAJzRKxZji94+
O6l3wSuOGIfbq27GP8/IiryzPFkm6ghF
-----END CERTIFICATE-----
