Certificate:
    Data:
        Version: 3 (0x2)
        Serial Number: 40 (0x28)
        Signature Algorithm: ecdsa-with-SHA256
        Issuer: CN=Regione Emilia_Romagna, C=IT, ST=Italia, O=E-Voting system, OU=E-Voting system authority/emailAddress=Emilia_Romagna@evoting.it
        Validity
            Not Before: Aug  3 13:28:18 2022 GMT
            Not After : Aug  3 13:28:18 2023 GMT
        Subject: CN=Matthew, C=IT, ST=Italia, O=Regione Emilia_Romagna
        Subject Public Key Info:
            Public Key Algorithm: id-ecPublicKey
                Public-Key: (256 bit)
                pub:
                    04:51:37:f9:85:9c:e1:70:78:ab:c8:4c:68:2b:08:
                    58:53:6b:4e:af:c5:6f:6c:65:ed:d0:bc:d8:45:7e:
                    b8:21:8f:be:fd:8b:91:cb:fc:16:a9:5a:73:33:73:
                    af:5b:4b:6f:84:ec:77:cd:61:0c:58:4f:c3:8d:65:
                    f2:22:54:31:e6
                ASN1 OID: prime256v1
                NIST CURVE: P-256
        X509v3 extensions:
            X509v3 Key Usage: critical
                Digital Signature, Key Encipherment
            X509v3 Basic Constraints: critical
                CA:FALSE, pathlen:3
    Signature Algorithm: ecdsa-with-SHA256
         30:44:02:20:0c:44:89:13:11:69:24:02:33:0d:16:10:1f:82:
         c2:02:33:b1:91:4d:d8:93:a3:bc:3a:0b:26:c1:b6:27:62:27:
         02:20:74:2b:94:55:bf:59:2b:f6:38:dd:32:2d:1c:bc:28:dd:
         2c:ac:e1:53:34:84:c4:4a:88:aa:b5:20:5c:92:94:8d
-----BEGIN CERTIFICATE-----
MIICCjCCAbGgAwIBAgIBKDAKBggqhkjOPQQDAjCBpzEfMB0GA1UEAwwWUmVnaW9u
ZSBFbWlsaWFfUm9tYWduYTELMAkGA1UEBhMCSVQxDzANBgNVBAgMBkl0YWxpYTEY
MBYGA1UECgwPRS1Wb3Rpbmcgc3lzdGVtMSIwIAYDVQQLDBlFLVZvdGluZyBzeXN0
ZW0gYXV0aG9yaXR5MSgwJgYJKoZIhvcNAQkBFhlFbWlsaWFfUm9tYWduYUBldm90
aW5nLml0MB4XDTIyMDgwMzEzMjgxOFoXDTIzMDgwMzEzMjgxOFowUTEQMA4GA1UE
AwwHTWF0dGhldzELMAkGA1UEBhMCSVQxDzANBgNVBAgMBkl0YWxpYTEfMB0GA1UE
CgwWUmVnaW9uZSBFbWlsaWFfUm9tYWduYTBZMBMGByqGSM49AgEGCCqGSM49AwEH
A0IABFE3+YWc4XB4q8hMaCsIWFNrTq/Fb2xl7dC82EV+uCGPvv2Lkcv8FqlaczNz
r1tLb4Tsd81hDFhPw41l8iJUMeajIzAhMA4GA1UdDwEB/wQEAwIFoDAPBgNVHRMB
Af8EBTADAgEDMAoGCCqGSM49BAMCA0cAMEQCIAxEiRMRaSQCMw0WEB+CwgIzsZFN
2JOjvDoLJsG2J2InAiB0K5RVv1kr9jjdMi0cvCjdLKzhUzSExEqIqrUgXJKUjQ==
-----END CERTIFICATE-----
