Certificate:
    Data:
        Version: 3 (0x2)
        Serial Number: 38 (0x26)
        Signature Algorithm: ecdsa-with-SHA256
        Issuer: CN=Regione Friuli_Venezia_Giulia, C=IT, ST=Italia, O=E-Voting system, OU=E-Voting system authority/emailAddress=Friuli_Venezia_Giulia@evoting.it
        Validity
            Not Before: Aug  3 13:27:58 2022 GMT
            Not After : Aug  3 13:27:58 2023 GMT
        Subject: CN=Mattie, C=IT, ST=Italia, O=Regione Friuli_Venezia_Giulia
        Subject Public Key Info:
            Public Key Algorithm: id-ecPublicKey
                Public-Key: (256 bit)
                pub:
                    04:3d:f1:ad:02:5f:53:80:07:c6:08:d6:69:f9:1b:
                    85:23:17:8f:9d:8e:81:bf:6d:a1:12:76:26:8c:ad:
                    88:0b:d8:91:2d:92:a2:e5:35:f5:7c:b0:d6:fd:90:
                    b8:f3:9e:5a:ba:49:39:8e:23:4d:8f:f0:c0:79:ab:
                    01:1e:43:3d:a2
                ASN1 OID: prime256v1
                NIST CURVE: P-256
        X509v3 extensions:
            X509v3 Key Usage: critical
                Digital Signature, Key Encipherment
            X509v3 Basic Constraints: critical
                CA:FALSE, pathlen:3
    Signature Algorithm: ecdsa-with-SHA256
         30:45:02:21:00:f2:b6:7a:a4:a9:d4:fe:05:36:90:49:59:b7:
         bd:80:61:ab:b3:28:f8:ed:01:24:f6:8b:26:4a:f1:77:29:06:
         7f:02:20:6b:d1:56:46:45:84:06:a4:95:de:02:e5:a1:ad:be:
         48:75:11:94:67:5c:52:b0:fa:32:b4:64:12:98:32:e8:af
-----BEGIN CERTIFICATE-----
MIICHzCCAcWgAwIBAgIBJjAKBggqhkjOPQQDAjCBtTEmMCQGA1UEAwwdUmVnaW9u
ZSBGcml1bGlfVmVuZXppYV9HaXVsaWExCzAJBgNVBAYTAklUMQ8wDQYDVQQIDAZJ
dGFsaWExGDAWBgNVBAoMD0UtVm90aW5nIHN5c3RlbTEiMCAGA1UECwwZRS1Wb3Rp
bmcgc3lzdGVtIGF1dGhvcml0eTEvMC0GCSqGSIb3DQEJARYgRnJpdWxpX1ZlbmV6
aWFfR2l1bGlhQGV2b3RpbmcuaXQwHhcNMjIwODAzMTMyNzU4WhcNMjMwODAzMTMy
NzU4WjBXMQ8wDQYDVQQDDAZNYXR0aWUxCzAJBgNVBAYTAklUMQ8wDQYDVQQIDAZJ
dGFsaWExJjAkBgNVBAoMHVJlZ2lvbmUgRnJpdWxpX1ZlbmV6aWFfR2l1bGlhMFkw
EwYHKoZIzj0CAQYIKoZIzj0DAQcDQgAEPfGtAl9TgAfGCNZp+RuFIxePnY6Bv22h
EnYmjK2IC9iRLZKi5TX1fLDW/ZC4855aukk5jiNNj/DAeasBHkM9oqMjMCEwDgYD
VR0PAQH/BAQDAgWgMA8GA1UdEwEB/wQFMAMCAQMwCgYIKoZIzj0EAwIDSAAwRQIh
APK2eqSp1P4FNpBJWbe9gGGrsyj47QEk9osmSvF3KQZ/AiBr0VZGRYQGpJXeAuWh
rb5IdRGUZ1xSsPoytGQSmDLorw==
-----END CERTIFICATE-----
