Certificate:
    Data:
        Version: 3 (0x2)
        Serial Number: 31 (0x1f)
        Signature Algorithm: ecdsa-with-SHA256
        Issuer: CN=Regione Piemonte, C=IT, ST=Italia, O=E-Voting system, OU=E-Voting system authority/emailAddress=Piemonte@evoting.it
        Validity
            Not Before: Aug 26 15:20:35 2022 GMT
            Not After : Aug 26 15:20:35 2023 GMT
        Subject: CN=Mattie, C=IT, ST=Italia, O=Regione Piemonte
        Subject Public Key Info:
            Public Key Algorithm: id-ecPublicKey
                Public-Key: (256 bit)
                pub:
                    04:d7:e8:c4:fe:af:4e:2b:0f:13:70:87:f8:c0:ab:
                    6b:67:f0:a0:bd:54:f0:05:d2:fe:43:fa:cc:93:52:
                    df:0b:f6:d2:42:1f:b4:c4:38:18:e3:a0:5e:ae:f3:
                    fa:36:10:54:cc:8d:fa:76:01:41:40:ee:e1:a6:23:
                    a1:de:95:77:5f
                ASN1 OID: secp256k1
        X509v3 extensions:
            X509v3 Key Usage: critical
                Digital Signature, Key Encipherment
            X509v3 Basic Constraints: critical
                CA:FALSE, pathlen:3
    Signature Algorithm: ecdsa-with-SHA256
         30:45:02:21:00:b1:d9:4a:be:21:60:b5:4e:37:d4:8b:27:89:
         4c:93:c1:77:0e:ce:89:26:17:73:9d:b0:96:c2:94:6a:f5:fb:
         81:02:20:40:3a:f9:7b:ba:fe:ac:55:1d:bb:61:57:68:53:84:
         fa:9b:e5:91:a7:fe:46:17:95:e4:60:53:40:ac:6e:2f:0c
-----BEGIN CERTIFICATE-----
MIIB9TCCAZugAwIBAgIBHzAKBggqhkjOPQQDAjCBmzEZMBcGA1UEAwwQUmVnaW9u
ZSBQaWVtb250ZTELMAkGA1UEBhMCSVQxDzANBgNVBAgMBkl0YWxpYTEYMBYGA1UE
CgwPRS1Wb3Rpbmcgc3lzdGVtMSIwIAYDVQQLDBlFLVZvdGluZyBzeXN0ZW0gYXV0
aG9yaXR5MSIwIAYJKoZIhvcNAQkBFhNQaWVtb250ZUBldm90aW5nLml0MB4XDTIy
MDgyNjE1MjAzNVoXDTIzMDgyNjE1MjAzNVowSjEPMA0GA1UEAwwGTWF0dGllMQsw
CQYDVQQGEwJJVDEPMA0GA1UECAwGSXRhbGlhMRkwFwYDVQQKDBBSZWdpb25lIFBp
ZW1vbnRlMFYwEAYHKoZIzj0CAQYFK4EEAAoDQgAE1+jE/q9OKw8TcIf4wKtrZ/Cg
vVTwBdL+Q/rMk1LfC/bSQh+0xDgY46BervP6NhBUzI36dgFBQO7hpiOh3pV3X6Mj
MCEwDgYDVR0PAQH/BAQDAgWgMA8GA1UdEwEB/wQFMAMCAQMwCgYIKoZIzj0EAwID
SAAwRQIhALHZSr4hYLVON9SLJ4lMk8F3Ds6JJhdznbCWwpRq9fuBAiBAOvl7uv6s
VR27YVdoU4T6m+WRp/5GF5XkYFNArG4vDA==
-----END CERTIFICATE-----
