Certificate:
    Data:
        Version: 3 (0x2)
        Serial Number: 8 (0x8)
        Signature Algorithm: ecdsa-with-SHA256
        Issuer: CN=Regione Friuli_Venezia_Giulia, C=IT, ST=Italia, O=E-Voting system, OU=E-Voting system authority/emailAddress=Friuli_Venezia_Giulia@evoting.it
        Validity
            Not Before: Aug  3 13:26:14 2022 GMT
            Not After : Aug  3 13:26:14 2023 GMT
        Subject: CN=Maurice, C=IT, ST=Italia, O=Regione Friuli_Venezia_Giulia
        Subject Public Key Info:
            Public Key Algorithm: id-ecPublicKey
                Public-Key: (256 bit)
                pub:
                    04:4f:42:3b:9b:92:80:e6:f0:d8:21:a0:02:2e:2d:
                    f4:39:49:dc:f5:bf:38:c0:26:f5:e4:1b:eb:e1:05:
                    97:01:ff:00:4d:1d:8f:2b:d0:4e:61:6d:79:4e:e1:
                    b2:8d:34:52:84:ca:42:6b:cc:6d:70:9c:88:58:2e:
                    12:e3:a2:99:27
                ASN1 OID: prime256v1
                NIST CURVE: P-256
        X509v3 extensions:
            X509v3 Key Usage: critical
                Digital Signature, Key Encipherment
            X509v3 Basic Constraints: critical
                CA:FALSE, pathlen:3
    Signature Algorithm: ecdsa-with-SHA256
         30:45:02:20:2a:00:d4:69:aa:cc:93:b6:dd:d6:06:ec:fb:98:
         8f:bc:4a:b2:cb:24:28:46:2d:94:df:28:d6:37:ea:6b:4e:fa:
         02:21:00:f7:25:15:91:f5:46:0e:f7:04:ba:bf:8d:2a:13:b9:
         b6:ea:30:c3:9f:02:fb:bc:37:3e:e3:83:11:8f:9b:70:b8
-----BEGIN CERTIFICATE-----
MIICIDCCAcagAwIBAgIBCDAKBggqhkjOPQQDAjCBtTEmMCQGA1UEAwwdUmVnaW9u
ZSBGcml1bGlfVmVuZXppYV9HaXVsaWExCzAJBgNVBAYTAklUMQ8wDQYDVQQIDAZJ
dGFsaWExGDAWBgNVBAoMD0UtVm90aW5nIHN5c3RlbTEiMCAGA1UECwwZRS1Wb3Rp
bmcgc3lzdGVtIGF1dGhvcml0eTEvMC0GCSqGSIb3DQEJARYgRnJpdWxpX1ZlbmV6
aWFfR2l1bGlhQGV2b3RpbmcuaXQwHhcNMjIwODAzMTMyNjE0WhcNMjMwODAzMTMy
NjE0WjBYMRAwDgYDVQQDDAdNYXVyaWNlMQswCQYDVQQGEwJJVDEPMA0GA1UECAwG
SXRhbGlhMSYwJAYDVQQKDB1SZWdpb25lIEZyaXVsaV9WZW5lemlhX0dpdWxpYTBZ
MBMGByqGSM49AgEGCCqGSM49AwEHA0IABE9CO5uSgObw2CGgAi4t9DlJ3PW/OMAm
9eQb6+EFlwH/AE0djyvQTmFteU7hso00UoTKQmvMbXCciFguEuOimSejIzAhMA4G
A1UdDwEB/wQEAwIFoDAPBgNVHRMBAf8EBTADAgEDMAoGCCqGSM49BAMCA0gAMEUC
ICoA1GmqzJO23dYG7PuYj7xKssskKEYtlN8o1jfqa076AiEA9yUVkfVGDvcEur+N
KhO5tuoww58C+7w3PuODEY+bcLg=
-----END CERTIFICATE-----
