Certificate:
    Data:
        Version: 3 (0x2)
        Serial Number: 14 (0xe)
        Signature Algorithm: ecdsa-with-SHA256
        Issuer: CN=Regione Puglia, C=IT, ST=Italia, O=E-Voting system, OU=E-Voting system authority/emailAddress=Puglia@evoting.it
        Validity
            Not Before: Aug 26 15:19:26 2022 GMT
            Not After : Aug 26 15:19:26 2023 GMT
        Subject: CN=Maurice, C=IT, ST=Italia, O=Regione Puglia
        Subject Public Key Info:
            Public Key Algorithm: id-ecPublicKey
                Public-Key: (256 bit)
                pub:
                    04:23:7a:61:36:e5:0d:eb:18:cc:cc:23:8d:36:dc:
                    a4:eb:bd:b0:ed:12:4a:37:d7:04:82:59:48:12:f8:
                    bf:90:f5:03:95:b1:24:01:1d:b6:48:a2:5a:cf:86:
                    a3:fa:10:10:4e:0e:3f:38:e7:45:4b:46:35:be:21:
                    06:73:04:6b:9a
                ASN1 OID: secp256k1
        X509v3 extensions:
            X509v3 Key Usage: critical
                Digital Signature, Key Encipherment
            X509v3 Basic Constraints: critical
                CA:FALSE, pathlen:3
    Signature Algorithm: ecdsa-with-SHA256
         30:45:02:20:10:10:dc:97:74:4d:0c:ff:f0:a7:a2:b4:2d:4d:
         3b:ea:5d:dd:43:d7:05:6b:c3:69:dd:82:65:c8:10:a1:5c:09:
         02:21:00:a4:93:1b:dc:30:7e:41:22:19:4a:53:ab:7b:71:bd:
         e1:f5:7e:0f:f1:f3:47:04:54:c2:a4:82:ec:c2:64:31:36
-----BEGIN CERTIFICATE-----
MIIB8DCCAZagAwIBAgIBDjAKBggqhkjOPQQDAjCBlzEXMBUGA1UEAwwOUmVnaW9u
ZSBQdWdsaWExCzAJBgNVBAYTAklUMQ8wDQYDVQQIDAZJdGFsaWExGDAWBgNVBAoM
D0UtVm90aW5nIHN5c3RlbTEiMCAGA1UECwwZRS1Wb3Rpbmcgc3lzdGVtIGF1dGhv
cml0eTEgMB4GCSqGSIb3DQEJARYRUHVnbGlhQGV2b3RpbmcuaXQwHhcNMjIwODI2
MTUxOTI2WhcNMjMwODI2MTUxOTI2WjBJMRAwDgYDVQQDDAdNYXVyaWNlMQswCQYD
VQQGEwJJVDEPMA0GA1UECAwGSXRhbGlhMRcwFQYDVQQKDA5SZWdpb25lIFB1Z2xp
YTBWMBAGByqGSM49AgEGBSuBBAAKA0IABCN6YTblDesYzMwjjTbcpOu9sO0SSjfX
BIJZSBL4v5D1A5WxJAEdtkiiWs+Go/oQEE4OPzjnRUtGNb4hBnMEa5qjIzAhMA4G
A1UdDwEB/wQEAwIFoDAPBgNVHRMBAf8EBTADAgEDMAoGCCqGSM49BAMCA0gAMEUC
IBAQ3Jd0TQz/8KeitC1NO+pd3UPXBWvDad2CZcgQoVwJAiEApJMb3DB+QSIZSlOr
e3G94fV+D/HzRwRUwqSC7MJkMTY=
-----END CERTIFICATE-----
