Certificate:
    Data:
        Version: 3 (0x2)
        Serial Number: 35 (0x23)
        Signature Algorithm: ecdsa-with-SHA256
        Issuer: CN=Regione Liguria, C=IT, ST=Italia, O=E-Voting system, OU=E-Voting system authority/emailAddress=Liguria@evoting.it
        Validity
            Not Before: Aug 26 15:20:02 2022 GMT
            Not After : Aug 26 15:20:02 2023 GMT
        Subject: CN=Maxine, C=IT, ST=Italia, O=Regione Liguria
        Subject Public Key Info:
            Public Key Algorithm: id-ecPublicKey
                Public-Key: (256 bit)
                pub:
                    04:79:d6:a5:db:42:cd:d7:e3:dd:26:59:91:3c:99:
                    43:76:e6:6b:7b:fa:53:f3:c4:9b:a9:50:ab:9d:d9:
                    02:c0:0c:14:84:85:53:13:3d:b6:d3:5a:12:c5:d9:
                    ae:4a:ad:12:d2:57:04:3c:96:11:a0:28:95:c4:1d:
                    12:36:c3:88:16
                ASN1 OID: secp256k1
        X509v3 extensions:
            X509v3 Key Usage: critical
                Digital Signature, Key Encipherment
            X509v3 Basic Constraints: critical
                CA:FALSE, pathlen:3
    Signature Algorithm: ecdsa-with-SHA256
         30:46:02:21:00:92:0e:9e:c4:75:b1:6c:11:48:87:0d:7e:f5:
         08:ad:9a:8c:64:28:e8:8b:48:32:d0:92:90:1f:7b:56:3f:f1:
         1d:02:21:00:de:66:27:20:6c:af:19:c9:ba:43:63:4f:76:e8:
         b6:a0:47:e2:82:fc:61:53:e4:fa:0a:37:cf:23:51:ae:21:08
-----BEGIN CERTIFICATE-----
MIIB8zCCAZigAwIBAgIBIzAKBggqhkjOPQQDAjCBmTEYMBYGA1UEAwwPUmVnaW9u
ZSBMaWd1cmlhMQswCQYDVQQGEwJJVDEPMA0GA1UECAwGSXRhbGlhMRgwFgYDVQQK
DA9FLVZvdGluZyBzeXN0ZW0xIjAgBgNVBAsMGUUtVm90aW5nIHN5c3RlbSBhdXRo
b3JpdHkxITAfBgkqhkiG9w0BCQEWEkxpZ3VyaWFAZXZvdGluZy5pdDAeFw0yMjA4
MjYxNTIwMDJaFw0yMzA4MjYxNTIwMDJaMEkxDzANBgNVBAMMBk1heGluZTELMAkG
A1UEBhMCSVQxDzANBgNVBAgMBkl0YWxpYTEYMBYGA1UECgwPUmVnaW9uZSBMaWd1
cmlhMFYwEAYHKoZIzj0CAQYFK4EEAAoDQgAEedal20LN1+PdJlmRPJlDduZre/pT
88SbqVCrndkCwAwUhIVTEz2201oSxdmuSq0S0lcEPJYRoCiVxB0SNsOIFqMjMCEw
DgYDVR0PAQH/BAQDAgWgMA8GA1UdEwEB/wQFMAMCAQMwCgYIKoZIzj0EAwIDSQAw
RgIhAJIOnsR1sWwRSIcNfvUIrZqMZCjoi0gy0JKQH3tWP/EdAiEA3mYnIGyvGcm6
Q2NPdui2oEfigvxhU+T6CjfPI1GuIQg=
-----END CERTIFICATE-----
