Certificate:
    Data:
        Version: 3 (0x2)
        Serial Number: 49 (0x31)
        Signature Algorithm: ecdsa-with-SHA256
        Issuer: CN=Regione Valle_d_Aosta, C=IT, ST=Italia, O=E-Voting system, OU=E-Voting system authority/emailAddress=Valle_d_Aosta@evoting.it
        Validity
            Not Before: Aug  3 13:28:23 2022 GMT
            Not After : Aug  3 13:28:23 2023 GMT
        Subject: CN=May, C=IT, ST=Italia, O=Regione Valle_d_Aosta
        Subject Public Key Info:
            Public Key Algorithm: id-ecPublicKey
                Public-Key: (256 bit)
                pub:
                    04:3a:c9:bb:09:59:00:11:05:99:36:e5:73:9e:0f:
                    67:ad:7a:3b:ff:95:f4:f0:06:1d:d9:82:3e:85:6b:
                    43:f4:6e:23:b8:32:e8:97:b5:5c:63:18:34:d6:b6:
                    25:03:f0:25:3c:6f:4e:91:db:cc:98:39:35:61:9c:
                    0e:be:5a:f8:c3
                ASN1 OID: prime256v1
                NIST CURVE: P-256
        X509v3 extensions:
            X509v3 Key Usage: critical
                Digital Signature, Key Encipherment
            X509v3 Basic Constraints: critical
                CA:FALSE, pathlen:3
    Signature Algorithm: ecdsa-with-SHA256
         30:46:02:21:00:b6:ab:75:cb:18:ed:a8:b5:de:24:8f:eb:5a:
         7f:3d:ff:b4:ce:54:6e:a7:96:14:48:ea:6e:7f:84:96:ed:c3:
         d0:02:21:00:c3:1c:9b:20:b8:0b:db:5c:4e:67:ae:63:4a:bf:
         28:7c:8f:a6:fa:b7:79:88:6b:40:86:f1:9f:9e:03:8d:66:fb
-----BEGIN CERTIFICATE-----
MIICBTCCAaqgAwIBAgIBMTAKBggqhkjOPQQDAjCBpTEeMBwGA1UEAwwVUmVnaW9u
ZSBWYWxsZV9kX0Fvc3RhMQswCQYDVQQGEwJJVDEPMA0GA1UECAwGSXRhbGlhMRgw
FgYDVQQKDA9FLVZvdGluZyBzeXN0ZW0xIjAgBgNVBAsMGUUtVm90aW5nIHN5c3Rl
bSBhdXRob3JpdHkxJzAlBgkqhkiG9w0BCQEWGFZhbGxlX2RfQW9zdGFAZXZvdGlu
Zy5pdDAeFw0yMjA4MDMxMzI4MjNaFw0yMzA4MDMxMzI4MjNaMEwxDDAKBgNVBAMM
A01heTELMAkGA1UEBhMCSVQxDzANBgNVBAgMBkl0YWxpYTEeMBwGA1UECgwVUmVn
aW9uZSBWYWxsZV9kX0Fvc3RhMFkwEwYHKoZIzj0CAQYIKoZIzj0DAQcDQgAEOsm7
CVkAEQWZNuVzng9nrXo7/5X08AYd2YI+hWtD9G4juDLol7VcYxg01rYlA/AlPG9O
kdvMmDk1YZwOvlr4w6MjMCEwDgYDVR0PAQH/BAQDAgWgMA8GA1UdEwEB/wQFMAMC
AQMwCgYIKoZIzj0EAwIDSQAwRgIhALardcsY7ai13iSP61p/Pf+0zlRup5YUSOpu
f4SW7cPQAiEAwxybILgL21xOZ65jSr8ofI+m+rd5iGtAhvGfngONZvs=
-----END CERTIFICATE-----
