Certificate:
    Data:
        Version: 3 (0x2)
        Serial Number: 27 (0x1b)
        Signature Algorithm: ecdsa-with-SHA256
        Issuer: CN=Regione Abruzzo, C=IT, ST=Italia, O=E-Voting system, OU=E-Voting system authority/emailAddress=Abruzzo@evoting.it
        Validity
            Not Before: Aug  3 13:26:54 2022 GMT
            Not After : Aug  3 13:26:54 2023 GMT
        Subject: CN=Maya, C=IT, ST=Italia, O=Regione Abruzzo
        Subject Public Key Info:
            Public Key Algorithm: id-ecPublicKey
                Public-Key: (256 bit)
                pub:
                    04:a1:4b:e6:cd:f8:8d:2e:49:4a:c3:61:f7:1f:90:
                    00:30:8d:50:c1:08:9e:52:e7:7b:be:eb:01:b4:41:
                    ad:6c:20:88:9f:5a:0a:b1:75:c2:31:d1:58:2d:83:
                    7d:d0:3f:1e:5a:f3:17:70:03:51:44:fa:63:c2:28:
                    f9:41:ec:80:41
                ASN1 OID: prime256v1
                NIST CURVE: P-256
        X509v3 extensions:
            X509v3 Key Usage: critical
                Digital Signature, Key Encipherment
            X509v3 Basic Constraints: critical
                CA:FALSE, pathlen:3
    Signature Algorithm: ecdsa-with-SHA256
         30:46:02:21:00:b0:0f:da:8b:73:ce:2c:43:15:e4:5c:fe:f7:
         ee:5b:81:75:7a:a3:62:9b:d7:48:e1:c9:65:1f:14:31:6a:b1:
         5e:02:21:00:b6:b5:ba:b7:fd:90:e8:9d:a4:69:d8:b5:26:f1:
         f2:24:9a:fb:cd:21:19:be:15:79:e1:61:c0:e1:81:ec:54:f8
-----BEGIN CERTIFICATE-----
MIIB9DCCAZmgAwIBAgIBGzAKBggqhkjOPQQDAjCBmTEYMBYGA1UEAwwPUmVnaW9u
ZSBBYnJ1enpvMQswCQYDVQQGEwJJVDEPMA0GA1UECAwGSXRhbGlhMRgwFgYDVQQK
DA9FLVZvdGluZyBzeXN0ZW0xIjAgBgNVBAsMGUUtVm90aW5nIHN5c3RlbSBhdXRo
b3JpdHkxITAfBgkqhkiG9w0BCQEWEkFicnV6em9AZXZvdGluZy5pdDAeFw0yMjA4
MDMxMzI2NTRaFw0yMzA4MDMxMzI2NTRaMEcxDTALBgNVBAMMBE1heWExCzAJBgNV
BAYTAklUMQ8wDQYDVQQIDAZJdGFsaWExGDAWBgNVBAoMD1JlZ2lvbmUgQWJydXp6
bzBZMBMGByqGSM49AgEGCCqGSM49AwEHA0IABKFL5s34jS5JSsNh9x+QADCNUMEI
nlLne77rAbRBrWwgiJ9aCrF1wjHRWC2DfdA/HlrzF3ADUUT6Y8Io+UHsgEGjIzAh
MA4GA1UdDwEB/wQEAwIFoDAPBgNVHRMBAf8EBTADAgEDMAoGCCqGSM49BAMCA0kA
MEYCIQCwD9qLc84sQxXkXP737luBdXqjYpvXSOHJZR8UMWqxXgIhALa1urf9kOid
pGnYtSbx8iSa+80hGb4VeeFhwOGB7FT4
-----END CERTIFICATE-----
