Certificate:
    Data:
        Version: 3 (0x2)
        Serial Number: 11 (0xb)
        Signature Algorithm: ecdsa-with-SHA256
        Issuer: CN=Regione Valle_d_Aosta, C=IT, ST=Italia, O=E-Voting system, OU=E-Voting system authority/emailAddress=Valle_d_Aosta@evoting.it
        Validity
            Not Before: Aug 26 15:18:54 2022 GMT
            Not After : Aug 26 15:18:54 2023 GMT
        Subject: CN=Mee, C=IT, ST=Italia, O=Regione Valle_d_Aosta
        Subject Public Key Info:
            Public Key Algorithm: id-ecPublicKey
                Public-Key: (256 bit)
                pub:
                    04:d9:5a:8f:ec:0b:1e:99:26:90:3a:aa:b6:0e:8d:
                    a5:11:a8:2b:cb:38:bb:37:a2:e2:10:2d:ac:91:72:
                    52:48:a5:b2:ab:50:e7:01:9b:66:ac:14:1f:ad:2d:
                    a6:ad:f8:73:b4:9a:8e:d0:a8:60:8e:19:bc:85:a9:
                    94:0d:ac:cc:e4
                ASN1 OID: secp256k1
        X509v3 extensions:
            X509v3 Key Usage: critical
                Digital Signature, Key Encipherment
            X509v3 Basic Constraints: critical
                CA:FALSE, pathlen:3
    Signature Algorithm: ecdsa-with-SHA256
         30:45:02:21:00:89:eb:53:dc:1c:fa:db:db:af:9c:b2:20:82:
         b7:d1:32:92:31:00:07:09:de:f1:c4:4f:13:a9:96:ca:7f:14:
         28:02:20:4e:df:b9:0b:7b:70:15:82:c8:1e:0b:f1:e1:d2:f6:
         4e:f3:76:33:da:80:ef:21:4a:03:a0:96:0f:85:f8:62:97
-----BEGIN CERTIFICATE-----
MIICATCCAaegAwIBAgIBCzAKBggqhkjOPQQDAjCBpTEeMBwGA1UEAwwVUmVnaW9u
ZSBWYWxsZV9kX0Fvc3RhMQswCQYDVQQGEwJJVDEPMA0GA1UECAwGSXRhbGlhMRgw
FgYDVQQKDA9FLVZvdGluZyBzeXN0ZW0xIjAgBgNVBAsMGUUtVm90aW5nIHN5c3Rl
bSBhdXRob3JpdHkxJzAlBgkqhkiG9w0BCQEWGFZhbGxlX2RfQW9zdGFAZXZvdGlu
Zy5pdDAeFw0yMjA4MjYxNTE4NTRaFw0yMzA4MjYxNTE4NTRaMEwxDDAKBgNVBAMM
A01lZTELMAkGA1UEBhMCSVQxDzANBgNVBAgMBkl0YWxpYTEeMBwGA1UECgwVUmVn
aW9uZSBWYWxsZV9kX0Fvc3RhMFYwEAYHKoZIzj0CAQYFK4EEAAoDQgAE2VqP7Ase
mSaQOqq2Do2lEagryzi7N6LiEC2skXJSSKWyq1DnAZtmrBQfrS2mrfhztJqO0Khg
jhm8hamUDazM5KMjMCEwDgYDVR0PAQH/BAQDAgWgMA8GA1UdEwEB/wQFMAMCAQMw
CgYIKoZIzj0EAwIDSAAwRQIhAInrU9wc+tvbr5yyIIK30TKSMQAHCd7xxE8TqZbK
fxQoAiBO37kLe3AVgsgeC/Hh0vZO83Yz2oDvIUoDoJYPhfhilw==
-----END CERTIFICATE-----
