Certificate:
    Data:
        Version: 3 (0x2)
        Serial Number: 49 (0x31)
        Signature Algorithm: ecdsa-with-SHA256
        Issuer: CN=Regione Valle_d_Aosta, C=IT, ST=Italia, O=E-Voting system, OU=E-Voting system authority/emailAddress=Valle_d_Aosta@evoting.it
        Validity
            Not Before: Aug 26 15:21:29 2022 GMT
            Not After : Aug 26 15:21:29 2023 GMT
        Subject: CN=Megan, C=IT, ST=Italia, O=Regione Valle_d_Aosta
        Subject Public Key Info:
            Public Key Algorithm: id-ecPublicKey
                Public-Key: (256 bit)
                pub:
                    04:3c:e5:08:33:88:1d:34:94:f5:48:06:54:6d:e8:
                    93:1c:67:ac:2f:2a:cd:ce:4c:85:41:ef:e7:28:fc:
                    a4:bf:3b:ed:b5:6f:73:ee:50:e6:6f:bb:d7:f3:a5:
                    fc:81:cf:27:68:b1:ab:2d:6e:e8:1c:7b:d3:a1:ca:
                    be:05:12:84:2a
                ASN1 OID: secp256k1
        X509v3 extensions:
            X509v3 Key Usage: critical
                Digital Signature, Key Encipherment
            X509v3 Basic Constraints: critical
                CA:FALSE, pathlen:3
    Signature Algorithm: ecdsa-with-SHA256
         30:45:02:21:00:a0:6b:8a:ef:51:21:13:2e:69:96:7f:5a:57:
         76:5f:1c:aa:61:3a:a2:0c:8b:0b:ef:2e:25:43:d9:e2:2b:86:
         bc:02:20:45:ff:2f:13:83:60:a2:4f:df:68:7c:bf:f7:52:87:
         32:30:94:04:a9:c9:db:60:9f:ea:24:f3:8d:47:98:15:ad
-----BEGIN CERTIFICATE-----
MIICAzCCAamgAwIBAgIBMTAKBggqhkjOPQQDAjCBpTEeMBwGA1UEAwwVUmVnaW9u
ZSBWYWxsZV9kX0Fvc3RhMQswCQYDVQQGEwJJVDEPMA0GA1UECAwGSXRhbGlhMRgw
FgYDVQQKDA9FLVZvdGluZyBzeXN0ZW0xIjAgBgNVBAsMGUUtVm90aW5nIHN5c3Rl
bSBhdXRob3JpdHkxJzAlBgkqhkiG9w0BCQEWGFZhbGxlX2RfQW9zdGFAZXZvdGlu
Zy5pdDAeFw0yMjA4MjYxNTIxMjlaFw0yMzA4MjYxNTIxMjlaME4xDjAMBgNVBAMM
BU1lZ2FuMQswCQYDVQQGEwJJVDEPMA0GA1UECAwGSXRhbGlhMR4wHAYDVQQKDBVS
ZWdpb25lIFZhbGxlX2RfQW9zdGEwVjAQBgcqhkjOPQIBBgUrgQQACgNCAAQ85Qgz
iB00lPVIBlRt6JMcZ6wvKs3OTIVB7+co/KS/O+21b3PuUOZvu9fzpfyBzydosast
bugce9Ohyr4FEoQqoyMwITAOBgNVHQ8BAf8EBAMCBaAwDwYDVR0TAQH/BAUwAwIB
AzAKBggqhkjOPQQDAgNIADBFAiEAoGuK71EhEy5pln9aV3ZfHKphOqIMiwvvLiVD
2eIrhrwCIEX/LxODYKJP32h8v/dShzIwlASpydtgn+ok841HmBWt
-----END CERTIFICATE-----
