Certificate:
    Data:
        Version: 3 (0x2)
        Serial Number: 12 (0xc)
        Signature Algorithm: ecdsa-with-SHA256
        Issuer: CN=Regione Valle_d_Aosta, C=IT, ST=Italia, O=E-Voting system, OU=E-Voting system authority/emailAddress=Valle_d_Aosta@evoting.it
        Validity
            Not Before: Aug  3 13:26:22 2022 GMT
            Not After : Aug  3 13:26:22 2023 GMT
        Subject: CN=Megan, C=IT, ST=Italia, O=Regione Valle_d_Aosta
        Subject Public Key Info:
            Public Key Algorithm: id-ecPublicKey
                Public-Key: (256 bit)
                pub:
                    04:8f:56:42:33:d2:e8:99:f9:8c:7a:dc:f4:4c:bc:
                    56:a4:aa:48:ef:e4:90:1c:0f:09:4e:c2:7a:27:20:
                    b4:ed:4a:86:7c:6b:98:5c:fe:63:75:9e:40:c3:88:
                    26:85:10:dc:c8:8d:9d:fe:a9:e7:3b:62:38:27:f9:
                    14:7b:2d:05:7c
                ASN1 OID: prime256v1
                NIST CURVE: P-256
        X509v3 extensions:
            X509v3 Key Usage: critical
                Digital Signature, Key Encipherment
            X509v3 Basic Constraints: critical
                CA:FALSE, pathlen:3
    Signature Algorithm: ecdsa-with-SHA256
         30:45:02:20:32:82:a1:fd:06:37:df:9a:75:ea:fc:6c:f2:0d:
         89:7f:31:27:a3:4a:ed:4e:f2:9a:2f:24:cb:2f:c4:4b:17:cf:
         02:21:00:fd:94:b3:cf:5f:3b:20:fe:14:5d:ca:2a:81:dc:44:
         41:39:b7:19:80:18:0d:59:97:7e:5e:3c:2d:e0:32:90:73
-----BEGIN CERTIFICATE-----
MIICBjCCAaygAwIBAgIBDDAKBggqhkjOPQQDAjCBpTEeMBwGA1UEAwwVUmVnaW9u
ZSBWYWxsZV9kX0Fvc3RhMQswCQYDVQQGEwJJVDEPMA0GA1UECAwGSXRhbGlhMRgw
FgYDVQQKDA9FLVZvdGluZyBzeXN0ZW0xIjAgBgNVBAsMGUUtVm90aW5nIHN5c3Rl
bSBhdXRob3JpdHkxJzAlBgkqhkiG9w0BCQEWGFZhbGxlX2RfQW9zdGFAZXZvdGlu
Zy5pdDAeFw0yMjA4MDMxMzI2MjJaFw0yMzA4MDMxMzI2MjJaME4xDjAMBgNVBAMM
BU1lZ2FuMQswCQYDVQQGEwJJVDEPMA0GA1UECAwGSXRhbGlhMR4wHAYDVQQKDBVS
ZWdpb25lIFZhbGxlX2RfQW9zdGEwWTATBgcqhkjOPQIBBggqhkjOPQMBBwNCAASP
VkIz0uiZ+Yx63PRMvFakqkjv5JAcDwlOwnonILTtSoZ8a5hc/mN1nkDDiCaFENzI
jZ3+qec7Yjgn+RR7LQV8oyMwITAOBgNVHQ8BAf8EBAMCBaAwDwYDVR0TAQH/BAUw
AwIBAzAKBggqhkjOPQQDAgNIADBFAiAygqH9BjffmnXq/GzyDYl/MSejSu1O8pov
JMsvxEsXzwIhAP2Us89fOyD+FF3KKoHcREE5txmAGA1Zl35ePC3gMpBz
-----END CERTIFICATE-----
