Certificate:
    Data:
        Version: 3 (0x2)
        Serial Number: 19 (0x13)
        Signature Algorithm: ecdsa-with-SHA256
        Issuer: CN=Regione Puglia, C=IT, ST=Italia, O=E-Voting system, OU=E-Voting system authority/emailAddress=Puglia@evoting.it
        Validity
            Not Before: Aug 26 15:19:51 2022 GMT
            Not After : Aug 26 15:19:51 2023 GMT
        Subject: CN=Melanie, C=IT, ST=Italia, O=Regione Puglia
        Subject Public Key Info:
            Public Key Algorithm: id-ecPublicKey
                Public-Key: (256 bit)
                pub:
                    04:f2:ab:ff:78:87:a6:a6:bc:eb:27:6c:53:bf:40:
                    48:7e:64:1e:9c:45:c0:b2:09:a9:79:7d:0d:29:65:
                    8d:97:2a:05:02:88:1e:a6:7a:e9:14:64:1f:90:50:
                    ae:33:3e:67:ff:10:fa:c5:2c:d9:b8:a3:37:6b:fb:
                    a7:d7:2c:5d:4b
                ASN1 OID: secp256k1
        X509v3 extensions:
            X509v3 Key Usage: critical
                Digital Signature, Key Encipherment
            X509v3 Basic Constraints: critical
                CA:FALSE, pathlen:3
    Signature Algorithm: ecdsa-with-SHA256
         30:44:02:20:69:0c:52:2d:87:98:26:f7:aa:8d:fd:d2:94:d2:
         43:43:d5:7d:3a:54:dc:14:04:ec:2f:14:b0:5b:95:30:de:1a:
         02:20:16:45:c5:96:12:2c:f0:69:2c:f2:b3:25:89:77:8c:97:
         bf:e1:43:f6:e2:fc:3e:f8:a1:7a:4e:37:c9:41:8b:2e
-----BEGIN CERTIFICATE-----
MIIB7zCCAZagAwIBAgIBEzAKBggqhkjOPQQDAjCBlzEXMBUGA1UEAwwOUmVnaW9u
ZSBQdWdsaWExCzAJBgNVBAYTAklUMQ8wDQYDVQQIDAZJdGFsaWExGDAWBgNVBAoM
D0UtVm90aW5nIHN5c3RlbTEiMCAGA1UECwwZRS1Wb3Rpbmcgc3lzdGVtIGF1dGhv
cml0eTEgMB4GCSqGSIb3DQEJARYRUHVnbGlhQGV2b3RpbmcuaXQwHhcNMjIwODI2
MTUxOTUxWhcNMjMwODI2MTUxOTUxWjBJMRAwDgYDVQQDDAdNZWxhbmllMQswCQYD
VQQGEwJJVDEPMA0GA1UECAwGSXRhbGlhMRcwFQYDVQQKDA5SZWdpb25lIFB1Z2xp
YTBWMBAGByqGSM49AgEGBSuBBAAKA0IABPKr/3iHpqa86ydsU79ASH5kHpxFwLIJ
qXl9DSlljZcqBQKIHqZ66RRkH5BQrjM+Z/8Q+sUs2bijN2v7p9csXUujIzAhMA4G
A1UdDwEB/wQEAwIFoDAPBgNVHRMBAf8EBTADAgEDMAoGCCqGSM49BAMCA0cAMEQC
IGkMUi2HmCb3qo390pTSQ0PVfTpU3BQE7C8UsFuVMN4aAiAWRcWWEizwaSzysyWJ
d4yXv+FD9uL8Pvihek43yUGLLg==
-----END CERTIFICATE-----
