Certificate:
    Data:
        Version: 3 (0x2)
        Serial Number: 35 (0x23)
        Signature Algorithm: ecdsa-with-SHA256
        Issuer: CN=Regione Molise, C=IT, ST=Italia, O=E-Voting system, OU=E-Voting system authority/emailAddress=Molise@evoting.it
        Validity
            Not Before: Aug  3 13:27:48 2022 GMT
            Not After : Aug  3 13:27:48 2023 GMT
        Subject: CN=Melody, C=IT, ST=Italia, O=Regione Molise
        Subject Public Key Info:
            Public Key Algorithm: id-ecPublicKey
                Public-Key: (256 bit)
                pub:
                    04:5c:e4:bc:10:f3:e0:3e:94:21:26:d0:77:ff:17:
                    69:14:61:c2:99:66:c8:06:dd:61:9a:04:a3:ed:90:
                    ce:ad:c8:98:76:e0:ed:93:09:6d:31:24:47:b1:e8:
                    69:e6:68:9f:02:aa:77:df:f2:55:7d:47:44:5f:84:
                    ee:46:0a:cc:a3
                ASN1 OID: prime256v1
                NIST CURVE: P-256
        X509v3 extensions:
            X509v3 Key Usage: critical
                Digital Signature, Key Encipherment
            X509v3 Basic Constraints: critical
                CA:FALSE, pathlen:3
    Signature Algorithm: ecdsa-with-SHA256
         30:45:02:20:15:2b:3e:3e:d4:ce:87:ac:0c:dc:98:12:2d:7a:
         a9:7f:49:54:03:c9:be:ed:e3:c4:3f:39:64:77:61:3c:89:da:
         02:21:00:d4:97:87:08:73:25:7c:ab:f2:4b:55:06:9a:27:db:
         5f:8e:35:81:e7:8d:04:ed:30:96:e4:5c:54:7e:e3:9c:db
-----BEGIN CERTIFICATE-----
MIIB8jCCAZigAwIBAgIBIzAKBggqhkjOPQQDAjCBlzEXMBUGA1UEAwwOUmVnaW9u
ZSBNb2xpc2UxCzAJBgNVBAYTAklUMQ8wDQYDVQQIDAZJdGFsaWExGDAWBgNVBAoM
D0UtVm90aW5nIHN5c3RlbTEiMCAGA1UECwwZRS1Wb3Rpbmcgc3lzdGVtIGF1dGhv
cml0eTEgMB4GCSqGSIb3DQEJARYRTW9saXNlQGV2b3RpbmcuaXQwHhcNMjIwODAz
MTMyNzQ4WhcNMjMwODAzMTMyNzQ4WjBIMQ8wDQYDVQQDDAZNZWxvZHkxCzAJBgNV
BAYTAklUMQ8wDQYDVQQIDAZJdGFsaWExFzAVBgNVBAoMDlJlZ2lvbmUgTW9saXNl
MFkwEwYHKoZIzj0CAQYIKoZIzj0DAQcDQgAEXOS8EPPgPpQhJtB3/xdpFGHCmWbI
Bt1hmgSj7ZDOrciYduDtkwltMSRHsehp5mifAqp33/JVfUdEX4TuRgrMo6MjMCEw
DgYDVR0PAQH/BAQDAgWgMA8GA1UdEwEB/wQFMAMCAQMwCgYIKoZIzj0EAwIDSAAw
RQIgFSs+PtTOh6wM3JgSLXqpf0lUA8m+7ePEPzlkd2E8idoCIQDUl4cIcyV8q/JL
VQaaJ9tfjjWB540E7TCW5FxUfuOc2w==
-----END CERTIFICATE-----
