Certificate:
    Data:
        Version: 3 (0x2)
        Serial Number: 7 (0x7)
        Signature Algorithm: ecdsa-with-SHA256
        Issuer: CN=Regione Marche, C=IT, ST=Italia, O=E-Voting system, OU=E-Voting system authority/emailAddress=Marche@evoting.it
        Validity
            Not Before: Aug  3 13:25:57 2022 GMT
            Not After : Aug  3 13:25:57 2023 GMT
        Subject: CN=Melva, C=IT, ST=Italia, O=Regione Marche
        Subject Public Key Info:
            Public Key Algorithm: id-ecPublicKey
                Public-Key: (256 bit)
                pub:
                    04:1b:9b:4d:a1:7a:72:c5:9b:24:e2:5a:87:a4:1d:
                    80:e2:d6:8c:51:6d:a6:39:b3:ce:47:56:f2:37:52:
                    67:b5:e3:55:6c:8d:19:dc:16:d0:f7:35:7a:c9:a4:
                    c0:44:08:51:27:d2:94:fd:75:b1:b4:74:ca:1e:39:
                    fc:c0:05:3d:31
                ASN1 OID: prime256v1
                NIST CURVE: P-256
        X509v3 extensions:
            X509v3 Key Usage: critical
                Digital Signature, Key Encipherment
            X509v3 Basic Constraints: critical
                CA:FALSE, pathlen:3
    Signature Algorithm: ecdsa-with-SHA256
         30:45:02:20:09:0a:da:83:c8:fd:dd:d0:93:3d:3a:4d:b8:6f:
         d3:56:33:9b:be:0e:e5:1a:f1:93:c3:a5:6c:63:77:80:86:d1:
         02:21:00:b4:37:0c:2e:9e:28:3d:99:ca:ef:12:cb:d9:03:c3:
         b4:ca:90:d1:54:bc:e1:79:36:49:fc:5a:12:15:a8:5a:de
-----BEGIN CERTIFICATE-----
MIIB8TCCAZegAwIBAgIBBzAKBggqhkjOPQQDAjCBlzEXMBUGA1UEAwwOUmVnaW9u
ZSBNYXJjaGUxCzAJBgNVBAYTAklUMQ8wDQYDVQQIDAZJdGFsaWExGDAWBgNVBAoM
D0UtVm90aW5nIHN5c3RlbTEiMCAGA1UECwwZRS1Wb3Rpbmcgc3lzdGVtIGF1dGhv
cml0eTEgMB4GCSqGSIb3DQEJARYRTWFyY2hlQGV2b3RpbmcuaXQwHhcNMjIwODAz
MTMyNTU3WhcNMjMwODAzMTMyNTU3WjBHMQ4wDAYDVQQDDAVNZWx2YTELMAkGA1UE
BhMCSVQxDzANBgNVBAgMBkl0YWxpYTEXMBUGA1UECgwOUmVnaW9uZSBNYXJjaGUw
WTATBgcqhkjOPQIBBggqhkjOPQMBBwNCAAQbm02henLFmyTiWoekHYDi1oxRbaY5
s85HVvI3Ume141VsjRncFtD3NXrJpMBECFEn0pT9dbG0dMoeOfzABT0xoyMwITAO
BgNVHQ8BAf8EBAMCBaAwDwYDVR0TAQH/BAUwAwIBAzAKBggqhkjOPQQDAgNIADBF
AiAJCtqDyP3d0JM9Ok24b9NWM5u+DuUa8ZPDpWxjd4CG0QIhALQ3DC6eKD2Zyu8S
y9kDw7TKkNFUvOF5Nkn8WhIVqFre
-----END CERTIFICATE-----
