Certificate:
    Data:
        Version: 3 (0x2)
        Serial Number: 7 (0x7)
        Signature Algorithm: ecdsa-with-SHA256
        Issuer: CN=Regione Campania, C=IT, ST=Italia, O=E-Voting system, OU=E-Voting system authority/emailAddress=Campania@evoting.it
        Validity
            Not Before: Aug 26 15:18:59 2022 GMT
            Not After : Aug 26 15:18:59 2023 GMT
        Subject: CN=Melvin, C=IT, ST=Italia, O=Regione Campania
        Subject Public Key Info:
            Public Key Algorithm: id-ecPublicKey
                Public-Key: (256 bit)
                pub:
                    04:88:b3:b5:70:ba:ec:fe:6c:a7:ee:ae:1c:d7:d6:
                    ae:19:05:fa:38:5b:8a:53:a7:a0:16:80:9b:fb:17:
                    05:12:66:99:f2:dc:c6:0c:ae:cf:fc:7a:2b:c0:d3:
                    e9:0a:25:fa:70:fd:4e:aa:a8:c1:f0:5a:09:3c:5e:
                    3d:91:cc:43:12
                ASN1 OID: secp256k1
        X509v3 extensions:
            X509v3 Key Usage: critical
                Digital Signature, Key Encipherment
            X509v3 Basic Constraints: critical
                CA:FALSE, pathlen:3
    Signature Algorithm: ecdsa-with-SHA256
         30:46:02:21:00:b4:ec:30:3d:d6:33:27:5c:dd:85:fd:40:b5:
         06:d9:1d:a5:9a:61:23:22:ee:ec:f4:c7:42:4c:54:3e:ae:ed:
         55:02:21:00:cb:b3:a0:d7:bc:3d:e8:ee:17:e8:ce:2c:36:80:
         3f:29:51:cd:57:80:86:9c:82:55:78:8a:a3:80:f7:22:21:5f
-----BEGIN CERTIFICATE-----
MIIB9jCCAZugAwIBAgIBBzAKBggqhkjOPQQDAjCBmzEZMBcGA1UEAwwQUmVnaW9u
ZSBDYW1wYW5pYTELMAkGA1UEBhMCSVQxDzANBgNVBAgMBkl0YWxpYTEYMBYGA1UE
CgwPRS1Wb3Rpbmcgc3lzdGVtMSIwIAYDVQQLDBlFLVZvdGluZyBzeXN0ZW0gYXV0
aG9yaXR5MSIwIAYJKoZIhvcNAQkBFhNDYW1wYW5pYUBldm90aW5nLml0MB4XDTIy
MDgyNjE1MTg1OVoXDTIzMDgyNjE1MTg1OVowSjEPMA0GA1UEAwwGTWVsdmluMQsw
CQYDVQQGEwJJVDEPMA0GA1UECAwGSXRhbGlhMRkwFwYDVQQKDBBSZWdpb25lIENh
bXBhbmlhMFYwEAYHKoZIzj0CAQYFK4EEAAoDQgAEiLO1cLrs/myn7q4c19auGQX6
OFuKU6egFoCb+xcFEmaZ8tzGDK7P/HorwNPpCiX6cP1OqqjB8FoJPF49kcxDEqMj
MCEwDgYDVR0PAQH/BAQDAgWgMA8GA1UdEwEB/wQFMAMCAQMwCgYIKoZIzj0EAwID
SQAwRgIhALTsMD3WMydc3YX9QLUG2R2lmmEjIu7s9MdCTFQ+ru1VAiEAy7Og17w9
6O4X6M4sNoA/KVHNV4CGnIJVeIqjgPciIV8=
-----END CERTIFICATE-----
