Certificate:
    Data:
        Version: 3 (0x2)
        Serial Number: 36 (0x24)
        Signature Algorithm: ecdsa-with-SHA256
        Issuer: CN=Regione Trentino_Alto_Adige, C=IT, ST=Italia, O=E-Voting system, OU=E-Voting system authority/emailAddress=Trentino_Alto_Adige@evoting.it
        Validity
            Not Before: Aug  3 13:28:07 2022 GMT
            Not After : Aug  3 13:28:07 2023 GMT
        Subject: CN=Mi, C=IT, ST=Italia, O=Regione Trentino_Alto_Adige
        Subject Public Key Info:
            Public Key Algorithm: id-ecPublicKey
                Public-Key: (256 bit)
                pub:
                    04:da:0d:ce:77:34:bf:16:0d:8d:20:08:cc:60:03:
                    ba:2f:2e:f9:0b:c4:cf:22:d5:4d:8c:2f:4c:91:2e:
                    18:aa:2d:2a:71:a2:22:d0:82:41:d2:3c:28:4c:0f:
                    81:a8:d0:b5:ea:c5:fa:5a:5e:67:5e:33:f0:79:ea:
                    af:5c:e0:bf:82
                ASN1 OID: prime256v1
                NIST CURVE: P-256
        X509v3 extensions:
            X509v3 Key Usage: critical
                Digital Signature, Key Encipherment
            X509v3 Basic Constraints: critical
                CA:FALSE, pathlen:3
    Signature Algorithm: ecdsa-with-SHA256
         30:45:02:21:00:f8:ef:6c:8d:a5:31:46:ad:25:4b:90:40:a3:
         f4:6b:30:15:03:f7:97:3c:ed:9d:28:d9:82:7d:97:f6:23:82:
         28:02:20:15:8f:dd:a5:0e:a1:d1:6f:b8:0a:47:d4:91:cf:9c:
         75:48:e8:1a:7b:d4:b0:92:5a:b7:a6:4b:f0:7a:b9:3b:08
-----BEGIN CERTIFICATE-----
MIICFTCCAbugAwIBAgIBJDAKBggqhkjOPQQDAjCBsTEkMCIGA1UEAwwbUmVnaW9u
ZSBUcmVudGlub19BbHRvX0FkaWdlMQswCQYDVQQGEwJJVDEPMA0GA1UECAwGSXRh
bGlhMRgwFgYDVQQKDA9FLVZvdGluZyBzeXN0ZW0xIjAgBgNVBAsMGUUtVm90aW5n
IHN5c3RlbSBhdXRob3JpdHkxLTArBgkqhkiG9w0BCQEWHlRyZW50aW5vX0FsdG9f
QWRpZ2VAZXZvdGluZy5pdDAeFw0yMjA4MDMxMzI4MDdaFw0yMzA4MDMxMzI4MDda
MFExCzAJBgNVBAMMAk1pMQswCQYDVQQGEwJJVDEPMA0GA1UECAwGSXRhbGlhMSQw
IgYDVQQKDBtSZWdpb25lIFRyZW50aW5vX0FsdG9fQWRpZ2UwWTATBgcqhkjOPQIB
BggqhkjOPQMBBwNCAATaDc53NL8WDY0gCMxgA7ovLvkLxM8i1U2ML0yRLhiqLSpx
oiLQgkHSPChMD4Go0LXqxfpaXmdeM/B56q9c4L+CoyMwITAOBgNVHQ8BAf8EBAMC
BaAwDwYDVR0TAQH/BAUwAwIBAzAKBggqhkjOPQQDAgNIADBFAiEA+O9sjaUxRq0l
S5BAo/RrMBUD95c87Z0o2YJ9l/YjgigCIBWP3aUOodFvuApH1JHPnHVI6Bp71LCS
WremS/B6uTsI
-----END CERTIFICATE-----
