Certificate:
    Data:
        Version: 3 (0x2)
        Serial Number: 10 (0xa)
        Signature Algorithm: ecdsa-with-SHA256
        Issuer: CN=Regione Abruzzo, C=IT, ST=Italia, O=E-Voting system, OU=E-Voting system authority/emailAddress=Abruzzo@evoting.it
        Validity
            Not Before: Aug  3 13:26:09 2022 GMT
            Not After : Aug  3 13:26:09 2023 GMT
        Subject: CN=Michelle, C=IT, ST=Italia, O=Regione Abruzzo
        Subject Public Key Info:
            Public Key Algorithm: id-ecPublicKey
                Public-Key: (256 bit)
                pub:
                    04:ed:7b:41:00:79:4b:06:04:4f:52:b6:22:9e:30:
                    80:20:c5:b1:fb:a4:cc:66:20:94:42:96:25:f2:b8:
                    a5:21:3c:a2:24:a1:e4:81:69:59:0f:79:18:aa:dc:
                    e8:d5:e1:9e:ad:9c:c1:a0:de:7b:82:98:d3:e9:5f:
                    68:91:61:bf:6f
                ASN1 OID: prime256v1
                NIST CURVE: P-256
        X509v3 extensions:
            X509v3 Key Usage: critical
                Digital Signature, Key Encipherment
            X509v3 Basic Constraints: critical
                CA:FALSE, pathlen:3
    Signature Algorithm: ecdsa-with-SHA256
         30:44:02:20:3f:fe:67:52:35:c0:c3:63:24:91:29:d3:b8:89:
         05:1d:ba:b6:b2:a6:40:d1:8c:26:d8:78:41:0f:61:0c:7e:71:
         02:20:3e:b9:46:d4:4b:6b:f1:b3:f5:d2:17:e2:8f:f6:8b:03:
         93:8a:7a:73:ee:2b:30:13:ce:89:64:95:20:e0:5e:a4
-----BEGIN CERTIFICATE-----
MIIB9jCCAZ2gAwIBAgIBCjAKBggqhkjOPQQDAjCBmTEYMBYGA1UEAwwPUmVnaW9u
ZSBBYnJ1enpvMQswCQYDVQQGEwJJVDEPMA0GA1UECAwGSXRhbGlhMRgwFgYDVQQK
DA9FLVZvdGluZyBzeXN0ZW0xIjAgBgNVBAsMGUUtVm90aW5nIHN5c3RlbSBhdXRo
b3JpdHkxITAfBgkqhkiG9w0BCQEWEkFicnV6em9AZXZvdGluZy5pdDAeFw0yMjA4
MDMxMzI2MDlaFw0yMzA4MDMxMzI2MDlaMEsxETAPBgNVBAMMCE1pY2hlbGxlMQsw
CQYDVQQGEwJJVDEPMA0GA1UECAwGSXRhbGlhMRgwFgYDVQQKDA9SZWdpb25lIEFi
cnV6em8wWTATBgcqhkjOPQIBBggqhkjOPQMBBwNCAATte0EAeUsGBE9StiKeMIAg
xbH7pMxmIJRCliXyuKUhPKIkoeSBaVkPeRiq3OjV4Z6tnMGg3nuCmNPpX2iRYb9v
oyMwITAOBgNVHQ8BAf8EBAMCBaAwDwYDVR0TAQH/BAUwAwIBAzAKBggqhkjOPQQD
AgNHADBEAiA//mdSNcDDYySRKdO4iQUduraypkDRjCbYeEEPYQx+cQIgPrlG1Etr
8bP10hfij/aLA5OKenPuKzATzolklSDgXqQ=
-----END CERTIFICATE-----
