Certificate:
    Data:
        Version: 3 (0x2)
        Serial Number: 5 (0x5)
        Signature Algorithm: ecdsa-with-SHA256
        Issuer: CN=Regione Puglia, C=IT, ST=Italia, O=E-Voting system, OU=E-Voting system authority/emailAddress=Puglia@evoting.it
        Validity
            Not Before: Aug 26 15:18:41 2022 GMT
            Not After : Aug 26 15:18:41 2023 GMT
        Subject: CN=Michele, C=IT, ST=Italia, O=Regione Puglia
        Subject Public Key Info:
            Public Key Algorithm: id-ecPublicKey
                Public-Key: (256 bit)
                pub:
                    04:03:1e:1c:26:dc:76:58:eb:96:55:cd:14:51:ab:
                    d1:9d:22:17:e7:7e:a4:7e:50:67:d7:15:b2:82:2a:
                    44:a7:ec:a8:cc:62:12:82:04:a7:a9:24:38:dd:c4:
                    49:72:06:15:54:29:97:53:60:aa:eb:c4:f2:45:11:
                    fd:7c:5c:4e:89
                ASN1 OID: secp256k1
        X509v3 extensions:
            X509v3 Key Usage: critical
                Digital Signature, Key Encipherment
            X509v3 Basic Constraints: critical
                CA:FALSE, pathlen:3
    Signature Algorithm: ecdsa-with-SHA256
         30:45:02:21:00:e8:7b:4a:3a:7b:d0:b7:96:e3:df:e0:e2:e3:
         25:8e:eb:a0:5b:a1:78:13:0b:57:54:99:7b:31:ff:99:47:1e:
         c8:02:20:72:7c:83:81:6c:82:7e:69:bb:56:88:30:17:df:ed:
         82:7e:9c:f1:a2:c4:da:7c:31:4f:b8:86:64:51:97:9f:8f
-----BEGIN CERTIFICATE-----
MIIB8DCCAZagAwIBAgIBBTAKBggqhkjOPQQDAjCBlzEXMBUGA1UEAwwOUmVnaW9u
ZSBQdWdsaWExCzAJBgNVBAYTAklUMQ8wDQYDVQQIDAZJdGFsaWExGDAWBgNVBAoM
D0UtVm90aW5nIHN5c3RlbTEiMCAGA1UECwwZRS1Wb3Rpbmcgc3lzdGVtIGF1dGhv
cml0eTEgMB4GCSqGSIb3DQEJARYRUHVnbGlhQGV2b3RpbmcuaXQwHhcNMjIwODI2
MTUxODQxWhcNMjMwODI2MTUxODQxWjBJMRAwDgYDVQQDDAdNaWNoZWxlMQswCQYD
VQQGEwJJVDEPMA0GA1UECAwGSXRhbGlhMRcwFQYDVQQKDA5SZWdpb25lIFB1Z2xp
YTBWMBAGByqGSM49AgEGBSuBBAAKA0IABAMeHCbcdljrllXNFFGr0Z0iF+d+pH5Q
Z9cVsoIqRKfsqMxiEoIEp6kkON3ESXIGFVQpl1NgquvE8kUR/XxcTomjIzAhMA4G
A1UdDwEB/wQEAwIFoDAPBgNVHRMBAf8EBTADAgEDMAoGCCqGSM49BAMCA0gAMEUC
IQDoe0o6e9C3luPf4OLjJY7roFuheBMLV1SZezH/mUceyAIgcnyDgWyCfmm7Vogw
F9/tgn6c8aLE2nwxT7iGZFGXn48=
-----END CERTIFICATE-----
