Certificate:
    Data:
        Version: 3 (0x2)
        Serial Number: 24 (0x18)
        Signature Algorithm: ecdsa-with-SHA256
        Issuer: CN=Regione Lazio, C=IT, ST=Italia, O=E-Voting system, OU=E-Voting system authority/emailAddress=Lazio@evoting.it
        Validity
            Not Before: Aug 26 15:19:59 2022 GMT
            Not After : Aug 26 15:19:59 2023 GMT
        Subject: CN=Michael, C=IT, ST=Italia, O=Regione Lazio
        Subject Public Key Info:
            Public Key Algorithm: id-ecPublicKey
                Public-Key: (256 bit)
                pub:
                    04:39:f9:e5:d3:b4:cf:3b:7a:b8:9c:dd:3f:e7:cf:
                    ba:73:64:ba:09:c8:30:02:a2:95:6f:f9:df:e2:5c:
                    1c:ec:bb:b6:fd:c3:27:be:1f:7a:56:74:02:9d:b0:
                    03:81:00:28:29:76:31:3f:84:3e:72:38:f2:6b:a0:
                    8b:22:9b:36:88
                ASN1 OID: secp256k1
        X509v3 extensions:
            X509v3 Key Usage: critical
                Digital Signature, Key Encipherment
            X509v3 Basic Constraints: critical
                CA:FALSE, pathlen:3
    Signature Algorithm: ecdsa-with-SHA256
         30:45:02:20:05:67:ac:d0:a6:b9:33:25:e9:7a:b9:14:73:e7:
         60:21:a1:9f:b3:2a:6e:24:52:a7:61:39:83:48:d1:cb:1d:9a:
         02:21:00:f9:bc:c7:be:92:2f:af:dd:f5:cd:25:37:aa:2f:ab:
         df:61:fe:15:d9:4b:4b:13:df:18:71:f7:a8:ef:52:49:46
-----BEGIN CERTIFICATE-----
MIIB7TCCAZOgAwIBAgIBGDAKBggqhkjOPQQDAjCBlTEWMBQGA1UEAwwNUmVnaW9u
ZSBMYXppbzELMAkGA1UEBhMCSVQxDzANBgNVBAgMBkl0YWxpYTEYMBYGA1UECgwP
RS1Wb3Rpbmcgc3lzdGVtMSIwIAYDVQQLDBlFLVZvdGluZyBzeXN0ZW0gYXV0aG9y
aXR5MR8wHQYJKoZIhvcNAQkBFhBMYXppb0Bldm90aW5nLml0MB4XDTIyMDgyNjE1
MTk1OVoXDTIzMDgyNjE1MTk1OVowSDEQMA4GA1UEAwwHTWljaGFlbDELMAkGA1UE
BhMCSVQxDzANBgNVBAgMBkl0YWxpYTEWMBQGA1UECgwNUmVnaW9uZSBMYXppbzBW
MBAGByqGSM49AgEGBSuBBAAKA0IABDn55dO0zzt6uJzdP+fPunNkugnIMAKilW/5
3+JcHOy7tv3DJ74felZ0Ap2wA4EAKCl2MT+EPnI48mugiyKbNoijIzAhMA4GA1Ud
DwEB/wQEAwIFoDAPBgNVHRMBAf8EBTADAgEDMAoGCCqGSM49BAMCA0gAMEUCIAVn
rNCmuTMl6Xq5FHPnYCGhn7MqbiRSp2E5g0jRyx2aAiEA+bzHvpIvr931zSU3qi+r
32H+FdlLSxPfGHH3qO9SSUY=
-----END CERTIFICATE-----
