Certificate:
    Data:
        Version: 3 (0x2)
        Serial Number: 20 (0x14)
        Signature Algorithm: ecdsa-with-SHA256
        Issuer: CN=Regione Trentino_Alto_Adige, C=IT, ST=Italia, O=E-Voting system, OU=E-Voting system authority/emailAddress=Trentino_Alto_Adige@evoting.it
        Validity
            Not Before: Aug 26 15:19:48 2022 GMT
            Not After : Aug 26 15:19:48 2023 GMT
        Subject: CN=Michelle, C=IT, ST=Italia, O=Regione Trentino_Alto_Adige
        Subject Public Key Info:
            Public Key Algorithm: id-ecPublicKey
                Public-Key: (256 bit)
                pub:
                    04:5e:6d:69:c3:bb:15:d1:2e:46:12:01:72:4c:d3:
                    c8:93:0a:34:43:12:7d:0d:e6:3b:52:a4:da:f3:a3:
                    83:d7:00:84:3e:88:1b:28:34:2d:9d:6c:1a:4c:8d:
                    13:e8:0d:67:50:5c:5f:2c:02:8a:b1:be:db:36:69:
                    53:48:17:0f:cb
                ASN1 OID: secp256k1
        X509v3 extensions:
            X509v3 Key Usage: critical
                Digital Signature, Key Encipherment
            X509v3 Basic Constraints: critical
                CA:FALSE, pathlen:3
    Signature Algorithm: ecdsa-with-SHA256
         30:45:02:21:00:cc:85:a1:8b:24:0e:be:97:2c:27:fb:32:be:
         9e:17:65:d9:e5:ff:c8:88:42:1f:cc:55:7c:b5:db:74:c6:88:
         a8:02:20:12:3e:ac:a1:5a:84:f9:4f:9b:d8:fd:31:27:30:f5:
         fe:7a:a0:f8:d4:76:17:77:b9:c7:60:64:2d:3f:28:22:17
-----BEGIN CERTIFICATE-----
MIICGDCCAb6gAwIBAgIBFDAKBggqhkjOPQQDAjCBsTEkMCIGA1UEAwwbUmVnaW9u
ZSBUcmVudGlub19BbHRvX0FkaWdlMQswCQYDVQQGEwJJVDEPMA0GA1UECAwGSXRh
bGlhMRgwFgYDVQQKDA9FLVZvdGluZyBzeXN0ZW0xIjAgBgNVBAsMGUUtVm90aW5n
IHN5c3RlbSBhdXRob3JpdHkxLTArBgkqhkiG9w0BCQEWHlRyZW50aW5vX0FsdG9f
QWRpZ2VAZXZvdGluZy5pdDAeFw0yMjA4MjYxNTE5NDhaFw0yMzA4MjYxNTE5NDha
MFcxETAPBgNVBAMMCE1pY2hlbGxlMQswCQYDVQQGEwJJVDEPMA0GA1UECAwGSXRh
bGlhMSQwIgYDVQQKDBtSZWdpb25lIFRyZW50aW5vX0FsdG9fQWRpZ2UwVjAQBgcq
hkjOPQIBBgUrgQQACgNCAARebWnDuxXRLkYSAXJM08iTCjRDEn0N5jtSpNrzo4PX
AIQ+iBsoNC2dbBpMjRPoDWdQXF8sAoqxvts2aVNIFw/LoyMwITAOBgNVHQ8BAf8E
BAMCBaAwDwYDVR0TAQH/BAUwAwIBAzAKBggqhkjOPQQDAgNIADBFAiEAzIWhiyQO
vpcsJ/syvp4XZdnl/8iIQh/MVXy123TGiKgCIBI+rKFahPlPm9j9MScw9f56oPjU
dhd3ucdgZC0/KCIX
-----END CERTIFICATE-----
