Certificate:
    Data:
        Version: 3 (0x2)
        Serial Number: 22 (0x16)
        Signature Algorithm: ecdsa-with-SHA256
        Issuer: CN=Regione Basilicata, C=IT, ST=Italia, O=E-Voting system, OU=E-Voting system authority/emailAddress=Basilicata@evoting.it
        Validity
            Not Before: Aug 26 15:20:13 2022 GMT
            Not After : Aug 26 15:20:13 2023 GMT
        Subject: CN=Michale, C=IT, ST=Italia, O=Regione Basilicata
        Subject Public Key Info:
            Public Key Algorithm: id-ecPublicKey
                Public-Key: (256 bit)
                pub:
                    04:73:55:96:9f:5a:13:44:7a:64:1e:a4:22:08:44:
                    e3:8b:7f:96:e7:87:6a:be:78:a7:dc:11:5f:86:8e:
                    de:65:e6:50:12:7a:e4:0a:c5:75:ce:b8:53:25:af:
                    23:08:2a:94:f8:b7:7d:4a:d6:cb:e8:e1:45:4c:ae:
                    92:27:c3:f0:30
                ASN1 OID: secp256k1
        X509v3 extensions:
            X509v3 Key Usage: critical
                Digital Signature, Key Encipherment
            X509v3 Basic Constraints: critical
                CA:FALSE, pathlen:3
    Signature Algorithm: ecdsa-with-SHA256
         30:45:02:21:00:81:78:4a:f7:91:57:3e:4a:e6:40:9f:75:ab:
         fb:13:17:b8:9a:fd:d5:04:31:77:c7:f1:75:da:74:61:3b:25:
         4f:02:20:05:89:f2:9e:4b:41:dd:26:43:a9:81:ef:75:a5:17:
         84:1b:6e:36:b7:10:8a:bd:23:1d:c3:2c:86:ec:57:f9:09
-----BEGIN CERTIFICATE-----
MIIB/DCCAaKgAwIBAgIBFjAKBggqhkjOPQQDAjCBnzEbMBkGA1UEAwwSUmVnaW9u
ZSBCYXNpbGljYXRhMQswCQYDVQQGEwJJVDEPMA0GA1UECAwGSXRhbGlhMRgwFgYD
VQQKDA9FLVZvdGluZyBzeXN0ZW0xIjAgBgNVBAsMGUUtVm90aW5nIHN5c3RlbSBh
dXRob3JpdHkxJDAiBgkqhkiG9w0BCQEWFUJhc2lsaWNhdGFAZXZvdGluZy5pdDAe
Fw0yMjA4MjYxNTIwMTNaFw0yMzA4MjYxNTIwMTNaME0xEDAOBgNVBAMMB01pY2hh
bGUxCzAJBgNVBAYTAklUMQ8wDQYDVQQIDAZJdGFsaWExGzAZBgNVBAoMElJlZ2lv
bmUgQmFzaWxpY2F0YTBWMBAGByqGSM49AgEGBSuBBAAKA0IABHNVlp9aE0R6ZB6k
IghE44t/lueHar54p9wRX4aO3mXmUBJ65ArFdc64UyWvIwgqlPi3fUrWy+jhRUyu
kifD8DCjIzAhMA4GA1UdDwEB/wQEAwIFoDAPBgNVHRMBAf8EBTADAgEDMAoGCCqG
SM49BAMCA0gAMEUCIQCBeEr3kVc+SuZAn3Wr+xMXuJr91QQxd8fxddp0YTslTwIg
BYnynktB3SZDqYHvdaUXhBtuNrcQir0jHcMshuxX+Qk=
-----END CERTIFICATE-----
