Certificate:
    Data:
        Version: 3 (0x2)
        Serial Number: 1 (0x1)
        Signature Algorithm: ecdsa-with-SHA256
        Issuer: CN=Regione Molise, C=IT, ST=Italia, O=E-Voting system, OU=E-Voting system authority/emailAddress=Molise@evoting.it
        Validity
            Not Before: Aug 26 15:18:31 2022 GMT
            Not After : Aug 26 15:18:31 2023 GMT
        Subject: CN=Micheal, C=IT, ST=Italia, O=Regione Molise
        Subject Public Key Info:
            Public Key Algorithm: id-ecPublicKey
                Public-Key: (256 bit)
                pub:
                    04:52:6b:36:31:c9:9c:74:c7:b6:62:ff:6c:80:a3:
                    a6:e1:f0:18:6c:53:0c:c7:1b:0f:b2:75:f7:9f:f0:
                    7a:b6:0c:2a:b8:e0:ac:b6:b2:e5:40:45:10:be:86:
                    8b:50:49:26:1d:02:ef:a1:3a:75:06:cb:08:09:31:
                    9a:aa:f9:75:a6
                ASN1 OID: secp256k1
        X509v3 extensions:
            X509v3 Key Usage: critical
                Digital Signature, Key Encipherment
            X509v3 Basic Constraints: critical
                CA:FALSE, pathlen:3
    Signature Algorithm: ecdsa-with-SHA256
         30:46:02:21:00:96:43:85:c0:5d:d7:7d:fc:16:b4:15:1c:3c:
         38:8f:01:7c:fd:f4:f7:3d:eb:fd:7c:e2:df:4c:e8:82:8a:84:
         10:02:21:00:85:df:11:68:47:be:3c:11:42:f3:21:76:1b:44:
         1b:38:43:88:30:aa:f8:8b:31:f5:b3:6b:bf:3d:69:0a:04:5e
-----BEGIN CERTIFICATE-----
MIIB8TCCAZagAwIBAgIBATAKBggqhkjOPQQDAjCBlzEXMBUGA1UEAwwOUmVnaW9u
ZSBNb2xpc2UxCzAJBgNVBAYTAklUMQ8wDQYDVQQIDAZJdGFsaWExGDAWBgNVBAoM
D0UtVm90aW5nIHN5c3RlbTEiMCAGA1UECwwZRS1Wb3Rpbmcgc3lzdGVtIGF1dGhv
cml0eTEgMB4GCSqGSIb3DQEJARYRTW9saXNlQGV2b3RpbmcuaXQwHhcNMjIwODI2
MTUxODMxWhcNMjMwODI2MTUxODMxWjBJMRAwDgYDVQQDDAdNaWNoZWFsMQswCQYD
VQQGEwJJVDEPMA0GA1UECAwGSXRhbGlhMRcwFQYDVQQKDA5SZWdpb25lIE1vbGlz
ZTBWMBAGByqGSM49AgEGBSuBBAAKA0IABFJrNjHJnHTHtmL/bICjpuHwGGxTDMcb
D7J195/werYMKrjgrLay5UBFEL6Gi1BJJh0C76E6dQbLCAkxmqr5daajIzAhMA4G
A1UdDwEB/wQEAwIFoDAPBgNVHRMBAf8EBTADAgEDMAoGCCqGSM49BAMCA0kAMEYC
IQCWQ4XAXdd9/Ba0FRw8OI8BfP309z3r/Xzi30zogoqEEAIhAIXfEWhHvjwRQvMh
dhtEGzhDiDCq+Isx9bNrvz1pCgRe
-----END CERTIFICATE-----
