Certificate:
    Data:
        Version: 3 (0x2)
        Serial Number: 32 (0x20)
        Signature Algorithm: ecdsa-with-SHA256
        Issuer: CN=Regione Lombardia, C=IT, ST=Italia, O=E-Voting system, OU=E-Voting system authority/emailAddress=Lombardia@evoting.it
        Validity
            Not Before: Aug  3 13:27:26 2022 GMT
            Not After : Aug  3 13:27:26 2023 GMT
        Subject: CN=Micheal, C=IT, ST=Italia, O=Regione Lombardia
        Subject Public Key Info:
            Public Key Algorithm: id-ecPublicKey
                Public-Key: (256 bit)
                pub:
                    04:52:a0:66:a3:df:3d:76:1d:5b:9f:6b:1e:b2:40:
                    5d:ef:ef:76:b9:37:06:88:0b:b5:6f:fd:a0:c8:a6:
                    fa:fe:21:67:9c:ae:c8:61:1e:b5:d2:16:ab:42:3f:
                    d5:23:fa:78:03:2f:e5:13:28:fd:13:5d:f1:44:0b:
                    2a:53:1d:ae:8c
                ASN1 OID: prime256v1
                NIST CURVE: P-256
        X509v3 extensions:
            X509v3 Key Usage: critical
                Digital Signature, Key Encipherment
            X509v3 Basic Constraints: critical
                CA:FALSE, pathlen:3
    Signature Algorithm: ecdsa-with-SHA256
         30:45:02:21:00:e0:e0:9b:d4:95:98:5b:e4:f4:4c:80:b9:92:
         4e:45:e6:24:75:5f:12:32:5d:c8:7c:07:34:6a:6e:7c:41:62:
         78:02:20:10:f9:4c:e2:71:46:c1:d2:64:f3:c4:f4:47:ef:b5:
         29:46:39:ee:1b:87:8a:93:49:44:b6:ac:17:3a:7c:40:0c
-----BEGIN CERTIFICATE-----
MIIB/DCCAaKgAwIBAgIBIDAKBggqhkjOPQQDAjCBnTEaMBgGA1UEAwwRUmVnaW9u
ZSBMb21iYXJkaWExCzAJBgNVBAYTAklUMQ8wDQYDVQQIDAZJdGFsaWExGDAWBgNV
BAoMD0UtVm90aW5nIHN5c3RlbTEiMCAGA1UECwwZRS1Wb3Rpbmcgc3lzdGVtIGF1
dGhvcml0eTEjMCEGCSqGSIb3DQEJARYUTG9tYmFyZGlhQGV2b3RpbmcuaXQwHhcN
MjIwODAzMTMyNzI2WhcNMjMwODAzMTMyNzI2WjBMMRAwDgYDVQQDDAdNaWNoZWFs
MQswCQYDVQQGEwJJVDEPMA0GA1UECAwGSXRhbGlhMRowGAYDVQQKDBFSZWdpb25l
IExvbWJhcmRpYTBZMBMGByqGSM49AgEGCCqGSM49AwEHA0IABFKgZqPfPXYdW59r
HrJAXe/vdrk3BogLtW/9oMim+v4hZ5yuyGEetdIWq0I/1SP6eAMv5RMo/RNd8UQL
KlMdroyjIzAhMA4GA1UdDwEB/wQEAwIFoDAPBgNVHRMBAf8EBTADAgEDMAoGCCqG
SM49BAMCA0gAMEUCIQDg4JvUlZhb5PRMgLmSTkXmJHVfEjJdyHwHNGpufEFieAIg
EPlM4nFGwdJk88T0R++1KUY57huHipNJRLasFzp8QAw=
-----END CERTIFICATE-----
