Certificate:
    Data:
        Version: 3 (0x2)
        Serial Number: 14 (0xe)
        Signature Algorithm: ecdsa-with-SHA256
        Issuer: CN=Regione Toscana, C=IT, ST=Italia, O=E-Voting system, OU=E-Voting system authority/emailAddress=Toscana@evoting.it
        Validity
            Not Before: Aug 26 15:19:34 2022 GMT
            Not After : Aug 26 15:19:34 2023 GMT
        Subject: CN=Miguel, C=IT, ST=Italia, O=Regione Toscana
        Subject Public Key Info:
            Public Key Algorithm: id-ecPublicKey
                Public-Key: (256 bit)
                pub:
                    04:78:b1:41:e9:0b:d9:14:e2:5c:bd:28:ac:0b:75:
                    ea:34:b3:6f:9f:63:28:26:f7:7e:1b:ec:c3:31:be:
                    16:70:6d:ff:6c:7b:65:c2:0b:ba:c3:5f:45:37:c8:
                    48:b4:a3:0c:0b:a0:0a:cb:b5:de:0a:ab:08:13:15:
                    32:ac:e8:33:0f
                ASN1 OID: secp256k1
        X509v3 extensions:
            X509v3 Key Usage: critical
                Digital Signature, Key Encipherment
            X509v3 Basic Constraints: critical
                CA:FALSE, pathlen:3
    Signature Algorithm: ecdsa-with-SHA256
         30:45:02:21:00:98:b9:48:2d:71:9b:f3:1a:9c:d8:f3:31:02:
         0b:c4:20:20:2f:38:c6:a5:e5:3a:c1:31:87:8f:bf:f8:92:2a:
         04:02:20:5a:2d:83:f2:8c:d3:b1:84:77:cb:0b:34:10:ba:3b:
         dd:54:21:e6:62:dc:a4:13:6a:e0:ca:89:0d:dd:7a:66:0e
-----BEGIN CERTIFICATE-----
MIIB8jCCAZigAwIBAgIBDjAKBggqhkjOPQQDAjCBmTEYMBYGA1UEAwwPUmVnaW9u
ZSBUb3NjYW5hMQswCQYDVQQGEwJJVDEPMA0GA1UECAwGSXRhbGlhMRgwFgYDVQQK
DA9FLVZvdGluZyBzeXN0ZW0xIjAgBgNVBAsMGUUtVm90aW5nIHN5c3RlbSBhdXRo
b3JpdHkxITAfBgkqhkiG9w0BCQEWElRvc2NhbmFAZXZvdGluZy5pdDAeFw0yMjA4
MjYxNTE5MzRaFw0yMzA4MjYxNTE5MzRaMEkxDzANBgNVBAMMBk1pZ3VlbDELMAkG
A1UEBhMCSVQxDzANBgNVBAgMBkl0YWxpYTEYMBYGA1UECgwPUmVnaW9uZSBUb3Nj
YW5hMFYwEAYHKoZIzj0CAQYFK4EEAAoDQgAEeLFB6QvZFOJcvSisC3XqNLNvn2Mo
Jvd+G+zDMb4WcG3/bHtlwgu6w19FN8hItKMMC6AKy7XeCqsIExUyrOgzD6MjMCEw
DgYDVR0PAQH/BAQDAgWgMA8GA1UdEwEB/wQFMAMCAQMwCgYIKoZIzj0EAwIDSAAw
RQIhAJi5SC1xm/ManNjzMQILxCAgLzjGpeU6wTGHj7/4kioEAiBaLYPyjNOxhHfL
CzQQujvdVCHmYtykE2rgyokN3XpmDg==
-----END CERTIFICATE-----
