Certificate:
    Data:
        Version: 3 (0x2)
        Serial Number: 45 (0x2d)
        Signature Algorithm: ecdsa-with-SHA256
        Issuer: CN=Regione Piemonte, C=IT, ST=Italia, O=E-Voting system, OU=E-Voting system authority/emailAddress=Piemonte@evoting.it
        Validity
            Not Before: Aug  3 13:27:27 2022 GMT
            Not After : Aug  3 13:27:27 2023 GMT
        Subject: CN=Miguel, C=IT, ST=Italia, O=Regione Piemonte
        Subject Public Key Info:
            Public Key Algorithm: id-ecPublicKey
                Public-Key: (256 bit)
                pub:
                    04:e9:b5:e3:e4:6f:f4:47:c8:f4:98:2f:d9:4a:01:
                    a8:dc:27:62:58:c8:14:d9:63:90:bd:2d:06:41:25:
                    8d:a0:77:3b:c5:78:63:f4:db:c3:75:7f:bb:05:8f:
                    04:32:c3:bf:28:d3:63:d8:af:86:5e:3c:4a:4f:ec:
                    dd:0b:db:5d:84
                ASN1 OID: prime256v1
                NIST CURVE: P-256
        X509v3 extensions:
            X509v3 Key Usage: critical
                Digital Signature, Key Encipherment
            X509v3 Basic Constraints: critical
                CA:FALSE, pathlen:3
    Signature Algorithm: ecdsa-with-SHA256
         30:45:02:20:6f:ef:28:1d:f2:a9:11:da:d7:aa:67:31:19:eb:
         fc:78:d7:15:bd:39:16:9d:ba:2d:84:ae:39:f1:0b:b3:10:3c:
         02:21:00:fa:4b:f3:17:36:df:54:dc:05:98:fa:a0:04:95:76:
         e9:d0:e4:86:4b:50:3a:b9:f6:c7:1c:f6:62:18:f0:0f:00
-----BEGIN CERTIFICATE-----
MIIB+DCCAZ6gAwIBAgIBLTAKBggqhkjOPQQDAjCBmzEZMBcGA1UEAwwQUmVnaW9u
ZSBQaWVtb250ZTELMAkGA1UEBhMCSVQxDzANBgNVBAgMBkl0YWxpYTEYMBYGA1UE
CgwPRS1Wb3Rpbmcgc3lzdGVtMSIwIAYDVQQLDBlFLVZvdGluZyBzeXN0ZW0gYXV0
aG9yaXR5MSIwIAYJKoZIhvcNAQkBFhNQaWVtb250ZUBldm90aW5nLml0MB4XDTIy
MDgwMzEzMjcyN1oXDTIzMDgwMzEzMjcyN1owSjEPMA0GA1UEAwwGTWlndWVsMQsw
CQYDVQQGEwJJVDEPMA0GA1UECAwGSXRhbGlhMRkwFwYDVQQKDBBSZWdpb25lIFBp
ZW1vbnRlMFkwEwYHKoZIzj0CAQYIKoZIzj0DAQcDQgAE6bXj5G/0R8j0mC/ZSgGo
3CdiWMgU2WOQvS0GQSWNoHc7xXhj9NvDdX+7BY8EMsO/KNNj2K+GXjxKT+zdC9td
hKMjMCEwDgYDVR0PAQH/BAQDAgWgMA8GA1UdEwEB/wQFMAMCAQMwCgYIKoZIzj0E
AwIDSAAwRQIgb+8oHfKpEdrXqmcxGev8eNcVvTkWnbothK458QuzEDwCIQD6S/MX
Nt9U3AWY+qAElXbp0OSGS1A6ufbHHPZiGPAPAA==
-----END CERTIFICATE-----
