Certificate:
    Data:
        Version: 3 (0x2)
        Serial Number: 12 (0xc)
        Signature Algorithm: ecdsa-with-SHA256
        Issuer: CN=Regione Emilia_Romagna, C=IT, ST=Italia, O=E-Voting system, OU=E-Voting system authority/emailAddress=Emilia_Romagna@evoting.it
        Validity
            Not Before: Aug 26 15:19:12 2022 GMT
            Not After : Aug 26 15:19:12 2023 GMT
        Subject: CN=Mike, C=IT, ST=Italia, O=Regione Emilia_Romagna
        Subject Public Key Info:
            Public Key Algorithm: id-ecPublicKey
                Public-Key: (256 bit)
                pub:
                    04:51:5e:89:36:26:8f:d1:95:fc:28:0a:e2:12:a7:
                    2b:b2:c6:6e:3a:4f:9b:1b:71:70:b5:38:f3:97:43:
                    4f:d2:de:b7:6f:73:3d:ec:ce:2f:f0:a1:4f:65:a6:
                    15:13:0e:24:0f:23:af:8e:bd:d1:b3:8a:34:06:40:
                    9e:da:c8:20:fc
                ASN1 OID: secp256k1
        X509v3 extensions:
            X509v3 Key Usage: critical
                Digital Signature, Key Encipherment
            X509v3 Basic Constraints: critical
                CA:FALSE, pathlen:3
    Signature Algorithm: ecdsa-with-SHA256
         30:46:02:21:00:ca:02:81:2b:19:6d:54:c8:1e:c4:f1:3f:1f:
         a8:65:ca:5c:49:0e:37:3e:c0:02:18:4b:af:43:02:49:74:46:
         26:02:21:00:cb:98:4e:f2:d2:d1:51:bd:d0:1d:f1:0c:67:ec:
         33:3a:60:63:f1:aa:ee:81:40:bb:75:fb:4c:03:e7:62:12:79
-----BEGIN CERTIFICATE-----
MIICBjCCAaugAwIBAgIBDDAKBggqhkjOPQQDAjCBpzEfMB0GA1UEAwwWUmVnaW9u
ZSBFbWlsaWFfUm9tYWduYTELMAkGA1UEBhMCSVQxDzANBgNVBAgMBkl0YWxpYTEY
MBYGA1UECgwPRS1Wb3Rpbmcgc3lzdGVtMSIwIAYDVQQLDBlFLVZvdGluZyBzeXN0
ZW0gYXV0aG9yaXR5MSgwJgYJKoZIhvcNAQkBFhlFbWlsaWFfUm9tYWduYUBldm90
aW5nLml0MB4XDTIyMDgyNjE1MTkxMloXDTIzMDgyNjE1MTkxMlowTjENMAsGA1UE
AwwETWlrZTELMAkGA1UEBhMCSVQxDzANBgNVBAgMBkl0YWxpYTEfMB0GA1UECgwW
UmVnaW9uZSBFbWlsaWFfUm9tYWduYTBWMBAGByqGSM49AgEGBSuBBAAKA0IABFFe
iTYmj9GV/CgK4hKnK7LGbjpPmxtxcLU485dDT9Let29zPezOL/ChT2WmFRMOJA8j
r4690bOKNAZAntrIIPyjIzAhMA4GA1UdDwEB/wQEAwIFoDAPBgNVHRMBAf8EBTAD
AgEDMAoGCCqGSM49BAMCA0kAMEYCIQDKAoErGW1UyB7E8T8fqGXKXEkONz7AAhhL
r0MCSXRGJgIhAMuYTvLS0VG90B3xDGfsMzpgY/Gq7oFAu3X7TAPnYhJ5
-----END CERTIFICATE-----
