Certificate:
    Data:
        Version: 3 (0x2)
        Serial Number: 3 (0x3)
        Signature Algorithm: ecdsa-with-SHA256
        Issuer: CN=Regione Piemonte, C=IT, ST=Italia, O=E-Voting system, OU=E-Voting system authority/emailAddress=Piemonte@evoting.it
        Validity
            Not Before: Aug  3 13:25:44 2022 GMT
            Not After : Aug  3 13:25:44 2023 GMT
        Subject: CN=Milagros, C=IT, ST=Italia, O=Regione Piemonte
        Subject Public Key Info:
            Public Key Algorithm: id-ecPublicKey
                Public-Key: (256 bit)
                pub:
                    04:f2:8e:3e:77:c6:ae:e6:4c:37:b0:04:a9:ac:42:
                    2d:7a:82:f8:b6:ef:57:35:7a:f8:59:34:00:4d:cc:
                    6a:a9:7a:dc:aa:0b:07:5c:6e:9c:96:49:ee:6c:a3:
                    d1:87:e7:ca:e8:a9:f8:7f:0d:e1:18:56:1c:a9:90:
                    83:55:bc:7f:bb
                ASN1 OID: prime256v1
                NIST CURVE: P-256
        X509v3 extensions:
            X509v3 Key Usage: critical
                Digital Signature, Key Encipherment
            X509v3 Basic Constraints: critical
                CA:FALSE, pathlen:3
    Signature Algorithm: ecdsa-with-SHA256
         30:44:02:20:0f:61:91:7e:81:1d:40:67:b2:25:1e:89:35:46:
         77:48:df:07:70:ea:5c:ef:5d:b8:d5:3d:33:cd:60:9b:a7:3b:
         02:20:7b:f0:a5:ce:1d:77:22:00:ef:8c:84:04:2c:b8:d1:27:
         ed:e4:62:7e:fb:17:b3:76:c9:6f:8c:2b:ac:40:7a:05
-----BEGIN CERTIFICATE-----
MIIB+TCCAaCgAwIBAgIBAzAKBggqhkjOPQQDAjCBmzEZMBcGA1UEAwwQUmVnaW9u
ZSBQaWVtb250ZTELMAkGA1UEBhMCSVQxDzANBgNVBAgMBkl0YWxpYTEYMBYGA1UE
CgwPRS1Wb3Rpbmcgc3lzdGVtMSIwIAYDVQQLDBlFLVZvdGluZyBzeXN0ZW0gYXV0
aG9yaXR5MSIwIAYJKoZIhvcNAQkBFhNQaWVtb250ZUBldm90aW5nLml0MB4XDTIy
MDgwMzEzMjU0NFoXDTIzMDgwMzEzMjU0NFowTDERMA8GA1UEAwwITWlsYWdyb3Mx
CzAJBgNVBAYTAklUMQ8wDQYDVQQIDAZJdGFsaWExGTAXBgNVBAoMEFJlZ2lvbmUg
UGllbW9udGUwWTATBgcqhkjOPQIBBggqhkjOPQMBBwNCAATyjj53xq7mTDewBKms
Qi16gvi271c1evhZNABNzGqpetyqCwdcbpyWSe5so9GH58roqfh/DeEYVhypkINV
vH+7oyMwITAOBgNVHQ8BAf8EBAMCBaAwDwYDVR0TAQH/BAUwAwIBAzAKBggqhkjO
PQQDAgNHADBEAiAPYZF+gR1AZ7IlHok1RndI3wdw6lzvXbjVPTPNYJunOwIge/Cl
zh13IgDvjIQELLjRJ+3kYn77F7N2yW+MK6xAegU=
-----END CERTIFICATE-----
