Certificate:
    Data:
        Version: 3 (0x2)
        Serial Number: 27 (0x1b)
        Signature Algorithm: ecdsa-with-SHA256
        Issuer: CN=Regione Piemonte, C=IT, ST=Italia, O=E-Voting system, OU=E-Voting system authority/emailAddress=Piemonte@evoting.it
        Validity
            Not Before: Aug 26 15:20:25 2022 GMT
            Not After : Aug 26 15:20:25 2023 GMT
        Subject: CN=Mildred, C=IT, ST=Italia, O=Regione Piemonte
        Subject Public Key Info:
            Public Key Algorithm: id-ecPublicKey
                Public-Key: (256 bit)
                pub:
                    04:fb:e6:c7:2f:60:a5:42:bc:3d:ef:e5:fe:b2:4b:
                    56:7d:db:a4:bb:e3:6f:9f:69:56:a4:d3:1c:e6:de:
                    8d:5f:b0:8d:e2:f4:84:61:57:ec:29:46:6b:a2:b5:
                    8f:fa:0e:99:6a:c9:d1:89:44:18:36:20:74:d1:8b:
                    3f:21:eb:a1:cf
                ASN1 OID: secp256k1
        X509v3 extensions:
            X509v3 Key Usage: critical
                Digital Signature, Key Encipherment
            X509v3 Basic Constraints: critical
                CA:FALSE, pathlen:3
    Signature Algorithm: ecdsa-with-SHA256
         30:44:02:20:37:a0:55:bf:8b:85:bf:4a:2c:76:7d:3e:30:a3:
         28:10:ed:b0:73:9d:fa:1f:6c:f3:34:16:d3:a0:92:eb:ca:b5:
         02:20:2f:e4:75:49:59:c4:9a:b3:fe:bd:ea:fd:2b:a0:5a:d3:
         80:2f:16:b5:64:1f:72:3b:19:78:2a:ed:10:f0:db:ca
-----BEGIN CERTIFICATE-----
MIIB9TCCAZygAwIBAgIBGzAKBggqhkjOPQQDAjCBmzEZMBcGA1UEAwwQUmVnaW9u
ZSBQaWVtb250ZTELMAkGA1UEBhMCSVQxDzANBgNVBAgMBkl0YWxpYTEYMBYGA1UE
CgwPRS1Wb3Rpbmcgc3lzdGVtMSIwIAYDVQQLDBlFLVZvdGluZyBzeXN0ZW0gYXV0
aG9yaXR5MSIwIAYJKoZIhvcNAQkBFhNQaWVtb250ZUBldm90aW5nLml0MB4XDTIy
MDgyNjE1MjAyNVoXDTIzMDgyNjE1MjAyNVowSzEQMA4GA1UEAwwHTWlsZHJlZDEL
MAkGA1UEBhMCSVQxDzANBgNVBAgMBkl0YWxpYTEZMBcGA1UECgwQUmVnaW9uZSBQ
aWVtb250ZTBWMBAGByqGSM49AgEGBSuBBAAKA0IABPvmxy9gpUK8Pe/l/rJLVn3b
pLvjb59pVqTTHObejV+wjeL0hGFX7ClGa6K1j/oOmWrJ0YlEGDYgdNGLPyHroc+j
IzAhMA4GA1UdDwEB/wQEAwIFoDAPBgNVHRMBAf8EBTADAgEDMAoGCCqGSM49BAMC
A0cAMEQCIDegVb+Lhb9KLHZ9PjCjKBDtsHOd+h9s8zQW06CS68q1AiAv5HVJWcSa
s/696v0roFrTgC8WtWQfcjsZeCrtEPDbyg==
-----END CERTIFICATE-----
