Certificate:
    Data:
        Version: 3 (0x2)
        Serial Number: 59 (0x3b)
        Signature Algorithm: ecdsa-with-SHA256
        Issuer: CN=Regione Calabria, C=IT, ST=Italia, O=E-Voting system, OU=E-Voting system authority/emailAddress=Calabria@evoting.it
        Validity
            Not Before: Aug  3 13:28:47 2022 GMT
            Not After : Aug  3 13:28:47 2023 GMT
        Subject: CN=Milissa, C=IT, ST=Italia, O=Regione Calabria
        Subject Public Key Info:
            Public Key Algorithm: id-ecPublicKey
                Public-Key: (256 bit)
                pub:
                    04:4a:09:13:45:a6:41:1e:d6:f6:d1:c8:62:41:90:
                    07:40:36:6f:5e:f9:a9:aa:60:70:e3:1f:62:eb:4b:
                    4e:d3:fc:ab:ea:e7:ab:1a:cf:8e:73:9d:8d:d0:57:
                    e1:bc:0d:61:71:1f:e8:8d:67:27:99:14:b9:f1:c4:
                    93:a4:c4:9e:eb
                ASN1 OID: prime256v1
                NIST CURVE: P-256
        X509v3 extensions:
            X509v3 Key Usage: critical
                Digital Signature, Key Encipherment
            X509v3 Basic Constraints: critical
                CA:FALSE, pathlen:3
    Signature Algorithm: ecdsa-with-SHA256
         30:44:02:20:2e:95:a1:ae:43:a0:2d:9e:e2:ef:8e:50:9d:2b:
         5a:8e:e4:54:8b:8b:d8:4a:3f:f9:67:6c:da:da:44:37:be:bb:
         02:20:4e:34:da:63:e8:94:ae:e2:58:3b:f2:bd:db:3a:57:28:
         86:89:f4:dd:3e:d6:39:ea:d9:4b:70:90:64:85:b8:71
-----BEGIN CERTIFICATE-----
MIIB+DCCAZ+gAwIBAgIBOzAKBggqhkjOPQQDAjCBmzEZMBcGA1UEAwwQUmVnaW9u
ZSBDYWxhYnJpYTELMAkGA1UEBhMCSVQxDzANBgNVBAgMBkl0YWxpYTEYMBYGA1UE
CgwPRS1Wb3Rpbmcgc3lzdGVtMSIwIAYDVQQLDBlFLVZvdGluZyBzeXN0ZW0gYXV0
aG9yaXR5MSIwIAYJKoZIhvcNAQkBFhNDYWxhYnJpYUBldm90aW5nLml0MB4XDTIy
MDgwMzEzMjg0N1oXDTIzMDgwMzEzMjg0N1owSzEQMA4GA1UEAwwHTWlsaXNzYTEL
MAkGA1UEBhMCSVQxDzANBgNVBAgMBkl0YWxpYTEZMBcGA1UECgwQUmVnaW9uZSBD
YWxhYnJpYTBZMBMGByqGSM49AgEGCCqGSM49AwEHA0IABEoJE0WmQR7W9tHIYkGQ
B0A2b175qapgcOMfYutLTtP8q+rnqxrPjnOdjdBX4bwNYXEf6I1nJ5kUufHEk6TE
nuujIzAhMA4GA1UdDwEB/wQEAwIFoDAPBgNVHRMBAf8EBTADAgEDMAoGCCqGSM49
BAMCA0cAMEQCIC6Voa5DoC2e4u+OUJ0rWo7kVIuL2Eo/+Wds2tpEN767AiBONNpj
6JSu4lg78r3bOlcohon03T7WOerZS3CQZIW4cQ==
-----END CERTIFICATE-----
