Certificate:
    Data:
        Version: 3 (0x2)
        Serial Number: 44 (0x2c)
        Signature Algorithm: ecdsa-with-SHA256
        Issuer: CN=Regione Lombardia, C=IT, ST=Italia, O=E-Voting system, OU=E-Voting system authority/emailAddress=Lombardia@evoting.it
        Validity
            Not Before: Aug  3 13:28:10 2022 GMT
            Not After : Aug  3 13:28:10 2023 GMT
        Subject: CN=Millard, C=IT, ST=Italia, O=Regione Lombardia
        Subject Public Key Info:
            Public Key Algorithm: id-ecPublicKey
                Public-Key: (256 bit)
                pub:
                    04:d7:49:bb:dd:72:82:12:42:96:fd:25:e4:0b:ef:
                    f8:db:cb:80:3f:d5:1f:1e:25:b6:55:53:2f:2c:fe:
                    ce:0d:19:79:ae:d5:4e:db:8f:41:2d:03:51:6d:44:
                    57:ca:41:e9:b4:bf:78:99:48:45:45:34:27:cd:ea:
                    6f:1f:cd:71:81
                ASN1 OID: prime256v1
                NIST CURVE: P-256
        X509v3 extensions:
            X509v3 Key Usage: critical
                Digital Signature, Key Encipherment
            X509v3 Basic Constraints: critical
                CA:FALSE, pathlen:3
    Signature Algorithm: ecdsa-with-SHA256
         30:43:02:1f:62:f1:7f:c9:67:fc:dc:55:c3:e2:20:cd:4c:19:
         82:3e:3f:20:56:71:50:cf:6e:0d:72:1f:34:7c:81:84:27:02:
         20:23:0e:9f:2d:df:81:90:b7:4f:f9:05:1d:15:4f:1d:1f:9d:
         d0:df:9d:b0:0e:d8:5e:f3:61:74:2e:07:b1:65:34
-----BEGIN CERTIFICATE-----
MIIB+jCCAaKgAwIBAgIBLDAKBggqhkjOPQQDAjCBnTEaMBgGA1UEAwwRUmVnaW9u
ZSBMb21iYXJkaWExCzAJBgNVBAYTAklUMQ8wDQYDVQQIDAZJdGFsaWExGDAWBgNV
BAoMD0UtVm90aW5nIHN5c3RlbTEiMCAGA1UECwwZRS1Wb3Rpbmcgc3lzdGVtIGF1
dGhvcml0eTEjMCEGCSqGSIb3DQEJARYUTG9tYmFyZGlhQGV2b3RpbmcuaXQwHhcN
MjIwODAzMTMyODEwWhcNMjMwODAzMTMyODEwWjBMMRAwDgYDVQQDDAdNaWxsYXJk
MQswCQYDVQQGEwJJVDEPMA0GA1UECAwGSXRhbGlhMRowGAYDVQQKDBFSZWdpb25l
IExvbWJhcmRpYTBZMBMGByqGSM49AgEGCCqGSM49AwEHA0IABNdJu91yghJClv0l
5Avv+NvLgD/VHx4ltlVTLyz+zg0Zea7VTtuPQS0DUW1EV8pB6bS/eJlIRUU0J83q
bx/NcYGjIzAhMA4GA1UdDwEB/wQEAwIFoDAPBgNVHRMBAf8EBTADAgEDMAoGCCqG
SM49BAMCA0YAMEMCH2Lxf8ln/NxVw+IgzUwZgj4/IFZxUM9uDXIfNHyBhCcCICMO
ny3fgZC3T/kFHRVPHR+d0N+dsA7YXvNhdC4HsWU0
-----END CERTIFICATE-----
