Certificate:
    Data:
        Version: 3 (0x2)
        Serial Number: 34 (0x22)
        Signature Algorithm: ecdsa-with-SHA256
        Issuer: CN=Regione Campania, C=IT, ST=Italia, O=E-Voting system, OU=E-Voting system authority/emailAddress=Campania@evoting.it
        Validity
            Not Before: Aug  3 13:27:24 2022 GMT
            Not After : Aug  3 13:27:24 2023 GMT
        Subject: CN=Millie, C=IT, ST=Italia, O=Regione Campania
        Subject Public Key Info:
            Public Key Algorithm: id-ecPublicKey
                Public-Key: (256 bit)
                pub:
                    04:b3:de:3b:7c:9e:fa:dd:15:ab:d6:16:d0:be:14:
                    8c:b0:a0:71:93:7e:5f:03:34:67:e4:6f:92:f7:ae:
                    35:9e:f7:50:8d:d5:99:97:09:6d:6a:3e:ff:04:23:
                    db:99:11:cb:df:99:01:63:8c:26:76:eb:da:47:5f:
                    ab:9e:e9:47:01
                ASN1 OID: prime256v1
                NIST CURVE: P-256
        X509v3 extensions:
            X509v3 Key Usage: critical
                Digital Signature, Key Encipherment
            X509v3 Basic Constraints: critical
                CA:FALSE, pathlen:3
    Signature Algorithm: ecdsa-with-SHA256
         30:45:02:21:00:c1:c0:72:ef:72:94:4a:84:9f:14:cd:7e:02:
         44:c4:b4:9d:2a:03:9d:73:80:b0:e7:c9:ce:0e:37:05:4a:c7:
         92:02:20:2c:1e:d4:5d:c9:5b:77:aa:4b:07:eb:8c:0c:39:73:
         c6:60:70:52:25:e5:53:81:42:fd:6b:cc:e8:c1:9a:8d:5a
-----BEGIN CERTIFICATE-----
MIIB+DCCAZ6gAwIBAgIBIjAKBggqhkjOPQQDAjCBmzEZMBcGA1UEAwwQUmVnaW9u
ZSBDYW1wYW5pYTELMAkGA1UEBhMCSVQxDzANBgNVBAgMBkl0YWxpYTEYMBYGA1UE
CgwPRS1Wb3Rpbmcgc3lzdGVtMSIwIAYDVQQLDBlFLVZvdGluZyBzeXN0ZW0gYXV0
aG9yaXR5MSIwIAYJKoZIhvcNAQkBFhNDYW1wYW5pYUBldm90aW5nLml0MB4XDTIy
MDgwMzEzMjcyNFoXDTIzMDgwMzEzMjcyNFowSjEPMA0GA1UEAwwGTWlsbGllMQsw
CQYDVQQGEwJJVDEPMA0GA1UECAwGSXRhbGlhMRkwFwYDVQQKDBBSZWdpb25lIENh
bXBhbmlhMFkwEwYHKoZIzj0CAQYIKoZIzj0DAQcDQgAEs947fJ763RWr1hbQvhSM
sKBxk35fAzRn5G+S9641nvdQjdWZlwltaj7/BCPbmRHL35kBY4wmduvaR1+rnulH
AaMjMCEwDgYDVR0PAQH/BAQDAgWgMA8GA1UdEwEB/wQFMAMCAQMwCgYIKoZIzj0E
AwIDSAAwRQIhAMHAcu9ylEqEnxTNfgJExLSdKgOdc4Cw58nODjcFSseSAiAsHtRd
yVt3qksH64wMOXPGYHBSJeVTgUL9a8zowZqNWg==
-----END CERTIFICATE-----
