Certificate:
    Data:
        Version: 3 (0x2)
        Serial Number: 21 (0x15)
        Signature Algorithm: ecdsa-with-SHA256
        Issuer: CN=Regione Umbria, C=IT, ST=Italia, O=E-Voting system, OU=E-Voting system authority/emailAddress=Umbria@evoting.it
        Validity
            Not Before: Aug  3 13:27:13 2022 GMT
            Not After : Aug  3 13:27:13 2023 GMT
        Subject: CN=Millicent, C=IT, ST=Italia, O=Regione Umbria
        Subject Public Key Info:
            Public Key Algorithm: id-ecPublicKey
                Public-Key: (256 bit)
                pub:
                    04:a5:40:87:f5:45:8e:44:fe:c8:95:ef:fb:1e:8b:
                    90:84:7a:99:6b:7d:30:95:2f:44:ed:85:ad:7f:41:
                    89:ea:9e:e4:de:d3:48:4f:ba:91:18:69:80:69:42:
                    52:7d:ea:23:c2:93:2a:a3:83:f6:54:7c:b7:c2:72:
                    88:42:90:a1:c2
                ASN1 OID: prime256v1
                NIST CURVE: P-256
        X509v3 extensions:
            X509v3 Key Usage: critical
                Digital Signature, Key Encipherment
            X509v3 Basic Constraints: critical
                CA:FALSE, pathlen:3
    Signature Algorithm: ecdsa-with-SHA256
         30:45:02:20:31:c3:86:80:a4:f4:cc:7b:e4:ed:0b:96:25:93:
         1a:d7:f3:bf:dc:e8:44:e0:1c:66:fc:ed:7c:36:68:07:b4:15:
         02:21:00:fb:28:bd:81:fe:7f:1c:ce:07:48:12:0b:ad:14:b4:
         a2:33:6b:fd:5f:c4:a8:ca:cd:1c:e5:eb:86:7b:b3:95:99
-----BEGIN CERTIFICATE-----
MIIB9TCCAZugAwIBAgIBFTAKBggqhkjOPQQDAjCBlzEXMBUGA1UEAwwOUmVnaW9u
ZSBVbWJyaWExCzAJBgNVBAYTAklUMQ8wDQYDVQQIDAZJdGFsaWExGDAWBgNVBAoM
D0UtVm90aW5nIHN5c3RlbTEiMCAGA1UECwwZRS1Wb3Rpbmcgc3lzdGVtIGF1dGhv
cml0eTEgMB4GCSqGSIb3DQEJARYRVW1icmlhQGV2b3RpbmcuaXQwHhcNMjIwODAz
MTMyNzEzWhcNMjMwODAzMTMyNzEzWjBLMRIwEAYDVQQDDAlNaWxsaWNlbnQxCzAJ
BgNVBAYTAklUMQ8wDQYDVQQIDAZJdGFsaWExFzAVBgNVBAoMDlJlZ2lvbmUgVW1i
cmlhMFkwEwYHKoZIzj0CAQYIKoZIzj0DAQcDQgAEpUCH9UWORP7Ile/7HouQhHqZ
a30wlS9E7YWtf0GJ6p7k3tNIT7qRGGmAaUJSfeojwpMqo4P2VHy3wnKIQpChwqMj
MCEwDgYDVR0PAQH/BAQDAgWgMA8GA1UdEwEB/wQFMAMCAQMwCgYIKoZIzj0EAwID
SAAwRQIgMcOGgKT0zHvk7QuWJZMa1/O/3OhE4Bxm/O18NmgHtBUCIQD7KL2B/n8c
zgdIEgutFLSiM2v9X8Soys0c5euGe7OVmQ==
-----END CERTIFICATE-----
