Certificate:
    Data:
        Version: 3 (0x2)
        Serial Number: 55 (0x37)
        Signature Algorithm: ecdsa-with-SHA256
        Issuer: CN=Regione Piemonte, C=IT, ST=Italia, O=E-Voting system, OU=E-Voting system authority/emailAddress=Piemonte@evoting.it
        Validity
            Not Before: Aug  3 13:27:58 2022 GMT
            Not After : Aug  3 13:27:58 2023 GMT
        Subject: CN=Milo, C=IT, ST=Italia, O=Regione Piemonte
        Subject Public Key Info:
            Public Key Algorithm: id-ecPublicKey
                Public-Key: (256 bit)
                pub:
                    04:75:64:75:bc:8e:18:4a:ac:f2:86:fc:e9:92:3f:
                    13:61:91:5e:dc:10:05:eb:da:6e:fe:ee:7d:9c:de:
                    97:79:27:fe:d7:61:11:76:82:9b:03:92:8d:24:62:
                    7c:4f:f8:18:89:de:c1:51:ee:c5:bd:b3:8a:9d:5f:
                    63:6b:6a:ad:36
                ASN1 OID: prime256v1
                NIST CURVE: P-256
        X509v3 extensions:
            X509v3 Key Usage: critical
                Digital Signature, Key Encipherment
            X509v3 Basic Constraints: critical
                CA:FALSE, pathlen:3
    Signature Algorithm: ecdsa-with-SHA256
         30:45:02:21:00:e8:13:46:31:0c:32:d8:d5:ae:d1:c6:aa:b3:
         77:19:98:ef:c5:7f:89:f1:f3:98:d6:5e:39:dd:13:f1:48:29:
         b2:02:20:73:0c:f0:67:f7:c4:d7:90:c3:7e:2f:f0:d9:93:50:
         7f:10:e6:b4:a8:d1:a9:60:8e:71:b0:0f:f6:3c:31:62:4d
-----BEGIN CERTIFICATE-----
MIIB9jCCAZygAwIBAgIBNzAKBggqhkjOPQQDAjCBmzEZMBcGA1UEAwwQUmVnaW9u
ZSBQaWVtb250ZTELMAkGA1UEBhMCSVQxDzANBgNVBAgMBkl0YWxpYTEYMBYGA1UE
CgwPRS1Wb3Rpbmcgc3lzdGVtMSIwIAYDVQQLDBlFLVZvdGluZyBzeXN0ZW0gYXV0
aG9yaXR5MSIwIAYJKoZIhvcNAQkBFhNQaWVtb250ZUBldm90aW5nLml0MB4XDTIy
MDgwMzEzMjc1OFoXDTIzMDgwMzEzMjc1OFowSDENMAsGA1UEAwwETWlsbzELMAkG
A1UEBhMCSVQxDzANBgNVBAgMBkl0YWxpYTEZMBcGA1UECgwQUmVnaW9uZSBQaWVt
b250ZTBZMBMGByqGSM49AgEGCCqGSM49AwEHA0IABHVkdbyOGEqs8ob86ZI/E2GR
XtwQBevabv7ufZzel3kn/tdhEXaCmwOSjSRifE/4GInewVHuxb2zip1fY2tqrTaj
IzAhMA4GA1UdDwEB/wQEAwIFoDAPBgNVHRMBAf8EBTADAgEDMAoGCCqGSM49BAMC
A0gAMEUCIQDoE0YxDDLY1a7RxqqzdxmY78V/ifHzmNZeOd0T8UgpsgIgcwzwZ/fE
15DDfi/w2ZNQfxDmtKjRqWCOcbAP9jwxYk0=
-----END CERTIFICATE-----
