Certificate:
    Data:
        Version: 3 (0x2)
        Serial Number: 25 (0x19)
        Signature Algorithm: ecdsa-with-SHA256
        Issuer: CN=Regione Veneto, C=IT, ST=Italia, O=E-Voting system, OU=E-Voting system authority/emailAddress=Veneto@evoting.it
        Validity
            Not Before: Aug  3 13:27:08 2022 GMT
            Not After : Aug  3 13:27:08 2023 GMT
        Subject: CN=Miranda, C=IT, ST=Italia, O=Regione Veneto
        Subject Public Key Info:
            Public Key Algorithm: id-ecPublicKey
                Public-Key: (256 bit)
                pub:
                    04:1b:ff:e8:38:45:93:85:c0:d2:4f:06:12:3a:c6:
                    7a:b5:50:c3:ad:62:3f:85:6f:de:8f:8d:b0:6e:12:
                    44:97:0a:bf:66:21:b7:47:e4:1c:0d:1a:95:ef:6b:
                    fa:55:7d:66:9b:ff:b1:bd:74:58:f1:01:a4:f6:a8:
                    f8:f0:ef:4e:b4
                ASN1 OID: prime256v1
                NIST CURVE: P-256
        X509v3 extensions:
            X509v3 Key Usage: critical
                Digital Signature, Key Encipherment
            X509v3 Basic Constraints: critical
                CA:FALSE, pathlen:3
    Signature Algorithm: ecdsa-with-SHA256
         30:45:02:21:00:a3:fe:bd:e1:56:2f:29:a6:52:b1:76:cd:2a:
         ec:49:13:a6:11:a5:9b:b0:10:ea:27:93:98:f7:4f:d5:2a:e4:
         70:02:20:1b:2d:a7:28:01:20:c6:f7:f1:a6:4c:68:da:f8:57:
         92:cf:1f:e1:9a:31:11:b8:fd:11:12:99:06:d6:af:02:01
-----BEGIN CERTIFICATE-----
MIIB8zCCAZmgAwIBAgIBGTAKBggqhkjOPQQDAjCBlzEXMBUGA1UEAwwOUmVnaW9u
ZSBWZW5ldG8xCzAJBgNVBAYTAklUMQ8wDQYDVQQIDAZJdGFsaWExGDAWBgNVBAoM
D0UtVm90aW5nIHN5c3RlbTEiMCAGA1UECwwZRS1Wb3Rpbmcgc3lzdGVtIGF1dGhv
cml0eTEgMB4GCSqGSIb3DQEJARYRVmVuZXRvQGV2b3RpbmcuaXQwHhcNMjIwODAz
MTMyNzA4WhcNMjMwODAzMTMyNzA4WjBJMRAwDgYDVQQDDAdNaXJhbmRhMQswCQYD
VQQGEwJJVDEPMA0GA1UECAwGSXRhbGlhMRcwFQYDVQQKDA5SZWdpb25lIFZlbmV0
bzBZMBMGByqGSM49AgEGCCqGSM49AwEHA0IABBv/6DhFk4XA0k8GEjrGerVQw61i
P4Vv3o+NsG4SRJcKv2Yht0fkHA0ale9r+lV9Zpv/sb10WPEBpPao+PDvTrSjIzAh
MA4GA1UdDwEB/wQEAwIFoDAPBgNVHRMBAf8EBTADAgEDMAoGCCqGSM49BAMCA0gA
MEUCIQCj/r3hVi8pplKxds0q7EkTphGlm7AQ6ieTmPdP1SrkcAIgGy2nKAEgxvfx
pkxo2vhXks8f4ZoxEbj9ERKZBtavAgE=
-----END CERTIFICATE-----
