Certificate:
    Data:
        Version: 3 (0x2)
        Serial Number: 39 (0x27)
        Signature Algorithm: ecdsa-with-SHA256
        Issuer: CN=Regione Lombardia, C=IT, ST=Italia, O=E-Voting system, OU=E-Voting system authority/emailAddress=Lombardia@evoting.it
        Validity
            Not Before: Aug 26 15:20:49 2022 GMT
            Not After : Aug 26 15:20:49 2023 GMT
        Subject: CN=Miranda, C=IT, ST=Italia, O=Regione Lombardia
        Subject Public Key Info:
            Public Key Algorithm: id-ecPublicKey
                Public-Key: (256 bit)
                pub:
                    04:0a:34:d1:17:5e:76:19:24:f9:e5:fe:6c:8e:46:
                    56:66:72:ed:cb:44:10:7b:19:27:c9:18:05:a9:fe:
                    8b:ae:d2:79:08:83:28:3c:62:f1:7e:56:9e:cf:ed:
                    36:95:a8:01:92:a7:0e:b2:fe:71:29:20:57:3f:73:
                    45:04:88:5e:2d
                ASN1 OID: secp256k1
        X509v3 extensions:
            X509v3 Key Usage: critical
                Digital Signature, Key Encipherment
            X509v3 Basic Constraints: critical
                CA:FALSE, pathlen:3
    Signature Algorithm: ecdsa-with-SHA256
         30:44:02:20:55:75:df:34:35:62:df:c9:7c:42:cd:c0:f2:fc:
         41:b3:e8:69:07:e7:f5:80:97:7c:04:c0:aa:f4:1d:71:05:83:
         02:20:54:c5:ab:0b:40:24:9c:8b:88:61:78:50:10:bc:3c:e8:
         58:f6:60:d6:d7:7c:05:75:5b:a2:c1:6b:b8:fb:e0:b8
-----BEGIN CERTIFICATE-----
MIIB+DCCAZ+gAwIBAgIBJzAKBggqhkjOPQQDAjCBnTEaMBgGA1UEAwwRUmVnaW9u
ZSBMb21iYXJkaWExCzAJBgNVBAYTAklUMQ8wDQYDVQQIDAZJdGFsaWExGDAWBgNV
BAoMD0UtVm90aW5nIHN5c3RlbTEiMCAGA1UECwwZRS1Wb3Rpbmcgc3lzdGVtIGF1
dGhvcml0eTEjMCEGCSqGSIb3DQEJARYUTG9tYmFyZGlhQGV2b3RpbmcuaXQwHhcN
MjIwODI2MTUyMDQ5WhcNMjMwODI2MTUyMDQ5WjBMMRAwDgYDVQQDDAdNaXJhbmRh
MQswCQYDVQQGEwJJVDEPMA0GA1UECAwGSXRhbGlhMRowGAYDVQQKDBFSZWdpb25l
IExvbWJhcmRpYTBWMBAGByqGSM49AgEGBSuBBAAKA0IABAo00Rdedhkk+eX+bI5G
VmZy7ctEEHsZJ8kYBan+i67SeQiDKDxi8X5Wns/tNpWoAZKnDrL+cSkgVz9zRQSI
Xi2jIzAhMA4GA1UdDwEB/wQEAwIFoDAPBgNVHRMBAf8EBTADAgEDMAoGCCqGSM49
BAMCA0cAMEQCIFV13zQ1Yt/JfELNwPL8QbPoaQfn9YCXfATAqvQdcQWDAiBUxasL
QCSci4hheFAQvDzoWPZg1td8BXVbosFruPvguA==
-----END CERTIFICATE-----
