Certificate:
    Data:
        Version: 3 (0x2)
        Serial Number: 7 (0x7)
        Signature Algorithm: ecdsa-with-SHA256
        Issuer: CN=Regione Valle_d_Aosta, C=IT, ST=Italia, O=E-Voting system, OU=E-Voting system authority/emailAddress=Valle_d_Aosta@evoting.it
        Validity
            Not Before: Aug 26 15:18:41 2022 GMT
            Not After : Aug 26 15:18:41 2023 GMT
        Subject: CN=Miriam, C=IT, ST=Italia, O=Regione Valle_d_Aosta
        Subject Public Key Info:
            Public Key Algorithm: id-ecPublicKey
                Public-Key: (256 bit)
                pub:
                    04:7a:65:5b:79:d3:3b:11:1f:e5:72:a1:1a:42:01:
                    80:5a:7a:a5:b1:d1:de:49:60:b0:db:a6:7f:07:81:
                    a6:82:dc:37:e6:68:5d:2c:80:91:55:3c:c2:b7:28:
                    f6:17:cb:ec:ef:b9:22:57:47:ea:cd:68:84:e4:df:
                    cc:b1:28:94:0f
                ASN1 OID: secp256k1
        X509v3 extensions:
            X509v3 Key Usage: critical
                Digital Signature, Key Encipherment
            X509v3 Basic Constraints: critical
                CA:FALSE, pathlen:3
    Signature Algorithm: ecdsa-with-SHA256
         30:44:02:20:01:ae:e0:79:7e:49:87:56:95:5b:fc:3c:93:2f:
         21:02:4f:f9:5a:0c:a7:be:76:cf:3c:7e:3f:9e:98:02:0d:7e:
         02:20:68:5f:f6:0d:c1:15:03:ff:41:b3:7d:42:db:19:64:4a:
         70:38:1c:ca:af:0a:20:2f:d9:cd:aa:ca:89:1e:6d:5d
-----BEGIN CERTIFICATE-----
MIICAzCCAaqgAwIBAgIBBzAKBggqhkjOPQQDAjCBpTEeMBwGA1UEAwwVUmVnaW9u
ZSBWYWxsZV9kX0Fvc3RhMQswCQYDVQQGEwJJVDEPMA0GA1UECAwGSXRhbGlhMRgw
FgYDVQQKDA9FLVZvdGluZyBzeXN0ZW0xIjAgBgNVBAsMGUUtVm90aW5nIHN5c3Rl
bSBhdXRob3JpdHkxJzAlBgkqhkiG9w0BCQEWGFZhbGxlX2RfQW9zdGFAZXZvdGlu
Zy5pdDAeFw0yMjA4MjYxNTE4NDFaFw0yMzA4MjYxNTE4NDFaME8xDzANBgNVBAMM
Bk1pcmlhbTELMAkGA1UEBhMCSVQxDzANBgNVBAgMBkl0YWxpYTEeMBwGA1UECgwV
UmVnaW9uZSBWYWxsZV9kX0Fvc3RhMFYwEAYHKoZIzj0CAQYFK4EEAAoDQgAEemVb
edM7ER/lcqEaQgGAWnqlsdHeSWCw26Z/B4Gmgtw35mhdLICRVTzCtyj2F8vs77ki
V0fqzWiE5N/MsSiUD6MjMCEwDgYDVR0PAQH/BAQDAgWgMA8GA1UdEwEB/wQFMAMC
AQMwCgYIKoZIzj0EAwIDRwAwRAIgAa7geX5Jh1aVW/w8ky8hAk/5WgynvnbPPH4/
npgCDX4CIGhf9g3BFQP/QbN9QtsZZEpwOBzKrwogL9nNqsqJHm1d
-----END CERTIFICATE-----
