Certificate:
    Data:
        Version: 3 (0x2)
        Serial Number: 16 (0x10)
        Signature Algorithm: ecdsa-with-SHA256
        Issuer: CN=Regione Marche, C=IT, ST=Italia, O=E-Voting system, OU=E-Voting system authority/emailAddress=Marche@evoting.it
        Validity
            Not Before: Aug  3 13:26:16 2022 GMT
            Not After : Aug  3 13:26:16 2023 GMT
        Subject: CN=Mitchell, C=IT, ST=Italia, O=Regione Marche
        Subject Public Key Info:
            Public Key Algorithm: id-ecPublicKey
                Public-Key: (256 bit)
                pub:
                    04:01:6f:47:f1:c6:94:8c:6b:02:2e:1f:40:bb:52:
                    34:14:a8:f8:a8:58:a9:eb:9d:cf:cc:5c:a0:2f:6f:
                    4e:0f:71:62:fb:9f:f0:51:1f:94:1c:90:45:9f:16:
                    c4:0a:27:b4:09:81:41:38:6f:34:d3:c8:f7:22:44:
                    b1:75:bd:f3:4f
                ASN1 OID: prime256v1
                NIST CURVE: P-256
        X509v3 extensions:
            X509v3 Key Usage: critical
                Digital Signature, Key Encipherment
            X509v3 Basic Constraints: critical
                CA:FALSE, pathlen:3
    Signature Algorithm: ecdsa-with-SHA256
         30:45:02:21:00:a7:c3:be:d4:34:87:0a:7e:3e:33:24:19:de:
         ad:b2:13:b4:e9:da:f5:b1:fe:7c:9e:55:73:f9:39:3d:72:4a:
         e8:02:20:71:43:57:87:02:db:e7:e6:1f:7e:fd:fb:f5:a2:c5:
         f6:de:d2:23:9d:84:3b:a2:da:51:68:a2:c9:f5:87:7d:cb
-----BEGIN CERTIFICATE-----
MIIB9DCCAZqgAwIBAgIBEDAKBggqhkjOPQQDAjCBlzEXMBUGA1UEAwwOUmVnaW9u
ZSBNYXJjaGUxCzAJBgNVBAYTAklUMQ8wDQYDVQQIDAZJdGFsaWExGDAWBgNVBAoM
D0UtVm90aW5nIHN5c3RlbTEiMCAGA1UECwwZRS1Wb3Rpbmcgc3lzdGVtIGF1dGhv
cml0eTEgMB4GCSqGSIb3DQEJARYRTWFyY2hlQGV2b3RpbmcuaXQwHhcNMjIwODAz
MTMyNjE2WhcNMjMwODAzMTMyNjE2WjBKMREwDwYDVQQDDAhNaXRjaGVsbDELMAkG
A1UEBhMCSVQxDzANBgNVBAgMBkl0YWxpYTEXMBUGA1UECgwOUmVnaW9uZSBNYXJj
aGUwWTATBgcqhkjOPQIBBggqhkjOPQMBBwNCAAQBb0fxxpSMawIuH0C7UjQUqPio
WKnrnc/MXKAvb04PcWL7n/BRH5QckEWfFsQKJ7QJgUE4bzTTyPciRLF1vfNPoyMw
ITAOBgNVHQ8BAf8EBAMCBaAwDwYDVR0TAQH/BAUwAwIBAzAKBggqhkjOPQQDAgNI
ADBFAiEAp8O+1DSHCn4+MyQZ3q2yE7Tp2vWx/nyeVXP5OT1ySugCIHFDV4cC2+fm
H379+/Wixfbe0iOdhDui2lFoosn1h33L
-----END CERTIFICATE-----
