Certificate:
    Data:
        Version: 3 (0x2)
        Serial Number: 23 (0x17)
        Signature Algorithm: ecdsa-with-SHA256
        Issuer: CN=Regione Calabria, C=IT, ST=Italia, O=E-Voting system, OU=E-Voting system authority/emailAddress=Calabria@evoting.it
        Validity
            Not Before: Aug 26 15:20:23 2022 GMT
            Not After : Aug 26 15:20:23 2023 GMT
        Subject: CN=Mitchell, C=IT, ST=Italia, O=Regione Calabria
        Subject Public Key Info:
            Public Key Algorithm: id-ecPublicKey
                Public-Key: (256 bit)
                pub:
                    04:13:32:41:09:4e:47:42:d5:30:52:7d:21:46:b9:
                    27:83:33:c1:7d:bf:f0:60:d8:1c:4d:a4:77:ac:40:
                    4f:68:c2:76:ac:2d:c0:d5:25:73:3c:18:44:ae:44:
                    56:50:e9:2f:21:f9:66:c4:e4:65:19:79:8d:d5:14:
                    80:61:fa:d1:b1
                ASN1 OID: secp256k1
        X509v3 extensions:
            X509v3 Key Usage: critical
                Digital Signature, Key Encipherment
            X509v3 Basic Constraints: critical
                CA:FALSE, pathlen:3
    Signature Algorithm: ecdsa-with-SHA256
         30:44:02:20:3a:3b:a9:57:57:0f:09:39:4e:63:e3:bc:14:1b:
         43:a5:e0:7e:04:c7:76:dc:51:65:55:2a:a7:42:4c:68:4f:c5:
         02:20:5d:de:69:8d:91:db:2d:db:99:21:f0:22:c4:30:6a:7b:
         f3:56:a2:04:44:1c:ff:b1:0b:68:2e:82:71:a2:51:37
-----BEGIN CERTIFICATE-----
MIIB9jCCAZ2gAwIBAgIBFzAKBggqhkjOPQQDAjCBmzEZMBcGA1UEAwwQUmVnaW9u
ZSBDYWxhYnJpYTELMAkGA1UEBhMCSVQxDzANBgNVBAgMBkl0YWxpYTEYMBYGA1UE
CgwPRS1Wb3Rpbmcgc3lzdGVtMSIwIAYDVQQLDBlFLVZvdGluZyBzeXN0ZW0gYXV0
aG9yaXR5MSIwIAYJKoZIhvcNAQkBFhNDYWxhYnJpYUBldm90aW5nLml0MB4XDTIy
MDgyNjE1MjAyM1oXDTIzMDgyNjE1MjAyM1owTDERMA8GA1UEAwwITWl0Y2hlbGwx
CzAJBgNVBAYTAklUMQ8wDQYDVQQIDAZJdGFsaWExGTAXBgNVBAoMEFJlZ2lvbmUg
Q2FsYWJyaWEwVjAQBgcqhkjOPQIBBgUrgQQACgNCAAQTMkEJTkdC1TBSfSFGuSeD
M8F9v/Bg2BxNpHesQE9ownasLcDVJXM8GESuRFZQ6S8h+WbE5GUZeY3VFIBh+tGx
oyMwITAOBgNVHQ8BAf8EBAMCBaAwDwYDVR0TAQH/BAUwAwIBAzAKBggqhkjOPQQD
AgNHADBEAiA6O6lXVw8JOU5j47wUG0Ol4H4Ex3bcUWVVKqdCTGhPxQIgXd5pjZHb
LduZIfAixDBqe/NWogREHP+xC2gugnGiUTc=
-----END CERTIFICATE-----
