Certificate:
    Data:
        Version: 3 (0x2)
        Serial Number: 39 (0x27)
        Signature Algorithm: ecdsa-with-SHA256
        Issuer: CN=Regione Friuli_Venezia_Giulia, C=IT, ST=Italia, O=E-Voting system, OU=E-Voting system authority/emailAddress=Friuli_Venezia_Giulia@evoting.it
        Validity
            Not Before: Aug 26 15:21:18 2022 GMT
            Not After : Aug 26 15:21:18 2023 GMT
        Subject: CN=Monica, C=IT, ST=Italia, O=Regione Friuli_Venezia_Giulia
        Subject Public Key Info:
            Public Key Algorithm: id-ecPublicKey
                Public-Key: (256 bit)
                pub:
                    04:4a:9a:f9:e8:fd:a6:dd:10:d3:f6:60:1a:8c:9d:
                    41:8c:b4:9e:1f:97:91:c7:22:83:91:6c:ec:4d:4d:
                    bd:00:d9:e3:87:96:df:10:41:27:85:e4:27:95:24:
                    9b:e0:f6:87:5d:a2:4b:9c:73:1a:69:96:3c:ad:3b:
                    ba:ef:b1:26:4e
                ASN1 OID: secp256k1
        X509v3 extensions:
            X509v3 Key Usage: critical
                Digital Signature, Key Encipherment
            X509v3 Basic Constraints: critical
                CA:FALSE, pathlen:3
    Signature Algorithm: ecdsa-with-SHA256
         30:44:02:20:29:ca:4a:14:6c:2b:1c:66:69:c8:c0:5f:a8:b8:
         10:3f:57:8c:86:10:5a:49:57:3b:33:de:8f:01:63:7e:d1:e2:
         02:20:25:64:d7:88:f5:4c:36:dd:ba:11:1c:b8:0a:65:70:15:
         d6:0f:34:1e:65:2b:7c:31:83:83:5b:6d:4f:d6:9e:2c
-----BEGIN CERTIFICATE-----
MIICGzCCAcKgAwIBAgIBJzAKBggqhkjOPQQDAjCBtTEmMCQGA1UEAwwdUmVnaW9u
ZSBGcml1bGlfVmVuZXppYV9HaXVsaWExCzAJBgNVBAYTAklUMQ8wDQYDVQQIDAZJ
dGFsaWExGDAWBgNVBAoMD0UtVm90aW5nIHN5c3RlbTEiMCAGA1UECwwZRS1Wb3Rp
bmcgc3lzdGVtIGF1dGhvcml0eTEvMC0GCSqGSIb3DQEJARYgRnJpdWxpX1ZlbmV6
aWFfR2l1bGlhQGV2b3RpbmcuaXQwHhcNMjIwODI2MTUyMTE4WhcNMjMwODI2MTUy
MTE4WjBXMQ8wDQYDVQQDDAZNb25pY2ExCzAJBgNVBAYTAklUMQ8wDQYDVQQIDAZJ
dGFsaWExJjAkBgNVBAoMHVJlZ2lvbmUgRnJpdWxpX1ZlbmV6aWFfR2l1bGlhMFYw
EAYHKoZIzj0CAQYFK4EEAAoDQgAESpr56P2m3RDT9mAajJ1BjLSeH5eRxyKDkWzs
TU29ANnjh5bfEEEnheQnlSSb4PaHXaJLnHMaaZY8rTu677EmTqMjMCEwDgYDVR0P
AQH/BAQDAgWgMA8GA1UdEwEB/wQFMAMCAQMwCgYIKoZIzj0EAwIDRwAwRAIgKcpK
FGwrHGZpyMBfqLgQP1eMhhBaSVc7M96PAWN+0eICICVk14j1TDbduhEcuAplcBXW
DzQeZSt8MYODW21P1p4s
-----END CERTIFICATE-----
