Certificate:
    Data:
        Version: 3 (0x2)
        Serial Number: 10 (0xa)
        Signature Algorithm: ecdsa-with-SHA256
        Issuer: CN=Regione Veneto, C=IT, ST=Italia, O=E-Voting system, OU=E-Voting system authority/emailAddress=Veneto@evoting.it
        Validity
            Not Before: Aug  3 13:26:08 2022 GMT
            Not After : Aug  3 13:26:08 2023 GMT
        Subject: CN=Monica, C=IT, ST=Italia, O=Regione Veneto
        Subject Public Key Info:
            Public Key Algorithm: id-ecPublicKey
                Public-Key: (256 bit)
                pub:
                    04:5f:53:ee:ab:5c:e5:95:9f:ad:2a:f1:96:17:6e:
                    9b:09:e3:d0:fc:55:9f:b1:dd:c2:53:0d:6e:7f:97:
                    dc:47:f7:65:c8:4a:63:f7:65:f6:90:50:70:b0:45:
                    45:0a:b7:8d:f3:72:23:06:79:fb:3e:aa:39:c6:b6:
                    c4:11:28:b7:86
                ASN1 OID: prime256v1
                NIST CURVE: P-256
        X509v3 extensions:
            X509v3 Key Usage: critical
                Digital Signature, Key Encipherment
            X509v3 Basic Constraints: critical
                CA:FALSE, pathlen:3
    Signature Algorithm: ecdsa-with-SHA256
         30:45:02:21:00:a6:67:62:9e:38:19:f5:bd:3e:2e:7e:bf:01:
         bf:5d:28:38:1d:3a:d5:7a:13:8b:17:3c:40:2a:48:87:31:9d:
         f9:02:20:5a:a3:00:28:ba:ce:19:fa:79:48:82:22:2f:49:34:
         e7:a4:59:f0:c0:ee:cb:60:97:c0:9f:0c:1d:1a:fd:9d:6b
-----BEGIN CERTIFICATE-----
MIIB8jCCAZigAwIBAgIBCjAKBggqhkjOPQQDAjCBlzEXMBUGA1UEAwwOUmVnaW9u
ZSBWZW5ldG8xCzAJBgNVBAYTAklUMQ8wDQYDVQQIDAZJdGFsaWExGDAWBgNVBAoM
D0UtVm90aW5nIHN5c3RlbTEiMCAGA1UECwwZRS1Wb3Rpbmcgc3lzdGVtIGF1dGhv
cml0eTEgMB4GCSqGSIb3DQEJARYRVmVuZXRvQGV2b3RpbmcuaXQwHhcNMjIwODAz
MTMyNjA4WhcNMjMwODAzMTMyNjA4WjBIMQ8wDQYDVQQDDAZNb25pY2ExCzAJBgNV
BAYTAklUMQ8wDQYDVQQIDAZJdGFsaWExFzAVBgNVBAoMDlJlZ2lvbmUgVmVuZXRv
MFkwEwYHKoZIzj0CAQYIKoZIzj0DAQcDQgAEX1Puq1zllZ+tKvGWF26bCePQ/FWf
sd3CUw1uf5fcR/dlyEpj92X2kFBwsEVFCreN83IjBnn7Pqo5xrbEESi3hqMjMCEw
DgYDVR0PAQH/BAQDAgWgMA8GA1UdEwEB/wQFMAMCAQMwCgYIKoZIzj0EAwIDSAAw
RQIhAKZnYp44GfW9Pi5+vwG/XSg4HTrVehOLFzxAKkiHMZ35AiBaowAous4Z+nlI
giIvSTTnpFnwwO7LYJfAnwwdGv2daw==
-----END CERTIFICATE-----
