Certificate:
    Data:
        Version: 3 (0x2)
        Serial Number: 8 (0x8)
        Signature Algorithm: ecdsa-with-SHA256
        Issuer: CN=Regione Valle_d_Aosta, C=IT, ST=Italia, O=E-Voting system, OU=E-Voting system authority/emailAddress=Valle_d_Aosta@evoting.it
        Validity
            Not Before: Aug 26 15:18:43 2022 GMT
            Not After : Aug 26 15:18:43 2023 GMT
        Subject: CN=Monique, C=IT, ST=Italia, O=Regione Valle_d_Aosta
        Subject Public Key Info:
            Public Key Algorithm: id-ecPublicKey
                Public-Key: (256 bit)
                pub:
                    04:3b:25:c6:76:ca:4d:f9:e0:0a:e5:3b:7e:a6:e1:
                    7f:09:65:a0:d2:6a:89:95:c9:50:b3:df:83:56:20:
                    11:13:e9:4a:72:0a:f5:03:46:83:00:73:d5:b1:85:
                    be:1e:ce:2d:37:86:37:2e:5f:21:24:b5:e4:f4:70:
                    c1:31:5f:a7:7b
                ASN1 OID: secp256k1
        X509v3 extensions:
            X509v3 Key Usage: critical
                Digital Signature, Key Encipherment
            X509v3 Basic Constraints: critical
                CA:FALSE, pathlen:3
    Signature Algorithm: ecdsa-with-SHA256
         30:45:02:20:6f:11:bd:ee:d4:9b:6b:62:45:6f:24:13:87:87:
         99:39:df:af:a0:62:bf:2e:6a:05:f4:4a:82:b4:c3:09:f8:23:
         02:21:00:8b:b6:2b:61:6d:bf:31:15:f9:0b:f4:f3:29:81:ee:
         e7:75:e1:94:31:a1:10:f5:c7:0d:25:4e:9b:bb:dd:66:62
-----BEGIN CERTIFICATE-----
MIICBTCCAaugAwIBAgIBCDAKBggqhkjOPQQDAjCBpTEeMBwGA1UEAwwVUmVnaW9u
ZSBWYWxsZV9kX0Fvc3RhMQswCQYDVQQGEwJJVDEPMA0GA1UECAwGSXRhbGlhMRgw
FgYDVQQKDA9FLVZvdGluZyBzeXN0ZW0xIjAgBgNVBAsMGUUtVm90aW5nIHN5c3Rl
bSBhdXRob3JpdHkxJzAlBgkqhkiG9w0BCQEWGFZhbGxlX2RfQW9zdGFAZXZvdGlu
Zy5pdDAeFw0yMjA4MjYxNTE4NDNaFw0yMzA4MjYxNTE4NDNaMFAxEDAOBgNVBAMM
B01vbmlxdWUxCzAJBgNVBAYTAklUMQ8wDQYDVQQIDAZJdGFsaWExHjAcBgNVBAoM
FVJlZ2lvbmUgVmFsbGVfZF9Bb3N0YTBWMBAGByqGSM49AgEGBSuBBAAKA0IABDsl
xnbKTfngCuU7fqbhfwlloNJqiZXJULPfg1YgERPpSnIK9QNGgwBz1bGFvh7OLTeG
Ny5fISS15PRwwTFfp3ujIzAhMA4GA1UdDwEB/wQEAwIFoDAPBgNVHRMBAf8EBTAD
AgEDMAoGCCqGSM49BAMCA0gAMEUCIG8Rve7Um2tiRW8kE4eHmTnfr6Bivy5qBfRK
grTDCfgjAiEAi7YrYW2/MRX5C/TzKYHu53XhlDGhEPXHDSVOm7vdZmI=
-----END CERTIFICATE-----
