Certificate:
    Data:
        Version: 3 (0x2)
        Serial Number: 3 (0x3)
        Signature Algorithm: ecdsa-with-SHA256
        Issuer: CN=Regione Toscana, C=IT, ST=Italia, O=E-Voting system, OU=E-Voting system authority/emailAddress=Toscana@evoting.it
        Validity
            Not Before: Aug  3 13:25:42 2022 GMT
            Not After : Aug  3 13:25:42 2023 GMT
        Subject: CN=Monique, C=IT, ST=Italia, O=Regione Toscana
        Subject Public Key Info:
            Public Key Algorithm: id-ecPublicKey
                Public-Key: (256 bit)
                pub:
                    04:02:22:e9:4d:d6:33:61:d5:00:64:c7:d1:dc:2b:
                    fd:e6:6c:02:aa:91:40:96:71:31:3e:7d:ec:cf:b0:
                    0b:10:25:1a:37:b7:28:72:05:94:dd:22:d2:1d:0e:
                    70:04:46:06:b1:0e:23:1e:a1:fb:7d:d4:b8:b7:b2:
                    1f:f4:8e:73:6d
                ASN1 OID: prime256v1
                NIST CURVE: P-256
        X509v3 extensions:
            X509v3 Key Usage: critical
                Digital Signature, Key Encipherment
            X509v3 Basic Constraints: critical
                CA:FALSE, pathlen:3
    Signature Algorithm: ecdsa-with-SHA256
         30:45:02:21:00:a8:42:a3:a7:01:9c:50:eb:58:0d:a4:8c:c6:
         d3:6b:9e:eb:59:99:f7:a6:d8:66:b8:aa:24:23:13:cc:a2:f6:
         b8:02:20:5f:42:b3:ac:d0:92:0b:0c:bd:31:2f:d9:15:33:48:
         25:38:8c:9d:37:18:a2:a6:56:e1:b5:43:44:73:6e:86:ee
-----BEGIN CERTIFICATE-----
MIIB9jCCAZygAwIBAgIBAzAKBggqhkjOPQQDAjCBmTEYMBYGA1UEAwwPUmVnaW9u
ZSBUb3NjYW5hMQswCQYDVQQGEwJJVDEPMA0GA1UECAwGSXRhbGlhMRgwFgYDVQQK
DA9FLVZvdGluZyBzeXN0ZW0xIjAgBgNVBAsMGUUtVm90aW5nIHN5c3RlbSBhdXRo
b3JpdHkxITAfBgkqhkiG9w0BCQEWElRvc2NhbmFAZXZvdGluZy5pdDAeFw0yMjA4
MDMxMzI1NDJaFw0yMzA4MDMxMzI1NDJaMEoxEDAOBgNVBAMMB01vbmlxdWUxCzAJ
BgNVBAYTAklUMQ8wDQYDVQQIDAZJdGFsaWExGDAWBgNVBAoMD1JlZ2lvbmUgVG9z
Y2FuYTBZMBMGByqGSM49AgEGCCqGSM49AwEHA0IABAIi6U3WM2HVAGTH0dwr/eZs
AqqRQJZxMT597M+wCxAlGje3KHIFlN0i0h0OcARGBrEOIx6h+33UuLeyH/SOc22j
IzAhMA4GA1UdDwEB/wQEAwIFoDAPBgNVHRMBAf8EBTADAgEDMAoGCCqGSM49BAMC
A0gAMEUCIQCoQqOnAZxQ61gNpIzG02ue61mZ96bYZriqJCMTzKL2uAIgX0KzrNCS
Cwy9MS/ZFTNIJTiMnTcYoqZW4bVDRHNuhu4=
-----END CERTIFICATE-----
