Certificate:
    Data:
        Version: 3 (0x2)
        Serial Number: 26 (0x1a)
        Signature Algorithm: ecdsa-with-SHA256
        Issuer: CN=Regione Sicilia, C=IT, ST=Italia, O=E-Voting system, OU=E-Voting system authority/emailAddress=Sicilia@evoting.it
        Validity
            Not Before: Aug  3 13:27:57 2022 GMT
            Not After : Aug  3 13:27:57 2023 GMT
        Subject: CN=Morgan, C=IT, ST=Italia, O=Regione Sicilia
        Subject Public Key Info:
            Public Key Algorithm: id-ecPublicKey
                Public-Key: (256 bit)
                pub:
                    04:57:4c:aa:ae:f4:ed:5f:3e:92:e1:c3:0c:53:a7:
                    59:ed:e0:f4:0f:6e:ab:8d:bf:4c:4d:fc:b3:79:30:
                    fc:65:24:39:d7:da:16:e7:d0:4a:e6:87:45:be:9c:
                    39:22:d5:40:de:c4:47:6f:53:36:3e:e4:9e:0d:7b:
                    88:da:63:e9:2c
                ASN1 OID: prime256v1
                NIST CURVE: P-256
        X509v3 extensions:
            X509v3 Key Usage: critical
                Digital Signature, Key Encipherment
            X509v3 Basic Constraints: critical
                CA:FALSE, pathlen:3
    Signature Algorithm: ecdsa-with-SHA256
         30:45:02:20:41:a9:6d:0d:eb:00:ec:67:f4:3c:46:9b:7e:d5:
         75:e5:e7:97:8a:4f:92:69:de:43:34:61:01:4d:83:31:d4:ae:
         02:21:00:8e:cd:1b:ef:50:da:f3:43:ff:23:82:f4:38:55:27:
         70:29:ea:9d:7c:81:ea:d9:77:da:bc:79:68:0f:e5:d6:45
-----BEGIN CERTIFICATE-----
MIIB9TCCAZugAwIBAgIBGjAKBggqhkjOPQQDAjCBmTEYMBYGA1UEAwwPUmVnaW9u
ZSBTaWNpbGlhMQswCQYDVQQGEwJJVDEPMA0GA1UECAwGSXRhbGlhMRgwFgYDVQQK
DA9FLVZvdGluZyBzeXN0ZW0xIjAgBgNVBAsMGUUtVm90aW5nIHN5c3RlbSBhdXRo
b3JpdHkxITAfBgkqhkiG9w0BCQEWElNpY2lsaWFAZXZvdGluZy5pdDAeFw0yMjA4
MDMxMzI3NTdaFw0yMzA4MDMxMzI3NTdaMEkxDzANBgNVBAMMBk1vcmdhbjELMAkG
A1UEBhMCSVQxDzANBgNVBAgMBkl0YWxpYTEYMBYGA1UECgwPUmVnaW9uZSBTaWNp
bGlhMFkwEwYHKoZIzj0CAQYIKoZIzj0DAQcDQgAEV0yqrvTtXz6S4cMMU6dZ7eD0
D26rjb9MTfyzeTD8ZSQ519oW59BK5odFvpw5ItVA3sRHb1M2PuSeDXuI2mPpLKMj
MCEwDgYDVR0PAQH/BAQDAgWgMA8GA1UdEwEB/wQFMAMCAQMwCgYIKoZIzj0EAwID
SAAwRQIgQaltDesA7Gf0PEabftV15eeXik+Sad5DNGEBTYMx1K4CIQCOzRvvUNrz
Q/8jgvQ4VSdwKeqdfIHq2XfavHloD+XWRQ==
-----END CERTIFICATE-----
