Certificate:
    Data:
        Version: 3 (0x2)
        Serial Number: 31 (0x1f)
        Signature Algorithm: ecdsa-with-SHA256
        Issuer: CN=Regione Liguria, C=IT, ST=Italia, O=E-Voting system, OU=E-Voting system authority/emailAddress=Liguria@evoting.it
        Validity
            Not Before: Aug 26 15:19:40 2022 GMT
            Not After : Aug 26 15:19:40 2023 GMT
        Subject: CN=Morgan, C=IT, ST=Italia, O=Regione Liguria
        Subject Public Key Info:
            Public Key Algorithm: id-ecPublicKey
                Public-Key: (256 bit)
                pub:
                    04:de:76:ef:75:d1:82:c0:91:f7:8c:e1:0e:e7:3d:
                    b6:d3:42:84:b1:54:4b:e0:8f:2a:bf:54:2a:ac:1f:
                    c9:c7:9c:fd:fe:49:e0:0f:7d:32:81:d4:a4:c2:51:
                    75:fc:ca:63:94:8c:45:76:6f:08:b0:60:cd:72:21:
                    86:1a:0c:6f:11
                ASN1 OID: secp256k1
        X509v3 extensions:
            X509v3 Key Usage: critical
                Digital Signature, Key Encipherment
            X509v3 Basic Constraints: critical
                CA:FALSE, pathlen:3
    Signature Algorithm: ecdsa-with-SHA256
         30:45:02:20:39:94:d6:ce:22:77:bb:b2:e9:05:35:1c:47:6f:
         60:23:22:f0:db:63:17:2e:66:65:07:79:e2:e5:99:9c:90:ef:
         02:21:00:c7:4b:05:92:8e:70:8a:0b:88:bb:50:73:30:3d:fe:
         b8:ea:51:c7:a2:14:2a:f0:a7:b6:cb:5a:41:c2:21:11:c8
-----BEGIN CERTIFICATE-----
MIIB8jCCAZigAwIBAgIBHzAKBggqhkjOPQQDAjCBmTEYMBYGA1UEAwwPUmVnaW9u
ZSBMaWd1cmlhMQswCQYDVQQGEwJJVDEPMA0GA1UECAwGSXRhbGlhMRgwFgYDVQQK
DA9FLVZvdGluZyBzeXN0ZW0xIjAgBgNVBAsMGUUtVm90aW5nIHN5c3RlbSBhdXRo
b3JpdHkxITAfBgkqhkiG9w0BCQEWEkxpZ3VyaWFAZXZvdGluZy5pdDAeFw0yMjA4
MjYxNTE5NDBaFw0yMzA4MjYxNTE5NDBaMEkxDzANBgNVBAMMBk1vcmdhbjELMAkG
A1UEBhMCSVQxDzANBgNVBAgMBkl0YWxpYTEYMBYGA1UECgwPUmVnaW9uZSBMaWd1
cmlhMFYwEAYHKoZIzj0CAQYFK4EEAAoDQgAE3nbvddGCwJH3jOEO5z2200KEsVRL
4I8qv1QqrB/Jx5z9/kngD30ygdSkwlF1/MpjlIxFdm8IsGDNciGGGgxvEaMjMCEw
DgYDVR0PAQH/BAQDAgWgMA8GA1UdEwEB/wQFMAMCAQMwCgYIKoZIzj0EAwIDSAAw
RQIgOZTWziJ3u7LpBTUcR29gIyLw22MXLmZlB3ni5ZmckO8CIQDHSwWSjnCKC4i7
UHMwPf646lHHohQq8Ke2y1pBwiERyA==
-----END CERTIFICATE-----
