Certificate:
    Data:
        Version: 3 (0x2)
        Serial Number: 31 (0x1f)
        Signature Algorithm: ecdsa-with-SHA256
        Issuer: CN=Regione Calabria, C=IT, ST=Italia, O=E-Voting system, OU=E-Voting system authority/emailAddress=Calabria@evoting.it
        Validity
            Not Before: Aug  3 13:27:24 2022 GMT
            Not After : Aug  3 13:27:24 2023 GMT
        Subject: CN=Morris, C=IT, ST=Italia, O=Regione Calabria
        Subject Public Key Info:
            Public Key Algorithm: id-ecPublicKey
                Public-Key: (256 bit)
                pub:
                    04:17:74:cc:c2:28:2a:72:6b:a4:7f:49:88:df:9b:
                    29:e6:ca:07:da:5e:f4:ea:96:2e:9f:a0:a1:d0:16:
                    5d:73:ef:d5:3d:2d:c6:f2:91:69:dd:0e:3c:43:5d:
                    f6:a4:2d:92:3b:d5:07:f4:8a:b2:b6:2f:78:3c:95:
                    3f:9f:02:5a:d6
                ASN1 OID: prime256v1
                NIST CURVE: P-256
        X509v3 extensions:
            X509v3 Key Usage: critical
                Digital Signature, Key Encipherment
            X509v3 Basic Constraints: critical
                CA:FALSE, pathlen:3
    Signature Algorithm: ecdsa-with-SHA256
         30:45:02:21:00:f9:c3:fa:16:08:fe:db:90:ff:1f:df:05:c8:
         14:a3:28:79:f9:74:fe:4a:fc:c5:4e:55:86:3f:a9:75:93:db:
         f4:02:20:63:e0:9f:7b:b8:0b:a7:e2:9e:7f:89:e7:4b:e3:83:
         b0:9c:93:4d:04:3c:7f:b1:f4:b6:cc:15:aa:85:da:f9:58
-----BEGIN CERTIFICATE-----
MIIB+DCCAZ6gAwIBAgIBHzAKBggqhkjOPQQDAjCBmzEZMBcGA1UEAwwQUmVnaW9u
ZSBDYWxhYnJpYTELMAkGA1UEBhMCSVQxDzANBgNVBAgMBkl0YWxpYTEYMBYGA1UE
CgwPRS1Wb3Rpbmcgc3lzdGVtMSIwIAYDVQQLDBlFLVZvdGluZyBzeXN0ZW0gYXV0
aG9yaXR5MSIwIAYJKoZIhvcNAQkBFhNDYWxhYnJpYUBldm90aW5nLml0MB4XDTIy
MDgwMzEzMjcyNFoXDTIzMDgwMzEzMjcyNFowSjEPMA0GA1UEAwwGTW9ycmlzMQsw
CQYDVQQGEwJJVDEPMA0GA1UECAwGSXRhbGlhMRkwFwYDVQQKDBBSZWdpb25lIENh
bGFicmlhMFkwEwYHKoZIzj0CAQYIKoZIzj0DAQcDQgAEF3TMwigqcmukf0mI35sp
5soH2l706pYun6Ch0BZdc+/VPS3G8pFp3Q48Q132pC2SO9UH9Iqyti94PJU/nwJa
1qMjMCEwDgYDVR0PAQH/BAQDAgWgMA8GA1UdEwEB/wQFMAMCAQMwCgYIKoZIzj0E
AwIDSAAwRQIhAPnD+hYI/tuQ/x/fBcgUoyh5+XT+SvzFTlWGP6l1k9v0AiBj4J97
uAun4p5/iedL44OwnJNNBDx/sfS2zBWqhdr5WA==
-----END CERTIFICATE-----
