Certificate:
    Data:
        Version: 3 (0x2)
        Serial Number: 38 (0x26)
        Signature Algorithm: ecdsa-with-SHA256
        Issuer: CN=Regione Calabria, C=IT, ST=Italia, O=E-Voting system, OU=E-Voting system authority/emailAddress=Calabria@evoting.it
        Validity
            Not Before: Aug 26 15:21:26 2022 GMT
            Not After : Aug 26 15:21:26 2023 GMT
        Subject: CN=Morris, C=IT, ST=Italia, O=Regione Calabria
        Subject Public Key Info:
            Public Key Algorithm: id-ecPublicKey
                Public-Key: (256 bit)
                pub:
                    04:c0:d2:42:96:d1:ae:44:56:be:31:4b:47:fd:f8:
                    df:1c:a8:c9:ec:08:b6:c1:4e:46:48:30:89:b0:a7:
                    4f:07:59:b8:cf:3a:e9:06:e9:b5:5b:57:ec:29:be:
                    a2:63:bb:f3:24:2b:a2:7f:ff:1f:a0:41:32:b9:9f:
                    71:99:d5:7a:d3
                ASN1 OID: secp256k1
        X509v3 extensions:
            X509v3 Key Usage: critical
                Digital Signature, Key Encipherment
            X509v3 Basic Constraints: critical
                CA:FALSE, pathlen:3
    Signature Algorithm: ecdsa-with-SHA256
         30:44:02:20:31:20:85:c2:88:9f:d4:3c:f2:11:0f:0a:63:28:
         bf:b8:60:92:ea:d3:51:fd:5e:9f:de:a8:0e:b4:87:f2:0d:b7:
         02:20:7e:b9:a8:7e:b3:52:3d:78:2f:1b:fe:b8:d0:ad:ca:ed:
         a1:39:9a:85:06:cd:56:eb:e5:c9:3d:7d:d2:aa:f5:40
-----BEGIN CERTIFICATE-----
MIIB9DCCAZugAwIBAgIBJjAKBggqhkjOPQQDAjCBmzEZMBcGA1UEAwwQUmVnaW9u
ZSBDYWxhYnJpYTELMAkGA1UEBhMCSVQxDzANBgNVBAgMBkl0YWxpYTEYMBYGA1UE
CgwPRS1Wb3Rpbmcgc3lzdGVtMSIwIAYDVQQLDBlFLVZvdGluZyBzeXN0ZW0gYXV0
aG9yaXR5MSIwIAYJKoZIhvcNAQkBFhNDYWxhYnJpYUBldm90aW5nLml0MB4XDTIy
MDgyNjE1MjEyNloXDTIzMDgyNjE1MjEyNlowSjEPMA0GA1UEAwwGTW9ycmlzMQsw
CQYDVQQGEwJJVDEPMA0GA1UECAwGSXRhbGlhMRkwFwYDVQQKDBBSZWdpb25lIENh
bGFicmlhMFYwEAYHKoZIzj0CAQYFK4EEAAoDQgAEwNJCltGuRFa+MUtH/fjfHKjJ
7Ai2wU5GSDCJsKdPB1m4zzrpBum1W1fsKb6iY7vzJCuif/8foEEyuZ9xmdV606Mj
MCEwDgYDVR0PAQH/BAQDAgWgMA8GA1UdEwEB/wQFMAMCAQMwCgYIKoZIzj0EAwID
RwAwRAIgMSCFwoif1DzyEQ8KYyi/uGCS6tNR/V6f3qgOtIfyDbcCIH65qH6zUj14
Lxv+uNCtyu2hOZqFBs1W6+XJPX3SqvVA
-----END CERTIFICATE-----
