Certificate:
    Data:
        Version: 3 (0x2)
        Serial Number: 39 (0x27)
        Signature Algorithm: ecdsa-with-SHA256
        Issuer: CN=Regione Calabria, C=IT, ST=Italia, O=E-Voting system, OU=E-Voting system authority/emailAddress=Calabria@evoting.it
        Validity
            Not Before: Aug 26 15:21:28 2022 GMT
            Not After : Aug 26 15:21:28 2023 GMT
        Subject: CN=Nakia, C=IT, ST=Italia, O=Regione Calabria
        Subject Public Key Info:
            Public Key Algorithm: id-ecPublicKey
                Public-Key: (256 bit)
                pub:
                    04:a4:8d:16:1d:26:e3:75:ee:56:ab:4a:21:f1:4c:
                    25:23:14:97:b6:c1:59:b2:d9:15:01:8a:a3:ad:58:
                    52:41:f6:c3:a9:1d:af:ab:a7:20:23:fe:1e:e9:2c:
                    64:e0:4d:65:08:c9:7f:4d:3f:14:a5:13:c6:23:4c:
                    5f:bd:d4:9c:6c
                ASN1 OID: secp256k1
        X509v3 extensions:
            X509v3 Key Usage: critical
                Digital Signature, Key Encipherment
            X509v3 Basic Constraints: critical
                CA:FALSE, pathlen:3
    Signature Algorithm: ecdsa-with-SHA256
         30:44:02:20:1c:c0:3d:a5:9f:2c:19:66:6e:1b:c7:04:d1:ee:
         08:8f:08:96:c0:95:6f:0e:5a:d8:0d:9d:c8:c9:48:e9:64:69:
         02:20:49:1a:63:16:95:84:4e:06:4e:3b:ed:76:c6:13:46:3d:
         9f:5a:8b:da:e6:34:81:ca:59:0e:a2:41:73:c2:95:7e
-----BEGIN CERTIFICATE-----
MIIB8zCCAZqgAwIBAgIBJzAKBggqhkjOPQQDAjCBmzEZMBcGA1UEAwwQUmVnaW9u
ZSBDYWxhYnJpYTELMAkGA1UEBhMCSVQxDzANBgNVBAgMBkl0YWxpYTEYMBYGA1UE
CgwPRS1Wb3Rpbmcgc3lzdGVtMSIwIAYDVQQLDBlFLVZvdGluZyBzeXN0ZW0gYXV0
aG9yaXR5MSIwIAYJKoZIhvcNAQkBFhNDYWxhYnJpYUBldm90aW5nLml0MB4XDTIy
MDgyNjE1MjEyOFoXDTIzMDgyNjE1MjEyOFowSTEOMAwGA1UEAwwFTmFraWExCzAJ
BgNVBAYTAklUMQ8wDQYDVQQIDAZJdGFsaWExGTAXBgNVBAoMEFJlZ2lvbmUgQ2Fs
YWJyaWEwVjAQBgcqhkjOPQIBBgUrgQQACgNCAASkjRYdJuN17larSiHxTCUjFJe2
wVmy2RUBiqOtWFJB9sOpHa+rpyAj/h7pLGTgTWUIyX9NPxSlE8YjTF+91JxsoyMw
ITAOBgNVHQ8BAf8EBAMCBaAwDwYDVR0TAQH/BAUwAwIBAzAKBggqhkjOPQQDAgNH
ADBEAiAcwD2lnywZZm4bxwTR7giPCJbAlW8OWtgNncjJSOlkaQIgSRpjFpWETgZO
O+12xhNGPZ9ai9rmNIHKWQ6iQXPClX4=
-----END CERTIFICATE-----
