Certificate:
    Data:
        Version: 3 (0x2)
        Serial Number: 3 (0x3)
        Signature Algorithm: ecdsa-with-SHA256
        Issuer: CN=Regione Veneto, C=IT, ST=Italia, O=E-Voting system, OU=E-Voting system authority/emailAddress=Veneto@evoting.it
        Validity
            Not Before: Aug  3 13:25:49 2022 GMT
            Not After : Aug  3 13:25:49 2023 GMT
        Subject: CN=Nanette, C=IT, ST=Italia, O=Regione Veneto
        Subject Public Key Info:
            Public Key Algorithm: id-ecPublicKey
                Public-Key: (256 bit)
                pub:
                    04:c6:e0:17:75:68:73:37:50:d4:88:dd:05:4b:3a:
                    db:d3:08:39:fa:fe:3f:29:bc:2b:ce:68:a9:b8:5d:
                    8d:fd:1a:fb:6d:c5:53:a7:ab:d4:77:c8:e9:1f:fc:
                    c7:11:33:6b:c0:06:61:ba:4e:4a:ff:20:5d:fe:6d:
                    cc:7d:d8:4b:e0
                ASN1 OID: prime256v1
                NIST CURVE: P-256
        X509v3 extensions:
            X509v3 Key Usage: critical
                Digital Signature, Key Encipherment
            X509v3 Basic Constraints: critical
                CA:FALSE, pathlen:3
    Signature Algorithm: ecdsa-with-SHA256
         30:44:02:20:79:65:99:cb:21:1f:04:24:3c:ad:25:91:32:d4:
         77:c4:d8:b2:11:ae:b0:a7:3f:4b:5b:2a:14:82:07:72:cc:ff:
         02:20:36:e3:6a:be:50:29:e8:cc:fb:72:c4:e8:5d:7d:c9:84:
         c1:51:62:f7:d4:30:e9:f2:08:54:31:67:8f:f2:0d:18
-----BEGIN CERTIFICATE-----
MIIB8jCCAZmgAwIBAgIBAzAKBggqhkjOPQQDAjCBlzEXMBUGA1UEAwwOUmVnaW9u
ZSBWZW5ldG8xCzAJBgNVBAYTAklUMQ8wDQYDVQQIDAZJdGFsaWExGDAWBgNVBAoM
D0UtVm90aW5nIHN5c3RlbTEiMCAGA1UECwwZRS1Wb3Rpbmcgc3lzdGVtIGF1dGhv
cml0eTEgMB4GCSqGSIb3DQEJARYRVmVuZXRvQGV2b3RpbmcuaXQwHhcNMjIwODAz
MTMyNTQ5WhcNMjMwODAzMTMyNTQ5WjBJMRAwDgYDVQQDDAdOYW5ldHRlMQswCQYD
VQQGEwJJVDEPMA0GA1UECAwGSXRhbGlhMRcwFQYDVQQKDA5SZWdpb25lIFZlbmV0
bzBZMBMGByqGSM49AgEGCCqGSM49AwEHA0IABMbgF3VoczdQ1IjdBUs629MIOfr+
Pym8K85oqbhdjf0a+23FU6er1HfI6R/8xxEza8AGYbpOSv8gXf5tzH3YS+CjIzAh
MA4GA1UdDwEB/wQEAwIFoDAPBgNVHRMBAf8EBTADAgEDMAoGCCqGSM49BAMCA0cA
MEQCIHllmcshHwQkPK0lkTLUd8TYshGusKc/S1sqFIIHcsz/AiA242q+UCnozPty
xOhdfcmEwVFi99Qw6fIIVDFnj/INGA==
-----END CERTIFICATE-----
