Certificate:
    Data:
        Version: 3 (0x2)
        Serial Number: 5 (0x5)
        Signature Algorithm: ecdsa-with-SHA256
        Issuer: CN=Regione Friuli_Venezia_Giulia, C=IT, ST=Italia, O=E-Voting system, OU=E-Voting system authority/emailAddress=Friuli_Venezia_Giulia@evoting.it
        Validity
            Not Before: Aug 26 15:18:27 2022 GMT
            Not After : Aug 26 15:18:27 2023 GMT
        Subject: CN=Nanette, C=IT, ST=Italia, O=Regione Friuli_Venezia_Giulia
        Subject Public Key Info:
            Public Key Algorithm: id-ecPublicKey
                Public-Key: (256 bit)
                pub:
                    04:d2:f8:b2:fd:c3:24:74:f1:65:da:20:14:94:a0:
                    37:99:b5:e4:0a:eb:52:9a:02:da:df:d5:07:cc:5f:
                    5e:a9:8a:7a:a7:f0:5f:2a:bd:d7:68:0b:a4:ee:0f:
                    15:da:39:16:0c:2d:58:03:e1:ac:ad:6a:7a:29:1d:
                    21:f0:78:7c:6e
                ASN1 OID: secp256k1
        X509v3 extensions:
            X509v3 Key Usage: critical
                Digital Signature, Key Encipherment
            X509v3 Basic Constraints: critical
                CA:FALSE, pathlen:3
    Signature Algorithm: ecdsa-with-SHA256
         30:46:02:21:00:ea:61:50:fe:7c:88:ff:14:ff:45:93:8d:b1:
         4e:e6:41:cf:38:49:54:86:e2:38:e7:e3:86:dd:c6:1e:cd:90:
         75:02:21:00:ad:40:dc:42:48:79:b4:dc:dc:e4:26:ae:a4:07:
         4b:fe:23:34:02:0b:e6:62:3d:28:a9:0e:96:3a:87:b4:7d:ff
-----BEGIN CERTIFICATE-----
MIICHjCCAcOgAwIBAgIBBTAKBggqhkjOPQQDAjCBtTEmMCQGA1UEAwwdUmVnaW9u
ZSBGcml1bGlfVmVuZXppYV9HaXVsaWExCzAJBgNVBAYTAklUMQ8wDQYDVQQIDAZJ
dGFsaWExGDAWBgNVBAoMD0UtVm90aW5nIHN5c3RlbTEiMCAGA1UECwwZRS1Wb3Rp
bmcgc3lzdGVtIGF1dGhvcml0eTEvMC0GCSqGSIb3DQEJARYgRnJpdWxpX1ZlbmV6
aWFfR2l1bGlhQGV2b3RpbmcuaXQwHhcNMjIwODI2MTUxODI3WhcNMjMwODI2MTUx
ODI3WjBYMRAwDgYDVQQDDAdOYW5ldHRlMQswCQYDVQQGEwJJVDEPMA0GA1UECAwG
SXRhbGlhMSYwJAYDVQQKDB1SZWdpb25lIEZyaXVsaV9WZW5lemlhX0dpdWxpYTBW
MBAGByqGSM49AgEGBSuBBAAKA0IABNL4sv3DJHTxZdogFJSgN5m15ArrUpoC2t/V
B8xfXqmKeqfwXyq912gLpO4PFdo5FgwtWAPhrK1qeikdIfB4fG6jIzAhMA4GA1Ud
DwEB/wQEAwIFoDAPBgNVHRMBAf8EBTADAgEDMAoGCCqGSM49BAMCA0kAMEYCIQDq
YVD+fIj/FP9Fk42xTuZBzzhJVIbiOOfjht3GHs2QdQIhAK1A3EJIebTc3OQmrqQH
S/4jNAIL5mI9KKkOljqHtH3/
-----END CERTIFICATE-----
