Certificate:
    Data:
        Version: 3 (0x2)
        Serial Number: 53 (0x35)
        Signature Algorithm: ecdsa-with-SHA256
        Issuer: CN=Regione Puglia, C=IT, ST=Italia, O=E-Voting system, OU=E-Voting system authority/emailAddress=Puglia@evoting.it
        Validity
            Not Before: Aug 26 15:21:34 2022 GMT
            Not After : Aug 26 15:21:34 2023 GMT
        Subject: CN=Naomi, C=IT, ST=Italia, O=Regione Puglia
        Subject Public Key Info:
            Public Key Algorithm: id-ecPublicKey
                Public-Key: (256 bit)
                pub:
                    04:b5:62:b5:d3:4a:00:32:bf:09:f9:73:01:cb:7d:
                    c6:cd:58:21:d3:6a:f9:87:59:af:0c:43:9c:94:ab:
                    94:6a:0f:e1:ae:6f:0b:89:b7:cb:85:df:5f:d1:1a:
                    44:7b:43:33:3c:6d:77:dd:28:33:2b:07:9e:c7:86:
                    32:bc:cb:7e:e8
                ASN1 OID: secp256k1
        X509v3 extensions:
            X509v3 Key Usage: critical
                Digital Signature, Key Encipherment
            X509v3 Basic Constraints: critical
                CA:FALSE, pathlen:3
    Signature Algorithm: ecdsa-with-SHA256
         30:45:02:20:76:79:d4:79:94:19:d3:f2:dc:cb:ce:4f:67:aa:
         ae:03:e1:73:02:b9:7b:7a:8e:26:34:b5:ed:90:a3:70:1f:5a:
         02:21:00:b9:ad:9b:10:42:cc:b3:a3:b3:75:ec:71:c3:52:0c:
         e7:f8:cd:7e:70:6f:55:ee:08:be:16:d6:f1:53:02:3b:27
-----BEGIN CERTIFICATE-----
MIIB7jCCAZSgAwIBAgIBNTAKBggqhkjOPQQDAjCBlzEXMBUGA1UEAwwOUmVnaW9u
ZSBQdWdsaWExCzAJBgNVBAYTAklUMQ8wDQYDVQQIDAZJdGFsaWExGDAWBgNVBAoM
D0UtVm90aW5nIHN5c3RlbTEiMCAGA1UECwwZRS1Wb3Rpbmcgc3lzdGVtIGF1dGhv
cml0eTEgMB4GCSqGSIb3DQEJARYRUHVnbGlhQGV2b3RpbmcuaXQwHhcNMjIwODI2
MTUyMTM0WhcNMjMwODI2MTUyMTM0WjBHMQ4wDAYDVQQDDAVOYW9taTELMAkGA1UE
BhMCSVQxDzANBgNVBAgMBkl0YWxpYTEXMBUGA1UECgwOUmVnaW9uZSBQdWdsaWEw
VjAQBgcqhkjOPQIBBgUrgQQACgNCAAS1YrXTSgAyvwn5cwHLfcbNWCHTavmHWa8M
Q5yUq5RqD+GubwuJt8uF31/RGkR7QzM8bXfdKDMrB57HhjK8y37ooyMwITAOBgNV
HQ8BAf8EBAMCBaAwDwYDVR0TAQH/BAUwAwIBAzAKBggqhkjOPQQDAgNIADBFAiB2
edR5lBnT8tzLzk9nqq4D4XMCuXt6jiY0te2Qo3AfWgIhALmtmxBCzLOjs3XsccNS
DOf4zX5wb1XuCL4W1vFTAjsn
-----END CERTIFICATE-----
