Certificate:
    Data:
        Version: 3 (0x2)
        Serial Number: 30 (0x1e)
        Signature Algorithm: ecdsa-with-SHA256
        Issuer: CN=Regione Veneto, C=IT, ST=Italia, O=E-Voting system, OU=E-Voting system authority/emailAddress=Veneto@evoting.it
        Validity
            Not Before: Aug  3 13:27:19 2022 GMT
            Not After : Aug  3 13:27:19 2023 GMT
        Subject: CN=Naomi, C=IT, ST=Italia, O=Regione Veneto
        Subject Public Key Info:
            Public Key Algorithm: id-ecPublicKey
                Public-Key: (256 bit)
                pub:
                    04:19:b7:0d:84:64:e6:40:c8:06:df:22:e9:09:60:
                    6c:d2:82:25:b8:55:97:78:c0:5a:a3:e1:00:6f:63:
                    7e:56:4b:c8:af:b0:60:28:21:b2:99:3d:83:5f:4a:
                    11:6f:3d:0f:e3:ac:d0:20:74:6f:8a:5a:9f:f1:8a:
                    e7:45:5c:7b:19
                ASN1 OID: prime256v1
                NIST CURVE: P-256
        X509v3 extensions:
            X509v3 Key Usage: critical
                Digital Signature, Key Encipherment
            X509v3 Basic Constraints: critical
                CA:FALSE, pathlen:3
    Signature Algorithm: ecdsa-with-SHA256
         30:45:02:20:63:ae:8f:3e:ef:b8:be:aa:d9:2d:66:c3:8f:91:
         cd:a1:19:10:aa:b8:ff:18:1d:f0:66:28:17:ab:e8:d4:c3:10:
         02:21:00:ec:64:03:33:ba:30:69:f8:8d:3b:d1:0e:74:46:9f:
         1d:4e:42:f2:eb:b6:4a:8a:e1:93:38:db:08:c2:64:45:42
-----BEGIN CERTIFICATE-----
MIIB8TCCAZegAwIBAgIBHjAKBggqhkjOPQQDAjCBlzEXMBUGA1UEAwwOUmVnaW9u
ZSBWZW5ldG8xCzAJBgNVBAYTAklUMQ8wDQYDVQQIDAZJdGFsaWExGDAWBgNVBAoM
D0UtVm90aW5nIHN5c3RlbTEiMCAGA1UECwwZRS1Wb3Rpbmcgc3lzdGVtIGF1dGhv
cml0eTEgMB4GCSqGSIb3DQEJARYRVmVuZXRvQGV2b3RpbmcuaXQwHhcNMjIwODAz
MTMyNzE5WhcNMjMwODAzMTMyNzE5WjBHMQ4wDAYDVQQDDAVOYW9taTELMAkGA1UE
BhMCSVQxDzANBgNVBAgMBkl0YWxpYTEXMBUGA1UECgwOUmVnaW9uZSBWZW5ldG8w
WTATBgcqhkjOPQIBBggqhkjOPQMBBwNCAAQZtw2EZOZAyAbfIukJYGzSgiW4VZd4
wFqj4QBvY35WS8ivsGAoIbKZPYNfShFvPQ/jrNAgdG+KWp/xiudFXHsZoyMwITAO
BgNVHQ8BAf8EBAMCBaAwDwYDVR0TAQH/BAUwAwIBAzAKBggqhkjOPQQDAgNIADBF
AiBjro8+77i+qtktZsOPkc2hGRCquP8YHfBmKBer6NTDEAIhAOxkAzO6MGn4jTvR
DnRGnx1OQvLrtkqK4ZM42wjCZEVC
-----END CERTIFICATE-----
