Certificate:
    Data:
        Version: 3 (0x2)
        Serial Number: 46 (0x2e)
        Signature Algorithm: ecdsa-with-SHA256
        Issuer: CN=Regione Molise, C=IT, ST=Italia, O=E-Voting system, OU=E-Voting system authority/emailAddress=Molise@evoting.it
        Validity
            Not Before: Aug 26 15:21:43 2022 GMT
            Not After : Aug 26 15:21:43 2023 GMT
        Subject: CN=Natalie, C=IT, ST=Italia, O=Regione Molise
        Subject Public Key Info:
            Public Key Algorithm: id-ecPublicKey
                Public-Key: (256 bit)
                pub:
                    04:5d:54:92:9d:ba:4c:8e:6b:d2:31:8f:14:2f:69:
                    61:45:2f:29:15:85:ed:56:aa:33:8c:6c:3f:7f:ea:
                    e0:c8:22:b1:a9:8c:dc:12:65:7f:c5:d0:84:d4:68:
                    60:aa:c9:9f:d5:64:87:2d:87:78:6f:24:7e:60:35:
                    c8:1c:f9:fa:33
                ASN1 OID: secp256k1
        X509v3 extensions:
            X509v3 Key Usage: critical
                Digital Signature, Key Encipherment
            X509v3 Basic Constraints: critical
                CA:FALSE, pathlen:3
    Signature Algorithm: ecdsa-with-SHA256
         30:45:02:21:00:e4:0d:58:60:73:56:9e:0e:83:d0:27:68:21:
         33:1a:d4:80:0e:55:76:c2:f2:21:df:d8:4a:35:4f:8b:c7:6e:
         00:02:20:4d:8c:9b:7d:dd:74:48:d8:d8:60:da:a7:99:23:ed:
         5e:38:e8:d0:8e:9e:a0:4a:d4:d0:c8:4a:da:e0:9d:7f:c8
-----BEGIN CERTIFICATE-----
MIIB8DCCAZagAwIBAgIBLjAKBggqhkjOPQQDAjCBlzEXMBUGA1UEAwwOUmVnaW9u
ZSBNb2xpc2UxCzAJBgNVBAYTAklUMQ8wDQYDVQQIDAZJdGFsaWExGDAWBgNVBAoM
D0UtVm90aW5nIHN5c3RlbTEiMCAGA1UECwwZRS1Wb3Rpbmcgc3lzdGVtIGF1dGhv
cml0eTEgMB4GCSqGSIb3DQEJARYRTW9saXNlQGV2b3RpbmcuaXQwHhcNMjIwODI2
MTUyMTQzWhcNMjMwODI2MTUyMTQzWjBJMRAwDgYDVQQDDAdOYXRhbGllMQswCQYD
VQQGEwJJVDEPMA0GA1UECAwGSXRhbGlhMRcwFQYDVQQKDA5SZWdpb25lIE1vbGlz
ZTBWMBAGByqGSM49AgEGBSuBBAAKA0IABF1Ukp26TI5r0jGPFC9pYUUvKRWF7Vaq
M4xsP3/q4MgisamM3BJlf8XQhNRoYKrJn9Vkhy2HeG8kfmA1yBz5+jOjIzAhMA4G
A1UdDwEB/wQEAwIFoDAPBgNVHRMBAf8EBTADAgEDMAoGCCqGSM49BAMCA0gAMEUC
IQDkDVhgc1aeDoPQJ2ghMxrUgA5VdsLyId/YSjVPi8duAAIgTYybfd10SNjYYNqn
mSPtXjjo0I6eoErU0MhK2uCdf8g=
-----END CERTIFICATE-----
