Certificate:
    Data:
        Version: 3 (0x2)
        Serial Number: 41 (0x29)
        Signature Algorithm: ecdsa-with-SHA256
        Issuer: CN=Regione Sicilia, C=IT, ST=Italia, O=E-Voting system, OU=E-Voting system authority/emailAddress=Sicilia@evoting.it
        Validity
            Not Before: Aug 26 15:20:52 2022 GMT
            Not After : Aug 26 15:20:52 2023 GMT
        Subject: CN=Natasha, C=IT, ST=Italia, O=Regione Sicilia
        Subject Public Key Info:
            Public Key Algorithm: id-ecPublicKey
                Public-Key: (256 bit)
                pub:
                    04:93:e2:19:e1:91:10:2b:2f:a2:8b:d8:07:f1:ae:
                    2a:71:88:1b:1b:22:bd:14:30:91:c7:60:37:f7:3a:
                    0f:b9:13:60:ff:1a:ae:d9:0c:91:47:d3:b9:28:71:
                    ef:33:8b:f9:4b:88:4e:bb:56:9e:61:f9:63:fa:f3:
                    2e:f1:1d:a2:9a
                ASN1 OID: secp256k1
        X509v3 extensions:
            X509v3 Key Usage: critical
                Digital Signature, Key Encipherment
            X509v3 Basic Constraints: critical
                CA:FALSE, pathlen:3
    Signature Algorithm: ecdsa-with-SHA256
         30:45:02:20:06:8b:9a:05:75:ae:ca:2a:8e:28:42:a9:b9:f0:
         91:09:71:55:50:b3:0e:c1:3d:32:66:ab:00:5e:15:d1:f0:91:
         02:21:00:86:66:e2:11:18:5c:b3:0c:26:ae:fe:9a:d2:d5:5e:
         ae:08:cd:44:5c:ed:ea:ca:3a:cf:e0:df:f7:a3:3f:fc:41
-----BEGIN CERTIFICATE-----
MIIB8zCCAZmgAwIBAgIBKTAKBggqhkjOPQQDAjCBmTEYMBYGA1UEAwwPUmVnaW9u
ZSBTaWNpbGlhMQswCQYDVQQGEwJJVDEPMA0GA1UECAwGSXRhbGlhMRgwFgYDVQQK
DA9FLVZvdGluZyBzeXN0ZW0xIjAgBgNVBAsMGUUtVm90aW5nIHN5c3RlbSBhdXRo
b3JpdHkxITAfBgkqhkiG9w0BCQEWElNpY2lsaWFAZXZvdGluZy5pdDAeFw0yMjA4
MjYxNTIwNTJaFw0yMzA4MjYxNTIwNTJaMEoxEDAOBgNVBAMMB05hdGFzaGExCzAJ
BgNVBAYTAklUMQ8wDQYDVQQIDAZJdGFsaWExGDAWBgNVBAoMD1JlZ2lvbmUgU2lj
aWxpYTBWMBAGByqGSM49AgEGBSuBBAAKA0IABJPiGeGRECsvoovYB/GuKnGIGxsi
vRQwkcdgN/c6D7kTYP8artkMkUfTuShx7zOL+UuITrtWnmH5Y/rzLvEdopqjIzAh
MA4GA1UdDwEB/wQEAwIFoDAPBgNVHRMBAf8EBTADAgEDMAoGCCqGSM49BAMCA0gA
MEUCIAaLmgV1rsoqjihCqbnwkQlxVVCzDsE9MmarAF4V0fCRAiEAhmbiERhcswwm
rv6a0tVergjNRFzt6so6z+Df96M//EE=
-----END CERTIFICATE-----
