Certificate:
    Data:
        Version: 3 (0x2)
        Serial Number: 26 (0x1a)
        Signature Algorithm: ecdsa-with-SHA256
        Issuer: CN=Regione Trentino_Alto_Adige, C=IT, ST=Italia, O=E-Voting system, OU=E-Voting system authority/emailAddress=Trentino_Alto_Adige@evoting.it
        Validity
            Not Before: Aug 26 15:20:07 2022 GMT
            Not After : Aug 26 15:20:07 2023 GMT
        Subject: CN=Nathaniel, C=IT, ST=Italia, O=Regione Trentino_Alto_Adige
        Subject Public Key Info:
            Public Key Algorithm: id-ecPublicKey
                Public-Key: (256 bit)
                pub:
                    04:51:15:05:6c:09:d6:2a:c8:bf:15:d0:ec:97:c9:
                    dd:c3:e9:42:71:d8:96:3d:c8:0a:9d:2f:db:20:49:
                    9c:d1:49:f5:af:a0:48:ec:20:e8:ac:c9:63:01:dd:
                    86:24:08:ea:22:72:8c:f9:52:c8:ef:34:17:ca:36:
                    07:65:50:dc:59
                ASN1 OID: secp256k1
        X509v3 extensions:
            X509v3 Key Usage: critical
                Digital Signature, Key Encipherment
            X509v3 Basic Constraints: critical
                CA:FALSE, pathlen:3
    Signature Algorithm: ecdsa-with-SHA256
         30:45:02:20:11:ef:cc:47:3e:a3:d4:04:77:3d:43:3e:b9:d1:
         ce:88:01:05:a0:7b:16:e6:61:95:86:f6:10:4c:39:5b:91:b9:
         02:21:00:ac:f9:f7:ce:4b:e8:bb:23:ff:89:3f:dc:88:b4:e6:
         72:d7:02:9a:60:93:b8:78:f7:c4:57:a4:83:45:db:f3:a8
-----BEGIN CERTIFICATE-----
MIICGTCCAb+gAwIBAgIBGjAKBggqhkjOPQQDAjCBsTEkMCIGA1UEAwwbUmVnaW9u
ZSBUcmVudGlub19BbHRvX0FkaWdlMQswCQYDVQQGEwJJVDEPMA0GA1UECAwGSXRh
bGlhMRgwFgYDVQQKDA9FLVZvdGluZyBzeXN0ZW0xIjAgBgNVBAsMGUUtVm90aW5n
IHN5c3RlbSBhdXRob3JpdHkxLTArBgkqhkiG9w0BCQEWHlRyZW50aW5vX0FsdG9f
QWRpZ2VAZXZvdGluZy5pdDAeFw0yMjA4MjYxNTIwMDdaFw0yMzA4MjYxNTIwMDda
MFgxEjAQBgNVBAMMCU5hdGhhbmllbDELMAkGA1UEBhMCSVQxDzANBgNVBAgMBkl0
YWxpYTEkMCIGA1UECgwbUmVnaW9uZSBUcmVudGlub19BbHRvX0FkaWdlMFYwEAYH
KoZIzj0CAQYFK4EEAAoDQgAEURUFbAnWKsi/FdDsl8ndw+lCcdiWPcgKnS/bIEmc
0Un1r6BI7CDorMljAd2GJAjqInKM+VLI7zQXyjYHZVDcWaMjMCEwDgYDVR0PAQH/
BAQDAgWgMA8GA1UdEwEB/wQFMAMCAQMwCgYIKoZIzj0EAwIDSAAwRQIgEe/MRz6j
1AR3PUM+udHOiAEFoHsW5mGVhvYQTDlbkbkCIQCs+ffOS+i7I/+JP9yItOZy1wKa
YJO4ePfEV6SDRdvzqA==
-----END CERTIFICATE-----
