Certificate:
    Data:
        Version: 3 (0x2)
        Serial Number: 4 (0x4)
        Signature Algorithm: ecdsa-with-SHA256
        Issuer: CN=Regione Trentino_Alto_Adige, C=IT, ST=Italia, O=E-Voting system, OU=E-Voting system authority/emailAddress=Trentino_Alto_Adige@evoting.it
        Validity
            Not Before: Aug 26 15:18:31 2022 GMT
            Not After : Aug 26 15:18:31 2023 GMT
        Subject: CN=Nella, C=IT, ST=Italia, O=Regione Trentino_Alto_Adige
        Subject Public Key Info:
            Public Key Algorithm: id-ecPublicKey
                Public-Key: (256 bit)
                pub:
                    04:e0:76:e4:18:d1:f0:ce:2f:c1:55:9f:8c:df:be:
                    18:27:30:b0:47:b1:44:e5:65:00:e0:a2:4d:da:b0:
                    f3:f0:54:5a:7a:9b:f5:12:bf:fa:31:66:14:59:99:
                    65:ef:6b:c3:21:25:9c:44:e4:15:bc:a0:a5:79:34:
                    1c:1e:79:f5:af
                ASN1 OID: secp256k1
        X509v3 extensions:
            X509v3 Key Usage: critical
                Digital Signature, Key Encipherment
            X509v3 Basic Constraints: critical
                CA:FALSE, pathlen:3
    Signature Algorithm: ecdsa-with-SHA256
         30:44:02:20:73:f5:8e:16:1f:38:97:fd:c1:2a:db:2e:ed:e0:
         ba:0a:f9:a9:f0:ec:86:d9:96:8e:e2:9f:c5:62:26:57:7f:ab:
         02:20:70:2c:75:4e:b3:d9:45:d5:50:16:8a:cc:49:41:68:dc:
         d1:16:fe:13:f6:a5:63:f5:bc:a1:94:31:ad:ae:17:12
-----BEGIN CERTIFICATE-----
MIICFDCCAbugAwIBAgIBBDAKBggqhkjOPQQDAjCBsTEkMCIGA1UEAwwbUmVnaW9u
ZSBUcmVudGlub19BbHRvX0FkaWdlMQswCQYDVQQGEwJJVDEPMA0GA1UECAwGSXRh
bGlhMRgwFgYDVQQKDA9FLVZvdGluZyBzeXN0ZW0xIjAgBgNVBAsMGUUtVm90aW5n
IHN5c3RlbSBhdXRob3JpdHkxLTArBgkqhkiG9w0BCQEWHlRyZW50aW5vX0FsdG9f
QWRpZ2VAZXZvdGluZy5pdDAeFw0yMjA4MjYxNTE4MzFaFw0yMzA4MjYxNTE4MzFa
MFQxDjAMBgNVBAMMBU5lbGxhMQswCQYDVQQGEwJJVDEPMA0GA1UECAwGSXRhbGlh
MSQwIgYDVQQKDBtSZWdpb25lIFRyZW50aW5vX0FsdG9fQWRpZ2UwVjAQBgcqhkjO
PQIBBgUrgQQACgNCAATgduQY0fDOL8FVn4zfvhgnMLBHsUTlZQDgok3asPPwVFp6
m/USv/oxZhRZmWXva8MhJZxE5BW8oKV5NBweefWvoyMwITAOBgNVHQ8BAf8EBAMC
BaAwDwYDVR0TAQH/BAUwAwIBAzAKBggqhkjOPQQDAgNHADBEAiBz9Y4WHziX/cEq
2y7t4LoK+anw7IbZlo7in8ViJld/qwIgcCx1TrPZRdVQForMSUFo3NEW/hP2pWP1
vKGUMa2uFxI=
-----END CERTIFICATE-----
