Certificate:
    Data:
        Version: 3 (0x2)
        Serial Number: 16 (0x10)
        Signature Algorithm: ecdsa-with-SHA256
        Issuer: CN=Regione Emilia_Romagna, C=IT, ST=Italia, O=E-Voting system, OU=E-Voting system authority/emailAddress=Emilia_Romagna@evoting.it
        Validity
            Not Before: Aug  3 13:26:32 2022 GMT
            Not After : Aug  3 13:26:32 2023 GMT
        Subject: CN=Nella, C=IT, ST=Italia, O=Regione Emilia_Romagna
        Subject Public Key Info:
            Public Key Algorithm: id-ecPublicKey
                Public-Key: (256 bit)
                pub:
                    04:52:cc:3f:a8:59:19:7e:71:ac:1f:23:04:23:e8:
                    4b:4f:ae:33:bc:51:10:77:fa:85:ca:89:66:eb:15:
                    fa:01:e4:53:68:22:a4:36:9d:37:f6:fc:aa:e5:09:
                    74:0b:81:d9:6d:56:5c:7a:a7:46:73:35:04:14:c6:
                    61:b3:9d:e8:64
                ASN1 OID: prime256v1
                NIST CURVE: P-256
        X509v3 extensions:
            X509v3 Key Usage: critical
                Digital Signature, Key Encipherment
            X509v3 Basic Constraints: critical
                CA:FALSE, pathlen:3
    Signature Algorithm: ecdsa-with-SHA256
         30:45:02:21:00:b9:b1:cd:8a:e1:0d:62:44:8e:2c:86:bd:75:
         fd:e8:bf:d6:42:0f:3a:b3:47:6f:05:19:56:4f:6c:e7:4c:f3:
         31:02:20:1e:7a:4f:77:9f:c7:15:df:b6:6a:4b:45:aa:05:b0:
         2f:ac:d0:9f:94:b0:85:5b:e1:0f:3d:53:32:fc:0d:71:9b
-----BEGIN CERTIFICATE-----
MIICCTCCAa+gAwIBAgIBEDAKBggqhkjOPQQDAjCBpzEfMB0GA1UEAwwWUmVnaW9u
ZSBFbWlsaWFfUm9tYWduYTELMAkGA1UEBhMCSVQxDzANBgNVBAgMBkl0YWxpYTEY
MBYGA1UECgwPRS1Wb3Rpbmcgc3lzdGVtMSIwIAYDVQQLDBlFLVZvdGluZyBzeXN0
ZW0gYXV0aG9yaXR5MSgwJgYJKoZIhvcNAQkBFhlFbWlsaWFfUm9tYWduYUBldm90
aW5nLml0MB4XDTIyMDgwMzEzMjYzMloXDTIzMDgwMzEzMjYzMlowTzEOMAwGA1UE
AwwFTmVsbGExCzAJBgNVBAYTAklUMQ8wDQYDVQQIDAZJdGFsaWExHzAdBgNVBAoM
FlJlZ2lvbmUgRW1pbGlhX1JvbWFnbmEwWTATBgcqhkjOPQIBBggqhkjOPQMBBwNC
AARSzD+oWRl+cawfIwQj6EtPrjO8URB3+oXKiWbrFfoB5FNoIqQ2nTf2/KrlCXQL
gdltVlx6p0ZzNQQUxmGznehkoyMwITAOBgNVHQ8BAf8EBAMCBaAwDwYDVR0TAQH/
BAUwAwIBAzAKBggqhkjOPQQDAgNIADBFAiEAubHNiuENYkSOLIa9df3ov9ZCDzqz
R28FGVZPbOdM8zECIB56T3efxxXftmpLRaoFsC+s0J+UsIVb4Q89UzL8DXGb
-----END CERTIFICATE-----
