Certificate:
    Data:
        Version: 3 (0x2)
        Serial Number: 44 (0x2c)
        Signature Algorithm: ecdsa-with-SHA256
        Issuer: CN=Regione Emilia_Romagna, C=IT, ST=Italia, O=E-Voting system, OU=E-Voting system authority/emailAddress=Emilia_Romagna@evoting.it
        Validity
            Not Before: Aug 26 15:21:19 2022 GMT
            Not After : Aug 26 15:21:19 2023 GMT
        Subject: CN=Nettie, C=IT, ST=Italia, O=Regione Emilia_Romagna
        Subject Public Key Info:
            Public Key Algorithm: id-ecPublicKey
                Public-Key: (256 bit)
                pub:
                    04:4e:79:87:c9:bd:1c:19:8d:7b:da:5a:a0:3d:b0:
                    04:02:82:1c:c0:ec:57:e8:35:f4:82:8a:6a:56:d2:
                    6d:36:20:3f:30:7c:d0:27:69:6a:08:49:ea:31:46:
                    b9:6f:61:a4:f9:16:d2:f1:6e:44:45:f8:7b:c1:65:
                    96:df:51:91:51
                ASN1 OID: secp256k1
        X509v3 extensions:
            X509v3 Key Usage: critical
                Digital Signature, Key Encipherment
            X509v3 Basic Constraints: critical
                CA:FALSE, pathlen:3
    Signature Algorithm: ecdsa-with-SHA256
         30:45:02:20:5b:ab:95:62:84:d0:26:41:ba:ef:ba:fb:d6:3b:
         fc:26:a0:c2:da:a0:77:2a:01:91:bc:26:a9:41:62:d4:eb:96:
         02:21:00:8b:fe:dc:ca:a0:da:43:b7:24:01:c6:3c:fd:04:45:
         f4:d7:7e:32:3d:9b:a2:d5:06:5f:bd:36:f3:0f:cf:a3:68
-----BEGIN CERTIFICATE-----
MIICBzCCAa2gAwIBAgIBLDAKBggqhkjOPQQDAjCBpzEfMB0GA1UEAwwWUmVnaW9u
ZSBFbWlsaWFfUm9tYWduYTELMAkGA1UEBhMCSVQxDzANBgNVBAgMBkl0YWxpYTEY
MBYGA1UECgwPRS1Wb3Rpbmcgc3lzdGVtMSIwIAYDVQQLDBlFLVZvdGluZyBzeXN0
ZW0gYXV0aG9yaXR5MSgwJgYJKoZIhvcNAQkBFhlFbWlsaWFfUm9tYWduYUBldm90
aW5nLml0MB4XDTIyMDgyNjE1MjExOVoXDTIzMDgyNjE1MjExOVowUDEPMA0GA1UE
AwwGTmV0dGllMQswCQYDVQQGEwJJVDEPMA0GA1UECAwGSXRhbGlhMR8wHQYDVQQK
DBZSZWdpb25lIEVtaWxpYV9Sb21hZ25hMFYwEAYHKoZIzj0CAQYFK4EEAAoDQgAE
TnmHyb0cGY172lqgPbAEAoIcwOxX6DX0gopqVtJtNiA/MHzQJ2lqCEnqMUa5b2Gk
+RbS8W5ERfh7wWWW31GRUaMjMCEwDgYDVR0PAQH/BAQDAgWgMA8GA1UdEwEB/wQF
MAMCAQMwCgYIKoZIzj0EAwIDSAAwRQIgW6uVYoTQJkG677r71jv8JqDC2qB3KgGR
vCapQWLU65YCIQCL/tzKoNpDtyQBxjz9BEX0134yPZui1QZfvTbzD8+jaA==
-----END CERTIFICATE-----
