Certificate:
    Data:
        Version: 3 (0x2)
        Serial Number: 47 (0x2f)
        Signature Algorithm: ecdsa-with-SHA256
        Issuer: CN=Regione Sicilia, C=IT, ST=Italia, O=E-Voting system, OU=E-Voting system authority/emailAddress=Sicilia@evoting.it
        Validity
            Not Before: Aug 26 15:21:11 2022 GMT
            Not After : Aug 26 15:21:11 2023 GMT
        Subject: CN=Nicholas, C=IT, ST=Italia, O=Regione Sicilia
        Subject Public Key Info:
            Public Key Algorithm: id-ecPublicKey
                Public-Key: (256 bit)
                pub:
                    04:b3:1c:51:c9:94:2b:bd:9b:c9:c7:fe:15:68:35:
                    3a:32:32:7f:9b:7f:04:b9:cc:21:ec:05:ca:8e:6a:
                    35:73:8f:60:58:f5:70:71:64:a2:38:62:f4:7e:19:
                    d8:41:ba:f4:16:3f:8a:1c:31:c2:01:fb:8e:fd:d4:
                    7f:79:12:97:b3
                ASN1 OID: secp256k1
        X509v3 extensions:
            X509v3 Key Usage: critical
                Digital Signature, Key Encipherment
            X509v3 Basic Constraints: critical
                CA:FALSE, pathlen:3
    Signature Algorithm: ecdsa-with-SHA256
         30:45:02:20:48:e2:1b:6b:f4:55:b3:52:f9:7d:16:94:50:64:
         be:e7:df:18:87:b6:95:df:7a:49:18:4d:98:8d:bc:bd:f4:8a:
         02:21:00:b0:ab:27:2b:fe:cf:17:31:59:40:d9:37:4f:0e:54:
         1c:ec:57:55:b9:ab:d5:41:0b:44:60:21:c3:e9:4d:4c:3f
-----BEGIN CERTIFICATE-----
MIIB9DCCAZqgAwIBAgIBLzAKBggqhkjOPQQDAjCBmTEYMBYGA1UEAwwPUmVnaW9u
ZSBTaWNpbGlhMQswCQYDVQQGEwJJVDEPMA0GA1UECAwGSXRhbGlhMRgwFgYDVQQK
DA9FLVZvdGluZyBzeXN0ZW0xIjAgBgNVBAsMGUUtVm90aW5nIHN5c3RlbSBhdXRo
b3JpdHkxITAfBgkqhkiG9w0BCQEWElNpY2lsaWFAZXZvdGluZy5pdDAeFw0yMjA4
MjYxNTIxMTFaFw0yMzA4MjYxNTIxMTFaMEsxETAPBgNVBAMMCE5pY2hvbGFzMQsw
CQYDVQQGEwJJVDEPMA0GA1UECAwGSXRhbGlhMRgwFgYDVQQKDA9SZWdpb25lIFNp
Y2lsaWEwVjAQBgcqhkjOPQIBBgUrgQQACgNCAASzHFHJlCu9m8nH/hVoNToyMn+b
fwS5zCHsBcqOajVzj2BY9XBxZKI4YvR+GdhBuvQWP4ocMcIB+4791H95EpezoyMw
ITAOBgNVHQ8BAf8EBAMCBaAwDwYDVR0TAQH/BAUwAwIBAzAKBggqhkjOPQQDAgNI
ADBFAiBI4htr9FWzUvl9FpRQZL7n3xiHtpXfekkYTZiNvL30igIhALCrJyv+zxcx
WUDZN08OVBzsV1W5q9VBC0RgIcPpTUw/
-----END CERTIFICATE-----
