Certificate:
    Data:
        Version: 3 (0x2)
        Serial Number: 39 (0x27)
        Signature Algorithm: ecdsa-with-SHA256
        Issuer: CN=Regione Liguria, C=IT, ST=Italia, O=E-Voting system, OU=E-Voting system authority/emailAddress=Liguria@evoting.it
        Validity
            Not Before: Aug  3 13:28:04 2022 GMT
            Not After : Aug  3 13:28:04 2023 GMT
        Subject: CN=Nicholas, C=IT, ST=Italia, O=Regione Liguria
        Subject Public Key Info:
            Public Key Algorithm: id-ecPublicKey
                Public-Key: (256 bit)
                pub:
                    04:79:b3:28:e6:fa:3a:22:a9:0a:b1:b8:b0:5f:5a:
                    fa:13:58:51:84:a4:dc:83:a7:93:b6:79:1c:0f:0d:
                    ab:87:7c:38:68:a4:ad:1d:5c:11:70:f7:be:23:d4:
                    29:bd:47:4f:2c:b7:d7:0d:08:f4:01:94:91:80:b0:
                    35:68:5b:91:18
                ASN1 OID: prime256v1
                NIST CURVE: P-256
        X509v3 extensions:
            X509v3 Key Usage: critical
                Digital Signature, Key Encipherment
            X509v3 Basic Constraints: critical
                CA:FALSE, pathlen:3
    Signature Algorithm: ecdsa-with-SHA256
         30:45:02:20:4b:5a:bc:aa:12:77:c3:80:1f:01:04:c6:e0:a3:
         23:a5:be:97:52:fb:d6:d5:2d:7c:a2:19:db:49:de:1f:3f:bd:
         02:21:00:81:2a:45:26:e5:e2:22:cb:b9:c0:ad:8a:c8:29:4b:
         ac:08:7e:38:a8:56:a1:00:77:0c:fe:3c:29:d1:72:13:28
-----BEGIN CERTIFICATE-----
MIIB9zCCAZ2gAwIBAgIBJzAKBggqhkjOPQQDAjCBmTEYMBYGA1UEAwwPUmVnaW9u
ZSBMaWd1cmlhMQswCQYDVQQGEwJJVDEPMA0GA1UECAwGSXRhbGlhMRgwFgYDVQQK
DA9FLVZvdGluZyBzeXN0ZW0xIjAgBgNVBAsMGUUtVm90aW5nIHN5c3RlbSBhdXRo
b3JpdHkxITAfBgkqhkiG9w0BCQEWEkxpZ3VyaWFAZXZvdGluZy5pdDAeFw0yMjA4
MDMxMzI4MDRaFw0yMzA4MDMxMzI4MDRaMEsxETAPBgNVBAMMCE5pY2hvbGFzMQsw
CQYDVQQGEwJJVDEPMA0GA1UECAwGSXRhbGlhMRgwFgYDVQQKDA9SZWdpb25lIExp
Z3VyaWEwWTATBgcqhkjOPQIBBggqhkjOPQMBBwNCAAR5syjm+joiqQqxuLBfWvoT
WFGEpNyDp5O2eRwPDauHfDhopK0dXBFw974j1Cm9R08st9cNCPQBlJGAsDVoW5EY
oyMwITAOBgNVHQ8BAf8EBAMCBaAwDwYDVR0TAQH/BAUwAwIBAzAKBggqhkjOPQQD
AgNIADBFAiBLWryqEnfDgB8BBMbgoyOlvpdS+9bVLXyiGdtJ3h8/vQIhAIEqRSbl
4iLLucCtisgpS6wIfjioVqEAdwz+PCnRchMo
-----END CERTIFICATE-----
