Certificate:
    Data:
        Version: 3 (0x2)
        Serial Number: 6 (0x6)
        Signature Algorithm: ecdsa-with-SHA256
        Issuer: CN=Regione Sardegna, C=IT, ST=Italia, O=E-Voting system, OU=E-Voting system authority/emailAddress=Sardegna@evoting.it
        Validity
            Not Before: Aug 26 15:18:35 2022 GMT
            Not After : Aug 26 15:18:35 2023 GMT
        Subject: CN=Nicole, C=IT, ST=Italia, O=Regione Sardegna
        Subject Public Key Info:
            Public Key Algorithm: id-ecPublicKey
                Public-Key: (256 bit)
                pub:
                    04:3a:44:85:31:a6:37:31:1c:f4:01:40:67:22:48:
                    38:94:bc:e9:b6:06:66:05:b5:a2:be:43:1f:fd:8a:
                    d8:d8:a8:ba:98:b3:df:f1:d0:1b:41:6e:88:bf:19:
                    cb:f4:c1:9c:7e:43:11:ec:b6:5a:91:0c:5d:16:45:
                    20:f5:04:40:6d
                ASN1 OID: secp256k1
        X509v3 extensions:
            X509v3 Key Usage: critical
                Digital Signature, Key Encipherment
            X509v3 Basic Constraints: critical
                CA:FALSE, pathlen:3
    Signature Algorithm: ecdsa-with-SHA256
         30:44:02:20:2f:a1:68:b3:82:4a:8c:78:cc:de:0d:c4:49:73:
         67:44:32:07:be:14:d8:26:dd:37:5c:ed:39:a2:6b:4e:d0:21:
         02:20:4b:5d:2a:4f:65:e9:78:79:41:0b:ea:e2:e4:6d:1e:7b:
         03:90:fe:6f:f9:a9:fc:01:7e:8a:00:63:1e:b4:f9:01
-----BEGIN CERTIFICATE-----
MIIB9DCCAZugAwIBAgIBBjAKBggqhkjOPQQDAjCBmzEZMBcGA1UEAwwQUmVnaW9u
ZSBTYXJkZWduYTELMAkGA1UEBhMCSVQxDzANBgNVBAgMBkl0YWxpYTEYMBYGA1UE
CgwPRS1Wb3Rpbmcgc3lzdGVtMSIwIAYDVQQLDBlFLVZvdGluZyBzeXN0ZW0gYXV0
aG9yaXR5MSIwIAYJKoZIhvcNAQkBFhNTYXJkZWduYUBldm90aW5nLml0MB4XDTIy
MDgyNjE1MTgzNVoXDTIzMDgyNjE1MTgzNVowSjEPMA0GA1UEAwwGTmljb2xlMQsw
CQYDVQQGEwJJVDEPMA0GA1UECAwGSXRhbGlhMRkwFwYDVQQKDBBSZWdpb25lIFNh
cmRlZ25hMFYwEAYHKoZIzj0CAQYFK4EEAAoDQgAEOkSFMaY3MRz0AUBnIkg4lLzp
tgZmBbWivkMf/YrY2Ki6mLPf8dAbQW6IvxnL9MGcfkMR7LZakQxdFkUg9QRAbaMj
MCEwDgYDVR0PAQH/BAQDAgWgMA8GA1UdEwEB/wQFMAMCAQMwCgYIKoZIzj0EAwID
RwAwRAIgL6Fos4JKjHjM3g3ESXNnRDIHvhTYJt03XO05omtO0CECIEtdKk9l6Xh5
QQvq4uRtHnsDkP5v+an8AX6KAGMetPkB
-----END CERTIFICATE-----
