Certificate:
    Data:
        Version: 3 (0x2)
        Serial Number: 44 (0x2c)
        Signature Algorithm: ecdsa-with-SHA256
        Issuer: CN=Regione Molise, C=IT, ST=Italia, O=E-Voting system, OU=E-Voting system authority/emailAddress=Molise@evoting.it
        Validity
            Not Before: Aug  3 13:28:03 2022 GMT
            Not After : Aug  3 13:28:03 2023 GMT
        Subject: CN=Nilda, C=IT, ST=Italia, O=Regione Molise
        Subject Public Key Info:
            Public Key Algorithm: id-ecPublicKey
                Public-Key: (256 bit)
                pub:
                    04:87:47:a6:27:88:62:c1:ef:fa:83:5b:1c:f4:a4:
                    00:3d:ce:33:07:04:58:91:7e:22:5e:d2:5a:03:c4:
                    80:d0:69:e0:df:da:49:f4:2e:3f:48:dc:59:63:98:
                    a7:74:ca:73:20:b0:6d:55:2c:95:85:52:8f:9c:0e:
                    15:1b:33:e7:0c
                ASN1 OID: prime256v1
                NIST CURVE: P-256
        X509v3 extensions:
            X509v3 Key Usage: critical
                Digital Signature, Key Encipherment
            X509v3 Basic Constraints: critical
                CA:FALSE, pathlen:3
    Signature Algorithm: ecdsa-with-SHA256
         30:44:02:20:72:ab:a1:1b:36:2f:f5:12:20:0a:86:a2:03:87:
         6f:d2:7f:88:dd:93:a9:b0:05:33:cd:ac:6c:5a:94:ea:e6:b1:
         02:20:0c:6a:e8:cf:f9:da:9b:92:e9:4c:3c:db:f2:e8:93:fc:
         f9:af:40:53:e2:87:1c:6b:80:ad:de:20:d5:e9:21:0d
-----BEGIN CERTIFICATE-----
MIIB8DCCAZegAwIBAgIBLDAKBggqhkjOPQQDAjCBlzEXMBUGA1UEAwwOUmVnaW9u
ZSBNb2xpc2UxCzAJBgNVBAYTAklUMQ8wDQYDVQQIDAZJdGFsaWExGDAWBgNVBAoM
D0UtVm90aW5nIHN5c3RlbTEiMCAGA1UECwwZRS1Wb3Rpbmcgc3lzdGVtIGF1dGhv
cml0eTEgMB4GCSqGSIb3DQEJARYRTW9saXNlQGV2b3RpbmcuaXQwHhcNMjIwODAz
MTMyODAzWhcNMjMwODAzMTMyODAzWjBHMQ4wDAYDVQQDDAVOaWxkYTELMAkGA1UE
BhMCSVQxDzANBgNVBAgMBkl0YWxpYTEXMBUGA1UECgwOUmVnaW9uZSBNb2xpc2Uw
WTATBgcqhkjOPQIBBggqhkjOPQMBBwNCAASHR6YniGLB7/qDWxz0pAA9zjMHBFiR
fiJe0loDxIDQaeDf2kn0Lj9I3FljmKd0ynMgsG1VLJWFUo+cDhUbM+cMoyMwITAO
BgNVHQ8BAf8EBAMCBaAwDwYDVR0TAQH/BAUwAwIBAzAKBggqhkjOPQQDAgNHADBE
AiByq6EbNi/1EiAKhqIDh2/Sf4jdk6mwBTPNrGxalOrmsQIgDGroz/nam5LpTDzb
8uiT/PmvQFPihxxrgK3eINXpIQ0=
-----END CERTIFICATE-----
