Certificate:
    Data:
        Version: 3 (0x2)
        Serial Number: 29 (0x1d)
        Signature Algorithm: ecdsa-with-SHA256
        Issuer: CN=Regione Molise, C=IT, ST=Italia, O=E-Voting system, OU=E-Voting system authority/emailAddress=Molise@evoting.it
        Validity
            Not Before: Aug 26 15:20:49 2022 GMT
            Not After : Aug 26 15:20:49 2023 GMT
        Subject: CN=Nina, C=IT, ST=Italia, O=Regione Molise
        Subject Public Key Info:
            Public Key Algorithm: id-ecPublicKey
                Public-Key: (256 bit)
                pub:
                    04:e2:df:80:b0:3d:c4:8d:fe:54:25:d4:4b:ca:28:
                    57:3a:1e:54:0f:35:ad:90:db:49:c4:62:54:96:8e:
                    82:33:15:6d:95:87:fa:67:f5:c7:1c:ec:21:af:a9:
                    ba:86:5a:53:2d:15:86:5e:f8:c3:88:78:ad:bf:1e:
                    8c:21:e5:8c:6c
                ASN1 OID: secp256k1
        X509v3 extensions:
            X509v3 Key Usage: critical
                Digital Signature, Key Encipherment
            X509v3 Basic Constraints: critical
                CA:FALSE, pathlen:3
    Signature Algorithm: ecdsa-with-SHA256
         30:46:02:21:00:f5:a4:79:4b:a7:be:a0:4d:2a:32:24:54:f9:
         a3:19:46:96:bd:f4:12:a1:7f:2e:f8:83:a8:71:b8:a6:46:78:
         60:02:21:00:e0:f0:46:a6:30:30:88:79:4e:e0:3b:09:24:df:
         12:cb:ef:3c:a2:73:b4:ab:81:dc:39:c9:02:43:6e:30:f6:2c
-----BEGIN CERTIFICATE-----
MIIB7jCCAZOgAwIBAgIBHTAKBggqhkjOPQQDAjCBlzEXMBUGA1UEAwwOUmVnaW9u
ZSBNb2xpc2UxCzAJBgNVBAYTAklUMQ8wDQYDVQQIDAZJdGFsaWExGDAWBgNVBAoM
D0UtVm90aW5nIHN5c3RlbTEiMCAGA1UECwwZRS1Wb3Rpbmcgc3lzdGVtIGF1dGhv
cml0eTEgMB4GCSqGSIb3DQEJARYRTW9saXNlQGV2b3RpbmcuaXQwHhcNMjIwODI2
MTUyMDQ5WhcNMjMwODI2MTUyMDQ5WjBGMQ0wCwYDVQQDDAROaW5hMQswCQYDVQQG
EwJJVDEPMA0GA1UECAwGSXRhbGlhMRcwFQYDVQQKDA5SZWdpb25lIE1vbGlzZTBW
MBAGByqGSM49AgEGBSuBBAAKA0IABOLfgLA9xI3+VCXUS8ooVzoeVA81rZDbScRi
VJaOgjMVbZWH+mf1xxzsIa+puoZaUy0Vhl74w4h4rb8ejCHljGyjIzAhMA4GA1Ud
DwEB/wQEAwIFoDAPBgNVHRMBAf8EBTADAgEDMAoGCCqGSM49BAMCA0kAMEYCIQD1
pHlLp76gTSoyJFT5oxlGlr30EqF/LviDqHG4pkZ4YAIhAODwRqYwMIh5TuA7CSTf
EsvvPKJztKuB3DnJAkNuMPYs
-----END CERTIFICATE-----
