Certificate:
    Data:
        Version: 3 (0x2)
        Serial Number: 13 (0xd)
        Signature Algorithm: ecdsa-with-SHA256
        Issuer: CN=Regione Friuli_Venezia_Giulia, C=IT, ST=Italia, O=E-Voting system, OU=E-Voting system authority/emailAddress=Friuli_Venezia_Giulia@evoting.it
        Validity
            Not Before: Aug  3 13:26:31 2022 GMT
            Not After : Aug  3 13:26:31 2023 GMT
        Subject: CN=Noemi, C=IT, ST=Italia, O=Regione Friuli_Venezia_Giulia
        Subject Public Key Info:
            Public Key Algorithm: id-ecPublicKey
                Public-Key: (256 bit)
                pub:
                    04:6c:79:bd:d9:45:e8:bb:51:ea:b2:6f:6a:57:eb:
                    e9:ac:74:0e:51:cf:f8:b2:ec:37:a1:e6:33:d9:47:
                    81:b1:c8:70:c6:c4:a1:f8:2d:61:96:64:fa:d3:bb:
                    37:29:51:6e:47:1b:67:6e:24:f4:34:e8:20:b3:44:
                    35:43:d4:bb:ab
                ASN1 OID: prime256v1
                NIST CURVE: P-256
        X509v3 extensions:
            X509v3 Key Usage: critical
                Digital Signature, Key Encipherment
            X509v3 Basic Constraints: critical
                CA:FALSE, pathlen:3
    Signature Algorithm: ecdsa-with-SHA256
         30:44:02:20:5d:a1:59:8c:cf:7f:df:47:5b:d7:e7:46:8e:ae:
         6f:e5:e8:10:a3:23:cb:1b:a6:3b:8d:36:d5:dc:4f:48:d7:99:
         02:20:5b:33:72:69:b9:2c:79:7b:98:1d:88:c7:2a:8c:3b:e3:
         98:51:7e:4c:01:26:c1:5e:a7:de:44:5f:cb:bc:1d:bb
-----BEGIN CERTIFICATE-----
MIICHTCCAcSgAwIBAgIBDTAKBggqhkjOPQQDAjCBtTEmMCQGA1UEAwwdUmVnaW9u
ZSBGcml1bGlfVmVuZXppYV9HaXVsaWExCzAJBgNVBAYTAklUMQ8wDQYDVQQIDAZJ
dGFsaWExGDAWBgNVBAoMD0UtVm90aW5nIHN5c3RlbTEiMCAGA1UECwwZRS1Wb3Rp
bmcgc3lzdGVtIGF1dGhvcml0eTEvMC0GCSqGSIb3DQEJARYgRnJpdWxpX1ZlbmV6
aWFfR2l1bGlhQGV2b3RpbmcuaXQwHhcNMjIwODAzMTMyNjMxWhcNMjMwODAzMTMy
NjMxWjBWMQ4wDAYDVQQDDAVOb2VtaTELMAkGA1UEBhMCSVQxDzANBgNVBAgMBkl0
YWxpYTEmMCQGA1UECgwdUmVnaW9uZSBGcml1bGlfVmVuZXppYV9HaXVsaWEwWTAT
BgcqhkjOPQIBBggqhkjOPQMBBwNCAARseb3ZRei7Ueqyb2pX6+msdA5Rz/iy7Deh
5jPZR4GxyHDGxKH4LWGWZPrTuzcpUW5HG2duJPQ06CCzRDVD1LuroyMwITAOBgNV
HQ8BAf8EBAMCBaAwDwYDVR0TAQH/BAUwAwIBAzAKBggqhkjOPQQDAgNHADBEAiBd
oVmMz3/fR1vX50aOrm/l6BCjI8sbpjuNNtXcT0jXmQIgWzNyabkseXuYHYjHKow7
45hRfkwBJsFep95EX8u8Hbs=
-----END CERTIFICATE-----
