Certificate:
    Data:
        Version: 3 (0x2)
        Serial Number: 32 (0x20)
        Signature Algorithm: ecdsa-with-SHA256
        Issuer: CN=Regione Puglia, C=IT, ST=Italia, O=E-Voting system, OU=E-Voting system authority/emailAddress=Puglia@evoting.it
        Validity
            Not Before: Aug  3 13:28:16 2022 GMT
            Not After : Aug  3 13:28:16 2023 GMT
        Subject: CN=Nola, C=IT, ST=Italia, O=Regione Puglia
        Subject Public Key Info:
            Public Key Algorithm: id-ecPublicKey
                Public-Key: (256 bit)
                pub:
                    04:97:ca:f5:13:ff:ce:98:31:84:f6:55:6f:34:e6:
                    45:60:eb:3c:57:96:37:42:bd:db:95:6d:21:3c:f5:
                    71:2a:f3:69:38:79:b3:6a:fe:cd:63:4d:dd:63:44:
                    de:cb:cc:60:d1:d4:18:d3:52:b3:79:01:c3:73:7a:
                    d4:16:7b:7e:84
                ASN1 OID: prime256v1
                NIST CURVE: P-256
        X509v3 extensions:
            X509v3 Key Usage: critical
                Digital Signature, Key Encipherment
            X509v3 Basic Constraints: critical
                CA:FALSE, pathlen:3
    Signature Algorithm: ecdsa-with-SHA256
         30:44:02:20:57:cf:b1:0a:c2:a5:74:b0:cc:e5:4b:3f:31:38:
         37:47:80:a4:02:74:d2:25:b1:00:2a:d8:6b:61:38:fc:0a:0b:
         02:20:68:23:d1:24:ba:a7:0d:54:36:ac:9c:19:69:61:09:d1:
         fa:06:21:56:f8:9e:b2:21:9c:54:b6:78:ed:05:2a:78
-----BEGIN CERTIFICATE-----
MIIB7zCCAZagAwIBAgIBIDAKBggqhkjOPQQDAjCBlzEXMBUGA1UEAwwOUmVnaW9u
ZSBQdWdsaWExCzAJBgNVBAYTAklUMQ8wDQYDVQQIDAZJdGFsaWExGDAWBgNVBAoM
D0UtVm90aW5nIHN5c3RlbTEiMCAGA1UECwwZRS1Wb3Rpbmcgc3lzdGVtIGF1dGhv
cml0eTEgMB4GCSqGSIb3DQEJARYRUHVnbGlhQGV2b3RpbmcuaXQwHhcNMjIwODAz
MTMyODE2WhcNMjMwODAzMTMyODE2WjBGMQ0wCwYDVQQDDAROb2xhMQswCQYDVQQG
EwJJVDEPMA0GA1UECAwGSXRhbGlhMRcwFQYDVQQKDA5SZWdpb25lIFB1Z2xpYTBZ
MBMGByqGSM49AgEGCCqGSM49AwEHA0IABJfK9RP/zpgxhPZVbzTmRWDrPFeWN0K9
25VtITz1cSrzaTh5s2r+zWNN3WNE3svMYNHUGNNSs3kBw3N61BZ7foSjIzAhMA4G
A1UdDwEB/wQEAwIFoDAPBgNVHRMBAf8EBTADAgEDMAoGCCqGSM49BAMCA0cAMEQC
IFfPsQrCpXSwzOVLPzE4N0eApAJ00iWxACrYa2E4/AoLAiBoI9EkuqcNVDasnBlp
YQnR+gYhVviesiGcVLZ47QUqeA==
-----END CERTIFICATE-----
