Certificate:
    Data:
        Version: 3 (0x2)
        Serial Number: 1 (0x1)
        Signature Algorithm: ecdsa-with-SHA256
        Issuer: CN=Regione Umbria, C=IT, ST=Italia, O=E-Voting system, OU=E-Voting system authority/emailAddress=Umbria@evoting.it
        Validity
            Not Before: Aug 26 15:18:27 2022 GMT
            Not After : Aug 26 15:18:27 2023 GMT
        Subject: CN=Norbert, C=IT, ST=Italia, O=Regione Umbria
        Subject Public Key Info:
            Public Key Algorithm: id-ecPublicKey
                Public-Key: (256 bit)
                pub:
                    04:a0:f4:95:43:aa:5d:b9:22:07:4e:48:71:a2:71:
                    01:a2:76:98:84:ab:51:c2:1c:00:0d:f0:99:43:a1:
                    a9:fe:66:11:63:58:ac:00:71:ab:33:a3:b8:a3:ce:
                    da:4b:72:29:99:28:64:88:55:a3:fe:3b:f7:71:14:
                    57:b5:d5:e9:92
                ASN1 OID: secp256k1
        X509v3 extensions:
            X509v3 Key Usage: critical
                Digital Signature, Key Encipherment
            X509v3 Basic Constraints: critical
                CA:FALSE, pathlen:3
    Signature Algorithm: ecdsa-with-SHA256
         30:45:02:21:00:91:31:90:c7:92:e0:a8:43:25:93:c7:27:2b:
         7e:f0:3e:50:0b:47:b3:d8:d0:d8:02:be:ed:c7:e4:4c:57:a2:
         88:02:20:79:0e:3a:aa:16:2c:c0:99:f5:c5:6b:66:63:d8:9f:
         55:88:52:6a:29:19:da:6e:25:40:92:a1:f9:72:3f:7b:bf
-----BEGIN CERTIFICATE-----
MIIB8DCCAZagAwIBAgIBATAKBggqhkjOPQQDAjCBlzEXMBUGA1UEAwwOUmVnaW9u
ZSBVbWJyaWExCzAJBgNVBAYTAklUMQ8wDQYDVQQIDAZJdGFsaWExGDAWBgNVBAoM
D0UtVm90aW5nIHN5c3RlbTEiMCAGA1UECwwZRS1Wb3Rpbmcgc3lzdGVtIGF1dGhv
cml0eTEgMB4GCSqGSIb3DQEJARYRVW1icmlhQGV2b3RpbmcuaXQwHhcNMjIwODI2
MTUxODI3WhcNMjMwODI2MTUxODI3WjBJMRAwDgYDVQQDDAdOb3JiZXJ0MQswCQYD
VQQGEwJJVDEPMA0GA1UECAwGSXRhbGlhMRcwFQYDVQQKDA5SZWdpb25lIFVtYnJp
YTBWMBAGByqGSM49AgEGBSuBBAAKA0IABKD0lUOqXbkiB05IcaJxAaJ2mISrUcIc
AA3wmUOhqf5mEWNYrABxqzOjuKPO2ktyKZkoZIhVo/4793EUV7XV6ZKjIzAhMA4G
A1UdDwEB/wQEAwIFoDAPBgNVHRMBAf8EBTADAgEDMAoGCCqGSM49BAMCA0gAMEUC
IQCRMZDHkuCoQyWTxycrfvA+UAtHs9jQ2AK+7cfkTFeiiAIgeQ46qhYswJn1xWtm
Y9ifVYhSaikZ2m4lQJKh+XI/e78=
-----END CERTIFICATE-----
