Certificate:
    Data:
        Version: 3 (0x2)
        Serial Number: 47 (0x2f)
        Signature Algorithm: ecdsa-with-SHA256
        Issuer: CN=Regione Lazio, C=IT, ST=Italia, O=E-Voting system, OU=E-Voting system authority/emailAddress=Lazio@evoting.it
        Validity
            Not Before: Aug 26 15:21:36 2022 GMT
            Not After : Aug 26 15:21:36 2023 GMT
        Subject: CN=Norma, C=IT, ST=Italia, O=Regione Lazio
        Subject Public Key Info:
            Public Key Algorithm: id-ecPublicKey
                Public-Key: (256 bit)
                pub:
                    04:33:41:20:70:d6:d1:4b:6a:8f:26:a8:e9:9e:6b:
                    6a:a4:7d:e9:54:56:93:94:df:3b:0e:70:8a:47:42:
                    89:eb:c7:51:05:34:6d:18:f5:15:19:ba:8d:e9:c6:
                    76:46:e8:79:21:83:08:22:58:f1:79:a2:bc:0a:8b:
                    b8:e1:a9:14:0d
                ASN1 OID: secp256k1
        X509v3 extensions:
            X509v3 Key Usage: critical
                Digital Signature, Key Encipherment
            X509v3 Basic Constraints: critical
                CA:FALSE, pathlen:3
    Signature Algorithm: ecdsa-with-SHA256
         30:44:02:20:41:7e:e3:a4:f3:b2:4d:80:93:9c:b7:13:76:36:
         33:45:50:db:6a:2e:51:47:f4:3c:a7:9f:5a:e1:5a:86:92:79:
         02:20:32:0e:ce:de:15:68:2b:1f:53:67:df:13:fb:b9:8e:b3:
         4f:3e:da:49:87:88:8f:3a:64:8c:bb:39:20:6f:1b:ac
-----BEGIN CERTIFICATE-----
MIIB6jCCAZGgAwIBAgIBLzAKBggqhkjOPQQDAjCBlTEWMBQGA1UEAwwNUmVnaW9u
ZSBMYXppbzELMAkGA1UEBhMCSVQxDzANBgNVBAgMBkl0YWxpYTEYMBYGA1UECgwP
RS1Wb3Rpbmcgc3lzdGVtMSIwIAYDVQQLDBlFLVZvdGluZyBzeXN0ZW0gYXV0aG9y
aXR5MR8wHQYJKoZIhvcNAQkBFhBMYXppb0Bldm90aW5nLml0MB4XDTIyMDgyNjE1
MjEzNloXDTIzMDgyNjE1MjEzNlowRjEOMAwGA1UEAwwFTm9ybWExCzAJBgNVBAYT
AklUMQ8wDQYDVQQIDAZJdGFsaWExFjAUBgNVBAoMDVJlZ2lvbmUgTGF6aW8wVjAQ
BgcqhkjOPQIBBgUrgQQACgNCAAQzQSBw1tFLao8mqOmea2qkfelUVpOU3zsOcIpH
Qonrx1EFNG0Y9RUZuo3pxnZG6HkhgwgiWPF5orwKi7jhqRQNoyMwITAOBgNVHQ8B
Af8EBAMCBaAwDwYDVR0TAQH/BAUwAwIBAzAKBggqhkjOPQQDAgNHADBEAiBBfuOk
87JNgJOctxN2NjNFUNtqLlFH9Dynn1rhWoaSeQIgMg7O3hVoKx9TZ98T+7mOs08+
2kmHiI86ZIy7OSBvG6w=
-----END CERTIFICATE-----
