Certificate:
    Data:
        Version: 3 (0x2)
        Serial Number: 4 (0x4)
        Signature Algorithm: ecdsa-with-SHA256
        Issuer: CN=Regione Sardegna, C=IT, ST=Italia, O=E-Voting system, OU=E-Voting system authority/emailAddress=Sardegna@evoting.it
        Validity
            Not Before: Aug 26 15:18:31 2022 GMT
            Not After : Aug 26 15:18:31 2023 GMT
        Subject: CN=Norman, C=IT, ST=Italia, O=Regione Sardegna
        Subject Public Key Info:
            Public Key Algorithm: id-ecPublicKey
                Public-Key: (256 bit)
                pub:
                    04:d0:62:06:50:d7:bb:3d:b0:17:14:d4:e6:13:a4:
                    bc:4a:d7:5e:65:e2:61:00:05:9f:4d:63:e9:83:e5:
                    df:56:d1:dc:ae:6a:40:32:8f:81:47:e7:f6:a4:e7:
                    b7:fe:cc:b8:46:81:0a:2f:3e:10:3a:95:ae:d2:ea:
                    c2:f6:54:b1:9f
                ASN1 OID: secp256k1
        X509v3 extensions:
            X509v3 Key Usage: critical
                Digital Signature, Key Encipherment
            X509v3 Basic Constraints: critical
                CA:FALSE, pathlen:3
    Signature Algorithm: ecdsa-with-SHA256
         30:45:02:20:4a:3c:8e:36:44:81:b7:2d:3c:2f:39:aa:15:b1:
         54:0e:03:2b:ca:8e:c7:c1:df:ac:91:62:78:e7:74:6a:6f:c8:
         02:21:00:80:f3:b8:c5:83:39:6a:18:47:67:86:2b:f8:44:51:
         b1:ed:07:8e:1c:fd:2d:06:86:e9:32:85:c0:b5:8d:4d:fa
-----BEGIN CERTIFICATE-----
MIIB9TCCAZugAwIBAgIBBDAKBggqhkjOPQQDAjCBmzEZMBcGA1UEAwwQUmVnaW9u
ZSBTYXJkZWduYTELMAkGA1UEBhMCSVQxDzANBgNVBAgMBkl0YWxpYTEYMBYGA1UE
CgwPRS1Wb3Rpbmcgc3lzdGVtMSIwIAYDVQQLDBlFLVZvdGluZyBzeXN0ZW0gYXV0
aG9yaXR5MSIwIAYJKoZIhvcNAQkBFhNTYXJkZWduYUBldm90aW5nLml0MB4XDTIy
MDgyNjE1MTgzMVoXDTIzMDgyNjE1MTgzMVowSjEPMA0GA1UEAwwGTm9ybWFuMQsw
CQYDVQQGEwJJVDEPMA0GA1UECAwGSXRhbGlhMRkwFwYDVQQKDBBSZWdpb25lIFNh
cmRlZ25hMFYwEAYHKoZIzj0CAQYFK4EEAAoDQgAE0GIGUNe7PbAXFNTmE6S8Stde
ZeJhAAWfTWPpg+XfVtHcrmpAMo+BR+f2pOe3/sy4RoEKLz4QOpWu0urC9lSxn6Mj
MCEwDgYDVR0PAQH/BAQDAgWgMA8GA1UdEwEB/wQFMAMCAQMwCgYIKoZIzj0EAwID
SAAwRQIgSjyONkSBty08LzmqFbFUDgMryo7Hwd+skWJ453Rqb8gCIQCA87jFgzlq
GEdnhiv4RFGx7QeOHP0tBobpMoXAtY1N+g==
-----END CERTIFICATE-----
