Certificate:
    Data:
        Version: 3 (0x2)
        Serial Number: 10 (0xa)
        Signature Algorithm: ecdsa-with-SHA256
        Issuer: CN=Regione Molise, C=IT, ST=Italia, O=E-Voting system, OU=E-Voting system authority/emailAddress=Molise@evoting.it
        Validity
            Not Before: Aug  3 13:26:02 2022 GMT
            Not After : Aug  3 13:26:02 2023 GMT
        Subject: CN=Olga, C=IT, ST=Italia, O=Regione Molise
        Subject Public Key Info:
            Public Key Algorithm: id-ecPublicKey
                Public-Key: (256 bit)
                pub:
                    04:b5:b2:71:38:ea:4e:22:30:01:89:ce:cf:af:78:
                    1e:53:a3:28:9e:f6:80:cf:f4:d5:e0:20:b7:ca:52:
                    40:19:ff:f7:3f:6c:ee:47:c0:c3:f3:a2:6a:86:fb:
                    7f:72:71:9b:9d:a7:a1:cf:ed:14:29:93:86:65:f9:
                    1b:04:d5:20:0a
                ASN1 OID: prime256v1
                NIST CURVE: P-256
        X509v3 extensions:
            X509v3 Key Usage: critical
                Digital Signature, Key Encipherment
            X509v3 Basic Constraints: critical
                CA:FALSE, pathlen:3
    Signature Algorithm: ecdsa-with-SHA256
         30:45:02:21:00:e0:80:d6:36:a6:1b:26:f5:32:b7:a5:7d:37:
         74:27:fc:1c:b0:c1:2c:69:41:2e:46:27:11:67:a7:e5:11:29:
         c3:02:20:33:e3:15:ca:69:53:72:e4:cf:08:0a:79:1f:f3:78:
         26:e9:a8:e3:62:fa:11:14:37:f4:64:98:07:87:ea:e1:bb
-----BEGIN CERTIFICATE-----
MIIB8DCCAZagAwIBAgIBCjAKBggqhkjOPQQDAjCBlzEXMBUGA1UEAwwOUmVnaW9u
ZSBNb2xpc2UxCzAJBgNVBAYTAklUMQ8wDQYDVQQIDAZJdGFsaWExGDAWBgNVBAoM
D0UtVm90aW5nIHN5c3RlbTEiMCAGA1UECwwZRS1Wb3Rpbmcgc3lzdGVtIGF1dGhv
cml0eTEgMB4GCSqGSIb3DQEJARYRTW9saXNlQGV2b3RpbmcuaXQwHhcNMjIwODAz
MTMyNjAyWhcNMjMwODAzMTMyNjAyWjBGMQ0wCwYDVQQDDARPbGdhMQswCQYDVQQG
EwJJVDEPMA0GA1UECAwGSXRhbGlhMRcwFQYDVQQKDA5SZWdpb25lIE1vbGlzZTBZ
MBMGByqGSM49AgEGCCqGSM49AwEHA0IABLWycTjqTiIwAYnOz694HlOjKJ72gM/0
1eAgt8pSQBn/9z9s7kfAw/Oiaob7f3Jxm52noc/tFCmThmX5GwTVIAqjIzAhMA4G
A1UdDwEB/wQEAwIFoDAPBgNVHRMBAf8EBTADAgEDMAoGCCqGSM49BAMCA0gAMEUC
IQDggNY2phsm9TK3pX03dCf8HLDBLGlBLkYnEWen5REpwwIgM+MVymlTcuTPCAp5
H/N4Jumo42L6ERQ39GSYB4fq4bs=
-----END CERTIFICATE-----
