Certificate:
    Data:
        Version: 3 (0x2)
        Serial Number: 9 (0x9)
        Signature Algorithm: ecdsa-with-SHA256
        Issuer: CN=Regione Valle_d_Aosta, C=IT, ST=Italia, O=E-Voting system, OU=E-Voting system authority/emailAddress=Valle_d_Aosta@evoting.it
        Validity
            Not Before: Aug 26 15:18:50 2022 GMT
            Not After : Aug 26 15:18:50 2023 GMT
        Subject: CN=Olga, C=IT, ST=Italia, O=Regione Valle_d_Aosta
        Subject Public Key Info:
            Public Key Algorithm: id-ecPublicKey
                Public-Key: (256 bit)
                pub:
                    04:b8:92:9b:87:9e:33:eb:56:4c:9e:d2:7d:fb:a5:
                    f9:c6:e7:d3:10:47:e8:ed:f3:23:10:a9:a2:41:c9:
                    e9:df:01:56:75:4c:66:78:a0:ac:5a:36:f1:64:22:
                    46:da:92:4e:82:95:80:0f:2d:16:70:c5:bd:cd:4f:
                    80:ad:34:ae:18
                ASN1 OID: secp256k1
        X509v3 extensions:
            X509v3 Key Usage: critical
                Digital Signature, Key Encipherment
            X509v3 Basic Constraints: critical
                CA:FALSE, pathlen:3
    Signature Algorithm: ecdsa-with-SHA256
         30:44:02:20:60:51:0a:94:53:42:a3:44:70:f4:cc:11:bb:c8:
         e8:16:4a:db:a7:98:23:f3:da:a3:9d:29:a5:c9:58:7b:cd:84:
         02:20:2b:a0:98:ed:10:45:ec:74:22:f7:a2:9a:00:ee:81:27:
         db:b0:5a:a7:48:c4:62:9d:22:fe:10:83:81:d4:4f:79
-----BEGIN CERTIFICATE-----
MIICATCCAaigAwIBAgIBCTAKBggqhkjOPQQDAjCBpTEeMBwGA1UEAwwVUmVnaW9u
ZSBWYWxsZV9kX0Fvc3RhMQswCQYDVQQGEwJJVDEPMA0GA1UECAwGSXRhbGlhMRgw
FgYDVQQKDA9FLVZvdGluZyBzeXN0ZW0xIjAgBgNVBAsMGUUtVm90aW5nIHN5c3Rl
bSBhdXRob3JpdHkxJzAlBgkqhkiG9w0BCQEWGFZhbGxlX2RfQW9zdGFAZXZvdGlu
Zy5pdDAeFw0yMjA4MjYxNTE4NTBaFw0yMzA4MjYxNTE4NTBaME0xDTALBgNVBAMM
BE9sZ2ExCzAJBgNVBAYTAklUMQ8wDQYDVQQIDAZJdGFsaWExHjAcBgNVBAoMFVJl
Z2lvbmUgVmFsbGVfZF9Bb3N0YTBWMBAGByqGSM49AgEGBSuBBAAKA0IABLiSm4ee
M+tWTJ7Sfful+cbn0xBH6O3zIxCpokHJ6d8BVnVMZnigrFo28WQiRtqSToKVgA8t
FnDFvc1PgK00rhijIzAhMA4GA1UdDwEB/wQEAwIFoDAPBgNVHRMBAf8EBTADAgED
MAoGCCqGSM49BAMCA0cAMEQCIGBRCpRTQqNEcPTMEbvI6BZK26eYI/Pao50ppclY
e82EAiAroJjtEEXsdCL3opoA7oEn27Bap0jEYp0i/hCDgdRPeQ==
-----END CERTIFICATE-----
