Certificate:
    Data:
        Version: 3 (0x2)
        Serial Number: 19 (0x13)
        Signature Algorithm: ecdsa-with-SHA256
        Issuer: CN=Regione Puglia, C=IT, ST=Italia, O=E-Voting system, OU=E-Voting system authority/emailAddress=Puglia@evoting.it
        Validity
            Not Before: Aug  3 13:26:54 2022 GMT
            Not After : Aug  3 13:26:54 2023 GMT
        Subject: CN=Oliver, C=IT, ST=Italia, O=Regione Puglia
        Subject Public Key Info:
            Public Key Algorithm: id-ecPublicKey
                Public-Key: (256 bit)
                pub:
                    04:68:69:22:a9:da:c6:94:3c:57:54:25:93:c5:56:
                    19:da:82:f7:57:f9:cb:39:94:8c:06:8e:be:be:ee:
                    65:ff:ab:bc:04:89:dc:cd:21:df:fc:b9:f5:f5:c5:
                    a1:01:01:a9:25:aa:fc:3a:6c:9b:b9:cc:75:18:d4:
                    e7:6b:50:b7:6e
                ASN1 OID: prime256v1
                NIST CURVE: P-256
        X509v3 extensions:
            X509v3 Key Usage: critical
                Digital Signature, Key Encipherment
            X509v3 Basic Constraints: critical
                CA:FALSE, pathlen:3
    Signature Algorithm: ecdsa-with-SHA256
         30:45:02:21:00:9d:c8:61:c7:88:5f:4e:20:b0:29:c2:1b:00:
         e9:d0:1a:04:7b:29:3e:bd:4a:fc:a1:2d:b5:89:d3:a6:72:f0:
         5e:02:20:22:a1:d0:05:e3:4d:6e:8c:19:ec:d1:c3:42:18:41:
         ba:32:62:b0:45:6b:da:51:e2:bc:fe:cd:01:77:0b:f9:81
-----BEGIN CERTIFICATE-----
MIIB8jCCAZigAwIBAgIBEzAKBggqhkjOPQQDAjCBlzEXMBUGA1UEAwwOUmVnaW9u
ZSBQdWdsaWExCzAJBgNVBAYTAklUMQ8wDQYDVQQIDAZJdGFsaWExGDAWBgNVBAoM
D0UtVm90aW5nIHN5c3RlbTEiMCAGA1UECwwZRS1Wb3Rpbmcgc3lzdGVtIGF1dGhv
cml0eTEgMB4GCSqGSIb3DQEJARYRUHVnbGlhQGV2b3RpbmcuaXQwHhcNMjIwODAz
MTMyNjU0WhcNMjMwODAzMTMyNjU0WjBIMQ8wDQYDVQQDDAZPbGl2ZXIxCzAJBgNV
BAYTAklUMQ8wDQYDVQQIDAZJdGFsaWExFzAVBgNVBAoMDlJlZ2lvbmUgUHVnbGlh
MFkwEwYHKoZIzj0CAQYIKoZIzj0DAQcDQgAEaGkiqdrGlDxXVCWTxVYZ2oL3V/nL
OZSMBo6+vu5l/6u8BInczSHf/Ln19cWhAQGpJar8Omybucx1GNTna1C3bqMjMCEw
DgYDVR0PAQH/BAQDAgWgMA8GA1UdEwEB/wQFMAMCAQMwCgYIKoZIzj0EAwIDSAAw
RQIhAJ3IYceIX04gsCnCGwDp0BoEeyk+vUr8oS21idOmcvBeAiAiodAF401ujBns
0cNCGEG6MmKwRWvaUeK8/s0Bdwv5gQ==
-----END CERTIFICATE-----
