Certificate:
    Data:
        Version: 3 (0x2)
        Serial Number: 3 (0x3)
        Signature Algorithm: ecdsa-with-SHA256
        Issuer: CN=Regione Lazio, C=IT, ST=Italia, O=E-Voting system, OU=E-Voting system authority/emailAddress=Lazio@evoting.it
        Validity
            Not Before: Aug 26 15:18:32 2022 GMT
            Not After : Aug 26 15:18:32 2023 GMT
        Subject: CN=Ollie, C=IT, ST=Italia, O=Regione Lazio
        Subject Public Key Info:
            Public Key Algorithm: id-ecPublicKey
                Public-Key: (256 bit)
                pub:
                    04:8f:dd:2b:c7:6e:d6:5a:85:4a:ef:d7:42:2d:32:
                    f8:78:44:e3:8b:c1:9c:6c:77:17:33:f4:60:bb:23:
                    01:fb:88:08:ad:aa:69:c7:5a:c5:67:cf:12:8c:0a:
                    0a:14:30:1d:7e:94:43:3e:63:56:f1:00:b3:0e:e1:
                    9a:0d:cf:41:a4
                ASN1 OID: secp256k1
        X509v3 extensions:
            X509v3 Key Usage: critical
                Digital Signature, Key Encipherment
            X509v3 Basic Constraints: critical
                CA:FALSE, pathlen:3
    Signature Algorithm: ecdsa-with-SHA256
         30:45:02:21:00:ee:ca:80:c5:78:1f:fa:7d:8e:b0:8a:15:0d:
         f8:30:c7:d1:92:0a:8a:7e:51:65:f5:f3:f1:d1:a6:f5:28:1f:
         e9:02:20:59:a5:13:27:5d:38:0a:f9:b0:e9:e7:fc:ea:1a:33:
         9b:1b:10:96:5c:ef:10:2f:34:65:ec:9a:f3:86:8c:2c:5f
-----BEGIN CERTIFICATE-----
MIIB6zCCAZGgAwIBAgIBAzAKBggqhkjOPQQDAjCBlTEWMBQGA1UEAwwNUmVnaW9u
ZSBMYXppbzELMAkGA1UEBhMCSVQxDzANBgNVBAgMBkl0YWxpYTEYMBYGA1UECgwP
RS1Wb3Rpbmcgc3lzdGVtMSIwIAYDVQQLDBlFLVZvdGluZyBzeXN0ZW0gYXV0aG9y
aXR5MR8wHQYJKoZIhvcNAQkBFhBMYXppb0Bldm90aW5nLml0MB4XDTIyMDgyNjE1
MTgzMloXDTIzMDgyNjE1MTgzMlowRjEOMAwGA1UEAwwFT2xsaWUxCzAJBgNVBAYT
AklUMQ8wDQYDVQQIDAZJdGFsaWExFjAUBgNVBAoMDVJlZ2lvbmUgTGF6aW8wVjAQ
BgcqhkjOPQIBBgUrgQQACgNCAASP3SvHbtZahUrv10ItMvh4ROOLwZxsdxcz9GC7
IwH7iAitqmnHWsVnzxKMCgoUMB1+lEM+Y1bxALMO4ZoNz0GkoyMwITAOBgNVHQ8B
Af8EBAMCBaAwDwYDVR0TAQH/BAUwAwIBAzAKBggqhkjOPQQDAgNIADBFAiEA7sqA
xXgf+n2OsIoVDfgwx9GSCop+UWX18/HRpvUoH+kCIFmlEyddOAr5sOnn/OoaM5sb
EJZc7xAvNGXsmvOGjCxf
-----END CERTIFICATE-----
