Certificate:
    Data:
        Version: 3 (0x2)
        Serial Number: 29 (0x1d)
        Signature Algorithm: ecdsa-with-SHA256
        Issuer: CN=Regione Sardegna, C=IT, ST=Italia, O=E-Voting system, OU=E-Voting system authority/emailAddress=Sardegna@evoting.it
        Validity
            Not Before: Aug  3 13:27:50 2022 GMT
            Not After : Aug  3 13:27:50 2023 GMT
        Subject: CN=Onie, C=IT, ST=Italia, O=Regione Sardegna
        Subject Public Key Info:
            Public Key Algorithm: id-ecPublicKey
                Public-Key: (256 bit)
                pub:
                    04:b6:75:0b:1e:16:b1:d7:c3:c5:a4:6d:8c:66:72:
                    47:46:7c:69:20:c1:d2:54:6d:6b:af:74:00:29:db:
                    d5:91:20:91:b2:93:1f:3a:4b:0d:a6:48:94:9b:a0:
                    fe:ce:36:e0:61:10:d8:a6:90:fa:aa:9b:fe:0a:f9:
                    a9:e2:2b:e1:c0
                ASN1 OID: prime256v1
                NIST CURVE: P-256
        X509v3 extensions:
            X509v3 Key Usage: critical
                Digital Signature, Key Encipherment
            X509v3 Basic Constraints: critical
                CA:FALSE, pathlen:3
    Signature Algorithm: ecdsa-with-SHA256
         30:45:02:20:4a:7a:5a:e6:8f:9b:86:77:ee:bd:b6:62:1c:d9:
         e3:7f:0b:3e:78:3d:11:6d:e9:64:67:1c:c6:ae:2b:88:b1:e1:
         02:21:00:fc:dd:ed:1e:2c:a7:83:c4:af:bf:f5:47:e7:82:ab:
         e7:2b:3f:95:b7:33:93:20:d0:0c:5f:fa:66:91:bd:4e:8c
-----BEGIN CERTIFICATE-----
MIIB9jCCAZygAwIBAgIBHTAKBggqhkjOPQQDAjCBmzEZMBcGA1UEAwwQUmVnaW9u
ZSBTYXJkZWduYTELMAkGA1UEBhMCSVQxDzANBgNVBAgMBkl0YWxpYTEYMBYGA1UE
CgwPRS1Wb3Rpbmcgc3lzdGVtMSIwIAYDVQQLDBlFLVZvdGluZyBzeXN0ZW0gYXV0
aG9yaXR5MSIwIAYJKoZIhvcNAQkBFhNTYXJkZWduYUBldm90aW5nLml0MB4XDTIy
MDgwMzEzMjc1MFoXDTIzMDgwMzEzMjc1MFowSDENMAsGA1UEAwwET25pZTELMAkG
A1UEBhMCSVQxDzANBgNVBAgMBkl0YWxpYTEZMBcGA1UECgwQUmVnaW9uZSBTYXJk
ZWduYTBZMBMGByqGSM49AgEGCCqGSM49AwEHA0IABLZ1Cx4WsdfDxaRtjGZyR0Z8
aSDB0lRta690ACnb1ZEgkbKTHzpLDaZIlJug/s424GEQ2KaQ+qqb/gr5qeIr4cCj
IzAhMA4GA1UdDwEB/wQEAwIFoDAPBgNVHRMBAf8EBTADAgEDMAoGCCqGSM49BAMC
A0gAMEUCIEp6WuaPm4Z37r22YhzZ438LPng9EW3pZGccxq4riLHhAiEA/N3tHiyn
g8Svv/VH54Kr5ys/lbczkyDQDF/6ZpG9Tow=
-----END CERTIFICATE-----
