Certificate:
    Data:
        Version: 3 (0x2)
        Serial Number: 17 (0x11)
        Signature Algorithm: ecdsa-with-SHA256
        Issuer: CN=Regione Liguria, C=IT, ST=Italia, O=E-Voting system, OU=E-Voting system authority/emailAddress=Liguria@evoting.it
        Validity
            Not Before: Aug  3 13:26:25 2022 GMT
            Not After : Aug  3 13:26:25 2023 GMT
        Subject: CN=Opal, C=IT, ST=Italia, O=Regione Liguria
        Subject Public Key Info:
            Public Key Algorithm: id-ecPublicKey
                Public-Key: (256 bit)
                pub:
                    04:fe:1a:1a:3e:7f:d3:af:e9:e9:67:40:6e:47:e7:
                    cc:42:02:4f:38:55:14:25:46:96:78:ae:42:04:d0:
                    66:9d:31:53:65:ba:8b:ed:00:a8:b2:be:90:23:81:
                    da:24:02:bf:89:f5:57:90:19:97:64:8e:29:cb:65:
                    68:e6:0c:d0:e8
                ASN1 OID: prime256v1
                NIST CURVE: P-256
        X509v3 extensions:
            X509v3 Key Usage: critical
                Digital Signature, Key Encipherment
            X509v3 Basic Constraints: critical
                CA:FALSE, pathlen:3
    Signature Algorithm: ecdsa-with-SHA256
         30:45:02:21:00:b2:2a:9c:63:ab:3c:04:1e:98:85:b9:bb:81:
         f6:f5:a8:79:9f:4d:d2:19:98:4b:b4:fd:64:62:6f:ca:30:ac:
         7a:02:20:74:7c:50:47:05:eb:82:2e:e7:58:54:53:b8:94:3b:
         13:b3:06:8b:1a:c7:fc:53:d2:17:5e:07:c0:0d:00:b1:be
-----BEGIN CERTIFICATE-----
MIIB8zCCAZmgAwIBAgIBETAKBggqhkjOPQQDAjCBmTEYMBYGA1UEAwwPUmVnaW9u
ZSBMaWd1cmlhMQswCQYDVQQGEwJJVDEPMA0GA1UECAwGSXRhbGlhMRgwFgYDVQQK
DA9FLVZvdGluZyBzeXN0ZW0xIjAgBgNVBAsMGUUtVm90aW5nIHN5c3RlbSBhdXRo
b3JpdHkxITAfBgkqhkiG9w0BCQEWEkxpZ3VyaWFAZXZvdGluZy5pdDAeFw0yMjA4
MDMxMzI2MjVaFw0yMzA4MDMxMzI2MjVaMEcxDTALBgNVBAMMBE9wYWwxCzAJBgNV
BAYTAklUMQ8wDQYDVQQIDAZJdGFsaWExGDAWBgNVBAoMD1JlZ2lvbmUgTGlndXJp
YTBZMBMGByqGSM49AgEGCCqGSM49AwEHA0IABP4aGj5/06/p6WdAbkfnzEICTzhV
FCVGlniuQgTQZp0xU2W6i+0AqLK+kCOB2iQCv4n1V5AZl2SOKctlaOYM0OijIzAh
MA4GA1UdDwEB/wQEAwIFoDAPBgNVHRMBAf8EBTADAgEDMAoGCCqGSM49BAMCA0gA
MEUCIQCyKpxjqzwEHpiFubuB9vWoeZ9N0hmYS7T9ZGJvyjCsegIgdHxQRwXrgi7n
WFRTuJQ7E7MGixrH/FPSF14HwA0Asb4=
-----END CERTIFICATE-----
