Certificate:
    Data:
        Version: 3 (0x2)
        Serial Number: 39 (0x27)
        Signature Algorithm: ecdsa-with-SHA256
        Issuer: CN=Regione Campania, C=IT, ST=Italia, O=E-Voting system, OU=E-Voting system authority/emailAddress=Campania@evoting.it
        Validity
            Not Before: Aug 26 15:21:12 2022 GMT
            Not After : Aug 26 15:21:12 2023 GMT
        Subject: CN=Orlando, C=IT, ST=Italia, O=Regione Campania
        Subject Public Key Info:
            Public Key Algorithm: id-ecPublicKey
                Public-Key: (256 bit)
                pub:
                    04:6f:9d:e0:78:cc:a7:ee:f8:48:40:cd:51:38:68:
                    ba:ee:d8:af:cc:81:f9:7f:bc:01:b1:2a:a1:0c:35:
                    94:24:ba:f6:2d:75:07:9c:ad:2e:9e:91:04:92:21:
                    f9:fb:d1:e1:ea:62:cd:21:3d:f9:e7:c6:48:2d:65:
                    d1:1b:ca:19:db
                ASN1 OID: secp256k1
        X509v3 extensions:
            X509v3 Key Usage: critical
                Digital Signature, Key Encipherment
            X509v3 Basic Constraints: critical
                CA:FALSE, pathlen:3
    Signature Algorithm: ecdsa-with-SHA256
         30:44:02:20:42:20:d0:6e:91:53:25:6c:d2:4b:7a:a0:c5:9f:
         0b:56:86:b2:7b:34:36:99:a9:29:db:1f:7a:9a:81:c4:b4:33:
         02:20:59:c0:07:c6:b1:26:63:1e:cc:f2:47:35:d7:e5:71:cc:
         bb:8e:0b:a6:b1:cd:b3:8e:87:31:fe:90:8e:b4:9d:d5
-----BEGIN CERTIFICATE-----
MIIB9TCCAZygAwIBAgIBJzAKBggqhkjOPQQDAjCBmzEZMBcGA1UEAwwQUmVnaW9u
ZSBDYW1wYW5pYTELMAkGA1UEBhMCSVQxDzANBgNVBAgMBkl0YWxpYTEYMBYGA1UE
CgwPRS1Wb3Rpbmcgc3lzdGVtMSIwIAYDVQQLDBlFLVZvdGluZyBzeXN0ZW0gYXV0
aG9yaXR5MSIwIAYJKoZIhvcNAQkBFhNDYW1wYW5pYUBldm90aW5nLml0MB4XDTIy
MDgyNjE1MjExMloXDTIzMDgyNjE1MjExMlowSzEQMA4GA1UEAwwHT3JsYW5kbzEL
MAkGA1UEBhMCSVQxDzANBgNVBAgMBkl0YWxpYTEZMBcGA1UECgwQUmVnaW9uZSBD
YW1wYW5pYTBWMBAGByqGSM49AgEGBSuBBAAKA0IABG+d4HjMp+74SEDNUThouu7Y
r8yB+X+8AbEqoQw1lCS69i11B5ytLp6RBJIh+fvR4epizSE9+efGSC1l0RvKGduj
IzAhMA4GA1UdDwEB/wQEAwIFoDAPBgNVHRMBAf8EBTADAgEDMAoGCCqGSM49BAMC
A0cAMEQCIEIg0G6RUyVs0kt6oMWfC1aGsns0NpmpKdsfepqBxLQzAiBZwAfGsSZj
HszyRzXX5XHMu44LprHNs46HMf6QjrSd1Q==
-----END CERTIFICATE-----
