Certificate:
    Data:
        Version: 3 (0x2)
        Serial Number: 47 (0x2f)
        Signature Algorithm: ecdsa-with-SHA256
        Issuer: CN=Regione Emilia_Romagna, C=IT, ST=Italia, O=E-Voting system, OU=E-Voting system authority/emailAddress=Emilia_Romagna@evoting.it
        Validity
            Not Before: Aug  3 13:28:43 2022 GMT
            Not After : Aug  3 13:28:43 2023 GMT
        Subject: CN=Orlando, C=IT, ST=Italia, O=Regione Emilia_Romagna
        Subject Public Key Info:
            Public Key Algorithm: id-ecPublicKey
                Public-Key: (256 bit)
                pub:
                    04:2d:db:1c:7e:8b:6a:06:f4:f2:a7:c9:b3:ea:f3:
                    df:c5:8c:97:f2:21:7f:33:76:c0:e8:e5:06:94:79:
                    77:47:cd:b7:1a:0c:77:6a:44:6f:c8:0a:e9:30:b8:
                    1f:25:83:ca:ad:ae:da:c7:93:0b:2b:fd:05:2b:0c:
                    c3:f5:62:71:da
                ASN1 OID: prime256v1
                NIST CURVE: P-256
        X509v3 extensions:
            X509v3 Key Usage: critical
                Digital Signature, Key Encipherment
            X509v3 Basic Constraints: critical
                CA:FALSE, pathlen:3
    Signature Algorithm: ecdsa-with-SHA256
         30:45:02:21:00:9d:f9:e6:03:b6:56:59:ec:3a:b4:cc:80:13:
         11:72:f9:27:b4:46:c7:ae:d0:fb:cf:a1:84:a0:58:05:8e:2f:
         96:02:20:36:af:c4:b4:8f:62:10:b0:27:2c:d5:8b:e2:55:e7:
         11:01:ff:47:bf:e6:f2:d4:71:1b:0e:f8:88:87:a6:45:91
-----BEGIN CERTIFICATE-----
MIICCzCCAbGgAwIBAgIBLzAKBggqhkjOPQQDAjCBpzEfMB0GA1UEAwwWUmVnaW9u
ZSBFbWlsaWFfUm9tYWduYTELMAkGA1UEBhMCSVQxDzANBgNVBAgMBkl0YWxpYTEY
MBYGA1UECgwPRS1Wb3Rpbmcgc3lzdGVtMSIwIAYDVQQLDBlFLVZvdGluZyBzeXN0
ZW0gYXV0aG9yaXR5MSgwJgYJKoZIhvcNAQkBFhlFbWlsaWFfUm9tYWduYUBldm90
aW5nLml0MB4XDTIyMDgwMzEzMjg0M1oXDTIzMDgwMzEzMjg0M1owUTEQMA4GA1UE
AwwHT3JsYW5kbzELMAkGA1UEBhMCSVQxDzANBgNVBAgMBkl0YWxpYTEfMB0GA1UE
CgwWUmVnaW9uZSBFbWlsaWFfUm9tYWduYTBZMBMGByqGSM49AgEGCCqGSM49AwEH
A0IABC3bHH6Lagb08qfJs+rz38WMl/IhfzN2wOjlBpR5d0fNtxoMd2pEb8gK6TC4
HyWDyq2u2seTCyv9BSsMw/VicdqjIzAhMA4GA1UdDwEB/wQEAwIFoDAPBgNVHRMB
Af8EBTADAgEDMAoGCCqGSM49BAMCA0gAMEUCIQCd+eYDtlZZ7Dq0zIATEXL5J7RG
x67Q+8+hhKBYBY4vlgIgNq/EtI9iELAnLNWL4lXnEQH/R7/m8tRxGw74iIemRZE=
-----END CERTIFICATE-----
