Certificate:
    Data:
        Version: 3 (0x2)
        Serial Number: 40 (0x28)
        Signature Algorithm: ecdsa-with-SHA256
        Issuer: CN=Regione Sicilia, C=IT, ST=Italia, O=E-Voting system, OU=E-Voting system authority/emailAddress=Sicilia@evoting.it
        Validity
            Not Before: Aug 26 15:20:45 2022 GMT
            Not After : Aug 26 15:20:45 2023 GMT
        Subject: CN=Oscar, C=IT, ST=Italia, O=Regione Sicilia
        Subject Public Key Info:
            Public Key Algorithm: id-ecPublicKey
                Public-Key: (256 bit)
                pub:
                    04:5c:0c:f1:c8:07:23:c2:40:8b:20:cb:ac:25:05:
                    c6:0b:5b:87:73:db:1e:df:24:1d:34:96:51:84:9c:
                    06:22:13:ae:04:14:8e:2a:7f:96:b8:01:ea:26:1d:
                    8c:60:52:b3:63:ed:9a:80:a1:5f:2b:27:03:27:c1:
                    a4:20:43:30:33
                ASN1 OID: secp256k1
        X509v3 extensions:
            X509v3 Key Usage: critical
                Digital Signature, Key Encipherment
            X509v3 Basic Constraints: critical
                CA:FALSE, pathlen:3
    Signature Algorithm: ecdsa-with-SHA256
         30:46:02:21:00:d6:20:ec:4a:6c:f0:d4:ba:dd:a4:1e:11:38:
         26:c7:4e:d4:c5:54:8c:09:a4:c8:91:f3:ee:47:f7:b1:73:f5:
         f9:02:21:00:d2:9f:eb:a1:20:7e:60:c4:af:4f:d2:ce:3f:c3:
         16:15:e8:c9:b6:f4:b9:00:e4:47:31:1b:32:b8:7c:55:2c:f5
-----BEGIN CERTIFICATE-----
MIIB8jCCAZegAwIBAgIBKDAKBggqhkjOPQQDAjCBmTEYMBYGA1UEAwwPUmVnaW9u
ZSBTaWNpbGlhMQswCQYDVQQGEwJJVDEPMA0GA1UECAwGSXRhbGlhMRgwFgYDVQQK
DA9FLVZvdGluZyBzeXN0ZW0xIjAgBgNVBAsMGUUtVm90aW5nIHN5c3RlbSBhdXRo
b3JpdHkxITAfBgkqhkiG9w0BCQEWElNpY2lsaWFAZXZvdGluZy5pdDAeFw0yMjA4
MjYxNTIwNDVaFw0yMzA4MjYxNTIwNDVaMEgxDjAMBgNVBAMMBU9zY2FyMQswCQYD
VQQGEwJJVDEPMA0GA1UECAwGSXRhbGlhMRgwFgYDVQQKDA9SZWdpb25lIFNpY2ls
aWEwVjAQBgcqhkjOPQIBBgUrgQQACgNCAARcDPHIByPCQIsgy6wlBcYLW4dz2x7f
JB00llGEnAYiE64EFI4qf5a4AeomHYxgUrNj7ZqAoV8rJwMnwaQgQzAzoyMwITAO
BgNVHQ8BAf8EBAMCBaAwDwYDVR0TAQH/BAUwAwIBAzAKBggqhkjOPQQDAgNJADBG
AiEA1iDsSmzw1LrdpB4ROCbHTtTFVIwJpMiR8+5H97Fz9fkCIQDSn+uhIH5gxK9P
0s4/wxYV6Mm29LkA5EcxGzK4fFUs9Q==
-----END CERTIFICATE-----
