Certificate:
    Data:
        Version: 3 (0x2)
        Serial Number: 34 (0x22)
        Signature Algorithm: ecdsa-with-SHA256
        Issuer: CN=Regione Lazio, C=IT, ST=Italia, O=E-Voting system, OU=E-Voting system authority/emailAddress=Lazio@evoting.it
        Validity
            Not Before: Aug  3 13:27:41 2022 GMT
            Not After : Aug  3 13:27:41 2023 GMT
        Subject: CN=Otto, C=IT, ST=Italia, O=Regione Lazio
        Subject Public Key Info:
            Public Key Algorithm: id-ecPublicKey
                Public-Key: (256 bit)
                pub:
                    04:09:cc:3b:17:43:c1:49:64:b2:d2:05:49:0e:e6:
                    e8:c5:97:9a:e7:f5:c3:e0:fd:3f:c6:ff:9d:79:b6:
                    af:14:7d:b8:04:2b:9f:ae:2d:c7:00:b5:0d:56:7a:
                    e0:e6:ca:b7:c7:58:86:64:56:85:1f:d8:c5:ae:dd:
                    f8:c0:55:9d:68
                ASN1 OID: prime256v1
                NIST CURVE: P-256
        X509v3 extensions:
            X509v3 Key Usage: critical
                Digital Signature, Key Encipherment
            X509v3 Basic Constraints: critical
                CA:FALSE, pathlen:3
    Signature Algorithm: ecdsa-with-SHA256
         30:46:02:21:00:db:ba:e1:5c:d0:e6:73:34:67:91:69:79:03:
         3a:23:e5:02:74:93:8c:da:5f:05:30:5d:ca:be:36:87:ec:19:
         01:02:21:00:be:d1:b0:5d:4c:cd:0a:41:e0:91:cc:ed:d2:34:
         13:79:4a:44:c3:90:92:54:e6:48:30:12:4e:00:44:44:9c:52
-----BEGIN CERTIFICATE-----
MIIB7jCCAZOgAwIBAgIBIjAKBggqhkjOPQQDAjCBlTEWMBQGA1UEAwwNUmVnaW9u
ZSBMYXppbzELMAkGA1UEBhMCSVQxDzANBgNVBAgMBkl0YWxpYTEYMBYGA1UECgwP
RS1Wb3Rpbmcgc3lzdGVtMSIwIAYDVQQLDBlFLVZvdGluZyBzeXN0ZW0gYXV0aG9y
aXR5MR8wHQYJKoZIhvcNAQkBFhBMYXppb0Bldm90aW5nLml0MB4XDTIyMDgwMzEz
Mjc0MVoXDTIzMDgwMzEzMjc0MVowRTENMAsGA1UEAwwET3R0bzELMAkGA1UEBhMC
SVQxDzANBgNVBAgMBkl0YWxpYTEWMBQGA1UECgwNUmVnaW9uZSBMYXppbzBZMBMG
ByqGSM49AgEGCCqGSM49AwEHA0IABAnMOxdDwUlkstIFSQ7m6MWXmuf1w+D9P8b/
nXm2rxR9uAQrn64txwC1DVZ64ObKt8dYhmRWhR/Yxa7d+MBVnWijIzAhMA4GA1Ud
DwEB/wQEAwIFoDAPBgNVHRMBAf8EBTADAgEDMAoGCCqGSM49BAMCA0kAMEYCIQDb
uuFc0OZzNGeRaXkDOiPlAnSTjNpfBTBdyr42h+wZAQIhAL7RsF1MzQpB4JHM7dI0
E3lKRMOQklTmSDASTgBERJxS
-----END CERTIFICATE-----
