Certificate:
    Data:
        Version: 3 (0x2)
        Serial Number: 25 (0x19)
        Signature Algorithm: ecdsa-with-SHA256
        Issuer: CN=Regione Lombardia, C=IT, ST=Italia, O=E-Voting system, OU=E-Voting system authority/emailAddress=Lombardia@evoting.it
        Validity
            Not Before: Aug  3 13:26:56 2022 GMT
            Not After : Aug  3 13:26:56 2023 GMT
        Subject: CN=Ozell, C=IT, ST=Italia, O=Regione Lombardia
        Subject Public Key Info:
            Public Key Algorithm: id-ecPublicKey
                Public-Key: (256 bit)
                pub:
                    04:e1:92:48:25:9a:85:74:5c:ed:88:b1:54:07:d3:
                    24:d3:df:48:01:c2:79:ba:5f:27:c8:ac:56:c8:dc:
                    32:64:ad:8e:36:2f:3a:78:8d:4c:07:1c:58:a5:b1:
                    54:66:61:5b:e1:80:28:bf:67:e5:3e:9f:7e:ed:cd:
                    2d:8a:b6:72:90
                ASN1 OID: prime256v1
                NIST CURVE: P-256
        X509v3 extensions:
            X509v3 Key Usage: critical
                Digital Signature, Key Encipherment
            X509v3 Basic Constraints: critical
                CA:FALSE, pathlen:3
    Signature Algorithm: ecdsa-with-SHA256
         30:45:02:21:00:ac:0e:af:fc:78:57:66:82:f6:b3:91:c1:93:
         5a:9f:62:c4:01:62:a2:25:d3:7a:2a:0b:59:d2:7c:c6:8a:01:
         8b:02:20:6e:12:af:13:fb:ed:d2:66:32:b5:79:e5:8f:e6:4a:
         0e:2a:84:89:24:fd:61:b9:95:d1:a8:88:8a:ee:21:53:21
-----BEGIN CERTIFICATE-----
MIIB+jCCAaCgAwIBAgIBGTAKBggqhkjOPQQDAjCBnTEaMBgGA1UEAwwRUmVnaW9u
ZSBMb21iYXJkaWExCzAJBgNVBAYTAklUMQ8wDQYDVQQIDAZJdGFsaWExGDAWBgNV
BAoMD0UtVm90aW5nIHN5c3RlbTEiMCAGA1UECwwZRS1Wb3Rpbmcgc3lzdGVtIGF1
dGhvcml0eTEjMCEGCSqGSIb3DQEJARYUTG9tYmFyZGlhQGV2b3RpbmcuaXQwHhcN
MjIwODAzMTMyNjU2WhcNMjMwODAzMTMyNjU2WjBKMQ4wDAYDVQQDDAVPemVsbDEL
MAkGA1UEBhMCSVQxDzANBgNVBAgMBkl0YWxpYTEaMBgGA1UECgwRUmVnaW9uZSBM
b21iYXJkaWEwWTATBgcqhkjOPQIBBggqhkjOPQMBBwNCAAThkkglmoV0XO2IsVQH
0yTT30gBwnm6XyfIrFbI3DJkrY42Lzp4jUwHHFilsVRmYVvhgCi/Z+U+n37tzS2K
tnKQoyMwITAOBgNVHQ8BAf8EBAMCBaAwDwYDVR0TAQH/BAUwAwIBAzAKBggqhkjO
PQQDAgNIADBFAiEArA6v/HhXZoL2s5HBk1qfYsQBYqIl03oqC1nSfMaKAYsCIG4S
rxP77dJmMrV55Y/mSg4qhIkk/WG5ldGoiIruIVMh
-----END CERTIFICATE-----
