Certificate:
    Data:
        Version: 3 (0x2)
        Serial Number: 34 (0x22)
        Signature Algorithm: ecdsa-with-SHA256
        Issuer: CN=Regione Piemonte, C=IT, ST=Italia, O=E-Voting system, OU=E-Voting system authority/emailAddress=Piemonte@evoting.it
        Validity
            Not Before: Aug 26 15:20:50 2022 GMT
            Not After : Aug 26 15:20:50 2023 GMT
        Subject: CN=Paige, C=IT, ST=Italia, O=Regione Piemonte
        Subject Public Key Info:
            Public Key Algorithm: id-ecPublicKey
                Public-Key: (256 bit)
                pub:
                    04:ec:a3:70:59:36:e8:1e:e6:c7:b3:4d:57:56:c4:
                    21:98:a1:48:f6:b4:1e:4a:61:d1:02:2b:49:18:c2:
                    7c:b2:8b:e1:85:09:42:a4:f1:8d:fe:ec:bd:7a:14:
                    22:3e:6b:11:97:d9:dd:73:b1:a5:03:6a:f3:d4:2b:
                    3b:f9:35:45:8c
                ASN1 OID: secp256k1
        X509v3 extensions:
            X509v3 Key Usage: critical
                Digital Signature, Key Encipherment
            X509v3 Basic Constraints: critical
                CA:FALSE, pathlen:3
    Signature Algorithm: ecdsa-with-SHA256
         30:45:02:20:57:4f:06:fb:da:b9:c3:1e:34:60:16:e9:a2:8e:
         f7:a8:24:9c:2c:99:82:fe:cf:a1:51:e5:77:f3:44:00:0d:0a:
         02:21:00:e4:ce:7c:a5:7a:4e:04:3f:fa:71:e3:f6:39:83:d9:
         af:19:eb:37:05:e6:10:a1:9a:ab:18:a2:d8:f0:c8:7f:f1
-----BEGIN CERTIFICATE-----
MIIB9DCCAZqgAwIBAgIBIjAKBggqhkjOPQQDAjCBmzEZMBcGA1UEAwwQUmVnaW9u
ZSBQaWVtb250ZTELMAkGA1UEBhMCSVQxDzANBgNVBAgMBkl0YWxpYTEYMBYGA1UE
CgwPRS1Wb3Rpbmcgc3lzdGVtMSIwIAYDVQQLDBlFLVZvdGluZyBzeXN0ZW0gYXV0
aG9yaXR5MSIwIAYJKoZIhvcNAQkBFhNQaWVtb250ZUBldm90aW5nLml0MB4XDTIy
MDgyNjE1MjA1MFoXDTIzMDgyNjE1MjA1MFowSTEOMAwGA1UEAwwFUGFpZ2UxCzAJ
BgNVBAYTAklUMQ8wDQYDVQQIDAZJdGFsaWExGTAXBgNVBAoMEFJlZ2lvbmUgUGll
bW9udGUwVjAQBgcqhkjOPQIBBgUrgQQACgNCAATso3BZNuge5sezTVdWxCGYoUj2
tB5KYdECK0kYwnyyi+GFCUKk8Y3+7L16FCI+axGX2d1zsaUDavPUKzv5NUWMoyMw
ITAOBgNVHQ8BAf8EBAMCBaAwDwYDVR0TAQH/BAUwAwIBAzAKBggqhkjOPQQDAgNI
ADBFAiBXTwb72rnDHjRgFumijveoJJwsmYL+z6FR5XfzRAANCgIhAOTOfKV6TgQ/
+nHj9jmD2a8Z6zcF5hChmqsYotjwyH/x
-----END CERTIFICATE-----
