Certificate:
    Data:
        Version: 3 (0x2)
        Serial Number: 26 (0x1a)
        Signature Algorithm: ecdsa-with-SHA256
        Issuer: CN=Regione Marche, C=IT, ST=Italia, O=E-Voting system, OU=E-Voting system authority/emailAddress=Marche@evoting.it
        Validity
            Not Before: Aug  3 13:27:10 2022 GMT
            Not After : Aug  3 13:27:10 2023 GMT
        Subject: CN=Pam, C=IT, ST=Italia, O=Regione Marche
        Subject Public Key Info:
            Public Key Algorithm: id-ecPublicKey
                Public-Key: (256 bit)
                pub:
                    04:27:75:bf:43:e8:18:86:ae:08:f5:7a:a2:91:40:
                    b6:03:44:21:b4:81:d8:75:fe:87:45:90:48:3b:0e:
                    ca:b4:97:77:68:08:09:52:d5:db:c0:85:1d:af:de:
                    04:7d:65:04:5d:c2:66:61:17:30:e2:72:cd:94:a1:
                    43:2a:82:6b:a2
                ASN1 OID: prime256v1
                NIST CURVE: P-256
        X509v3 extensions:
            X509v3 Key Usage: critical
                Digital Signature, Key Encipherment
            X509v3 Basic Constraints: critical
                CA:FALSE, pathlen:3
    Signature Algorithm: ecdsa-with-SHA256
         30:45:02:21:00:d7:bb:59:eb:75:bf:8a:3c:28:9f:5a:76:2f:
         6a:c6:a0:a5:f3:1e:ae:3d:b1:24:b1:f4:ab:1c:9d:3b:95:33:
         4c:02:20:02:b1:a4:c5:68:15:fa:40:56:58:29:d1:b9:a7:41:
         0d:58:59:68:40:de:80:3d:31:2e:f8:cf:c8:60:02:23:7b
-----BEGIN CERTIFICATE-----
MIIB7zCCAZWgAwIBAgIBGjAKBggqhkjOPQQDAjCBlzEXMBUGA1UEAwwOUmVnaW9u
ZSBNYXJjaGUxCzAJBgNVBAYTAklUMQ8wDQYDVQQIDAZJdGFsaWExGDAWBgNVBAoM
D0UtVm90aW5nIHN5c3RlbTEiMCAGA1UECwwZRS1Wb3Rpbmcgc3lzdGVtIGF1dGhv
cml0eTEgMB4GCSqGSIb3DQEJARYRTWFyY2hlQGV2b3RpbmcuaXQwHhcNMjIwODAz
MTMyNzEwWhcNMjMwODAzMTMyNzEwWjBFMQwwCgYDVQQDDANQYW0xCzAJBgNVBAYT
AklUMQ8wDQYDVQQIDAZJdGFsaWExFzAVBgNVBAoMDlJlZ2lvbmUgTWFyY2hlMFkw
EwYHKoZIzj0CAQYIKoZIzj0DAQcDQgAEJ3W/Q+gYhq4I9XqikUC2A0QhtIHYdf6H
RZBIOw7KtJd3aAgJUtXbwIUdr94EfWUEXcJmYRcw4nLNlKFDKoJroqMjMCEwDgYD
VR0PAQH/BAQDAgWgMA8GA1UdEwEB/wQFMAMCAQMwCgYIKoZIzj0EAwIDSAAwRQIh
ANe7Wet1v4o8KJ9adi9qxqCl8x6uPbEksfSrHJ07lTNMAiACsaTFaBX6QFZYKdG5
p0ENWFloQN6APTEu+M/IYAIjew==
-----END CERTIFICATE-----
