Certificate:
    Data:
        Version: 3 (0x2)
        Serial Number: 37 (0x25)
        Signature Algorithm: ecdsa-with-SHA256
        Issuer: CN=Regione Molise, C=IT, ST=Italia, O=E-Voting system, OU=E-Voting system authority/emailAddress=Molise@evoting.it
        Validity
            Not Before: Aug 26 15:21:15 2022 GMT
            Not After : Aug 26 15:21:15 2023 GMT
        Subject: CN=Pamela, C=IT, ST=Italia, O=Regione Molise
        Subject Public Key Info:
            Public Key Algorithm: id-ecPublicKey
                Public-Key: (256 bit)
                pub:
                    04:47:cb:6c:ad:98:92:1a:54:85:29:70:20:c3:75:
                    fc:aa:f3:d9:f7:0a:e8:95:8e:43:83:89:6f:e1:46:
                    0e:ac:d4:13:43:80:fc:c2:2e:ee:67:c5:2f:1d:97:
                    28:93:98:5c:65:10:bd:af:95:09:a8:87:fa:c8:a0:
                    4f:52:4b:59:44
                ASN1 OID: secp256k1
        X509v3 extensions:
            X509v3 Key Usage: critical
                Digital Signature, Key Encipherment
            X509v3 Basic Constraints: critical
                CA:FALSE, pathlen:3
    Signature Algorithm: ecdsa-with-SHA256
         30:44:02:20:25:9a:a0:0b:90:64:83:9e:89:be:5c:fe:d2:9c:
         ba:0f:5b:09:d9:d0:a6:26:17:72:ed:63:44:cc:5b:03:bc:f0:
         02:20:2e:a7:52:04:38:3d:f7:87:22:a5:52:29:90:9c:08:51:
         a5:c6:fd:63:8e:7e:15:84:7e:ad:d2:e5:10:f3:45:1c
-----BEGIN CERTIFICATE-----
MIIB7jCCAZWgAwIBAgIBJTAKBggqhkjOPQQDAjCBlzEXMBUGA1UEAwwOUmVnaW9u
ZSBNb2xpc2UxCzAJBgNVBAYTAklUMQ8wDQYDVQQIDAZJdGFsaWExGDAWBgNVBAoM
D0UtVm90aW5nIHN5c3RlbTEiMCAGA1UECwwZRS1Wb3Rpbmcgc3lzdGVtIGF1dGhv
cml0eTEgMB4GCSqGSIb3DQEJARYRTW9saXNlQGV2b3RpbmcuaXQwHhcNMjIwODI2
MTUyMTE1WhcNMjMwODI2MTUyMTE1WjBIMQ8wDQYDVQQDDAZQYW1lbGExCzAJBgNV
BAYTAklUMQ8wDQYDVQQIDAZJdGFsaWExFzAVBgNVBAoMDlJlZ2lvbmUgTW9saXNl
MFYwEAYHKoZIzj0CAQYFK4EEAAoDQgAER8tsrZiSGlSFKXAgw3X8qvPZ9wrolY5D
g4lv4UYOrNQTQ4D8wi7uZ8UvHZcok5hcZRC9r5UJqIf6yKBPUktZRKMjMCEwDgYD
VR0PAQH/BAQDAgWgMA8GA1UdEwEB/wQFMAMCAQMwCgYIKoZIzj0EAwIDRwAwRAIg
JZqgC5Bkg56Jvlz+0py6D1sJ2dCmJhdy7WNEzFsDvPACIC6nUgQ4PfeHIqVSKZCc
CFGlxv1jjn4VhH6t0uUQ80Uc
-----END CERTIFICATE-----
