Certificate:
    Data:
        Version: 3 (0x2)
        Serial Number: 27 (0x1b)
        Signature Algorithm: ecdsa-with-SHA256
        Issuer: CN=Regione Sardegna, C=IT, ST=Italia, O=E-Voting system, OU=E-Voting system authority/emailAddress=Sardegna@evoting.it
        Validity
            Not Before: Aug 26 15:20:45 2022 GMT
            Not After : Aug 26 15:20:45 2023 GMT
        Subject: CN=Patrick, C=IT, ST=Italia, O=Regione Sardegna
        Subject Public Key Info:
            Public Key Algorithm: id-ecPublicKey
                Public-Key: (256 bit)
                pub:
                    04:e0:69:ed:8e:80:d7:c2:3e:a0:91:c1:9f:f6:4b:
                    30:f7:aa:df:ba:12:fb:3b:8f:5b:9e:41:95:db:58:
                    f5:75:6e:53:38:81:2a:b4:ed:cc:c8:4b:ff:d2:9a:
                    c8:2a:cd:ed:5c:f2:b9:ee:c1:08:c5:94:3d:15:b0:
                    fc:ba:8b:86:ce
                ASN1 OID: secp256k1
        X509v3 extensions:
            X509v3 Key Usage: critical
                Digital Signature, Key Encipherment
            X509v3 Basic Constraints: critical
                CA:FALSE, pathlen:3
    Signature Algorithm: ecdsa-with-SHA256
         30:44:02:20:23:1f:94:57:7c:fb:aa:9c:d9:3f:20:ef:1e:7c:
         90:35:d6:1b:b2:5d:2f:2b:9f:7f:5b:f8:6f:35:23:83:80:37:
         02:20:61:4d:71:d6:df:53:ae:42:82:36:45:69:be:50:04:21:
         0c:71:21:47:22:20:f8:cc:34:83:12:d1:1e:08:f9:ce
-----BEGIN CERTIFICATE-----
MIIB9TCCAZygAwIBAgIBGzAKBggqhkjOPQQDAjCBmzEZMBcGA1UEAwwQUmVnaW9u
ZSBTYXJkZWduYTELMAkGA1UEBhMCSVQxDzANBgNVBAgMBkl0YWxpYTEYMBYGA1UE
CgwPRS1Wb3Rpbmcgc3lzdGVtMSIwIAYDVQQLDBlFLVZvdGluZyBzeXN0ZW0gYXV0
aG9yaXR5MSIwIAYJKoZIhvcNAQkBFhNTYXJkZWduYUBldm90aW5nLml0MB4XDTIy
MDgyNjE1MjA0NVoXDTIzMDgyNjE1MjA0NVowSzEQMA4GA1UEAwwHUGF0cmljazEL
MAkGA1UEBhMCSVQxDzANBgNVBAgMBkl0YWxpYTEZMBcGA1UECgwQUmVnaW9uZSBT
YXJkZWduYTBWMBAGByqGSM49AgEGBSuBBAAKA0IABOBp7Y6A18I+oJHBn/ZLMPeq
37oS+zuPW55BldtY9XVuUziBKrTtzMhL/9KayCrN7Vzyue7BCMWUPRWw/LqLhs6j
IzAhMA4GA1UdDwEB/wQEAwIFoDAPBgNVHRMBAf8EBTADAgEDMAoGCCqGSM49BAMC
A0cAMEQCICMflFd8+6qc2T8g7x58kDXWG7JdLyuff1v4bzUjg4A3AiBhTXHW31Ou
QoI2RWm+UAQhDHEhRyIg+Mw0gxLRHgj5zg==
-----END CERTIFICATE-----
