Certificate:
    Data:
        Version: 3 (0x2)
        Serial Number: 29 (0x1d)
        Signature Algorithm: ecdsa-with-SHA256
        Issuer: CN=Regione Emilia_Romagna, C=IT, ST=Italia, O=E-Voting system, OU=E-Voting system authority/emailAddress=Emilia_Romagna@evoting.it
        Validity
            Not Before: Aug 26 15:20:18 2022 GMT
            Not After : Aug 26 15:20:18 2023 GMT
        Subject: CN=Patricia, C=IT, ST=Italia, O=Regione Emilia_Romagna
        Subject Public Key Info:
            Public Key Algorithm: id-ecPublicKey
                Public-Key: (256 bit)
                pub:
                    04:45:2f:d2:24:da:8c:6c:72:a9:7c:9c:e0:94:d2:
                    3a:6e:50:91:8e:f4:f8:4e:a5:3f:d1:09:c7:95:01:
                    c1:9d:99:d6:28:24:35:fb:25:83:bb:97:92:93:75:
                    a1:2c:32:5a:5f:78:8f:0a:df:02:fd:90:dd:6a:41:
                    72:07:e4:fd:8b
                ASN1 OID: secp256k1
        X509v3 extensions:
            X509v3 Key Usage: critical
                Digital Signature, Key Encipherment
            X509v3 Basic Constraints: critical
                CA:FALSE, pathlen:3
    Signature Algorithm: ecdsa-with-SHA256
         30:46:02:21:00:dd:2b:50:2d:21:62:bf:1a:10:ae:c1:70:3a:
         e5:eb:79:43:1e:5e:68:30:24:c1:32:91:e9:03:9f:12:1d:b0:
         9b:02:21:00:ae:5f:7f:59:50:7e:2b:18:45:4a:16:c8:e7:b6:
         6c:c3:de:4e:37:69:f7:db:62:b2:c3:7c:9a:d4:48:e2:ce:8d
-----BEGIN CERTIFICATE-----
MIICCjCCAa+gAwIBAgIBHTAKBggqhkjOPQQDAjCBpzEfMB0GA1UEAwwWUmVnaW9u
ZSBFbWlsaWFfUm9tYWduYTELMAkGA1UEBhMCSVQxDzANBgNVBAgMBkl0YWxpYTEY
MBYGA1UECgwPRS1Wb3Rpbmcgc3lzdGVtMSIwIAYDVQQLDBlFLVZvdGluZyBzeXN0
ZW0gYXV0aG9yaXR5MSgwJgYJKoZIhvcNAQkBFhlFbWlsaWFfUm9tYWduYUBldm90
aW5nLml0MB4XDTIyMDgyNjE1MjAxOFoXDTIzMDgyNjE1MjAxOFowUjERMA8GA1UE
AwwIUGF0cmljaWExCzAJBgNVBAYTAklUMQ8wDQYDVQQIDAZJdGFsaWExHzAdBgNV
BAoMFlJlZ2lvbmUgRW1pbGlhX1JvbWFnbmEwVjAQBgcqhkjOPQIBBgUrgQQACgNC
AARFL9Ik2oxscql8nOCU0jpuUJGO9PhOpT/RCceVAcGdmdYoJDX7JYO7l5KTdaEs
MlpfeI8K3wL9kN1qQXIH5P2LoyMwITAOBgNVHQ8BAf8EBAMCBaAwDwYDVR0TAQH/
BAUwAwIBAzAKBggqhkjOPQQDAgNJADBGAiEA3StQLSFivxoQrsFwOuXreUMeXmgw
JMEykekDnxIdsJsCIQCuX39ZUH4rGEVKFsjntmzD3k43affbYrLDfJrUSOLOjQ==
-----END CERTIFICATE-----
