Certificate:
    Data:
        Version: 3 (0x2)
        Serial Number: 18 (0x12)
        Signature Algorithm: ecdsa-with-SHA256
        Issuer: CN=Regione Puglia, C=IT, ST=Italia, O=E-Voting system, OU=E-Voting system authority/emailAddress=Puglia@evoting.it
        Validity
            Not Before: Aug  3 13:26:49 2022 GMT
            Not After : Aug  3 13:26:49 2023 GMT
        Subject: CN=Patty, C=IT, ST=Italia, O=Regione Puglia
        Subject Public Key Info:
            Public Key Algorithm: id-ecPublicKey
                Public-Key: (256 bit)
                pub:
                    04:2b:d9:b9:41:4c:99:26:92:5d:f6:3d:5c:ac:9a:
                    bf:9f:5f:46:47:c2:6f:72:9b:94:96:24:94:99:96:
                    e3:f6:80:a5:bb:57:7c:a0:b9:65:3f:31:ae:ae:38:
                    85:ea:55:c1:f2:05:53:e4:d0:a8:85:2a:5d:a7:b5:
                    f2:14:5e:4e:fd
                ASN1 OID: prime256v1
                NIST CURVE: P-256
        X509v3 extensions:
            X509v3 Key Usage: critical
                Digital Signature, Key Encipherment
            X509v3 Basic Constraints: critical
                CA:FALSE, pathlen:3
    Signature Algorithm: ecdsa-with-SHA256
         30:44:02:20:4b:de:b9:d4:a0:1d:54:27:01:c3:62:78:f7:53:
         83:c2:39:86:50:c4:b7:94:54:3d:e5:29:12:ef:a2:27:15:d9:
         02:20:17:08:d0:cf:0c:6d:73:7c:f2:97:8c:45:f7:f8:9a:11:
         9a:a4:8d:9d:37:cb:f5:11:d6:4f:f9:ba:4c:1d:77:f1
-----BEGIN CERTIFICATE-----
MIIB8DCCAZegAwIBAgIBEjAKBggqhkjOPQQDAjCBlzEXMBUGA1UEAwwOUmVnaW9u
ZSBQdWdsaWExCzAJBgNVBAYTAklUMQ8wDQYDVQQIDAZJdGFsaWExGDAWBgNVBAoM
D0UtVm90aW5nIHN5c3RlbTEiMCAGA1UECwwZRS1Wb3Rpbmcgc3lzdGVtIGF1dGhv
cml0eTEgMB4GCSqGSIb3DQEJARYRUHVnbGlhQGV2b3RpbmcuaXQwHhcNMjIwODAz
MTMyNjQ5WhcNMjMwODAzMTMyNjQ5WjBHMQ4wDAYDVQQDDAVQYXR0eTELMAkGA1UE
BhMCSVQxDzANBgNVBAgMBkl0YWxpYTEXMBUGA1UECgwOUmVnaW9uZSBQdWdsaWEw
WTATBgcqhkjOPQIBBggqhkjOPQMBBwNCAAQr2blBTJkmkl32PVysmr+fX0ZHwm9y
m5SWJJSZluP2gKW7V3yguWU/Ma6uOIXqVcHyBVPk0KiFKl2ntfIUXk79oyMwITAO
BgNVHQ8BAf8EBAMCBaAwDwYDVR0TAQH/BAUwAwIBAzAKBggqhkjOPQQDAgNHADBE
AiBL3rnUoB1UJwHDYnj3U4PCOYZQxLeUVD3lKRLvoicV2QIgFwjQzwxtc3zyl4xF
9/iaEZqkjZ03y/UR1k/5ukwdd/E=
-----END CERTIFICATE-----
