Certificate:
    Data:
        Version: 3 (0x2)
        Serial Number: 10 (0xa)
        Signature Algorithm: ecdsa-with-SHA256
        Issuer: CN=Regione Trentino_Alto_Adige, C=IT, ST=Italia, O=E-Voting system, OU=E-Voting system authority/emailAddress=Trentino_Alto_Adige@evoting.it
        Validity
            Not Before: Aug 26 15:19:17 2022 GMT
            Not After : Aug 26 15:19:17 2023 GMT
        Subject: CN=Paul, C=IT, ST=Italia, O=Regione Trentino_Alto_Adige
        Subject Public Key Info:
            Public Key Algorithm: id-ecPublicKey
                Public-Key: (256 bit)
                pub:
                    04:bf:83:5c:6d:54:07:0b:b1:d9:dc:17:bc:37:d7:
                    b5:bf:3b:ba:56:6f:41:2d:a1:b9:3c:c3:f4:42:c5:
                    ea:0c:51:b7:bf:f8:b2:ac:9d:77:0c:74:ff:48:66:
                    7c:4a:b6:92:5f:09:e7:c4:cf:aa:56:48:a0:66:dc:
                    d2:df:3f:08:e8
                ASN1 OID: secp256k1
        X509v3 extensions:
            X509v3 Key Usage: critical
                Digital Signature, Key Encipherment
            X509v3 Basic Constraints: critical
                CA:FALSE, pathlen:3
    Signature Algorithm: ecdsa-with-SHA256
         30:45:02:20:07:b0:96:8e:fa:64:9e:be:79:2f:68:a3:b5:45:
         40:23:cb:94:d2:39:9d:df:a5:c6:93:07:ed:72:6d:65:70:19:
         02:21:00:89:06:28:5a:9d:dd:27:dd:b4:65:23:34:ee:ea:15:
         4a:71:35:29:37:a5:2f:f5:5c:06:64:51:56:39:10:e3:cc
-----BEGIN CERTIFICATE-----
MIICFDCCAbqgAwIBAgIBCjAKBggqhkjOPQQDAjCBsTEkMCIGA1UEAwwbUmVnaW9u
ZSBUcmVudGlub19BbHRvX0FkaWdlMQswCQYDVQQGEwJJVDEPMA0GA1UECAwGSXRh
bGlhMRgwFgYDVQQKDA9FLVZvdGluZyBzeXN0ZW0xIjAgBgNVBAsMGUUtVm90aW5n
IHN5c3RlbSBhdXRob3JpdHkxLTArBgkqhkiG9w0BCQEWHlRyZW50aW5vX0FsdG9f
QWRpZ2VAZXZvdGluZy5pdDAeFw0yMjA4MjYxNTE5MTdaFw0yMzA4MjYxNTE5MTda
MFMxDTALBgNVBAMMBFBhdWwxCzAJBgNVBAYTAklUMQ8wDQYDVQQIDAZJdGFsaWEx
JDAiBgNVBAoMG1JlZ2lvbmUgVHJlbnRpbm9fQWx0b19BZGlnZTBWMBAGByqGSM49
AgEGBSuBBAAKA0IABL+DXG1UBwux2dwXvDfXtb87ulZvQS2huTzD9ELF6gxRt7/4
sqyddwx0/0hmfEq2kl8J58TPqlZIoGbc0t8/COijIzAhMA4GA1UdDwEB/wQEAwIF
oDAPBgNVHRMBAf8EBTADAgEDMAoGCCqGSM49BAMCA0gAMEUCIAewlo76ZJ6+eS9o
o7VFQCPLlNI5nd+lxpMH7XJtZXAZAiEAiQYoWp3dJ920ZSM07uoVSnE1KTelL/Vc
BmRRVjkQ48w=
-----END CERTIFICATE-----
