Certificate:
    Data:
        Version: 3 (0x2)
        Serial Number: 45 (0x2d)
        Signature Algorithm: ecdsa-with-SHA256
        Issuer: CN=Regione Molise, C=IT, ST=Italia, O=E-Voting system, OU=E-Voting system authority/emailAddress=Molise@evoting.it
        Validity
            Not Before: Aug  3 13:28:06 2022 GMT
            Not After : Aug  3 13:28:06 2023 GMT
        Subject: CN=Paul, C=IT, ST=Italia, O=Regione Molise
        Subject Public Key Info:
            Public Key Algorithm: id-ecPublicKey
                Public-Key: (256 bit)
                pub:
                    04:94:91:2d:f6:42:e8:a0:05:48:f7:45:ff:d4:30:
                    37:20:c7:2b:f3:1c:a3:63:3f:a2:0e:41:01:fa:0e:
                    78:9f:b9:c2:c3:a8:07:be:b4:72:fc:1c:7e:74:29:
                    5f:2e:7a:8e:d6:07:1a:08:02:d2:50:01:13:51:ed:
                    71:29:2b:da:4c
                ASN1 OID: prime256v1
                NIST CURVE: P-256
        X509v3 extensions:
            X509v3 Key Usage: critical
                Digital Signature, Key Encipherment
            X509v3 Basic Constraints: critical
                CA:FALSE, pathlen:3
    Signature Algorithm: ecdsa-with-SHA256
         30:45:02:21:00:89:c9:59:b4:df:6c:d5:cf:28:e4:b6:c1:5a:
         96:c1:cf:f7:07:a6:09:36:d9:15:90:94:8f:9c:57:21:a4:7a:
         26:02:20:76:d8:be:c6:d0:a8:18:70:9e:31:04:d1:4f:80:23:
         59:56:b1:50:df:a1:65:14:fc:ba:9b:b9:a1:79:7f:ac:aa
-----BEGIN CERTIFICATE-----
MIIB8DCCAZagAwIBAgIBLTAKBggqhkjOPQQDAjCBlzEXMBUGA1UEAwwOUmVnaW9u
ZSBNb2xpc2UxCzAJBgNVBAYTAklUMQ8wDQYDVQQIDAZJdGFsaWExGDAWBgNVBAoM
D0UtVm90aW5nIHN5c3RlbTEiMCAGA1UECwwZRS1Wb3Rpbmcgc3lzdGVtIGF1dGhv
cml0eTEgMB4GCSqGSIb3DQEJARYRTW9saXNlQGV2b3RpbmcuaXQwHhcNMjIwODAz
MTMyODA2WhcNMjMwODAzMTMyODA2WjBGMQ0wCwYDVQQDDARQYXVsMQswCQYDVQQG
EwJJVDEPMA0GA1UECAwGSXRhbGlhMRcwFQYDVQQKDA5SZWdpb25lIE1vbGlzZTBZ
MBMGByqGSM49AgEGCCqGSM49AwEHA0IABJSRLfZC6KAFSPdF/9QwNyDHK/Mco2M/
og5BAfoOeJ+5wsOoB760cvwcfnQpXy56jtYHGggC0lABE1HtcSkr2kyjIzAhMA4G
A1UdDwEB/wQEAwIFoDAPBgNVHRMBAf8EBTADAgEDMAoGCCqGSM49BAMCA0gAMEUC
IQCJyVm032zVzyjktsFalsHP9wemCTbZFZCUj5xXIaR6JgIgdti+xtCoGHCeMQTR
T4AjWVaxUN+hZRT8upu5oXl/rKo=
-----END CERTIFICATE-----
