Certificate:
    Data:
        Version: 3 (0x2)
        Serial Number: 11 (0xb)
        Signature Algorithm: ecdsa-with-SHA256
        Issuer: CN=Regione Marche, C=IT, ST=Italia, O=E-Voting system, OU=E-Voting system authority/emailAddress=Marche@evoting.it
        Validity
            Not Before: Aug 26 15:19:27 2022 GMT
            Not After : Aug 26 15:19:27 2023 GMT
        Subject: CN=Pauline, C=IT, ST=Italia, O=Regione Marche
        Subject Public Key Info:
            Public Key Algorithm: id-ecPublicKey
                Public-Key: (256 bit)
                pub:
                    04:c0:c9:f6:49:3a:bd:54:b5:cd:60:33:0e:cd:0d:
                    8c:e3:94:6e:9f:1b:9c:52:3c:7a:35:63:7c:04:1a:
                    ed:13:b0:58:ef:b9:13:be:ee:0b:47:36:92:38:47:
                    85:c8:1d:1b:0b:c6:90:9a:d9:b0:2f:0d:d1:f6:b1:
                    f8:4f:2f:1a:ae
                ASN1 OID: secp256k1
        X509v3 extensions:
            X509v3 Key Usage: critical
                Digital Signature, Key Encipherment
            X509v3 Basic Constraints: critical
                CA:FALSE, pathlen:3
    Signature Algorithm: ecdsa-with-SHA256
         30:45:02:20:33:36:3b:ba:84:49:8b:a5:ba:d1:46:cf:5a:d7:
         df:6d:cf:83:83:7c:ee:de:9e:66:5a:d5:56:df:18:54:d0:a8:
         02:21:00:f1:bd:6d:95:bc:a1:a7:6a:45:af:15:3e:a6:67:af:
         cd:0c:96:b5:03:10:0b:61:2c:fd:4a:bb:8a:59:2a:91:35
-----BEGIN CERTIFICATE-----
MIIB8DCCAZagAwIBAgIBCzAKBggqhkjOPQQDAjCBlzEXMBUGA1UEAwwOUmVnaW9u
ZSBNYXJjaGUxCzAJBgNVBAYTAklUMQ8wDQYDVQQIDAZJdGFsaWExGDAWBgNVBAoM
D0UtVm90aW5nIHN5c3RlbTEiMCAGA1UECwwZRS1Wb3Rpbmcgc3lzdGVtIGF1dGhv
cml0eTEgMB4GCSqGSIb3DQEJARYRTWFyY2hlQGV2b3RpbmcuaXQwHhcNMjIwODI2
MTUxOTI3WhcNMjMwODI2MTUxOTI3WjBJMRAwDgYDVQQDDAdQYXVsaW5lMQswCQYD
VQQGEwJJVDEPMA0GA1UECAwGSXRhbGlhMRcwFQYDVQQKDA5SZWdpb25lIE1hcmNo
ZTBWMBAGByqGSM49AgEGBSuBBAAKA0IABMDJ9kk6vVS1zWAzDs0NjOOUbp8bnFI8
ejVjfAQa7ROwWO+5E77uC0c2kjhHhcgdGwvGkJrZsC8N0fax+E8vGq6jIzAhMA4G
A1UdDwEB/wQEAwIFoDAPBgNVHRMBAf8EBTADAgEDMAoGCCqGSM49BAMCA0gAMEUC
IDM2O7qESYulutFGz1rX323Pg4N87t6eZlrVVt8YVNCoAiEA8b1tlbyhp2pFrxU+
pmevzQyWtQMQC2Es/Uq7ilkqkTU=
-----END CERTIFICATE-----
