Certificate:
    Data:
        Version: 3 (0x2)
        Serial Number: 46 (0x2e)
        Signature Algorithm: ecdsa-with-SHA256
        Issuer: CN=Regione Lombardia, C=IT, ST=Italia, O=E-Voting system, OU=E-Voting system authority/emailAddress=Lombardia@evoting.it
        Validity
            Not Before: Aug  3 13:28:15 2022 GMT
            Not After : Aug  3 13:28:15 2023 GMT
        Subject: CN=Pauline, C=IT, ST=Italia, O=Regione Lombardia
        Subject Public Key Info:
            Public Key Algorithm: id-ecPublicKey
                Public-Key: (256 bit)
                pub:
                    04:c3:ba:38:05:47:00:07:1b:1c:2d:4f:52:36:08:
                    d1:83:8a:96:3d:c5:b2:1b:e8:9b:a5:14:c2:d0:05:
                    0f:c5:0e:de:1e:56:74:00:93:41:1c:11:11:52:68:
                    d8:9b:a0:63:eb:c3:d5:41:78:d0:6e:40:1a:82:37:
                    56:11:01:68:24
                ASN1 OID: prime256v1
                NIST CURVE: P-256
        X509v3 extensions:
            X509v3 Key Usage: critical
                Digital Signature, Key Encipherment
            X509v3 Basic Constraints: critical
                CA:FALSE, pathlen:3
    Signature Algorithm: ecdsa-with-SHA256
         30:45:02:21:00:e1:93:f6:e8:c2:08:51:2c:18:16:6a:83:95:
         c4:67:92:4b:95:5a:bd:0b:43:f6:2c:70:a0:f3:6b:a6:ae:8b:
         ad:02:20:4b:8c:72:ad:c3:0e:ee:c6:b0:0d:a3:ab:1d:c1:44:
         46:cb:0c:38:2d:da:23:17:12:92:7c:cf:7c:ec:52:09:33
-----BEGIN CERTIFICATE-----
MIIB/DCCAaKgAwIBAgIBLjAKBggqhkjOPQQDAjCBnTEaMBgGA1UEAwwRUmVnaW9u
ZSBMb21iYXJkaWExCzAJBgNVBAYTAklUMQ8wDQYDVQQIDAZJdGFsaWExGDAWBgNV
BAoMD0UtVm90aW5nIHN5c3RlbTEiMCAGA1UECwwZRS1Wb3Rpbmcgc3lzdGVtIGF1
dGhvcml0eTEjMCEGCSqGSIb3DQEJARYUTG9tYmFyZGlhQGV2b3RpbmcuaXQwHhcN
MjIwODAzMTMyODE1WhcNMjMwODAzMTMyODE1WjBMMRAwDgYDVQQDDAdQYXVsaW5l
MQswCQYDVQQGEwJJVDEPMA0GA1UECAwGSXRhbGlhMRowGAYDVQQKDBFSZWdpb25l
IExvbWJhcmRpYTBZMBMGByqGSM49AgEGCCqGSM49AwEHA0IABMO6OAVHAAcbHC1P
UjYI0YOKlj3Fshvom6UUwtAFD8UO3h5WdACTQRwREVJo2JugY+vD1UF40G5AGoI3
VhEBaCSjIzAhMA4GA1UdDwEB/wQEAwIFoDAPBgNVHRMBAf8EBTADAgEDMAoGCCqG
SM49BAMCA0gAMEUCIQDhk/bowghRLBgWaoOVxGeSS5VavQtD9ixwoPNrpq6LrQIg
S4xyrcMO7sawDaOrHcFERssMOC3aIxcSknzPfOxSCTM=
-----END CERTIFICATE-----
