Certificate:
    Data:
        Version: 3 (0x2)
        Serial Number: 18 (0x12)
        Signature Algorithm: ecdsa-with-SHA256
        Issuer: CN=Regione Basilicata, C=IT, ST=Italia, O=E-Voting system, OU=E-Voting system authority/emailAddress=Basilicata@evoting.it
        Validity
            Not Before: Aug  3 13:26:20 2022 GMT
            Not After : Aug  3 13:26:20 2023 GMT
        Subject: CN=Paula, C=IT, ST=Italia, O=Regione Basilicata
        Subject Public Key Info:
            Public Key Algorithm: id-ecPublicKey
                Public-Key: (256 bit)
                pub:
                    04:7e:41:c8:83:a2:8f:05:31:3c:03:b0:0b:ce:f9:
                    37:34:01:79:4b:04:a4:21:5f:04:d1:f8:0d:ae:48:
                    10:2a:03:3d:66:12:04:79:53:af:f1:88:32:b6:e6:
                    00:f4:fa:88:a1:27:44:d4:1f:6a:52:c4:22:42:f3:
                    b3:40:e4:3b:f4
                ASN1 OID: prime256v1
                NIST CURVE: P-256
        X509v3 extensions:
            X509v3 Key Usage: critical
                Digital Signature, Key Encipherment
            X509v3 Basic Constraints: critical
                CA:FALSE, pathlen:3
    Signature Algorithm: ecdsa-with-SHA256
         30:45:02:20:5d:8b:5b:07:b5:cb:00:92:0f:4f:c2:28:07:e3:
         2e:d8:a0:b0:a2:58:34:7d:68:1b:f4:29:57:db:32:59:55:35:
         02:21:00:d4:90:f6:01:7e:b6:9a:e7:db:b6:02:83:87:b2:6e:
         6d:8a:e3:78:c5:af:ac:79:66:be:b6:29:ae:25:7a:b4:05
-----BEGIN CERTIFICATE-----
MIIB/TCCAaOgAwIBAgIBEjAKBggqhkjOPQQDAjCBnzEbMBkGA1UEAwwSUmVnaW9u
ZSBCYXNpbGljYXRhMQswCQYDVQQGEwJJVDEPMA0GA1UECAwGSXRhbGlhMRgwFgYD
VQQKDA9FLVZvdGluZyBzeXN0ZW0xIjAgBgNVBAsMGUUtVm90aW5nIHN5c3RlbSBh
dXRob3JpdHkxJDAiBgkqhkiG9w0BCQEWFUJhc2lsaWNhdGFAZXZvdGluZy5pdDAe
Fw0yMjA4MDMxMzI2MjBaFw0yMzA4MDMxMzI2MjBaMEsxDjAMBgNVBAMMBVBhdWxh
MQswCQYDVQQGEwJJVDEPMA0GA1UECAwGSXRhbGlhMRswGQYDVQQKDBJSZWdpb25l
IEJhc2lsaWNhdGEwWTATBgcqhkjOPQIBBggqhkjOPQMBBwNCAAR+QciDoo8FMTwD
sAvO+Tc0AXlLBKQhXwTR+A2uSBAqAz1mEgR5U6/xiDK25gD0+oihJ0TUH2pSxCJC
87NA5Dv0oyMwITAOBgNVHQ8BAf8EBAMCBaAwDwYDVR0TAQH/BAUwAwIBAzAKBggq
hkjOPQQDAgNIADBFAiBdi1sHtcsAkg9PwigH4y7YoLCiWDR9aBv0KVfbMllVNQIh
ANSQ9gF+tprn27YCg4eybm2K43jFr6x5Zr62Ka4lerQF
-----END CERTIFICATE-----
