Certificate:
    Data:
        Version: 3 (0x2)
        Serial Number: 27 (0x1b)
        Signature Algorithm: ecdsa-with-SHA256
        Issuer: CN=Regione Molise, C=IT, ST=Italia, O=E-Voting system, OU=E-Voting system authority/emailAddress=Molise@evoting.it
        Validity
            Not Before: Aug  3 13:27:13 2022 GMT
            Not After : Aug  3 13:27:13 2023 GMT
        Subject: CN=Paulette, C=IT, ST=Italia, O=Regione Molise
        Subject Public Key Info:
            Public Key Algorithm: id-ecPublicKey
                Public-Key: (256 bit)
                pub:
                    04:da:4b:03:1c:6c:53:8e:c1:e8:6a:30:76:2f:bc:
                    08:bd:8d:58:3a:de:e1:37:af:1e:b4:a0:35:44:fc:
                    1d:e5:04:90:be:f2:1a:c8:35:a5:c9:49:4c:35:5d:
                    b2:01:f6:44:0b:78:f1:8a:ce:32:9d:78:0b:1c:14:
                    3f:3b:70:da:0c
                ASN1 OID: prime256v1
                NIST CURVE: P-256
        X509v3 extensions:
            X509v3 Key Usage: critical
                Digital Signature, Key Encipherment
            X509v3 Basic Constraints: critical
                CA:FALSE, pathlen:3
    Signature Algorithm: ecdsa-with-SHA256
         30:46:02:21:00:85:e8:9c:84:cd:05:bf:71:91:22:1c:74:4e:
         c0:1a:e9:4c:f2:53:77:cc:3f:ab:f8:a1:7a:ea:bd:50:44:23:
         e9:02:21:00:f4:40:6b:91:34:36:6b:2e:ba:30:25:ae:52:7f:
         67:4c:01:52:c8:de:2e:60:bd:47:bd:e2:55:97:7a:22:b4:42
-----BEGIN CERTIFICATE-----
MIIB9TCCAZqgAwIBAgIBGzAKBggqhkjOPQQDAjCBlzEXMBUGA1UEAwwOUmVnaW9u
ZSBNb2xpc2UxCzAJBgNVBAYTAklUMQ8wDQYDVQQIDAZJdGFsaWExGDAWBgNVBAoM
D0UtVm90aW5nIHN5c3RlbTEiMCAGA1UECwwZRS1Wb3Rpbmcgc3lzdGVtIGF1dGhv
cml0eTEgMB4GCSqGSIb3DQEJARYRTW9saXNlQGV2b3RpbmcuaXQwHhcNMjIwODAz
MTMyNzEzWhcNMjMwODAzMTMyNzEzWjBKMREwDwYDVQQDDAhQYXVsZXR0ZTELMAkG
A1UEBhMCSVQxDzANBgNVBAgMBkl0YWxpYTEXMBUGA1UECgwOUmVnaW9uZSBNb2xp
c2UwWTATBgcqhkjOPQIBBggqhkjOPQMBBwNCAATaSwMcbFOOwehqMHYvvAi9jVg6
3uE3rx60oDVE/B3lBJC+8hrINaXJSUw1XbIB9kQLePGKzjKdeAscFD87cNoMoyMw
ITAOBgNVHQ8BAf8EBAMCBaAwDwYDVR0TAQH/BAUwAwIBAzAKBggqhkjOPQQDAgNJ
ADBGAiEAheichM0Fv3GRIhx0TsAa6UzyU3fMP6v4oXrqvVBEI+kCIQD0QGuRNDZr
LrowJa5Sf2dMAVLI3i5gvUe94lWXeiK0Qg==
-----END CERTIFICATE-----
