Certificate:
    Data:
        Version: 3 (0x2)
        Serial Number: 18 (0x12)
        Signature Algorithm: ecdsa-with-SHA256
        Issuer: CN=Regione Sardegna, C=IT, ST=Italia, O=E-Voting system, OU=E-Voting system authority/emailAddress=Sardegna@evoting.it
        Validity
            Not Before: Aug 26 15:19:54 2022 GMT
            Not After : Aug 26 15:19:54 2023 GMT
        Subject: CN=Paula, C=IT, ST=Italia, O=Regione Sardegna
        Subject Public Key Info:
            Public Key Algorithm: id-ecPublicKey
                Public-Key: (256 bit)
                pub:
                    04:eb:84:67:9b:f1:67:95:4c:5f:65:d4:35:a0:7e:
                    45:d3:3e:a7:91:57:f4:ba:5b:47:1f:b5:3d:46:c3:
                    63:b0:92:36:02:be:75:99:3c:dc:82:0a:4b:2d:59:
                    f0:61:ad:89:d6:1e:51:7c:28:60:00:db:7b:6e:06:
                    a2:52:f7:3a:a3
                ASN1 OID: secp256k1
        X509v3 extensions:
            X509v3 Key Usage: critical
                Digital Signature, Key Encipherment
            X509v3 Basic Constraints: critical
                CA:FALSE, pathlen:3
    Signature Algorithm: ecdsa-with-SHA256
         30:46:02:21:00:82:58:23:ee:43:bc:cf:ac:40:5a:04:82:f3:
         2e:ca:80:d2:09:db:29:d8:56:f3:b0:b5:06:26:2c:f6:58:5e:
         43:02:21:00:e6:90:70:22:26:e6:b2:ed:2b:43:31:c9:3e:86:
         6f:f4:1a:c9:10:31:ce:10:06:9f:ca:dc:f1:f2:34:3b:c7:89
-----BEGIN CERTIFICATE-----
MIIB9TCCAZqgAwIBAgIBEjAKBggqhkjOPQQDAjCBmzEZMBcGA1UEAwwQUmVnaW9u
ZSBTYXJkZWduYTELMAkGA1UEBhMCSVQxDzANBgNVBAgMBkl0YWxpYTEYMBYGA1UE
CgwPRS1Wb3Rpbmcgc3lzdGVtMSIwIAYDVQQLDBlFLVZvdGluZyBzeXN0ZW0gYXV0
aG9yaXR5MSIwIAYJKoZIhvcNAQkBFhNTYXJkZWduYUBldm90aW5nLml0MB4XDTIy
MDgyNjE1MTk1NFoXDTIzMDgyNjE1MTk1NFowSTEOMAwGA1UEAwwFUGF1bGExCzAJ
BgNVBAYTAklUMQ8wDQYDVQQIDAZJdGFsaWExGTAXBgNVBAoMEFJlZ2lvbmUgU2Fy
ZGVnbmEwVjAQBgcqhkjOPQIBBgUrgQQACgNCAATrhGeb8WeVTF9l1DWgfkXTPqeR
V/S6W0cftT1Gw2OwkjYCvnWZPNyCCkstWfBhrYnWHlF8KGAA23tuBqJS9zqjoyMw
ITAOBgNVHQ8BAf8EBAMCBaAwDwYDVR0TAQH/BAUwAwIBAzAKBggqhkjOPQQDAgNJ
ADBGAiEAglgj7kO8z6xAWgSC8y7KgNIJ2ynYVvOwtQYmLPZYXkMCIQDmkHAiJuay
7StDMck+hm/0GskQMc4QBp/K3PHyNDvHiQ==
-----END CERTIFICATE-----
