Certificate:
    Data:
        Version: 3 (0x2)
        Serial Number: 50 (0x32)
        Signature Algorithm: ecdsa-with-SHA256
        Issuer: CN=Regione Lombardia, C=IT, ST=Italia, O=E-Voting system, OU=E-Voting system authority/emailAddress=Lombardia@evoting.it
        Validity
            Not Before: Aug  3 13:28:38 2022 GMT
            Not After : Aug  3 13:28:38 2023 GMT
        Subject: CN=Pearl, C=IT, ST=Italia, O=Regione Lombardia
        Subject Public Key Info:
            Public Key Algorithm: id-ecPublicKey
                Public-Key: (256 bit)
                pub:
                    04:47:c9:67:8d:0a:a1:6a:91:d0:23:89:64:53:7e:
                    ad:82:91:86:e2:ef:a5:2d:bb:ea:f7:0f:69:06:f9:
                    45:c1:a7:47:53:a8:c1:88:1e:2d:b4:de:06:ce:ea:
                    3e:e6:17:ba:48:5b:f4:95:d4:f3:09:ce:d3:63:60:
                    77:0b:ff:13:78
                ASN1 OID: prime256v1
                NIST CURVE: P-256
        X509v3 extensions:
            X509v3 Key Usage: critical
                Digital Signature, Key Encipherment
            X509v3 Basic Constraints: critical
                CA:FALSE, pathlen:3
    Signature Algorithm: ecdsa-with-SHA256
         30:46:02:21:00:b6:b3:3f:c9:72:b3:f5:99:a4:f9:ae:b6:c6:
         f6:19:6c:8f:30:04:dc:b3:3b:4f:33:53:74:83:52:c8:84:47:
         3a:02:21:00:d6:57:df:aa:52:7a:0e:db:10:9b:14:ea:86:5d:
         44:fc:1a:7e:45:e2:c4:b4:26:fe:9e:21:d3:11:af:2a:03:38
-----BEGIN CERTIFICATE-----
MIIB+zCCAaCgAwIBAgIBMjAKBggqhkjOPQQDAjCBnTEaMBgGA1UEAwwRUmVnaW9u
ZSBMb21iYXJkaWExCzAJBgNVBAYTAklUMQ8wDQYDVQQIDAZJdGFsaWExGDAWBgNV
BAoMD0UtVm90aW5nIHN5c3RlbTEiMCAGA1UECwwZRS1Wb3Rpbmcgc3lzdGVtIGF1
dGhvcml0eTEjMCEGCSqGSIb3DQEJARYUTG9tYmFyZGlhQGV2b3RpbmcuaXQwHhcN
MjIwODAzMTMyODM4WhcNMjMwODAzMTMyODM4WjBKMQ4wDAYDVQQDDAVQZWFybDEL
MAkGA1UEBhMCSVQxDzANBgNVBAgMBkl0YWxpYTEaMBgGA1UECgwRUmVnaW9uZSBM
b21iYXJkaWEwWTATBgcqhkjOPQIBBggqhkjOPQMBBwNCAARHyWeNCqFqkdAjiWRT
fq2CkYbi76Utu+r3D2kG+UXBp0dTqMGIHi203gbO6j7mF7pIW/SV1PMJztNjYHcL
/xN4oyMwITAOBgNVHQ8BAf8EBAMCBaAwDwYDVR0TAQH/BAUwAwIBAzAKBggqhkjO
PQQDAgNJADBGAiEAtrM/yXKz9Zmk+a62xvYZbI8wBNyzO08zU3SDUsiERzoCIQDW
V9+qUnoO2xCbFOqGXUT8Gn5F4sS0Jv6eIdMRryoDOA==
-----END CERTIFICATE-----
