Certificate:
    Data:
        Version: 3 (0x2)
        Serial Number: 48 (0x30)
        Signature Algorithm: ecdsa-with-SHA256
        Issuer: CN=Regione Molise, C=IT, ST=Italia, O=E-Voting system, OU=E-Voting system authority/emailAddress=Molise@evoting.it
        Validity
            Not Before: Aug 26 15:21:46 2022 GMT
            Not After : Aug 26 15:21:46 2023 GMT
        Subject: CN=Peggy, C=IT, ST=Italia, O=Regione Molise
        Subject Public Key Info:
            Public Key Algorithm: id-ecPublicKey
                Public-Key: (256 bit)
                pub:
                    04:73:6d:72:94:df:30:49:96:e8:c7:b2:75:82:95:
                    69:87:27:11:7f:84:4c:96:71:9d:e0:30:da:d6:91:
                    50:46:3a:ad:45:24:da:c9:fa:a6:cf:ce:30:b0:7c:
                    6d:36:c0:11:4d:13:76:71:91:0c:ca:79:a1:a2:7c:
                    92:cf:7e:15:d8
                ASN1 OID: secp256k1
        X509v3 extensions:
            X509v3 Key Usage: critical
                Digital Signature, Key Encipherment
            X509v3 Basic Constraints: critical
                CA:FALSE, pathlen:3
    Signature Algorithm: ecdsa-with-SHA256
         30:45:02:20:46:74:18:38:2a:d0:b4:7b:26:5a:37:12:de:7a:
         cf:b0:2f:54:c7:6b:d0:3f:05:23:da:8d:a1:44:53:3d:17:f3:
         02:21:00:c6:cd:d2:c7:21:40:ea:c4:d4:f7:5a:a4:1b:7e:c7:
         e0:b2:0a:34:62:7a:d0:98:24:42:29:bd:7c:81:40:c6:0a
-----BEGIN CERTIFICATE-----
MIIB7jCCAZSgAwIBAgIBMDAKBggqhkjOPQQDAjCBlzEXMBUGA1UEAwwOUmVnaW9u
ZSBNb2xpc2UxCzAJBgNVBAYTAklUMQ8wDQYDVQQIDAZJdGFsaWExGDAWBgNVBAoM
D0UtVm90aW5nIHN5c3RlbTEiMCAGA1UECwwZRS1Wb3Rpbmcgc3lzdGVtIGF1dGhv
cml0eTEgMB4GCSqGSIb3DQEJARYRTW9saXNlQGV2b3RpbmcuaXQwHhcNMjIwODI2
MTUyMTQ2WhcNMjMwODI2MTUyMTQ2WjBHMQ4wDAYDVQQDDAVQZWdneTELMAkGA1UE
BhMCSVQxDzANBgNVBAgMBkl0YWxpYTEXMBUGA1UECgwOUmVnaW9uZSBNb2xpc2Uw
VjAQBgcqhkjOPQIBBgUrgQQACgNCAARzbXKU3zBJlujHsnWClWmHJxF/hEyWcZ3g
MNrWkVBGOq1FJNrJ+qbPzjCwfG02wBFNE3ZxkQzKeaGifJLPfhXYoyMwITAOBgNV
HQ8BAf8EBAMCBaAwDwYDVR0TAQH/BAUwAwIBAzAKBggqhkjOPQQDAgNIADBFAiBG
dBg4KtC0eyZaNxLees+wL1THa9A/BSPajaFEUz0X8wIhAMbN0schQOrE1PdapBt+
x+CyCjRietCYJEIpvXyBQMYK
-----END CERTIFICATE-----
