Certificate:
    Data:
        Version: 3 (0x2)
        Serial Number: 51 (0x33)
        Signature Algorithm: ecdsa-with-SHA256
        Issuer: CN=Regione Basilicata, C=IT, ST=Italia, O=E-Voting system, OU=E-Voting system authority/emailAddress=Basilicata@evoting.it
        Validity
            Not Before: Aug  3 13:28:34 2022 GMT
            Not After : Aug  3 13:28:34 2023 GMT
        Subject: CN=Peggy, C=IT, ST=Italia, O=Regione Basilicata
        Subject Public Key Info:
            Public Key Algorithm: id-ecPublicKey
                Public-Key: (256 bit)
                pub:
                    04:d4:65:52:72:b5:05:45:9a:ce:e6:33:d6:f7:74:
                    d5:96:f7:b3:d2:44:bf:13:ff:54:21:6e:c8:8b:54:
                    8b:83:56:0e:8c:53:c7:0d:d5:d7:71:f5:29:0d:4d:
                    df:fa:75:bb:a5:10:82:f0:d6:2d:63:ed:8a:7d:96:
                    6c:8e:4c:db:b1
                ASN1 OID: prime256v1
                NIST CURVE: P-256
        X509v3 extensions:
            X509v3 Key Usage: critical
                Digital Signature, Key Encipherment
            X509v3 Basic Constraints: critical
                CA:FALSE, pathlen:3
    Signature Algorithm: ecdsa-with-SHA256
         30:44:02:20:3b:ba:56:b0:e9:04:73:2b:4c:3c:47:9d:d8:98:
         7a:dc:e2:43:61:3d:77:4c:5b:3e:b2:2f:37:c3:dd:72:d6:88:
         02:20:24:d6:9f:ee:f9:16:ef:ee:d5:c3:8b:1d:9c:9f:16:cf:
         ef:0c:9f:14:91:8a:f5:1b:03:57:19:3b:60:a3:9d:a3
-----BEGIN CERTIFICATE-----
MIIB/DCCAaOgAwIBAgIBMzAKBggqhkjOPQQDAjCBnzEbMBkGA1UEAwwSUmVnaW9u
ZSBCYXNpbGljYXRhMQswCQYDVQQGEwJJVDEPMA0GA1UECAwGSXRhbGlhMRgwFgYD
VQQKDA9FLVZvdGluZyBzeXN0ZW0xIjAgBgNVBAsMGUUtVm90aW5nIHN5c3RlbSBh
dXRob3JpdHkxJDAiBgkqhkiG9w0BCQEWFUJhc2lsaWNhdGFAZXZvdGluZy5pdDAe
Fw0yMjA4MDMxMzI4MzRaFw0yMzA4MDMxMzI4MzRaMEsxDjAMBgNVBAMMBVBlZ2d5
MQswCQYDVQQGEwJJVDEPMA0GA1UECAwGSXRhbGlhMRswGQYDVQQKDBJSZWdpb25l
IEJhc2lsaWNhdGEwWTATBgcqhkjOPQIBBggqhkjOPQMBBwNCAATUZVJytQVFms7m
M9b3dNWW97PSRL8T/1QhbsiLVIuDVg6MU8cN1ddx9SkNTd/6dbulEILw1i1j7Yp9
lmyOTNuxoyMwITAOBgNVHQ8BAf8EBAMCBaAwDwYDVR0TAQH/BAUwAwIBAzAKBggq
hkjOPQQDAgNHADBEAiA7ulaw6QRzK0w8R53YmHrc4kNhPXdMWz6yLzfD3XLWiAIg
JNaf7vkW7+7Vw4sdnJ8Wz+8MnxSRivUbA1cZO2CjnaM=
-----END CERTIFICATE-----
