Certificate:
    Data:
        Version: 3 (0x2)
        Serial Number: 43 (0x2b)
        Signature Algorithm: ecdsa-with-SHA256
        Issuer: CN=Regione Lazio, C=IT, ST=Italia, O=E-Voting system, OU=E-Voting system authority/emailAddress=Lazio@evoting.it
        Validity
            Not Before: Aug  3 13:28:08 2022 GMT
            Not After : Aug  3 13:28:08 2023 GMT
        Subject: CN=Penny, C=IT, ST=Italia, O=Regione Lazio
        Subject Public Key Info:
            Public Key Algorithm: id-ecPublicKey
                Public-Key: (256 bit)
                pub:
                    04:b6:fc:3f:a1:ba:60:ca:78:21:1d:e2:db:4a:64:
                    97:08:31:ee:ec:11:f8:55:e9:bd:de:1b:ea:4b:67:
                    1b:0a:2e:8d:92:7d:f1:f0:e4:27:b1:8d:47:fd:42:
                    a0:73:63:79:62:7b:07:22:34:6a:d0:d0:e6:4c:3b:
                    b2:b6:0c:ee:21
                ASN1 OID: prime256v1
                NIST CURVE: P-256
        X509v3 extensions:
            X509v3 Key Usage: critical
                Digital Signature, Key Encipherment
            X509v3 Basic Constraints: critical
                CA:FALSE, pathlen:3
    Signature Algorithm: ecdsa-with-SHA256
         30:45:02:21:00:d0:7f:96:ad:43:7c:a3:c9:62:5e:98:63:ab:
         07:eb:09:1e:ee:d6:07:c9:72:8d:cc:b9:b0:e1:c7:63:f4:0d:
         52:02:20:42:b5:62:fb:e3:73:97:c2:96:9d:54:2c:52:77:2b:
         d3:59:e9:22:e1:70:29:1c:2c:da:70:17:fe:be:83:7f:c9
-----BEGIN CERTIFICATE-----
MIIB7jCCAZSgAwIBAgIBKzAKBggqhkjOPQQDAjCBlTEWMBQGA1UEAwwNUmVnaW9u
ZSBMYXppbzELMAkGA1UEBhMCSVQxDzANBgNVBAgMBkl0YWxpYTEYMBYGA1UECgwP
RS1Wb3Rpbmcgc3lzdGVtMSIwIAYDVQQLDBlFLVZvdGluZyBzeXN0ZW0gYXV0aG9y
aXR5MR8wHQYJKoZIhvcNAQkBFhBMYXppb0Bldm90aW5nLml0MB4XDTIyMDgwMzEz
MjgwOFoXDTIzMDgwMzEzMjgwOFowRjEOMAwGA1UEAwwFUGVubnkxCzAJBgNVBAYT
AklUMQ8wDQYDVQQIDAZJdGFsaWExFjAUBgNVBAoMDVJlZ2lvbmUgTGF6aW8wWTAT
BgcqhkjOPQIBBggqhkjOPQMBBwNCAAS2/D+humDKeCEd4ttKZJcIMe7sEfhV6b3e
G+pLZxsKLo2SffHw5CexjUf9QqBzY3liewciNGrQ0OZMO7K2DO4hoyMwITAOBgNV
HQ8BAf8EBAMCBaAwDwYDVR0TAQH/BAUwAwIBAzAKBggqhkjOPQQDAgNIADBFAiEA
0H+WrUN8o8liXphjqwfrCR7u1gfJco3MubDhx2P0DVICIEK1Yvvjc5fClp1ULFJ3
K9NZ6SLhcCkcLNpwF/6+g3/J
-----END CERTIFICATE-----
