Certificate:
    Data:
        Version: 3 (0x2)
        Serial Number: 21 (0x15)
        Signature Algorithm: ecdsa-with-SHA256
        Issuer: CN=Regione Lazio, C=IT, ST=Italia, O=E-Voting system, OU=E-Voting system authority/emailAddress=Lazio@evoting.it
        Validity
            Not Before: Aug 26 15:19:41 2022 GMT
            Not After : Aug 26 15:19:41 2023 GMT
        Subject: CN=Penny, C=IT, ST=Italia, O=Regione Lazio
        Subject Public Key Info:
            Public Key Algorithm: id-ecPublicKey
                Public-Key: (256 bit)
                pub:
                    04:40:44:78:7c:f5:1f:5f:c5:84:fa:ae:4a:37:a4:
                    9b:69:34:86:b3:e2:62:da:85:7b:20:ef:05:c2:e4:
                    43:98:b0:bb:c8:c8:d5:e5:9f:5d:c3:61:2e:ec:af:
                    b2:0c:8b:1a:0f:ec:d1:ca:17:9b:bf:4e:89:13:b8:
                    0d:99:ac:fa:c2
                ASN1 OID: secp256k1
        X509v3 extensions:
            X509v3 Key Usage: critical
                Digital Signature, Key Encipherment
            X509v3 Basic Constraints: critical
                CA:FALSE, pathlen:3
    Signature Algorithm: ecdsa-with-SHA256
         30:45:02:21:00:c8:02:ca:80:a8:b2:77:7a:dd:2c:42:69:57:
         a6:14:e5:62:70:e3:37:f8:e8:dc:f2:c5:9d:78:fa:4c:c4:5e:
         ad:02:20:54:e6:4b:39:a2:02:71:aa:68:4e:c4:3e:04:32:c6:
         3d:1b:8c:40:75:b6:8b:61:64:0f:9b:76:a4:f2:93:5e:7c
-----BEGIN CERTIFICATE-----
MIIB6zCCAZGgAwIBAgIBFTAKBggqhkjOPQQDAjCBlTEWMBQGA1UEAwwNUmVnaW9u
ZSBMYXppbzELMAkGA1UEBhMCSVQxDzANBgNVBAgMBkl0YWxpYTEYMBYGA1UECgwP
RS1Wb3Rpbmcgc3lzdGVtMSIwIAYDVQQLDBlFLVZvdGluZyBzeXN0ZW0gYXV0aG9y
aXR5MR8wHQYJKoZIhvcNAQkBFhBMYXppb0Bldm90aW5nLml0MB4XDTIyMDgyNjE1
MTk0MVoXDTIzMDgyNjE1MTk0MVowRjEOMAwGA1UEAwwFUGVubnkxCzAJBgNVBAYT
AklUMQ8wDQYDVQQIDAZJdGFsaWExFjAUBgNVBAoMDVJlZ2lvbmUgTGF6aW8wVjAQ
BgcqhkjOPQIBBgUrgQQACgNCAARARHh89R9fxYT6rko3pJtpNIaz4mLahXsg7wXC
5EOYsLvIyNXln13DYS7sr7IMixoP7NHKF5u/TokTuA2ZrPrCoyMwITAOBgNVHQ8B
Af8EBAMCBaAwDwYDVR0TAQH/BAUwAwIBAzAKBggqhkjOPQQDAgNIADBFAiEAyALK
gKiyd3rdLEJpV6YU5WJw4zf46NzyxZ14+kzEXq0CIFTmSzmiAnGqaE7EPgQyxj0b
jEB1tothZA+bdqTyk158
-----END CERTIFICATE-----
