Certificate:
    Data:
        Version: 3 (0x2)
        Serial Number: 40 (0x28)
        Signature Algorithm: ecdsa-with-SHA256
        Issuer: CN=Regione Piemonte, C=IT, ST=Italia, O=E-Voting system, OU=E-Voting system authority/emailAddress=Piemonte@evoting.it
        Validity
            Not Before: Aug 26 15:21:19 2022 GMT
            Not After : Aug 26 15:21:19 2023 GMT
        Subject: CN=Peter, C=IT, ST=Italia, O=Regione Piemonte
        Subject Public Key Info:
            Public Key Algorithm: id-ecPublicKey
                Public-Key: (256 bit)
                pub:
                    04:77:ce:aa:ad:89:d6:65:ea:f0:15:70:82:cd:cd:
                    4c:59:aa:6d:4d:7a:09:9a:66:7c:30:bc:a2:36:c6:
                    51:f7:a9:be:09:99:f8:57:64:e4:2c:c5:5c:6f:1f:
                    85:9b:43:e5:1e:d6:0d:6f:34:9e:17:02:95:fe:10:
                    a3:ad:ba:3e:0c
                ASN1 OID: secp256k1
        X509v3 extensions:
            X509v3 Key Usage: critical
                Digital Signature, Key Encipherment
            X509v3 Basic Constraints: critical
                CA:FALSE, pathlen:3
    Signature Algorithm: ecdsa-with-SHA256
         30:45:02:21:00:b2:c1:2f:01:43:5d:79:cc:6a:3a:90:ab:42:
         66:5a:26:e5:d3:01:2e:73:e2:48:42:2f:3a:11:fc:4a:07:70:
         a0:02:20:03:b6:b9:dd:67:83:76:b7:43:6d:c5:af:34:0d:e6:
         11:b1:22:77:3e:39:2c:b1:e2:44:26:56:7b:09:ae:4b:de
-----BEGIN CERTIFICATE-----
MIIB9DCCAZqgAwIBAgIBKDAKBggqhkjOPQQDAjCBmzEZMBcGA1UEAwwQUmVnaW9u
ZSBQaWVtb250ZTELMAkGA1UEBhMCSVQxDzANBgNVBAgMBkl0YWxpYTEYMBYGA1UE
CgwPRS1Wb3Rpbmcgc3lzdGVtMSIwIAYDVQQLDBlFLVZvdGluZyBzeXN0ZW0gYXV0
aG9yaXR5MSIwIAYJKoZIhvcNAQkBFhNQaWVtb250ZUBldm90aW5nLml0MB4XDTIy
MDgyNjE1MjExOVoXDTIzMDgyNjE1MjExOVowSTEOMAwGA1UEAwwFUGV0ZXIxCzAJ
BgNVBAYTAklUMQ8wDQYDVQQIDAZJdGFsaWExGTAXBgNVBAoMEFJlZ2lvbmUgUGll
bW9udGUwVjAQBgcqhkjOPQIBBgUrgQQACgNCAAR3zqqtidZl6vAVcILNzUxZqm1N
egmaZnwwvKI2xlH3qb4JmfhXZOQsxVxvH4WbQ+Ue1g1vNJ4XApX+EKOtuj4MoyMw
ITAOBgNVHQ8BAf8EBAMCBaAwDwYDVR0TAQH/BAUwAwIBAzAKBggqhkjOPQQDAgNI
ADBFAiEAssEvAUNdecxqOpCrQmZaJuXTAS5z4khCLzoR/EoHcKACIAO2ud1ng3a3
Q23FrzQN5hGxInc+OSyx4kQmVnsJrkve
-----END CERTIFICATE-----
