Certificate:
    Data:
        Version: 3 (0x2)
        Serial Number: 23 (0x17)
        Signature Algorithm: ecdsa-with-SHA256
        Issuer: CN=Regione Molise, C=IT, ST=Italia, O=E-Voting system, OU=E-Voting system authority/emailAddress=Molise@evoting.it
        Validity
            Not Before: Aug 26 15:20:16 2022 GMT
            Not After : Aug 26 15:20:16 2023 GMT
        Subject: CN=Pete, C=IT, ST=Italia, O=Regione Molise
        Subject Public Key Info:
            Public Key Algorithm: id-ecPublicKey
                Public-Key: (256 bit)
                pub:
                    04:02:32:b5:43:76:b1:8d:99:b8:bf:87:0c:c1:33:
                    d4:d6:1a:a3:34:b9:25:c8:cf:0e:ab:e9:bc:fc:a9:
                    b6:48:98:6b:0f:01:4f:db:42:71:f8:ab:18:17:d0:
                    ce:49:eb:54:44:df:64:23:b2:1e:5f:fa:92:f0:59:
                    ae:56:82:2b:83
                ASN1 OID: secp256k1
        X509v3 extensions:
            X509v3 Key Usage: critical
                Digital Signature, Key Encipherment
            X509v3 Basic Constraints: critical
                CA:FALSE, pathlen:3
    Signature Algorithm: ecdsa-with-SHA256
         30:45:02:21:00:e4:f8:3b:cb:12:af:12:b8:c4:f6:b6:a4:4d:
         71:72:8c:12:e6:25:a4:2e:5a:f2:99:f7:6e:a0:83:84:af:7f:
         5c:02:20:12:71:1e:f1:a3:69:c2:52:4f:27:b4:41:35:c3:ff:
         52:2e:fa:08:55:d2:96:bb:c4:33:69:50:38:c6:96:1d:30
-----BEGIN CERTIFICATE-----
MIIB7TCCAZOgAwIBAgIBFzAKBggqhkjOPQQDAjCBlzEXMBUGA1UEAwwOUmVnaW9u
ZSBNb2xpc2UxCzAJBgNVBAYTAklUMQ8wDQYDVQQIDAZJdGFsaWExGDAWBgNVBAoM
D0UtVm90aW5nIHN5c3RlbTEiMCAGA1UECwwZRS1Wb3Rpbmcgc3lzdGVtIGF1dGhv
cml0eTEgMB4GCSqGSIb3DQEJARYRTW9saXNlQGV2b3RpbmcuaXQwHhcNMjIwODI2
MTUyMDE2WhcNMjMwODI2MTUyMDE2WjBGMQ0wCwYDVQQDDARQZXRlMQswCQYDVQQG
EwJJVDEPMA0GA1UECAwGSXRhbGlhMRcwFQYDVQQKDA5SZWdpb25lIE1vbGlzZTBW
MBAGByqGSM49AgEGBSuBBAAKA0IABAIytUN2sY2ZuL+HDMEz1NYaozS5JcjPDqvp
vPyptkiYaw8BT9tCcfirGBfQzknrVETfZCOyHl/6kvBZrlaCK4OjIzAhMA4GA1Ud
DwEB/wQEAwIFoDAPBgNVHRMBAf8EBTADAgEDMAoGCCqGSM49BAMCA0gAMEUCIQDk
+DvLEq8SuMT2tqRNcXKMEuYlpC5a8pn3bqCDhK9/XAIgEnEe8aNpwlJPJ7RBNcP/
Ui76CFXSlrvEM2lQOMaWHTA=
-----END CERTIFICATE-----
