Certificate:
    Data:
        Version: 3 (0x2)
        Serial Number: 25 (0x19)
        Signature Algorithm: ecdsa-with-SHA256
        Issuer: CN=Regione Piemonte, C=IT, ST=Italia, O=E-Voting system, OU=E-Voting system authority/emailAddress=Piemonte@evoting.it
        Validity
            Not Before: Aug  3 13:26:39 2022 GMT
            Not After : Aug  3 13:26:39 2023 GMT
        Subject: CN=Pete, C=IT, ST=Italia, O=Regione Piemonte
        Subject Public Key Info:
            Public Key Algorithm: id-ecPublicKey
                Public-Key: (256 bit)
                pub:
                    04:4d:a6:df:1c:29:42:60:4c:fc:71:7e:7f:32:a7:
                    45:9f:23:7a:c6:31:a7:91:ae:30:31:c3:09:de:27:
                    53:3a:cc:3f:4b:8a:8c:be:24:7a:dc:0c:72:da:28:
                    0b:a4:67:61:53:88:fd:6a:7c:b1:0c:8a:c8:e9:b8:
                    8a:99:05:25:bf
                ASN1 OID: prime256v1
                NIST CURVE: P-256
        X509v3 extensions:
            X509v3 Key Usage: critical
                Digital Signature, Key Encipherment
            X509v3 Basic Constraints: critical
                CA:FALSE, pathlen:3
    Signature Algorithm: ecdsa-with-SHA256
         30:45:02:20:2d:31:6c:69:88:1e:e2:e4:f9:69:46:39:a6:d7:
         b7:a8:ee:1f:9e:38:ed:d8:90:ad:3f:1d:9d:87:45:9d:fe:32:
         02:21:00:b6:b2:2d:f2:b9:68:a5:00:c7:18:74:56:dd:d0:8c:
         32:a9:3e:98:77:5a:b7:49:da:2c:75:3e:9a:60:cc:fb:82
-----BEGIN CERTIFICATE-----
MIIB9jCCAZygAwIBAgIBGTAKBggqhkjOPQQDAjCBmzEZMBcGA1UEAwwQUmVnaW9u
ZSBQaWVtb250ZTELMAkGA1UEBhMCSVQxDzANBgNVBAgMBkl0YWxpYTEYMBYGA1UE
CgwPRS1Wb3Rpbmcgc3lzdGVtMSIwIAYDVQQLDBlFLVZvdGluZyBzeXN0ZW0gYXV0
aG9yaXR5MSIwIAYJKoZIhvcNAQkBFhNQaWVtb250ZUBldm90aW5nLml0MB4XDTIy
MDgwMzEzMjYzOVoXDTIzMDgwMzEzMjYzOVowSDENMAsGA1UEAwwEUGV0ZTELMAkG
A1UEBhMCSVQxDzANBgNVBAgMBkl0YWxpYTEZMBcGA1UECgwQUmVnaW9uZSBQaWVt
b250ZTBZMBMGByqGSM49AgEGCCqGSM49AwEHA0IABE2m3xwpQmBM/HF+fzKnRZ8j
esYxp5GuMDHDCd4nUzrMP0uKjL4ketwMctooC6RnYVOI/Wp8sQyKyOm4ipkFJb+j
IzAhMA4GA1UdDwEB/wQEAwIFoDAPBgNVHRMBAf8EBTADAgEDMAoGCCqGSM49BAMC
A0gAMEUCIC0xbGmIHuLk+WlGOabXt6juH5447diQrT8dnYdFnf4yAiEAtrIt8rlo
pQDHGHRW3dCMMqk+mHdat0naLHU+mmDM+4I=
-----END CERTIFICATE-----
