Certificate:
    Data:
        Version: 3 (0x2)
        Serial Number: 47 (0x2f)
        Signature Algorithm: ecdsa-with-SHA256
        Issuer: CN=Regione Puglia, C=IT, ST=Italia, O=E-Voting system, OU=E-Voting system authority/emailAddress=Puglia@evoting.it
        Validity
            Not Before: Aug 26 15:21:18 2022 GMT
            Not After : Aug 26 15:21:18 2023 GMT
        Subject: CN=Phillis, C=IT, ST=Italia, O=Regione Puglia
        Subject Public Key Info:
            Public Key Algorithm: id-ecPublicKey
                Public-Key: (256 bit)
                pub:
                    04:f3:fd:e7:4a:4a:81:58:47:9b:5a:33:f3:a1:e6:
                    2f:e3:08:c6:68:69:e2:54:65:d3:3d:02:95:ef:27:
                    31:48:6d:23:a0:47:3b:d6:f3:27:89:15:90:da:1f:
                    4f:51:3a:0d:42:92:d3:2d:f7:58:b1:65:17:d7:cd:
                    62:97:33:27:ad
                ASN1 OID: secp256k1
        X509v3 extensions:
            X509v3 Key Usage: critical
                Digital Signature, Key Encipherment
            X509v3 Basic Constraints: critical
                CA:FALSE, pathlen:3
    Signature Algorithm: ecdsa-with-SHA256
         30:45:02:20:75:65:db:2a:4b:70:f3:84:d3:ee:6c:61:dc:99:
         f4:d9:72:f4:58:ba:dc:30:99:6d:34:16:aa:f5:b9:21:da:cf:
         02:21:00:9f:bb:e6:51:ca:22:b0:47:32:77:8f:60:1b:87:6c:
         46:ec:c4:d8:41:36:4c:0c:99:19:f2:1a:9e:fd:c3:d0:12
-----BEGIN CERTIFICATE-----
MIIB8DCCAZagAwIBAgIBLzAKBggqhkjOPQQDAjCBlzEXMBUGA1UEAwwOUmVnaW9u
ZSBQdWdsaWExCzAJBgNVBAYTAklUMQ8wDQYDVQQIDAZJdGFsaWExGDAWBgNVBAoM
D0UtVm90aW5nIHN5c3RlbTEiMCAGA1UECwwZRS1Wb3Rpbmcgc3lzdGVtIGF1dGhv
cml0eTEgMB4GCSqGSIb3DQEJARYRUHVnbGlhQGV2b3RpbmcuaXQwHhcNMjIwODI2
MTUyMTE4WhcNMjMwODI2MTUyMTE4WjBJMRAwDgYDVQQDDAdQaGlsbGlzMQswCQYD
VQQGEwJJVDEPMA0GA1UECAwGSXRhbGlhMRcwFQYDVQQKDA5SZWdpb25lIFB1Z2xp
YTBWMBAGByqGSM49AgEGBSuBBAAKA0IABPP950pKgVhHm1oz86HmL+MIxmhp4lRl
0z0Cle8nMUhtI6BHO9bzJ4kVkNofT1E6DUKS0y33WLFlF9fNYpczJ62jIzAhMA4G
A1UdDwEB/wQEAwIFoDAPBgNVHRMBAf8EBTADAgEDMAoGCCqGSM49BAMCA0gAMEUC
IHVl2ypLcPOE0+5sYdyZ9Nly9Fi63DCZbTQWqvW5IdrPAiEAn7vmUcoisEcyd49g
G4dsRuzE2EE2TAyZGfIanv3D0BI=
-----END CERTIFICATE-----
