Certificate:
    Data:
        Version: 3 (0x2)
        Serial Number: 36 (0x24)
        Signature Algorithm: ecdsa-with-SHA256
        Issuer: CN=Regione Liguria, C=IT, ST=Italia, O=E-Voting system, OU=E-Voting system authority/emailAddress=Liguria@evoting.it
        Validity
            Not Before: Aug  3 13:27:34 2022 GMT
            Not After : Aug  3 13:27:34 2023 GMT
        Subject: CN=Phillip, C=IT, ST=Italia, O=Regione Liguria
        Subject Public Key Info:
            Public Key Algorithm: id-ecPublicKey
                Public-Key: (256 bit)
                pub:
                    04:ff:98:61:63:02:02:17:6a:c8:69:e8:7d:f0:8e:
                    93:03:b2:b0:f0:ba:7f:8e:e3:f9:38:2f:00:86:88:
                    05:dc:08:2e:1c:e4:ee:e7:73:bc:8a:0a:20:30:09:
                    de:b9:4e:1f:f5:9f:20:4a:e5:48:5e:d1:63:bf:5d:
                    82:1c:e7:4f:06
                ASN1 OID: prime256v1
                NIST CURVE: P-256
        X509v3 extensions:
            X509v3 Key Usage: critical
                Digital Signature, Key Encipherment
            X509v3 Basic Constraints: critical
                CA:FALSE, pathlen:3
    Signature Algorithm: ecdsa-with-SHA256
         30:46:02:21:00:89:e7:93:8b:ff:d3:52:98:d2:d2:76:a7:5e:
         72:dd:14:ef:dd:aa:e9:76:57:b7:e4:43:b7:b9:38:2b:5f:29:
         fe:02:21:00:f6:75:f0:b0:be:87:e6:df:c6:9d:7b:08:80:66:
         27:47:3a:28:bf:cb:ee:20:dc:e6:78:9a:8f:a1:d2:c9:19:00
-----BEGIN CERTIFICATE-----
MIIB9zCCAZygAwIBAgIBJDAKBggqhkjOPQQDAjCBmTEYMBYGA1UEAwwPUmVnaW9u
ZSBMaWd1cmlhMQswCQYDVQQGEwJJVDEPMA0GA1UECAwGSXRhbGlhMRgwFgYDVQQK
DA9FLVZvdGluZyBzeXN0ZW0xIjAgBgNVBAsMGUUtVm90aW5nIHN5c3RlbSBhdXRo
b3JpdHkxITAfBgkqhkiG9w0BCQEWEkxpZ3VyaWFAZXZvdGluZy5pdDAeFw0yMjA4
MDMxMzI3MzRaFw0yMzA4MDMxMzI3MzRaMEoxEDAOBgNVBAMMB1BoaWxsaXAxCzAJ
BgNVBAYTAklUMQ8wDQYDVQQIDAZJdGFsaWExGDAWBgNVBAoMD1JlZ2lvbmUgTGln
dXJpYTBZMBMGByqGSM49AgEGCCqGSM49AwEHA0IABP+YYWMCAhdqyGnoffCOkwOy
sPC6f47j+TgvAIaIBdwILhzk7udzvIoKIDAJ3rlOH/WfIErlSF7RY79dghznTwaj
IzAhMA4GA1UdDwEB/wQEAwIFoDAPBgNVHRMBAf8EBTADAgEDMAoGCCqGSM49BAMC
A0kAMEYCIQCJ55OL/9NSmNLSdqdect0U792q6XZXt+RDt7k4K18p/gIhAPZ18LC+
h+bfxp17CIBmJ0c6KL/L7iDc5niaj6HSyRkA
-----END CERTIFICATE-----
