Certificate:
    Data:
        Version: 3 (0x2)
        Serial Number: 58 (0x3a)
        Signature Algorithm: ecdsa-with-SHA256
        Issuer: CN=Regione Puglia, C=IT, ST=Italia, O=E-Voting system, OU=E-Voting system authority/emailAddress=Puglia@evoting.it
        Validity
            Not Before: Aug 26 15:21:41 2022 GMT
            Not After : Aug 26 15:21:41 2023 GMT
        Subject: CN=Phillip, C=IT, ST=Italia, O=Regione Puglia
        Subject Public Key Info:
            Public Key Algorithm: id-ecPublicKey
                Public-Key: (256 bit)
                pub:
                    04:ad:8b:bb:dc:2a:4d:63:3c:64:a4:50:20:64:a0:
                    a1:c7:e6:c3:8c:66:c1:4f:03:b1:c6:c2:ee:99:98:
                    9e:44:f8:dd:e4:e7:33:99:da:81:0c:96:5e:de:a9:
                    b5:7e:b5:95:43:03:17:d8:29:96:ab:cd:9f:6c:bb:
                    90:93:55:bd:99
                ASN1 OID: secp256k1
        X509v3 extensions:
            X509v3 Key Usage: critical
                Digital Signature, Key Encipherment
            X509v3 Basic Constraints: critical
                CA:FALSE, pathlen:3
    Signature Algorithm: ecdsa-with-SHA256
         30:46:02:21:00:f7:70:30:aa:5d:67:31:e9:5f:7e:7e:32:bb:
         37:be:43:02:19:d2:d7:54:07:73:81:67:a5:5f:ba:4c:e5:21:
         85:02:21:00:f1:44:a4:8b:c3:6b:6b:32:b8:22:c8:d5:70:77:
         fd:f6:eb:1e:95:54:96:42:17:82:37:b2:e8:dd:67:f4:cb:4b
-----BEGIN CERTIFICATE-----
MIIB8TCCAZagAwIBAgIBOjAKBggqhkjOPQQDAjCBlzEXMBUGA1UEAwwOUmVnaW9u
ZSBQdWdsaWExCzAJBgNVBAYTAklUMQ8wDQYDVQQIDAZJdGFsaWExGDAWBgNVBAoM
D0UtVm90aW5nIHN5c3RlbTEiMCAGA1UECwwZRS1Wb3Rpbmcgc3lzdGVtIGF1dGhv
cml0eTEgMB4GCSqGSIb3DQEJARYRUHVnbGlhQGV2b3RpbmcuaXQwHhcNMjIwODI2
MTUyMTQxWhcNMjMwODI2MTUyMTQxWjBJMRAwDgYDVQQDDAdQaGlsbGlwMQswCQYD
VQQGEwJJVDEPMA0GA1UECAwGSXRhbGlhMRcwFQYDVQQKDA5SZWdpb25lIFB1Z2xp
YTBWMBAGByqGSM49AgEGBSuBBAAKA0IABK2Lu9wqTWM8ZKRQIGSgocfmw4xmwU8D
scbC7pmYnkT43eTnM5nagQyWXt6ptX61lUMDF9gplqvNn2y7kJNVvZmjIzAhMA4G
A1UdDwEB/wQEAwIFoDAPBgNVHRMBAf8EBTADAgEDMAoGCCqGSM49BAMCA0kAMEYC
IQD3cDCqXWcx6V9+fjK7N75DAhnS11QHc4FnpV+6TOUhhQIhAPFEpIvDa2syuCLI
1XB3/fbrHpVUlkIXgjey6N1n9MtL
-----END CERTIFICATE-----
