Certificate:
    Data:
        Version: 3 (0x2)
        Serial Number: 16 (0x10)
        Signature Algorithm: ecdsa-with-SHA256
        Issuer: CN=Regione Lombardia, C=IT, ST=Italia, O=E-Voting system, OU=E-Voting system authority/emailAddress=Lombardia@evoting.it
        Validity
            Not Before: Aug 26 15:19:31 2022 GMT
            Not After : Aug 26 15:19:31 2023 GMT
        Subject: CN=Philip, C=IT, ST=Italia, O=Regione Lombardia
        Subject Public Key Info:
            Public Key Algorithm: id-ecPublicKey
                Public-Key: (256 bit)
                pub:
                    04:6f:98:3e:25:e0:e7:13:63:aa:1e:88:6b:88:6a:
                    f7:6f:3d:9c:52:14:85:37:23:33:a2:3d:5f:f0:88:
                    ed:ee:31:32:ca:0e:68:33:fc:c8:af:c4:77:1b:bf:
                    13:b1:0d:83:b0:b6:30:23:7c:26:92:3a:36:22:8c:
                    38:bf:7e:b2:55
                ASN1 OID: secp256k1
        X509v3 extensions:
            X509v3 Key Usage: critical
                Digital Signature, Key Encipherment
            X509v3 Basic Constraints: critical
                CA:FALSE, pathlen:3
    Signature Algorithm: ecdsa-with-SHA256
         30:45:02:21:00:94:9d:08:0e:30:ad:be:ac:d6:d6:c5:06:ff:
         ea:77:99:aa:69:01:92:87:c6:ac:6c:e9:47:df:ad:72:6b:d8:
         c8:02:20:1a:49:fb:63:1c:98:a0:88:2f:5b:3f:09:86:2e:87:
         a1:d3:50:b2:17:a2:fd:24:29:d4:6d:d1:25:ff:96:68:45
-----BEGIN CERTIFICATE-----
MIIB+DCCAZ6gAwIBAgIBEDAKBggqhkjOPQQDAjCBnTEaMBgGA1UEAwwRUmVnaW9u
ZSBMb21iYXJkaWExCzAJBgNVBAYTAklUMQ8wDQYDVQQIDAZJdGFsaWExGDAWBgNV
BAoMD0UtVm90aW5nIHN5c3RlbTEiMCAGA1UECwwZRS1Wb3Rpbmcgc3lzdGVtIGF1
dGhvcml0eTEjMCEGCSqGSIb3DQEJARYUTG9tYmFyZGlhQGV2b3RpbmcuaXQwHhcN
MjIwODI2MTUxOTMxWhcNMjMwODI2MTUxOTMxWjBLMQ8wDQYDVQQDDAZQaGlsaXAx
CzAJBgNVBAYTAklUMQ8wDQYDVQQIDAZJdGFsaWExGjAYBgNVBAoMEVJlZ2lvbmUg
TG9tYmFyZGlhMFYwEAYHKoZIzj0CAQYFK4EEAAoDQgAEb5g+JeDnE2OqHohriGr3
bz2cUhSFNyMzoj1f8Ijt7jEyyg5oM/zIr8R3G78TsQ2DsLYwI3wmkjo2Iow4v36y
VaMjMCEwDgYDVR0PAQH/BAQDAgWgMA8GA1UdEwEB/wQFMAMCAQMwCgYIKoZIzj0E
AwIDSAAwRQIhAJSdCA4wrb6s1tbFBv/qd5mqaQGSh8asbOlH361ya9jIAiAaSftj
HJigiC9bPwmGLoeh01CyF6L9JCnUbdEl/5ZoRQ==
-----END CERTIFICATE-----
