Certificate:
    Data:
        Version: 3 (0x2)
        Serial Number: 3 (0x3)
        Signature Algorithm: ecdsa-with-SHA256
        Issuer: CN=Regione Lombardia, C=IT, ST=Italia, O=E-Voting system, OU=E-Voting system authority/emailAddress=Lombardia@evoting.it
        Validity
            Not Before: Aug 26 15:18:47 2022 GMT
            Not After : Aug 26 15:18:47 2023 GMT
        Subject: CN=Phyllis, C=IT, ST=Italia, O=Regione Lombardia
        Subject Public Key Info:
            Public Key Algorithm: id-ecPublicKey
                Public-Key: (256 bit)
                pub:
                    04:e4:80:08:50:27:0f:f7:bb:6c:1e:20:70:ca:4d:
                    c4:95:fe:75:b6:9e:77:b1:d9:fb:72:79:c8:1c:8f:
                    df:b2:f9:fa:d6:be:81:5d:a0:e0:b8:87:c9:e9:88:
                    ee:30:8e:1b:ce:f9:f1:0f:a7:06:74:e3:e1:c7:cd:
                    71:b1:01:b1:5c
                ASN1 OID: secp256k1
        X509v3 extensions:
            X509v3 Key Usage: critical
                Digital Signature, Key Encipherment
            X509v3 Basic Constraints: critical
                CA:FALSE, pathlen:3
    Signature Algorithm: ecdsa-with-SHA256
         30:46:02:21:00:f4:d5:e9:26:0a:52:aa:25:63:c1:e5:7a:03:
         25:81:87:50:b6:b1:3d:54:2e:22:13:f1:1d:93:9c:c0:64:bf:
         54:02:21:00:ad:65:a4:70:51:0c:14:4a:1b:1a:fc:6c:62:f9:
         33:db:1f:0f:57:d7:de:7c:e1:71:2d:48:62:3a:5c:d6:e3:b5
-----BEGIN CERTIFICATE-----
MIIB+jCCAZ+gAwIBAgIBAzAKBggqhkjOPQQDAjCBnTEaMBgGA1UEAwwRUmVnaW9u
ZSBMb21iYXJkaWExCzAJBgNVBAYTAklUMQ8wDQYDVQQIDAZJdGFsaWExGDAWBgNV
BAoMD0UtVm90aW5nIHN5c3RlbTEiMCAGA1UECwwZRS1Wb3Rpbmcgc3lzdGVtIGF1
dGhvcml0eTEjMCEGCSqGSIb3DQEJARYUTG9tYmFyZGlhQGV2b3RpbmcuaXQwHhcN
MjIwODI2MTUxODQ3WhcNMjMwODI2MTUxODQ3WjBMMRAwDgYDVQQDDAdQaHlsbGlz
MQswCQYDVQQGEwJJVDEPMA0GA1UECAwGSXRhbGlhMRowGAYDVQQKDBFSZWdpb25l
IExvbWJhcmRpYTBWMBAGByqGSM49AgEGBSuBBAAKA0IABOSACFAnD/e7bB4gcMpN
xJX+dbaed7HZ+3J5yByP37L5+ta+gV2g4LiHyemI7jCOG8758Q+nBnTj4cfNcbEB
sVyjIzAhMA4GA1UdDwEB/wQEAwIFoDAPBgNVHRMBAf8EBTADAgEDMAoGCCqGSM49
BAMCA0kAMEYCIQD01ekmClKqJWPB5XoDJYGHULaxPVQuIhPxHZOcwGS/VAIhAK1l
pHBRDBRKGxr8bGL5M9sfD1fX3nzhcS1IYjpc1uO1
-----END CERTIFICATE-----
