Certificate:
    Data:
        Version: 3 (0x2)
        Serial Number: 21 (0x15)
        Signature Algorithm: ecdsa-with-SHA256
        Issuer: CN=Regione Sicilia, C=IT, ST=Italia, O=E-Voting system, OU=E-Voting system authority/emailAddress=Sicilia@evoting.it
        Validity
            Not Before: Aug 26 15:19:39 2022 GMT
            Not After : Aug 26 15:19:39 2023 GMT
        Subject: CN=Quentin, C=IT, ST=Italia, O=Regione Sicilia
        Subject Public Key Info:
            Public Key Algorithm: id-ecPublicKey
                Public-Key: (256 bit)
                pub:
                    04:df:b7:3b:28:7f:f3:c1:4f:18:61:c0:8b:c6:6c:
                    a1:1f:e6:a3:96:01:07:49:33:4a:40:5c:fd:f9:32:
                    fd:a1:00:bd:24:96:22:f1:6b:09:4c:8d:b4:70:46:
                    23:0a:0a:61:4e:11:b5:71:67:ff:72:57:5b:a4:a7:
                    37:4a:26:24:2d
                ASN1 OID: secp256k1
        X509v3 extensions:
            X509v3 Key Usage: critical
                Digital Signature, Key Encipherment
            X509v3 Basic Constraints: critical
                CA:FALSE, pathlen:3
    Signature Algorithm: ecdsa-with-SHA256
         30:45:02:21:00:a4:76:58:a7:3d:f6:a5:fe:94:4e:2a:9a:a9:
         31:a2:c1:bf:a2:34:71:41:bb:8a:5c:0c:20:20:2c:a7:47:5e:
         5d:02:20:3b:12:49:46:ac:71:49:ef:2d:47:bf:45:be:8b:e2:
         d5:85:9c:44:25:c1:bc:51:4a:66:8a:d5:00:d0:cf:a8:a5
-----BEGIN CERTIFICATE-----
MIIB8zCCAZmgAwIBAgIBFTAKBggqhkjOPQQDAjCBmTEYMBYGA1UEAwwPUmVnaW9u
ZSBTaWNpbGlhMQswCQYDVQQGEwJJVDEPMA0GA1UECAwGSXRhbGlhMRgwFgYDVQQK
DA9FLVZvdGluZyBzeXN0ZW0xIjAgBgNVBAsMGUUtVm90aW5nIHN5c3RlbSBhdXRo
b3JpdHkxITAfBgkqhkiG9w0BCQEWElNpY2lsaWFAZXZvdGluZy5pdDAeFw0yMjA4
MjYxNTE5MzlaFw0yMzA4MjYxNTE5MzlaMEoxEDAOBgNVBAMMB1F1ZW50aW4xCzAJ
BgNVBAYTAklUMQ8wDQYDVQQIDAZJdGFsaWExGDAWBgNVBAoMD1JlZ2lvbmUgU2lj
aWxpYTBWMBAGByqGSM49AgEGBSuBBAAKA0IABN+3Oyh/88FPGGHAi8ZsoR/mo5YB
B0kzSkBc/fky/aEAvSSWIvFrCUyNtHBGIwoKYU4RtXFn/3JXW6SnN0omJC2jIzAh
MA4GA1UdDwEB/wQEAwIFoDAPBgNVHRMBAf8EBTADAgEDMAoGCCqGSM49BAMCA0gA
MEUCIQCkdlinPfal/pROKpqpMaLBv6I0cUG7ilwMICAsp0deXQIgOxJJRqxxSe8t
R79Fvovi1YWcRCXBvFFKZorVANDPqKU=
-----END CERTIFICATE-----
