Certificate:
    Data:
        Version: 3 (0x2)
        Serial Number: 3 (0x3)
        Signature Algorithm: ecdsa-with-SHA256
        Issuer: CN=Regione Trentino_Alto_Adige, C=IT, ST=Italia, O=E-Voting system, OU=E-Voting system authority/emailAddress=Trentino_Alto_Adige@evoting.it
        Validity
            Not Before: Aug 26 15:18:30 2022 GMT
            Not After : Aug 26 15:18:30 2023 GMT
        Subject: CN=Rachel, C=IT, ST=Italia, O=Regione Trentino_Alto_Adige
        Subject Public Key Info:
            Public Key Algorithm: id-ecPublicKey
                Public-Key: (256 bit)
                pub:
                    04:9e:08:08:8d:cd:a9:28:04:b7:c1:3b:cd:39:f6:
                    ba:0a:1f:0a:89:ca:ff:27:9e:d4:92:db:ca:77:5e:
                    a5:67:3d:bf:42:f5:5c:e3:82:03:c6:60:62:f8:67:
                    b0:7d:4e:17:54:5f:b5:6f:47:cf:cf:39:43:c9:b7:
                    b1:05:1e:b1:7c
                ASN1 OID: secp256k1
        X509v3 extensions:
            X509v3 Key Usage: critical
                Digital Signature, Key Encipherment
            X509v3 Basic Constraints: critical
                CA:FALSE, pathlen:3
    Signature Algorithm: ecdsa-with-SHA256
         30:44:02:20:59:8f:2a:63:1c:a2:14:31:8c:d4:35:c1:99:22:
         d8:72:3d:39:c7:13:87:75:3b:bc:9f:e0:8e:26:9c:c3:b0:e1:
         02:20:4c:0a:65:43:d1:51:5a:37:17:f0:11:33:43:57:95:1b:
         c7:44:59:de:a2:99:b3:9d:e9:37:ac:99:92:b1:6a:41
-----BEGIN CERTIFICATE-----
MIICFTCCAbygAwIBAgIBAzAKBggqhkjOPQQDAjCBsTEkMCIGA1UEAwwbUmVnaW9u
ZSBUcmVudGlub19BbHRvX0FkaWdlMQswCQYDVQQGEwJJVDEPMA0GA1UECAwGSXRh
bGlhMRgwFgYDVQQKDA9FLVZvdGluZyBzeXN0ZW0xIjAgBgNVBAsMGUUtVm90aW5n
IHN5c3RlbSBhdXRob3JpdHkxLTArBgkqhkiG9w0BCQEWHlRyZW50aW5vX0FsdG9f
QWRpZ2VAZXZvdGluZy5pdDAeFw0yMjA4MjYxNTE4MzBaFw0yMzA4MjYxNTE4MzBa
MFUxDzANBgNVBAMMBlJhY2hlbDELMAkGA1UEBhMCSVQxDzANBgNVBAgMBkl0YWxp
YTEkMCIGA1UECgwbUmVnaW9uZSBUcmVudGlub19BbHRvX0FkaWdlMFYwEAYHKoZI
zj0CAQYFK4EEAAoDQgAEnggIjc2pKAS3wTvNOfa6Ch8Kicr/J57UktvKd16lZz2/
QvVc44IDxmBi+GewfU4XVF+1b0fPzzlDybexBR6xfKMjMCEwDgYDVR0PAQH/BAQD
AgWgMA8GA1UdEwEB/wQFMAMCAQMwCgYIKoZIzj0EAwIDRwAwRAIgWY8qYxyiFDGM
1DXBmSLYcj05xxOHdTu8n+COJpzDsOECIEwKZUPRUVo3F/ARM0NXlRvHRFneopmz
nek3rJmSsWpB
-----END CERTIFICATE-----
