Certificate:
    Data:
        Version: 3 (0x2)
        Serial Number: 14 (0xe)
        Signature Algorithm: ecdsa-with-SHA256
        Issuer: CN=Regione Trentino_Alto_Adige, C=IT, ST=Italia, O=E-Voting system, OU=E-Voting system authority/emailAddress=Trentino_Alto_Adige@evoting.it
        Validity
            Not Before: Aug 26 15:19:34 2022 GMT
            Not After : Aug 26 15:19:34 2023 GMT
        Subject: CN=Rachael, C=IT, ST=Italia, O=Regione Trentino_Alto_Adige
        Subject Public Key Info:
            Public Key Algorithm: id-ecPublicKey
                Public-Key: (256 bit)
                pub:
                    04:5b:2d:30:38:e5:7a:22:e5:4e:5b:fa:a7:d3:df:
                    f6:9e:bd:6f:32:03:59:1c:0c:95:d4:75:3f:81:d8:
                    37:cb:26:cc:85:58:8b:45:f7:12:85:f6:96:92:f0:
                    1d:2d:21:7a:b6:0c:60:b6:5c:c9:c1:bd:dd:73:eb:
                    39:04:ea:63:12
                ASN1 OID: secp256k1
        X509v3 extensions:
            X509v3 Key Usage: critical
                Digital Signature, Key Encipherment
            X509v3 Basic Constraints: critical
                CA:FALSE, pathlen:3
    Signature Algorithm: ecdsa-with-SHA256
         30:45:02:20:05:37:2e:cd:a3:f3:fc:c8:bc:62:85:48:c5:e9:
         08:2f:88:d4:f3:af:9b:bd:ee:4d:9c:b6:12:1d:d4:86:86:5e:
         02:21:00:a1:55:80:4b:db:62:a5:3b:cd:08:9a:42:69:08:ef:
         46:ba:59:3e:15:f6:a5:a7:3c:59:9c:ba:05:dd:8a:cc:eb
-----BEGIN CERTIFICATE-----
MIICFzCCAb2gAwIBAgIBDjAKBggqhkjOPQQDAjCBsTEkMCIGA1UEAwwbUmVnaW9u
ZSBUcmVudGlub19BbHRvX0FkaWdlMQswCQYDVQQGEwJJVDEPMA0GA1UECAwGSXRh
bGlhMRgwFgYDVQQKDA9FLVZvdGluZyBzeXN0ZW0xIjAgBgNVBAsMGUUtVm90aW5n
IHN5c3RlbSBhdXRob3JpdHkxLTArBgkqhkiG9w0BCQEWHlRyZW50aW5vX0FsdG9f
QWRpZ2VAZXZvdGluZy5pdDAeFw0yMjA4MjYxNTE5MzRaFw0yMzA4MjYxNTE5MzRa
MFYxEDAOBgNVBAMMB1JhY2hhZWwxCzAJBgNVBAYTAklUMQ8wDQYDVQQIDAZJdGFs
aWExJDAiBgNVBAoMG1JlZ2lvbmUgVHJlbnRpbm9fQWx0b19BZGlnZTBWMBAGByqG
SM49AgEGBSuBBAAKA0IABFstMDjleiLlTlv6p9Pf9p69bzIDWRwMldR1P4HYN8sm
zIVYi0X3EoX2lpLwHS0herYMYLZcycG93XPrOQTqYxKjIzAhMA4GA1UdDwEB/wQE
AwIFoDAPBgNVHRMBAf8EBTADAgEDMAoGCCqGSM49BAMCA0gAMEUCIAU3Ls2j8/zI
vGKFSMXpCC+I1POvm73uTZy2Eh3UhoZeAiEAoVWAS9tipTvNCJpCaQjvRrpZPhX2
pac8WZy6Bd2KzOs=
-----END CERTIFICATE-----
