Certificate:
    Data:
        Version: 3 (0x2)
        Serial Number: 40 (0x28)
        Signature Algorithm: ecdsa-with-SHA256
        Issuer: CN=Regione Calabria, C=IT, ST=Italia, O=E-Voting system, OU=E-Voting system authority/emailAddress=Calabria@evoting.it
        Validity
            Not Before: Aug  3 13:28:08 2022 GMT
            Not After : Aug  3 13:28:08 2023 GMT
        Subject: CN=Rachelle, C=IT, ST=Italia, O=Regione Calabria
        Subject Public Key Info:
            Public Key Algorithm: id-ecPublicKey
                Public-Key: (256 bit)
                pub:
                    04:4c:e0:07:8a:1e:4b:a0:f0:34:a9:f4:92:89:9c:
                    e2:87:a8:44:8f:c7:91:6e:6a:ae:3b:72:6a:15:5d:
                    b5:b5:e2:2b:db:ed:3a:cf:fb:0b:9c:ad:5c:4c:72:
                    a2:86:b7:ad:27:f2:9b:2d:fa:5b:32:39:f9:bc:c9:
                    28:0b:00:ad:35
                ASN1 OID: prime256v1
                NIST CURVE: P-256
        X509v3 extensions:
            X509v3 Key Usage: critical
                Digital Signature, Key Encipherment
            X509v3 Basic Constraints: critical
                CA:FALSE, pathlen:3
    Signature Algorithm: ecdsa-with-SHA256
         30:44:02:20:6f:49:08:2b:d9:7f:4c:c8:c5:9d:c2:c4:65:dc:
         cc:76:12:59:db:78:f0:3e:9a:0e:95:3a:4e:3e:c2:00:d9:91:
         02:20:18:a8:ef:41:c2:c4:3a:0c:c5:af:0d:31:a7:57:0d:2d:
         53:59:26:91:f5:a0:10:c0:d7:80:ce:db:86:d1:d3:70
-----BEGIN CERTIFICATE-----
MIIB+TCCAaCgAwIBAgIBKDAKBggqhkjOPQQDAjCBmzEZMBcGA1UEAwwQUmVnaW9u
ZSBDYWxhYnJpYTELMAkGA1UEBhMCSVQxDzANBgNVBAgMBkl0YWxpYTEYMBYGA1UE
CgwPRS1Wb3Rpbmcgc3lzdGVtMSIwIAYDVQQLDBlFLVZvdGluZyBzeXN0ZW0gYXV0
aG9yaXR5MSIwIAYJKoZIhvcNAQkBFhNDYWxhYnJpYUBldm90aW5nLml0MB4XDTIy
MDgwMzEzMjgwOFoXDTIzMDgwMzEzMjgwOFowTDERMA8GA1UEAwwIUmFjaGVsbGUx
CzAJBgNVBAYTAklUMQ8wDQYDVQQIDAZJdGFsaWExGTAXBgNVBAoMEFJlZ2lvbmUg
Q2FsYWJyaWEwWTATBgcqhkjOPQIBBggqhkjOPQMBBwNCAARM4AeKHkug8DSp9JKJ
nOKHqESPx5Fuaq47cmoVXbW14ivb7TrP+wucrVxMcqKGt60n8pst+lsyOfm8ySgL
AK01oyMwITAOBgNVHQ8BAf8EBAMCBaAwDwYDVR0TAQH/BAUwAwIBAzAKBggqhkjO
PQQDAgNHADBEAiBvSQgr2X9MyMWdwsRl3Mx2ElnbePA+mg6VOk4+wgDZkQIgGKjv
QcLEOgzFrw0xp1cNLVNZJpH1oBDA14DO24bR03A=
-----END CERTIFICATE-----
