Certificate:
    Data:
        Version: 3 (0x2)
        Serial Number: 29 (0x1d)
        Signature Algorithm: ecdsa-with-SHA256
        Issuer: CN=Regione Piemonte, C=IT, ST=Italia, O=E-Voting system, OU=E-Voting system authority/emailAddress=Piemonte@evoting.it
        Validity
            Not Before: Aug 26 15:20:30 2022 GMT
            Not After : Aug 26 15:20:30 2023 GMT
        Subject: CN=Rafael, C=IT, ST=Italia, O=Regione Piemonte
        Subject Public Key Info:
            Public Key Algorithm: id-ecPublicKey
                Public-Key: (256 bit)
                pub:
                    04:f4:9c:f5:96:ba:40:63:81:e9:6e:c1:87:4b:d4:
                    07:30:48:7c:85:7f:7b:92:b5:51:7c:76:fc:96:0a:
                    ea:20:a3:e0:83:59:b5:23:55:de:bb:6f:bc:05:6a:
                    9e:bc:1f:c4:17:2c:07:8c:32:d9:96:9c:7c:65:7b:
                    3c:2d:d4:90:34
                ASN1 OID: secp256k1
        X509v3 extensions:
            X509v3 Key Usage: critical
                Digital Signature, Key Encipherment
            X509v3 Basic Constraints: critical
                CA:FALSE, pathlen:3
    Signature Algorithm: ecdsa-with-SHA256
         30:46:02:21:00:b9:0e:3a:db:07:0c:9c:e7:b5:dc:76:64:8c:
         7e:93:8b:1c:2e:22:ae:6f:95:32:62:a0:da:f1:38:75:71:73:
         4f:02:21:00:a9:c6:78:ea:c3:52:a9:9f:af:74:54:3e:fd:42:
         84:20:22:9b:38:92:38:ed:f0:70:cb:7b:6c:47:15:14:e3:c4
-----BEGIN CERTIFICATE-----
MIIB9jCCAZugAwIBAgIBHTAKBggqhkjOPQQDAjCBmzEZMBcGA1UEAwwQUmVnaW9u
ZSBQaWVtb250ZTELMAkGA1UEBhMCSVQxDzANBgNVBAgMBkl0YWxpYTEYMBYGA1UE
CgwPRS1Wb3Rpbmcgc3lzdGVtMSIwIAYDVQQLDBlFLVZvdGluZyBzeXN0ZW0gYXV0
aG9yaXR5MSIwIAYJKoZIhvcNAQkBFhNQaWVtb250ZUBldm90aW5nLml0MB4XDTIy
MDgyNjE1MjAzMFoXDTIzMDgyNjE1MjAzMFowSjEPMA0GA1UEAwwGUmFmYWVsMQsw
CQYDVQQGEwJJVDEPMA0GA1UECAwGSXRhbGlhMRkwFwYDVQQKDBBSZWdpb25lIFBp
ZW1vbnRlMFYwEAYHKoZIzj0CAQYFK4EEAAoDQgAE9Jz1lrpAY4HpbsGHS9QHMEh8
hX97krVRfHb8lgrqIKPgg1m1I1Xeu2+8BWqevB/EFywHjDLZlpx8ZXs8LdSQNKMj
MCEwDgYDVR0PAQH/BAQDAgWgMA8GA1UdEwEB/wQFMAMCAQMwCgYIKoZIzj0EAwID
SQAwRgIhALkOOtsHDJzntdx2ZIx+k4scLiKub5UyYqDa8Th1cXNPAiEAqcZ46sNS
qZ+vdFQ+/UKEICKbOJI47fBwy3tsRxUU48Q=
-----END CERTIFICATE-----
