Certificate:
    Data:
        Version: 3 (0x2)
        Serial Number: 15 (0xf)
        Signature Algorithm: ecdsa-with-SHA256
        Issuer: CN=Regione Valle_d_Aosta, C=IT, ST=Italia, O=E-Voting system, OU=E-Voting system authority/emailAddress=Valle_d_Aosta@evoting.it
        Validity
            Not Before: Aug 26 15:19:31 2022 GMT
            Not After : Aug 26 15:19:31 2023 GMT
        Subject: CN=Ramiro, C=IT, ST=Italia, O=Regione Valle_d_Aosta
        Subject Public Key Info:
            Public Key Algorithm: id-ecPublicKey
                Public-Key: (256 bit)
                pub:
                    04:4e:f5:72:29:0b:d6:cf:02:4a:a8:ba:da:da:25:
                    4e:50:67:ea:fa:65:db:c5:b2:1e:8f:84:9c:91:a1:
                    3a:14:d1:0d:17:93:1a:43:1d:85:77:d3:e1:d9:56:
                    48:66:c2:c5:a5:f4:eb:ee:83:fc:de:a4:85:6b:b0:
                    81:7e:09:2a:7c
                ASN1 OID: secp256k1
        X509v3 extensions:
            X509v3 Key Usage: critical
                Digital Signature, Key Encipherment
            X509v3 Basic Constraints: critical
                CA:FALSE, pathlen:3
    Signature Algorithm: ecdsa-with-SHA256
         30:44:02:20:20:ac:e5:05:e9:78:21:9a:42:f1:fd:38:b2:f0:
         e6:ba:df:bd:8c:db:34:4b:8c:15:c0:69:2a:9c:29:91:d8:81:
         02:20:7a:7e:13:34:e5:2f:54:6b:72:7a:a1:bd:ae:09:1b:2b:
         67:92:85:76:24:1b:5a:94:07:c1:f9:83:d7:77:2a:69
-----BEGIN CERTIFICATE-----
MIICAzCCAaqgAwIBAgIBDzAKBggqhkjOPQQDAjCBpTEeMBwGA1UEAwwVUmVnaW9u
ZSBWYWxsZV9kX0Fvc3RhMQswCQYDVQQGEwJJVDEPMA0GA1UECAwGSXRhbGlhMRgw
FgYDVQQKDA9FLVZvdGluZyBzeXN0ZW0xIjAgBgNVBAsMGUUtVm90aW5nIHN5c3Rl
bSBhdXRob3JpdHkxJzAlBgkqhkiG9w0BCQEWGFZhbGxlX2RfQW9zdGFAZXZvdGlu
Zy5pdDAeFw0yMjA4MjYxNTE5MzFaFw0yMzA4MjYxNTE5MzFaME8xDzANBgNVBAMM
BlJhbWlybzELMAkGA1UEBhMCSVQxDzANBgNVBAgMBkl0YWxpYTEeMBwGA1UECgwV
UmVnaW9uZSBWYWxsZV9kX0Fvc3RhMFYwEAYHKoZIzj0CAQYFK4EEAAoDQgAETvVy
KQvWzwJKqLra2iVOUGfq+mXbxbIej4SckaE6FNENF5MaQx2Fd9Ph2VZIZsLFpfTr
7oP83qSFa7CBfgkqfKMjMCEwDgYDVR0PAQH/BAQDAgWgMA8GA1UdEwEB/wQFMAMC
AQMwCgYIKoZIzj0EAwIDRwAwRAIgIKzlBel4IZpC8f04svDmut+9jNs0S4wVwGkq
nCmR2IECIHp+EzTlL1Rrcnqhva4JGytnkoV2JBtalAfB+YPXdypp
-----END CERTIFICATE-----
