Certificate:
    Data:
        Version: 3 (0x2)
        Serial Number: 17 (0x11)
        Signature Algorithm: ecdsa-with-SHA256
        Issuer: CN=Regione Molise, C=IT, ST=Italia, O=E-Voting system, OU=E-Voting system authority/emailAddress=Molise@evoting.it
        Validity
            Not Before: Aug 26 15:19:54 2022 GMT
            Not After : Aug 26 15:19:54 2023 GMT
        Subject: CN=Ramon, C=IT, ST=Italia, O=Regione Molise
        Subject Public Key Info:
            Public Key Algorithm: id-ecPublicKey
                Public-Key: (256 bit)
                pub:
                    04:a3:ee:64:15:78:ab:21:ed:7b:4d:3c:14:c0:d8:
                    b4:7c:c2:43:79:62:47:c6:f6:0d:5c:2f:f9:eb:a9:
                    66:39:5d:68:1b:e0:9f:3d:62:5f:2c:55:0b:c0:6a:
                    9b:99:0b:c8:e4:5d:3a:78:ac:71:17:bb:25:c0:e8:
                    6a:81:7c:40:87
                ASN1 OID: secp256k1
        X509v3 extensions:
            X509v3 Key Usage: critical
                Digital Signature, Key Encipherment
            X509v3 Basic Constraints: critical
                CA:FALSE, pathlen:3
    Signature Algorithm: ecdsa-with-SHA256
         30:46:02:21:00:ca:1a:a5:5f:62:36:05:f0:31:72:89:38:1d:
         00:a0:bd:0c:b2:7e:ae:6f:78:74:41:ed:72:77:e4:46:ef:47:
         00:02:21:00:8d:18:cf:af:d9:cd:da:fc:61:49:62:08:68:08:
         19:6a:60:12:0a:d1:d9:ae:70:7e:a8:89:5e:e7:ce:a6:8d:8a
-----BEGIN CERTIFICATE-----
MIIB7zCCAZSgAwIBAgIBETAKBggqhkjOPQQDAjCBlzEXMBUGA1UEAwwOUmVnaW9u
ZSBNb2xpc2UxCzAJBgNVBAYTAklUMQ8wDQYDVQQIDAZJdGFsaWExGDAWBgNVBAoM
D0UtVm90aW5nIHN5c3RlbTEiMCAGA1UECwwZRS1Wb3Rpbmcgc3lzdGVtIGF1dGhv
cml0eTEgMB4GCSqGSIb3DQEJARYRTW9saXNlQGV2b3RpbmcuaXQwHhcNMjIwODI2
MTUxOTU0WhcNMjMwODI2MTUxOTU0WjBHMQ4wDAYDVQQDDAVSYW1vbjELMAkGA1UE
BhMCSVQxDzANBgNVBAgMBkl0YWxpYTEXMBUGA1UECgwOUmVnaW9uZSBNb2xpc2Uw
VjAQBgcqhkjOPQIBBgUrgQQACgNCAASj7mQVeKsh7XtNPBTA2LR8wkN5YkfG9g1c
L/nrqWY5XWgb4J89Yl8sVQvAapuZC8jkXTp4rHEXuyXA6GqBfECHoyMwITAOBgNV
HQ8BAf8EBAMCBaAwDwYDVR0TAQH/BAUwAwIBAzAKBggqhkjOPQQDAgNJADBGAiEA
yhqlX2I2BfAxcok4HQCgvQyyfq5veHRB7XJ35EbvRwACIQCNGM+v2c3a/GFJYgho
CBlqYBIK0dmucH6oiV7nzqaNig==
-----END CERTIFICATE-----
