Certificate:
    Data:
        Version: 3 (0x2)
        Serial Number: 37 (0x25)
        Signature Algorithm: ecdsa-with-SHA256
        Issuer: CN=Regione Umbria, C=IT, ST=Italia, O=E-Voting system, OU=E-Voting system authority/emailAddress=Umbria@evoting.it
        Validity
            Not Before: Aug 26 15:20:55 2022 GMT
            Not After : Aug 26 15:20:55 2023 GMT
        Subject: CN=Ramona, C=IT, ST=Italia, O=Regione Umbria
        Subject Public Key Info:
            Public Key Algorithm: id-ecPublicKey
                Public-Key: (256 bit)
                pub:
                    04:fe:b0:93:30:46:15:a9:d5:72:1e:f2:a1:73:e9:
                    2f:1b:1c:a1:ee:82:8b:27:48:48:d6:10:2a:eb:e8:
                    73:2b:b3:7c:8b:b4:63:7b:98:1d:21:4b:f0:7a:42:
                    13:0f:79:27:11:1c:c8:3e:f6:b4:26:05:69:04:b5:
                    02:70:b7:9f:cc
                ASN1 OID: secp256k1
        X509v3 extensions:
            X509v3 Key Usage: critical
                Digital Signature, Key Encipherment
            X509v3 Basic Constraints: critical
                CA:FALSE, pathlen:3
    Signature Algorithm: ecdsa-with-SHA256
         30:45:02:20:7c:3f:61:1b:bb:4d:62:e6:a4:e0:da:99:d4:65:
         b6:63:81:02:1c:30:af:a1:54:4c:31:a1:e0:8c:e6:df:91:91:
         02:21:00:fe:90:84:6c:03:8a:d5:4e:cc:21:3d:46:8c:bb:81:
         e8:2b:c1:c1:ba:56:e6:62:a5:bc:40:28:7f:02:26:24:b9
-----BEGIN CERTIFICATE-----
MIIB7zCCAZWgAwIBAgIBJTAKBggqhkjOPQQDAjCBlzEXMBUGA1UEAwwOUmVnaW9u
ZSBVbWJyaWExCzAJBgNVBAYTAklUMQ8wDQYDVQQIDAZJdGFsaWExGDAWBgNVBAoM
D0UtVm90aW5nIHN5c3RlbTEiMCAGA1UECwwZRS1Wb3Rpbmcgc3lzdGVtIGF1dGhv
cml0eTEgMB4GCSqGSIb3DQEJARYRVW1icmlhQGV2b3RpbmcuaXQwHhcNMjIwODI2
MTUyMDU1WhcNMjMwODI2MTUyMDU1WjBIMQ8wDQYDVQQDDAZSYW1vbmExCzAJBgNV
BAYTAklUMQ8wDQYDVQQIDAZJdGFsaWExFzAVBgNVBAoMDlJlZ2lvbmUgVW1icmlh
MFYwEAYHKoZIzj0CAQYFK4EEAAoDQgAE/rCTMEYVqdVyHvKhc+kvGxyh7oKLJ0hI
1hAq6+hzK7N8i7Rje5gdIUvwekITD3knERzIPva0JgVpBLUCcLefzKMjMCEwDgYD
VR0PAQH/BAQDAgWgMA8GA1UdEwEB/wQFMAMCAQMwCgYIKoZIzj0EAwIDSAAwRQIg
fD9hG7tNYuak4NqZ1GW2Y4ECHDCvoVRMMaHgjObfkZECIQD+kIRsA4rVTswhPUaM
u4HoK8HBulbmYqW8QCh/AiYkuQ==
-----END CERTIFICATE-----
