Certificate:
    Data:
        Version: 3 (0x2)
        Serial Number: 23 (0x17)
        Signature Algorithm: ecdsa-with-SHA256
        Issuer: CN=Regione Umbria, C=IT, ST=Italia, O=E-Voting system, OU=E-Voting system authority/emailAddress=Umbria@evoting.it
        Validity
            Not Before: Aug 26 15:20:03 2022 GMT
            Not After : Aug 26 15:20:03 2023 GMT
        Subject: CN=Randall, C=IT, ST=Italia, O=Regione Umbria
        Subject Public Key Info:
            Public Key Algorithm: id-ecPublicKey
                Public-Key: (256 bit)
                pub:
                    04:eb:fc:14:2b:fe:c0:98:49:03:a1:59:d1:c1:a4:
                    77:43:c7:01:37:40:4d:dd:88:37:24:83:78:fe:99:
                    4a:36:86:53:24:43:65:b6:25:2e:c6:bf:36:d6:0a:
                    25:d0:ae:7e:97:b1:20:86:35:d9:82:85:13:67:bb:
                    cd:4c:ba:a0:fc
                ASN1 OID: secp256k1
        X509v3 extensions:
            X509v3 Key Usage: critical
                Digital Signature, Key Encipherment
            X509v3 Basic Constraints: critical
                CA:FALSE, pathlen:3
    Signature Algorithm: ecdsa-with-SHA256
         30:44:02:20:69:22:49:fe:d8:fb:d5:ea:84:be:ff:8a:5d:6e:
         ab:26:ad:12:b6:ed:c2:d0:4c:62:ff:d6:d8:9f:0d:0a:a6:96:
         02:20:6c:e1:7c:4c:5d:39:46:1c:1f:c7:9c:67:4c:1c:e4:96:
         a7:f7:c7:d7:88:28:43:6f:80:02:e5:e4:af:e2:bb:cd
-----BEGIN CERTIFICATE-----
MIIB7zCCAZagAwIBAgIBFzAKBggqhkjOPQQDAjCBlzEXMBUGA1UEAwwOUmVnaW9u
ZSBVbWJyaWExCzAJBgNVBAYTAklUMQ8wDQYDVQQIDAZJdGFsaWExGDAWBgNVBAoM
D0UtVm90aW5nIHN5c3RlbTEiMCAGA1UECwwZRS1Wb3Rpbmcgc3lzdGVtIGF1dGhv
cml0eTEgMB4GCSqGSIb3DQEJARYRVW1icmlhQGV2b3RpbmcuaXQwHhcNMjIwODI2
MTUyMDAzWhcNMjMwODI2MTUyMDAzWjBJMRAwDgYDVQQDDAdSYW5kYWxsMQswCQYD
VQQGEwJJVDEPMA0GA1UECAwGSXRhbGlhMRcwFQYDVQQKDA5SZWdpb25lIFVtYnJp
YTBWMBAGByqGSM49AgEGBSuBBAAKA0IABOv8FCv+wJhJA6FZ0cGkd0PHATdATd2I
NySDeP6ZSjaGUyRDZbYlLsa/NtYKJdCufpexIIY12YKFE2e7zUy6oPyjIzAhMA4G
A1UdDwEB/wQEAwIFoDAPBgNVHRMBAf8EBTADAgEDMAoGCCqGSM49BAMCA0cAMEQC
IGkiSf7Y+9XqhL7/il1uqyatErbtwtBMYv/W2J8NCqaWAiBs4XxMXTlGHB/HnGdM
HOSWp/fH14goQ2+AAuXkr+K7zQ==
-----END CERTIFICATE-----
