Certificate:
    Data:
        Version: 3 (0x2)
        Serial Number: 43 (0x2b)
        Signature Algorithm: ecdsa-with-SHA256
        Issuer: CN=Regione Calabria, C=IT, ST=Italia, O=E-Voting system, OU=E-Voting system authority/emailAddress=Calabria@evoting.it
        Validity
            Not Before: Aug 26 15:21:37 2022 GMT
            Not After : Aug 26 15:21:37 2023 GMT
        Subject: CN=Randy, C=IT, ST=Italia, O=Regione Calabria
        Subject Public Key Info:
            Public Key Algorithm: id-ecPublicKey
                Public-Key: (256 bit)
                pub:
                    04:29:b7:db:a4:61:47:94:35:3b:d8:99:2b:cf:11:
                    a4:87:ca:16:74:e2:9a:32:71:b0:fd:b0:99:ba:de:
                    51:0c:de:5b:1f:33:e3:4c:f9:05:0d:b4:59:d8:3f:
                    1a:cf:8a:dd:81:cd:ad:0c:13:b3:e0:f0:4d:57:15:
                    5c:85:a5:ef:85
                ASN1 OID: secp256k1
        X509v3 extensions:
            X509v3 Key Usage: critical
                Digital Signature, Key Encipherment
            X509v3 Basic Constraints: critical
                CA:FALSE, pathlen:3
    Signature Algorithm: ecdsa-with-SHA256
         30:46:02:21:00:9f:ae:b8:61:ea:53:da:ca:c5:9d:c2:78:73:
         97:f8:2d:76:8d:28:88:f5:9c:d5:e1:99:a6:ac:29:ab:95:3d:
         c9:02:21:00:c4:d2:f6:f7:05:32:f8:2a:34:2d:93:4f:b4:7a:
         06:59:32:62:ca:da:14:9e:a8:89:0b:10:96:e5:09:30:36:d3
-----BEGIN CERTIFICATE-----
MIIB9TCCAZqgAwIBAgIBKzAKBggqhkjOPQQDAjCBmzEZMBcGA1UEAwwQUmVnaW9u
ZSBDYWxhYnJpYTELMAkGA1UEBhMCSVQxDzANBgNVBAgMBkl0YWxpYTEYMBYGA1UE
CgwPRS1Wb3Rpbmcgc3lzdGVtMSIwIAYDVQQLDBlFLVZvdGluZyBzeXN0ZW0gYXV0
aG9yaXR5MSIwIAYJKoZIhvcNAQkBFhNDYWxhYnJpYUBldm90aW5nLml0MB4XDTIy
MDgyNjE1MjEzN1oXDTIzMDgyNjE1MjEzN1owSTEOMAwGA1UEAwwFUmFuZHkxCzAJ
BgNVBAYTAklUMQ8wDQYDVQQIDAZJdGFsaWExGTAXBgNVBAoMEFJlZ2lvbmUgQ2Fs
YWJyaWEwVjAQBgcqhkjOPQIBBgUrgQQACgNCAAQpt9ukYUeUNTvYmSvPEaSHyhZ0
4poycbD9sJm63lEM3lsfM+NM+QUNtFnYPxrPit2Bza0ME7Pg8E1XFVyFpe+FoyMw
ITAOBgNVHQ8BAf8EBAMCBaAwDwYDVR0TAQH/BAUwAwIBAzAKBggqhkjOPQQDAgNJ
ADBGAiEAn664YepT2srFncJ4c5f4LXaNKIj1nNXhmaasKauVPckCIQDE0vb3BTL4
KjQtk0+0egZZMmLK2hSeqIkLEJblCTA20w==
-----END CERTIFICATE-----
