Certificate:
    Data:
        Version: 3 (0x2)
        Serial Number: 23 (0x17)
        Signature Algorithm: ecdsa-with-SHA256
        Issuer: CN=Regione Veneto, C=IT, ST=Italia, O=E-Voting system, OU=E-Voting system authority/emailAddress=Veneto@evoting.it
        Validity
            Not Before: Aug 26 15:21:04 2022 GMT
            Not After : Aug 26 15:21:04 2023 GMT
        Subject: CN=Raquel, C=IT, ST=Italia, O=Regione Veneto
        Subject Public Key Info:
            Public Key Algorithm: id-ecPublicKey
                Public-Key: (256 bit)
                pub:
                    04:24:c4:ff:15:c0:c2:ee:f1:35:8a:93:91:21:6a:
                    19:64:88:2c:14:e2:2a:f8:e6:b3:8c:ee:52:d4:56:
                    35:44:82:00:6f:83:3e:f7:45:f2:6e:91:be:9f:9c:
                    ed:dd:83:f6:bd:01:be:36:47:56:eb:6e:2e:56:63:
                    16:44:71:93:fe
                ASN1 OID: secp256k1
        X509v3 extensions:
            X509v3 Key Usage: critical
                Digital Signature, Key Encipherment
            X509v3 Basic Constraints: critical
                CA:FALSE, pathlen:3
    Signature Algorithm: ecdsa-with-SHA256
         30:44:02:20:3d:53:d2:97:12:38:6f:e3:e0:9d:a2:4a:72:e2:
         0f:f8:93:df:85:40:b5:05:e7:b0:f3:79:3c:b2:bb:12:e7:1e:
         02:20:59:d9:cf:3f:73:5d:17:e9:06:b0:4f:ba:a3:a0:26:5f:
         65:79:00:12:7d:d0:07:59:b8:96:48:3d:16:a1:2d:71
-----BEGIN CERTIFICATE-----
MIIB7jCCAZWgAwIBAgIBFzAKBggqhkjOPQQDAjCBlzEXMBUGA1UEAwwOUmVnaW9u
ZSBWZW5ldG8xCzAJBgNVBAYTAklUMQ8wDQYDVQQIDAZJdGFsaWExGDAWBgNVBAoM
D0UtVm90aW5nIHN5c3RlbTEiMCAGA1UECwwZRS1Wb3Rpbmcgc3lzdGVtIGF1dGhv
cml0eTEgMB4GCSqGSIb3DQEJARYRVmVuZXRvQGV2b3RpbmcuaXQwHhcNMjIwODI2
MTUyMTA0WhcNMjMwODI2MTUyMTA0WjBIMQ8wDQYDVQQDDAZSYXF1ZWwxCzAJBgNV
BAYTAklUMQ8wDQYDVQQIDAZJdGFsaWExFzAVBgNVBAoMDlJlZ2lvbmUgVmVuZXRv
MFYwEAYHKoZIzj0CAQYFK4EEAAoDQgAEJMT/FcDC7vE1ipORIWoZZIgsFOIq+Oaz
jO5S1FY1RIIAb4M+90XybpG+n5zt3YP2vQG+NkdW624uVmMWRHGT/qMjMCEwDgYD
VR0PAQH/BAQDAgWgMA8GA1UdEwEB/wQFMAMCAQMwCgYIKoZIzj0EAwIDRwAwRAIg
PVPSlxI4b+PgnaJKcuIP+JPfhUC1Beew83k8srsS5x4CIFnZzz9zXRfpBrBPuqOg
Jl9leQASfdAHWbiWSD0WoS1x
-----END CERTIFICATE-----
