Certificate:
    Data:
        Version: 3 (0x2)
        Serial Number: 41 (0x29)
        Signature Algorithm: ecdsa-with-SHA256
        Issuer: CN=Regione Emilia_Romagna, C=IT, ST=Italia, O=E-Voting system, OU=E-Voting system authority/emailAddress=Emilia_Romagna@evoting.it
        Validity
            Not Before: Aug 26 15:21:03 2022 GMT
            Not After : Aug 26 15:21:03 2023 GMT
        Subject: CN=Raul, C=IT, ST=Italia, O=Regione Emilia_Romagna
        Subject Public Key Info:
            Public Key Algorithm: id-ecPublicKey
                Public-Key: (256 bit)
                pub:
                    04:f5:d1:b7:b7:79:be:05:6a:9e:1a:26:e5:f2:07:
                    9a:8e:cf:99:6a:62:8f:a2:9c:06:ee:76:3f:5c:a0:
                    f0:9d:8f:0a:e7:39:b0:29:fa:49:c9:ab:e3:1a:22:
                    02:9b:bc:76:55:8d:f7:70:f7:f9:36:3d:23:7d:a3:
                    01:ae:64:6a:61
                ASN1 OID: secp256k1
        X509v3 extensions:
            X509v3 Key Usage: critical
                Digital Signature, Key Encipherment
            X509v3 Basic Constraints: critical
                CA:FALSE, pathlen:3
    Signature Algorithm: ecdsa-with-SHA256
         30:45:02:21:00:f0:c9:1c:b3:54:90:a0:4f:e2:4b:a7:b5:3b:
         d7:4a:e1:fc:c2:e9:d6:81:15:a0:1d:9e:2f:d8:57:bc:cf:1b:
         29:02:20:5e:94:87:a7:a1:d2:a5:0d:a9:c6:20:1d:06:35:e6:
         ea:2a:a5:64:18:ef:0e:da:73:9b:f6:a2:a8:4d:83:c9:0a
-----BEGIN CERTIFICATE-----
MIICBTCCAaugAwIBAgIBKTAKBggqhkjOPQQDAjCBpzEfMB0GA1UEAwwWUmVnaW9u
ZSBFbWlsaWFfUm9tYWduYTELMAkGA1UEBhMCSVQxDzANBgNVBAgMBkl0YWxpYTEY
MBYGA1UECgwPRS1Wb3Rpbmcgc3lzdGVtMSIwIAYDVQQLDBlFLVZvdGluZyBzeXN0
ZW0gYXV0aG9yaXR5MSgwJgYJKoZIhvcNAQkBFhlFbWlsaWFfUm9tYWduYUBldm90
aW5nLml0MB4XDTIyMDgyNjE1MjEwM1oXDTIzMDgyNjE1MjEwM1owTjENMAsGA1UE
AwwEUmF1bDELMAkGA1UEBhMCSVQxDzANBgNVBAgMBkl0YWxpYTEfMB0GA1UECgwW
UmVnaW9uZSBFbWlsaWFfUm9tYWduYTBWMBAGByqGSM49AgEGBSuBBAAKA0IABPXR
t7d5vgVqnhom5fIHmo7PmWpij6KcBu52P1yg8J2PCuc5sCn6Scmr4xoiApu8dlWN
93D3+TY9I32jAa5kamGjIzAhMA4GA1UdDwEB/wQEAwIFoDAPBgNVHRMBAf8EBTAD
AgEDMAoGCCqGSM49BAMCA0gAMEUCIQDwyRyzVJCgT+JLp7U710rh/MLp1oEVoB2e
L9hXvM8bKQIgXpSHp6HSpQ2pxiAdBjXm6iqlZBjvDtpzm/aiqE2DyQo=
-----END CERTIFICATE-----
