Certificate:
    Data:
        Version: 3 (0x2)
        Serial Number: 23 (0x17)
        Signature Algorithm: ecdsa-with-SHA256
        Issuer: CN=Regione Sardegna, C=IT, ST=Italia, O=E-Voting system, OU=E-Voting system authority/emailAddress=Sardegna@evoting.it
        Validity
            Not Before: Aug 26 15:20:27 2022 GMT
            Not After : Aug 26 15:20:27 2023 GMT
        Subject: CN=Ray, C=IT, ST=Italia, O=Regione Sardegna
        Subject Public Key Info:
            Public Key Algorithm: id-ecPublicKey
                Public-Key: (256 bit)
                pub:
                    04:4d:2b:f7:0a:aa:7a:35:1e:1e:4d:52:23:7e:81:
                    3b:31:e7:8b:92:ea:6c:16:62:48:76:15:ea:05:88:
                    47:73:a8:07:eb:18:29:8e:ba:47:62:07:84:d8:c7:
                    9e:32:35:f1:dc:0d:28:87:be:9b:72:77:d2:c7:e2:
                    1a:b1:f8:d8:49
                ASN1 OID: secp256k1
        X509v3 extensions:
            X509v3 Key Usage: critical
                Digital Signature, Key Encipherment
            X509v3 Basic Constraints: critical
                CA:FALSE, pathlen:3
    Signature Algorithm: ecdsa-with-SHA256
         30:44:02:20:66:fc:ab:de:8a:44:7f:74:89:27:2b:58:14:81:
         0f:de:64:10:3d:e7:67:30:bb:f7:60:6c:2b:10:9c:95:7c:35:
         02:20:57:35:81:83:ca:1f:3d:e2:da:d3:46:45:9c:d3:0e:9c:
         50:fa:22:b9:b2:b1:92:7b:b5:3b:b0:2d:32:94:56:06
-----BEGIN CERTIFICATE-----
MIIB8TCCAZigAwIBAgIBFzAKBggqhkjOPQQDAjCBmzEZMBcGA1UEAwwQUmVnaW9u
ZSBTYXJkZWduYTELMAkGA1UEBhMCSVQxDzANBgNVBAgMBkl0YWxpYTEYMBYGA1UE
CgwPRS1Wb3Rpbmcgc3lzdGVtMSIwIAYDVQQLDBlFLVZvdGluZyBzeXN0ZW0gYXV0
aG9yaXR5MSIwIAYJKoZIhvcNAQkBFhNTYXJkZWduYUBldm90aW5nLml0MB4XDTIy
MDgyNjE1MjAyN1oXDTIzMDgyNjE1MjAyN1owRzEMMAoGA1UEAwwDUmF5MQswCQYD
VQQGEwJJVDEPMA0GA1UECAwGSXRhbGlhMRkwFwYDVQQKDBBSZWdpb25lIFNhcmRl
Z25hMFYwEAYHKoZIzj0CAQYFK4EEAAoDQgAETSv3Cqp6NR4eTVIjfoE7MeeLkups
FmJIdhXqBYhHc6gH6xgpjrpHYgeE2MeeMjXx3A0oh76bcnfSx+IasfjYSaMjMCEw
DgYDVR0PAQH/BAQDAgWgMA8GA1UdEwEB/wQFMAMCAQMwCgYIKoZIzj0EAwIDRwAw
RAIgZvyr3opEf3SJJytYFIEP3mQQPednMLv3YGwrEJyVfDUCIFc1gYPKHz3i2tNG
RZzTDpxQ+iK5srGSe7U7sC0ylFYG
-----END CERTIFICATE-----
