Certificate:
    Data:
        Version: 3 (0x2)
        Serial Number: 34 (0x22)
        Signature Algorithm: ecdsa-with-SHA256
        Issuer: CN=Regione Sardegna, C=IT, ST=Italia, O=E-Voting system, OU=E-Voting system authority/emailAddress=Sardegna@evoting.it
        Validity
            Not Before: Aug 26 15:21:05 2022 GMT
            Not After : Aug 26 15:21:05 2023 GMT
        Subject: CN=Raymond, C=IT, ST=Italia, O=Regione Sardegna
        Subject Public Key Info:
            Public Key Algorithm: id-ecPublicKey
                Public-Key: (256 bit)
                pub:
                    04:07:bd:75:e8:77:36:fd:b3:00:65:07:4b:d7:08:
                    58:01:5a:c1:51:37:29:c2:4d:3c:ce:54:ec:b5:42:
                    9a:fa:a9:5e:a2:47:25:6d:72:1f:79:e0:b6:d8:91:
                    7a:1e:13:81:87:ad:a2:e6:f6:b5:dc:00:bd:b0:e1:
                    9c:b8:5d:4c:36
                ASN1 OID: secp256k1
        X509v3 extensions:
            X509v3 Key Usage: critical
                Digital Signature, Key Encipherment
            X509v3 Basic Constraints: critical
                CA:FALSE, pathlen:3
    Signature Algorithm: ecdsa-with-SHA256
         30:44:02:20:51:25:c8:1d:6d:69:f7:65:07:fe:69:73:a2:70:
         28:d6:fc:ec:05:fc:e9:aa:05:82:f9:cd:73:cb:44:83:fc:bc:
         02:20:0d:c6:54:6c:0c:45:63:74:b8:e5:18:94:11:d2:9d:bc:
         19:38:c8:88:80:32:c5:09:35:11:55:29:24:c2:43:2c
-----BEGIN CERTIFICATE-----
MIIB9TCCAZygAwIBAgIBIjAKBggqhkjOPQQDAjCBmzEZMBcGA1UEAwwQUmVnaW9u
ZSBTYXJkZWduYTELMAkGA1UEBhMCSVQxDzANBgNVBAgMBkl0YWxpYTEYMBYGA1UE
CgwPRS1Wb3Rpbmcgc3lzdGVtMSIwIAYDVQQLDBlFLVZvdGluZyBzeXN0ZW0gYXV0
aG9yaXR5MSIwIAYJKoZIhvcNAQkBFhNTYXJkZWduYUBldm90aW5nLml0MB4XDTIy
MDgyNjE1MjEwNVoXDTIzMDgyNjE1MjEwNVowSzEQMA4GA1UEAwwHUmF5bW9uZDEL
MAkGA1UEBhMCSVQxDzANBgNVBAgMBkl0YWxpYTEZMBcGA1UECgwQUmVnaW9uZSBT
YXJkZWduYTBWMBAGByqGSM49AgEGBSuBBAAKA0IABAe9deh3Nv2zAGUHS9cIWAFa
wVE3KcJNPM5U7LVCmvqpXqJHJW1yH3ngttiReh4TgYetoub2tdwAvbDhnLhdTDaj
IzAhMA4GA1UdDwEB/wQEAwIFoDAPBgNVHRMBAf8EBTADAgEDMAoGCCqGSM49BAMC
A0cAMEQCIFElyB1tafdlB/5pc6JwKNb87AX86aoFgvnNc8tEg/y8AiANxlRsDEVj
dLjlGJQR0p28GTjIiIAyxQk1EVUpJMJDLA==
-----END CERTIFICATE-----
