Certificate:
    Data:
        Version: 3 (0x2)
        Serial Number: 29 (0x1d)
        Signature Algorithm: ecdsa-with-SHA256
        Issuer: CN=Regione Marche, C=IT, ST=Italia, O=E-Voting system, OU=E-Voting system authority/emailAddress=Marche@evoting.it
        Validity
            Not Before: Aug  3 13:27:15 2022 GMT
            Not After : Aug  3 13:27:15 2023 GMT
        Subject: CN=Regina, C=IT, ST=Italia, O=Regione Marche
        Subject Public Key Info:
            Public Key Algorithm: id-ecPublicKey
                Public-Key: (256 bit)
                pub:
                    04:3e:32:a6:c0:68:00:0f:d0:6f:50:11:1d:69:a6:
                    31:f0:7e:54:b5:85:e3:d1:c8:2b:79:65:5b:9f:b2:
                    9c:2a:6b:12:4e:df:a4:c0:e9:77:11:a2:91:0c:af:
                    8c:46:f8:71:09:aa:bb:14:9d:f5:16:44:1b:42:47:
                    86:30:18:7e:a2
                ASN1 OID: prime256v1
                NIST CURVE: P-256
        X509v3 extensions:
            X509v3 Key Usage: critical
                Digital Signature, Key Encipherment
            X509v3 Basic Constraints: critical
                CA:FALSE, pathlen:3
    Signature Algorithm: ecdsa-with-SHA256
         30:45:02:21:00:88:b0:ca:48:08:46:51:57:b9:40:1a:3c:38:
         a8:c3:87:d8:fc:b7:19:d7:a9:99:12:5c:e9:3c:5e:05:79:45:
         b5:02:20:30:76:8e:0d:66:25:d1:34:18:ca:50:78:89:21:be:
         46:c9:44:f4:1d:36:7f:0d:9d:ec:43:7a:28:48:10:d8:df
-----BEGIN CERTIFICATE-----
MIIB8jCCAZigAwIBAgIBHTAKBggqhkjOPQQDAjCBlzEXMBUGA1UEAwwOUmVnaW9u
ZSBNYXJjaGUxCzAJBgNVBAYTAklUMQ8wDQYDVQQIDAZJdGFsaWExGDAWBgNVBAoM
D0UtVm90aW5nIHN5c3RlbTEiMCAGA1UECwwZRS1Wb3Rpbmcgc3lzdGVtIGF1dGhv
cml0eTEgMB4GCSqGSIb3DQEJARYRTWFyY2hlQGV2b3RpbmcuaXQwHhcNMjIwODAz
MTMyNzE1WhcNMjMwODAzMTMyNzE1WjBIMQ8wDQYDVQQDDAZSZWdpbmExCzAJBgNV
BAYTAklUMQ8wDQYDVQQIDAZJdGFsaWExFzAVBgNVBAoMDlJlZ2lvbmUgTWFyY2hl
MFkwEwYHKoZIzj0CAQYIKoZIzj0DAQcDQgAEPjKmwGgAD9BvUBEdaaYx8H5UtYXj
0cgreWVbn7KcKmsSTt+kwOl3EaKRDK+MRvhxCaq7FJ31FkQbQkeGMBh+oqMjMCEw
DgYDVR0PAQH/BAQDAgWgMA8GA1UdEwEB/wQFMAMCAQMwCgYIKoZIzj0EAwIDSAAw
RQIhAIiwykgIRlFXuUAaPDiow4fY/LcZ16mZElzpPF4FeUW1AiAwdo4NZiXRNBjK
UHiJIb5GyUT0HTZ/DZ3sQ3ooSBDY3w==
-----END CERTIFICATE-----
