Certificate:
    Data:
        Version: 3 (0x2)
        Serial Number: 11 (0xb)
        Signature Algorithm: ecdsa-with-SHA256
        Issuer: CN=Regione Veneto, C=IT, ST=Italia, O=E-Voting system, OU=E-Voting system authority/emailAddress=Veneto@evoting.it
        Validity
            Not Before: Aug 26 15:19:51 2022 GMT
            Not After : Aug 26 15:19:51 2023 GMT
        Subject: CN=Regina, C=IT, ST=Italia, O=Regione Veneto
        Subject Public Key Info:
            Public Key Algorithm: id-ecPublicKey
                Public-Key: (256 bit)
                pub:
                    04:ef:b0:bc:7f:f9:69:ae:e9:e6:bd:a9:75:c7:50:
                    21:c7:33:e8:2d:fc:27:f2:10:30:c5:02:c0:e2:a2:
                    0d:d4:2f:8a:b4:b5:4f:cd:68:d2:8a:39:27:65:ba:
                    8b:11:1a:35:04:d1:4b:c2:e3:c8:dc:f8:95:58:72:
                    6d:1d:e3:d3:28
                ASN1 OID: secp256k1
        X509v3 extensions:
            X509v3 Key Usage: critical
                Digital Signature, Key Encipherment
            X509v3 Basic Constraints: critical
                CA:FALSE, pathlen:3
    Signature Algorithm: ecdsa-with-SHA256
         30:46:02:21:00:c9:76:fe:89:27:47:db:80:64:99:86:a6:3c:
         71:a9:a4:84:dc:68:51:a0:38:16:05:4a:b7:01:3e:f0:d3:9b:
         ff:02:21:00:84:22:af:33:5b:d1:7e:4b:dd:7f:87:a3:7e:a6:
         d4:0c:fe:c4:8e:06:f9:a3:00:4b:c7:3c:44:7e:32:74:50:2c
-----BEGIN CERTIFICATE-----
MIIB8DCCAZWgAwIBAgIBCzAKBggqhkjOPQQDAjCBlzEXMBUGA1UEAwwOUmVnaW9u
ZSBWZW5ldG8xCzAJBgNVBAYTAklUMQ8wDQYDVQQIDAZJdGFsaWExGDAWBgNVBAoM
D0UtVm90aW5nIHN5c3RlbTEiMCAGA1UECwwZRS1Wb3Rpbmcgc3lzdGVtIGF1dGhv
cml0eTEgMB4GCSqGSIb3DQEJARYRVmVuZXRvQGV2b3RpbmcuaXQwHhcNMjIwODI2
MTUxOTUxWhcNMjMwODI2MTUxOTUxWjBIMQ8wDQYDVQQDDAZSZWdpbmExCzAJBgNV
BAYTAklUMQ8wDQYDVQQIDAZJdGFsaWExFzAVBgNVBAoMDlJlZ2lvbmUgVmVuZXRv
MFYwEAYHKoZIzj0CAQYFK4EEAAoDQgAE77C8f/lprunmval1x1AhxzPoLfwn8hAw
xQLA4qIN1C+KtLVPzWjSijknZbqLERo1BNFLwuPI3PiVWHJtHePTKKMjMCEwDgYD
VR0PAQH/BAQDAgWgMA8GA1UdEwEB/wQFMAMCAQMwCgYIKoZIzj0EAwIDSQAwRgIh
AMl2/oknR9uAZJmGpjxxqaSE3GhRoDgWBUq3AT7w05v/AiEAhCKvM1vRfkvdf4ej
fqbUDP7Ejgb5owBLxzxEfjJ0UCw=
-----END CERTIFICATE-----
