Certificate:
    Data:
        Version: 3 (0x2)
        Serial Number: 51 (0x33)
        Signature Algorithm: ecdsa-with-SHA256
        Issuer: CN=Regione Calabria, C=IT, ST=Italia, O=E-Voting system, OU=E-Voting system authority/emailAddress=Calabria@evoting.it
        Validity
            Not Before: Aug  3 13:28:25 2022 GMT
            Not After : Aug  3 13:28:25 2023 GMT
        Subject: CN=Renae, C=IT, ST=Italia, O=Regione Calabria
        Subject Public Key Info:
            Public Key Algorithm: id-ecPublicKey
                Public-Key: (256 bit)
                pub:
                    04:25:35:55:d6:34:6d:10:16:dc:8a:6a:65:e6:3b:
                    6c:8b:8a:ac:0c:d3:ab:1a:f6:63:89:de:fa:86:94:
                    f0:4f:40:09:1c:fc:08:74:f7:03:28:ee:31:00:25:
                    d8:fc:f9:4f:af:fa:3a:d5:b0:3b:82:b0:f8:48:f3:
                    8e:a4:9e:32:42
                ASN1 OID: prime256v1
                NIST CURVE: P-256
        X509v3 extensions:
            X509v3 Key Usage: critical
                Digital Signature, Key Encipherment
            X509v3 Basic Constraints: critical
                CA:FALSE, pathlen:3
    Signature Algorithm: ecdsa-with-SHA256
         30:45:02:20:19:e6:41:f4:3c:63:79:33:ec:42:cc:e3:a0:e5:
         a7:23:c4:b0:a9:81:85:fc:56:42:ff:c2:3a:84:59:21:72:57:
         02:21:00:9d:4e:97:e6:45:94:b2:b9:f0:8b:4e:f6:ff:fe:3e:
         60:c6:30:11:c2:15:30:7e:a7:fa:d7:02:af:18:00:5e:8d
-----BEGIN CERTIFICATE-----
MIIB9zCCAZ2gAwIBAgIBMzAKBggqhkjOPQQDAjCBmzEZMBcGA1UEAwwQUmVnaW9u
ZSBDYWxhYnJpYTELMAkGA1UEBhMCSVQxDzANBgNVBAgMBkl0YWxpYTEYMBYGA1UE
CgwPRS1Wb3Rpbmcgc3lzdGVtMSIwIAYDVQQLDBlFLVZvdGluZyBzeXN0ZW0gYXV0
aG9yaXR5MSIwIAYJKoZIhvcNAQkBFhNDYWxhYnJpYUBldm90aW5nLml0MB4XDTIy
MDgwMzEzMjgyNVoXDTIzMDgwMzEzMjgyNVowSTEOMAwGA1UEAwwFUmVuYWUxCzAJ
BgNVBAYTAklUMQ8wDQYDVQQIDAZJdGFsaWExGTAXBgNVBAoMEFJlZ2lvbmUgQ2Fs
YWJyaWEwWTATBgcqhkjOPQIBBggqhkjOPQMBBwNCAAQlNVXWNG0QFtyKamXmO2yL
iqwM06sa9mOJ3vqGlPBPQAkc/Ah09wMo7jEAJdj8+U+v+jrVsDuCsPhI846knjJC
oyMwITAOBgNVHQ8BAf8EBAMCBaAwDwYDVR0TAQH/BAUwAwIBAzAKBggqhkjOPQQD
AgNIADBFAiAZ5kH0PGN5M+xCzOOg5acjxLCpgYX8VkL/wjqEWSFyVwIhAJ1Ol+ZF
lLK58ItO9v/+PmDGMBHCFTB+p/rXAq8YAF6N
-----END CERTIFICATE-----
