Certificate:
    Data:
        Version: 3 (0x2)
        Serial Number: 10 (0xa)
        Signature Algorithm: ecdsa-with-SHA256
        Issuer: CN=Regione Toscana, C=IT, ST=Italia, O=E-Voting system, OU=E-Voting system authority/emailAddress=Toscana@evoting.it
        Validity
            Not Before: Aug  3 13:26:04 2022 GMT
            Not After : Aug  3 13:26:04 2023 GMT
        Subject: CN=Rene, C=IT, ST=Italia, O=Regione Toscana
        Subject Public Key Info:
            Public Key Algorithm: id-ecPublicKey
                Public-Key: (256 bit)
                pub:
                    04:04:ec:a5:e9:ba:fb:68:6e:0c:9f:b0:a5:cf:7e:
                    a8:81:29:45:c8:24:2a:cd:f5:c8:26:b6:0f:26:49:
                    74:5d:e4:c8:f1:85:a0:76:3f:d6:e7:33:73:03:47:
                    fe:b3:08:66:5d:03:d8:89:bd:f1:18:90:ec:48:9a:
                    2a:13:32:f4:12
                ASN1 OID: prime256v1
                NIST CURVE: P-256
        X509v3 extensions:
            X509v3 Key Usage: critical
                Digital Signature, Key Encipherment
            X509v3 Basic Constraints: critical
                CA:FALSE, pathlen:3
    Signature Algorithm: ecdsa-with-SHA256
         30:45:02:20:2f:b6:71:f1:a7:ad:5c:b0:16:23:17:e5:c8:e0:
         c3:ca:30:22:3d:aa:a4:52:53:42:48:a2:88:c4:6a:1b:c8:48:
         02:21:00:92:41:af:7a:de:a6:22:04:ee:25:a5:c6:e9:81:32:
         d4:62:b4:f7:4a:02:98:de:0e:64:c0:8e:ca:71:24:bf:ec
-----BEGIN CERTIFICATE-----
MIIB8zCCAZmgAwIBAgIBCjAKBggqhkjOPQQDAjCBmTEYMBYGA1UEAwwPUmVnaW9u
ZSBUb3NjYW5hMQswCQYDVQQGEwJJVDEPMA0GA1UECAwGSXRhbGlhMRgwFgYDVQQK
DA9FLVZvdGluZyBzeXN0ZW0xIjAgBgNVBAsMGUUtVm90aW5nIHN5c3RlbSBhdXRo
b3JpdHkxITAfBgkqhkiG9w0BCQEWElRvc2NhbmFAZXZvdGluZy5pdDAeFw0yMjA4
MDMxMzI2MDRaFw0yMzA4MDMxMzI2MDRaMEcxDTALBgNVBAMMBFJlbmUxCzAJBgNV
BAYTAklUMQ8wDQYDVQQIDAZJdGFsaWExGDAWBgNVBAoMD1JlZ2lvbmUgVG9zY2Fu
YTBZMBMGByqGSM49AgEGCCqGSM49AwEHA0IABATspem6+2huDJ+wpc9+qIEpRcgk
Ks31yCa2DyZJdF3kyPGFoHY/1uczcwNH/rMIZl0D2Im98RiQ7EiaKhMy9BKjIzAh
MA4GA1UdDwEB/wQEAwIFoDAPBgNVHRMBAf8EBTADAgEDMAoGCCqGSM49BAMCA0gA
MEUCIC+2cfGnrVywFiMX5cjgw8owIj2qpFJTQkiiiMRqG8hIAiEAkkGvet6mIgTu
JaXG6YEy1GK090oCmN4OZMCOynEkv+w=
-----END CERTIFICATE-----
