Certificate:
    Data:
        Version: 3 (0x2)
        Serial Number: 36 (0x24)
        Signature Algorithm: ecdsa-with-SHA256
        Issuer: CN=Regione Calabria, C=IT, ST=Italia, O=E-Voting system, OU=E-Voting system authority/emailAddress=Calabria@evoting.it
        Validity
            Not Before: Aug  3 13:27:32 2022 GMT
            Not After : Aug  3 13:27:32 2023 GMT
        Subject: CN=Renee, C=IT, ST=Italia, O=Regione Calabria
        Subject Public Key Info:
            Public Key Algorithm: id-ecPublicKey
                Public-Key: (256 bit)
                pub:
                    04:b2:c6:60:97:fe:22:b3:b9:f6:57:f7:8d:8f:96:
                    17:51:20:15:38:3b:92:74:13:9c:47:3b:51:27:16:
                    d1:37:fd:97:7d:95:ee:0f:9b:ce:6a:9d:5d:6b:41:
                    37:7c:fb:8d:19:ed:44:1a:4a:49:28:76:3a:3b:8c:
                    68:a5:a6:bc:9f
                ASN1 OID: prime256v1
                NIST CURVE: P-256
        X509v3 extensions:
            X509v3 Key Usage: critical
                Digital Signature, Key Encipherment
            X509v3 Basic Constraints: critical
                CA:FALSE, pathlen:3
    Signature Algorithm: ecdsa-with-SHA256
         30:43:02:1f:58:27:b8:e4:cb:52:16:ca:e9:a0:93:64:63:db:
         34:56:37:36:c2:d6:56:f5:5a:fc:32:65:db:92:90:6d:2d:02:
         20:0f:74:ac:06:f9:81:f3:a1:f9:dd:47:c0:e1:6d:d8:b4:75:
         99:f9:7f:1f:e3:84:09:d1:5d:f8:bc:55:34:2a:95
-----BEGIN CERTIFICATE-----
MIIB9TCCAZ2gAwIBAgIBJDAKBggqhkjOPQQDAjCBmzEZMBcGA1UEAwwQUmVnaW9u
ZSBDYWxhYnJpYTELMAkGA1UEBhMCSVQxDzANBgNVBAgMBkl0YWxpYTEYMBYGA1UE
CgwPRS1Wb3Rpbmcgc3lzdGVtMSIwIAYDVQQLDBlFLVZvdGluZyBzeXN0ZW0gYXV0
aG9yaXR5MSIwIAYJKoZIhvcNAQkBFhNDYWxhYnJpYUBldm90aW5nLml0MB4XDTIy
MDgwMzEzMjczMloXDTIzMDgwMzEzMjczMlowSTEOMAwGA1UEAwwFUmVuZWUxCzAJ
BgNVBAYTAklUMQ8wDQYDVQQIDAZJdGFsaWExGTAXBgNVBAoMEFJlZ2lvbmUgQ2Fs
YWJyaWEwWTATBgcqhkjOPQIBBggqhkjOPQMBBwNCAASyxmCX/iKzufZX942PlhdR
IBU4O5J0E5xHO1EnFtE3/Zd9le4Pm85qnV1rQTd8+40Z7UQaSkkodjo7jGilpryf
oyMwITAOBgNVHQ8BAf8EBAMCBaAwDwYDVR0TAQH/BAUwAwIBAzAKBggqhkjOPQQD
AgNGADBDAh9YJ7jky1IWyumgk2Rj2zRWNzbC1lb1WvwyZduSkG0tAiAPdKwG+YHz
ofndR8Dhbdi0dZn5fx/jhAnRXfi8VTQqlQ==
-----END CERTIFICATE-----
