Certificate:
    Data:
        Version: 3 (0x2)
        Serial Number: 18 (0x12)
        Signature Algorithm: ecdsa-with-SHA256
        Issuer: CN=Regione Lombardia, C=IT, ST=Italia, O=E-Voting system, OU=E-Voting system authority/emailAddress=Lombardia@evoting.it
        Validity
            Not Before: Aug  3 13:26:50 2022 GMT
            Not After : Aug  3 13:26:50 2023 GMT
        Subject: CN=Reta, C=IT, ST=Italia, O=Regione Lombardia
        Subject Public Key Info:
            Public Key Algorithm: id-ecPublicKey
                Public-Key: (256 bit)
                pub:
                    04:f5:22:4c:56:3c:3f:de:71:92:3e:7e:06:53:01:
                    de:94:59:91:ea:25:db:ad:67:05:e5:0d:53:11:fc:
                    a8:73:f8:dc:2b:76:b7:b4:91:c6:91:8b:1f:35:c2:
                    fc:41:ae:7f:3a:82:07:50:44:5f:f6:01:40:79:6c:
                    51:6f:c9:c1:1b
                ASN1 OID: prime256v1
                NIST CURVE: P-256
        X509v3 extensions:
            X509v3 Key Usage: critical
                Digital Signature, Key Encipherment
            X509v3 Basic Constraints: critical
                CA:FALSE, pathlen:3
    Signature Algorithm: ecdsa-with-SHA256
         30:45:02:20:0d:5e:eb:5f:8a:59:5f:6d:92:a1:f5:f1:6f:ea:
         d1:39:73:23:d9:e7:c5:cc:6c:58:4c:bc:9c:4d:83:16:b9:c9:
         02:21:00:b2:26:de:75:c7:bf:18:2f:76:d1:69:fb:7a:62:93:
         96:2e:4f:df:14:0a:e8:55:dd:95:b5:43:28:21:c8:4a:63
-----BEGIN CERTIFICATE-----
MIIB+TCCAZ+gAwIBAgIBEjAKBggqhkjOPQQDAjCBnTEaMBgGA1UEAwwRUmVnaW9u
ZSBMb21iYXJkaWExCzAJBgNVBAYTAklUMQ8wDQYDVQQIDAZJdGFsaWExGDAWBgNV
BAoMD0UtVm90aW5nIHN5c3RlbTEiMCAGA1UECwwZRS1Wb3Rpbmcgc3lzdGVtIGF1
dGhvcml0eTEjMCEGCSqGSIb3DQEJARYUTG9tYmFyZGlhQGV2b3RpbmcuaXQwHhcN
MjIwODAzMTMyNjUwWhcNMjMwODAzMTMyNjUwWjBJMQ0wCwYDVQQDDARSZXRhMQsw
CQYDVQQGEwJJVDEPMA0GA1UECAwGSXRhbGlhMRowGAYDVQQKDBFSZWdpb25lIExv
bWJhcmRpYTBZMBMGByqGSM49AgEGCCqGSM49AwEHA0IABPUiTFY8P95xkj5+BlMB
3pRZkeol261nBeUNUxH8qHP43Ct2t7SRxpGLHzXC/EGufzqCB1BEX/YBQHlsUW/J
wRujIzAhMA4GA1UdDwEB/wQEAwIFoDAPBgNVHRMBAf8EBTADAgEDMAoGCCqGSM49
BAMCA0gAMEUCIA1e61+KWV9tkqH18W/q0TlzI9nnxcxsWEy8nE2DFrnJAiEAsibe
dce/GC920Wn7emKTli5P3xQK6FXdlbVDKCHISmM=
-----END CERTIFICATE-----
