Certificate:
    Data:
        Version: 3 (0x2)
        Serial Number: 18 (0x12)
        Signature Algorithm: ecdsa-with-SHA256
        Issuer: CN=Regione Abruzzo, C=IT, ST=Italia, O=E-Voting system, OU=E-Voting system authority/emailAddress=Abruzzo@evoting.it
        Validity
            Not Before: Aug 26 15:20:11 2022 GMT
            Not After : Aug 26 15:20:11 2023 GMT
        Subject: CN=Reva, C=IT, ST=Italia, O=Regione Abruzzo
        Subject Public Key Info:
            Public Key Algorithm: id-ecPublicKey
                Public-Key: (256 bit)
                pub:
                    04:2a:48:0f:f5:c1:3e:1d:7f:cd:21:bb:6e:9f:df:
                    07:54:80:29:53:36:a5:0a:1d:d8:c8:15:1e:d9:57:
                    84:06:4e:6a:2b:82:a6:4a:c9:ce:e4:bf:14:bc:58:
                    69:db:41:d8:64:94:64:f5:7e:dd:6d:6f:d6:49:91:
                    fc:df:27:eb:fd
                ASN1 OID: secp256k1
        X509v3 extensions:
            X509v3 Key Usage: critical
                Digital Signature, Key Encipherment
            X509v3 Basic Constraints: critical
                CA:FALSE, pathlen:3
    Signature Algorithm: ecdsa-with-SHA256
         30:44:02:20:04:99:9b:fa:0d:a4:4a:2a:54:63:d0:50:6f:75:
         26:95:c6:e8:58:86:67:31:4c:53:82:6e:c8:e8:7e:99:53:de:
         02:20:77:65:87:7c:3b:ad:ee:13:d3:63:4e:5e:1c:9a:ce:99:
         dc:3f:be:6a:40:44:57:a4:d9:4f:d4:ba:2a:cb:bd:a4
-----BEGIN CERTIFICATE-----
MIIB7zCCAZagAwIBAgIBEjAKBggqhkjOPQQDAjCBmTEYMBYGA1UEAwwPUmVnaW9u
ZSBBYnJ1enpvMQswCQYDVQQGEwJJVDEPMA0GA1UECAwGSXRhbGlhMRgwFgYDVQQK
DA9FLVZvdGluZyBzeXN0ZW0xIjAgBgNVBAsMGUUtVm90aW5nIHN5c3RlbSBhdXRo
b3JpdHkxITAfBgkqhkiG9w0BCQEWEkFicnV6em9AZXZvdGluZy5pdDAeFw0yMjA4
MjYxNTIwMTFaFw0yMzA4MjYxNTIwMTFaMEcxDTALBgNVBAMMBFJldmExCzAJBgNV
BAYTAklUMQ8wDQYDVQQIDAZJdGFsaWExGDAWBgNVBAoMD1JlZ2lvbmUgQWJydXp6
bzBWMBAGByqGSM49AgEGBSuBBAAKA0IABCpID/XBPh1/zSG7bp/fB1SAKVM2pQod
2MgVHtlXhAZOaiuCpkrJzuS/FLxYadtB2GSUZPV+3W1v1kmR/N8n6/2jIzAhMA4G
A1UdDwEB/wQEAwIFoDAPBgNVHRMBAf8EBTADAgEDMAoGCCqGSM49BAMCA0cAMEQC
IASZm/oNpEoqVGPQUG91JpXG6FiGZzFMU4JuyOh+mVPeAiB3ZYd8O63uE9NjTl4c
ms6Z3D++akBEV6TZT9S6Ksu9pA==
-----END CERTIFICATE-----
