Certificate:
    Data:
        Version: 3 (0x2)
        Serial Number: 22 (0x16)
        Signature Algorithm: ecdsa-with-SHA256
        Issuer: CN=Regione Sicilia, C=IT, ST=Italia, O=E-Voting system, OU=E-Voting system authority/emailAddress=Sicilia@evoting.it
        Validity
            Not Before: Aug  3 13:27:19 2022 GMT
            Not After : Aug  3 13:27:19 2023 GMT
        Subject: CN=Reva, C=IT, ST=Italia, O=Regione Sicilia
        Subject Public Key Info:
            Public Key Algorithm: id-ecPublicKey
                Public-Key: (256 bit)
                pub:
                    04:79:be:e6:bd:2b:fb:56:60:9b:c1:c8:0d:c5:35:
                    6d:65:52:dd:c3:76:d9:f8:ca:df:2b:ab:c5:4c:17:
                    e1:e5:ed:c1:31:33:78:80:ba:11:81:61:69:c0:e5:
                    54:01:93:27:52:18:3b:b5:06:1f:02:2e:82:16:57:
                    b0:51:aa:95:71
                ASN1 OID: prime256v1
                NIST CURVE: P-256
        X509v3 extensions:
            X509v3 Key Usage: critical
                Digital Signature, Key Encipherment
            X509v3 Basic Constraints: critical
                CA:FALSE, pathlen:3
    Signature Algorithm: ecdsa-with-SHA256
         30:45:02:21:00:9e:a0:5f:78:59:80:81:d3:b4:41:55:c8:9d:
         24:3b:84:48:76:2b:ce:a5:fa:1f:11:90:e5:da:10:86:c3:a8:
         33:02:20:77:e5:c4:1f:10:c3:50:60:0c:e8:c6:7e:42:11:89:
         6e:9b:8e:39:97:a3:c8:de:e2:1e:ac:8a:56:ae:84:c1:7b
-----BEGIN CERTIFICATE-----
MIIB8zCCAZmgAwIBAgIBFjAKBggqhkjOPQQDAjCBmTEYMBYGA1UEAwwPUmVnaW9u
ZSBTaWNpbGlhMQswCQYDVQQGEwJJVDEPMA0GA1UECAwGSXRhbGlhMRgwFgYDVQQK
DA9FLVZvdGluZyBzeXN0ZW0xIjAgBgNVBAsMGUUtVm90aW5nIHN5c3RlbSBhdXRo
b3JpdHkxITAfBgkqhkiG9w0BCQEWElNpY2lsaWFAZXZvdGluZy5pdDAeFw0yMjA4
MDMxMzI3MTlaFw0yMzA4MDMxMzI3MTlaMEcxDTALBgNVBAMMBFJldmExCzAJBgNV
BAYTAklUMQ8wDQYDVQQIDAZJdGFsaWExGDAWBgNVBAoMD1JlZ2lvbmUgU2ljaWxp
YTBZMBMGByqGSM49AgEGCCqGSM49AwEHA0IABHm+5r0r+1Zgm8HIDcU1bWVS3cN2
2fjK3yurxUwX4eXtwTEzeIC6EYFhacDlVAGTJ1IYO7UGHwIughZXsFGqlXGjIzAh
MA4GA1UdDwEB/wQEAwIFoDAPBgNVHRMBAf8EBTADAgEDMAoGCCqGSM49BAMCA0gA
MEUCIQCeoF94WYCB07RBVcidJDuESHYrzqX6HxGQ5doQhsOoMwIgd+XEHxDDUGAM
6MZ+QhGJbpuOOZejyN7iHqyKVq6EwXs=
-----END CERTIFICATE-----
