Certificate:
    Data:
        Version: 3 (0x2)
        Serial Number: 7 (0x7)
        Signature Algorithm: ecdsa-with-SHA256
        Issuer: CN=Regione Emilia_Romagna, C=IT, ST=Italia, O=E-Voting system, OU=E-Voting system authority/emailAddress=Emilia_Romagna@evoting.it
        Validity
            Not Before: Aug 26 15:18:42 2022 GMT
            Not After : Aug 26 15:18:42 2023 GMT
        Subject: CN=Rhonda, C=IT, ST=Italia, O=Regione Emilia_Romagna
        Subject Public Key Info:
            Public Key Algorithm: id-ecPublicKey
                Public-Key: (256 bit)
                pub:
                    04:ff:9a:f2:e2:ed:39:4d:d8:42:0c:ae:03:90:74:
                    5f:e0:ef:bb:91:8a:e7:09:9f:66:02:c8:4e:96:e3:
                    fc:02:87:d6:cc:dc:fd:5f:f4:aa:95:12:40:10:25:
                    6c:2f:c5:92:9b:78:f0:94:7c:68:84:87:96:96:50:
                    81:27:74:9d:db
                ASN1 OID: secp256k1
        X509v3 extensions:
            X509v3 Key Usage: critical
                Digital Signature, Key Encipherment
            X509v3 Basic Constraints: critical
                CA:FALSE, pathlen:3
    Signature Algorithm: ecdsa-with-SHA256
         30:45:02:21:00:8a:50:9b:92:c8:8c:32:01:95:bb:4e:61:57:
         08:e1:b2:e4:c3:f0:a0:10:38:06:d0:2c:5d:d3:5e:34:fa:b8:
         89:02:20:2c:21:73:a8:01:2e:ff:5d:07:bd:74:37:e0:22:88:
         e0:8b:d8:17:20:c5:70:be:aa:13:1a:bb:59:b8:53:a1:12
-----BEGIN CERTIFICATE-----
MIICBzCCAa2gAwIBAgIBBzAKBggqhkjOPQQDAjCBpzEfMB0GA1UEAwwWUmVnaW9u
ZSBFbWlsaWFfUm9tYWduYTELMAkGA1UEBhMCSVQxDzANBgNVBAgMBkl0YWxpYTEY
MBYGA1UECgwPRS1Wb3Rpbmcgc3lzdGVtMSIwIAYDVQQLDBlFLVZvdGluZyBzeXN0
ZW0gYXV0aG9yaXR5MSgwJgYJKoZIhvcNAQkBFhlFbWlsaWFfUm9tYWduYUBldm90
aW5nLml0MB4XDTIyMDgyNjE1MTg0MloXDTIzMDgyNjE1MTg0MlowUDEPMA0GA1UE
AwwGUmhvbmRhMQswCQYDVQQGEwJJVDEPMA0GA1UECAwGSXRhbGlhMR8wHQYDVQQK
DBZSZWdpb25lIEVtaWxpYV9Sb21hZ25hMFYwEAYHKoZIzj0CAQYFK4EEAAoDQgAE
/5ry4u05TdhCDK4DkHRf4O+7kYrnCZ9mAshOluP8AofWzNz9X/SqlRJAECVsL8WS
m3jwlHxohIeWllCBJ3Sd26MjMCEwDgYDVR0PAQH/BAQDAgWgMA8GA1UdEwEB/wQF
MAMCAQMwCgYIKoZIzj0EAwIDSAAwRQIhAIpQm5LIjDIBlbtOYVcI4bLkw/CgEDgG
0Cxd0140+riJAiAsIXOoAS7/XQe9dDfgIojgi9gXIMVwvqoTGrtZuFOhEg==
-----END CERTIFICATE-----
