Certificate:
    Data:
        Version: 3 (0x2)
        Serial Number: 28 (0x1c)
        Signature Algorithm: ecdsa-with-SHA256
        Issuer: CN=Regione Marche, C=IT, ST=Italia, O=E-Voting system, OU=E-Voting system authority/emailAddress=Marche@evoting.it
        Validity
            Not Before: Aug 26 15:21:28 2022 GMT
            Not After : Aug 26 15:21:28 2023 GMT
        Subject: CN=Ricardo, C=IT, ST=Italia, O=Regione Marche
        Subject Public Key Info:
            Public Key Algorithm: id-ecPublicKey
                Public-Key: (256 bit)
                pub:
                    04:40:c1:9b:7b:22:b5:48:00:c7:b1:89:38:81:96:
                    2e:b1:da:1f:fa:07:f3:7d:59:ef:f0:83:5f:65:98:
                    b4:3b:50:f8:39:36:02:be:f0:5c:c2:91:fd:56:34:
                    70:69:ca:24:45:eb:93:9d:5c:5a:2b:42:95:6e:6a:
                    70:80:77:a8:18
                ASN1 OID: secp256k1
        X509v3 extensions:
            X509v3 Key Usage: critical
                Digital Signature, Key Encipherment
            X509v3 Basic Constraints: critical
                CA:FALSE, pathlen:3
    Signature Algorithm: ecdsa-with-SHA256
         30:45:02:21:00:fb:f8:0b:d4:1e:e5:6f:07:b1:ca:ff:ec:16:
         c6:c5:53:74:ba:71:39:0a:e3:af:f7:e1:09:1f:91:02:35:24:
         ca:02:20:20:71:52:4d:dc:ef:7c:a0:a3:d6:17:70:c0:49:20:
         b4:e2:36:a4:ac:d7:6b:f7:ae:73:80:be:18:0d:25:91:42
-----BEGIN CERTIFICATE-----
MIIB8DCCAZagAwIBAgIBHDAKBggqhkjOPQQDAjCBlzEXMBUGA1UEAwwOUmVnaW9u
ZSBNYXJjaGUxCzAJBgNVBAYTAklUMQ8wDQYDVQQIDAZJdGFsaWExGDAWBgNVBAoM
D0UtVm90aW5nIHN5c3RlbTEiMCAGA1UECwwZRS1Wb3Rpbmcgc3lzdGVtIGF1dGhv
cml0eTEgMB4GCSqGSIb3DQEJARYRTWFyY2hlQGV2b3RpbmcuaXQwHhcNMjIwODI2
MTUyMTI4WhcNMjMwODI2MTUyMTI4WjBJMRAwDgYDVQQDDAdSaWNhcmRvMQswCQYD
VQQGEwJJVDEPMA0GA1UECAwGSXRhbGlhMRcwFQYDVQQKDA5SZWdpb25lIE1hcmNo
ZTBWMBAGByqGSM49AgEGBSuBBAAKA0IABEDBm3sitUgAx7GJOIGWLrHaH/oH831Z
7/CDX2WYtDtQ+Dk2Ar7wXMKR/VY0cGnKJEXrk51cWitClW5qcIB3qBijIzAhMA4G
A1UdDwEB/wQEAwIFoDAPBgNVHRMBAf8EBTADAgEDMAoGCCqGSM49BAMCA0gAMEUC
IQD7+AvUHuVvB7HK/+wWxsVTdLpxOQrjr/fhCR+RAjUkygIgIHFSTdzvfKCj1hdw
wEkgtOI2pKzXa/euc4C+GA0lkUI=
-----END CERTIFICATE-----
