Certificate:
    Data:
        Version: 3 (0x2)
        Serial Number: 52 (0x34)
        Signature Algorithm: ecdsa-with-SHA256
        Issuer: CN=Regione Liguria, C=IT, ST=Italia, O=E-Voting system, OU=E-Voting system authority/emailAddress=Liguria@evoting.it
        Validity
            Not Before: Aug  3 13:28:27 2022 GMT
            Not After : Aug  3 13:28:27 2023 GMT
        Subject: CN=Richard, C=IT, ST=Italia, O=Regione Liguria
        Subject Public Key Info:
            Public Key Algorithm: id-ecPublicKey
                Public-Key: (256 bit)
                pub:
                    04:44:17:a6:7c:dd:3b:b5:fa:7d:3a:f6:3e:4b:12:
                    8e:46:c7:43:e4:ab:61:78:2f:67:3e:9b:e3:1b:3b:
                    02:77:b1:76:be:d9:c6:ba:14:9c:20:d8:f5:42:64:
                    83:69:03:28:ed:24:e7:43:48:6f:45:86:f1:40:c7:
                    1c:3a:a6:e7:86
                ASN1 OID: prime256v1
                NIST CURVE: P-256
        X509v3 extensions:
            X509v3 Key Usage: critical
                Digital Signature, Key Encipherment
            X509v3 Basic Constraints: critical
                CA:FALSE, pathlen:3
    Signature Algorithm: ecdsa-with-SHA256
         30:45:02:20:10:d8:a2:cc:95:10:dd:7c:dc:0f:e6:12:f8:40:
         4d:88:a3:51:89:6c:79:a8:3f:1b:45:d5:b5:e4:23:5d:71:18:
         02:21:00:bd:bb:fa:12:04:5e:01:77:6e:ab:d5:f9:f0:a0:f1:
         00:d5:53:a1:d3:32:8c:75:9a:3b:9a:6d:dc:da:db:23:fe
-----BEGIN CERTIFICATE-----
MIIB9jCCAZygAwIBAgIBNDAKBggqhkjOPQQDAjCBmTEYMBYGA1UEAwwPUmVnaW9u
ZSBMaWd1cmlhMQswCQYDVQQGEwJJVDEPMA0GA1UECAwGSXRhbGlhMRgwFgYDVQQK
DA9FLVZvdGluZyBzeXN0ZW0xIjAgBgNVBAsMGUUtVm90aW5nIHN5c3RlbSBhdXRo
b3JpdHkxITAfBgkqhkiG9w0BCQEWEkxpZ3VyaWFAZXZvdGluZy5pdDAeFw0yMjA4
MDMxMzI4MjdaFw0yMzA4MDMxMzI4MjdaMEoxEDAOBgNVBAMMB1JpY2hhcmQxCzAJ
BgNVBAYTAklUMQ8wDQYDVQQIDAZJdGFsaWExGDAWBgNVBAoMD1JlZ2lvbmUgTGln
dXJpYTBZMBMGByqGSM49AgEGCCqGSM49AwEHA0IABEQXpnzdO7X6fTr2PksSjkbH
Q+SrYXgvZz6b4xs7Anexdr7ZxroUnCDY9UJkg2kDKO0k50NIb0WG8UDHHDqm54aj
IzAhMA4GA1UdDwEB/wQEAwIFoDAPBgNVHRMBAf8EBTADAgEDMAoGCCqGSM49BAMC
A0gAMEUCIBDYosyVEN183A/mEvhATYijUYlseag/G0XVteQjXXEYAiEAvbv6EgRe
AXduq9X58KDxANVTodMyjHWaO5pt3NrbI/4=
-----END CERTIFICATE-----
