Certificate:
    Data:
        Version: 3 (0x2)
        Serial Number: 12 (0xc)
        Signature Algorithm: ecdsa-with-SHA256
        Issuer: CN=Regione Toscana, C=IT, ST=Italia, O=E-Voting system, OU=E-Voting system authority/emailAddress=Toscana@evoting.it
        Validity
            Not Before: Aug 26 15:19:27 2022 GMT
            Not After : Aug 26 15:19:27 2023 GMT
        Subject: CN=Richard, C=IT, ST=Italia, O=Regione Toscana
        Subject Public Key Info:
            Public Key Algorithm: id-ecPublicKey
                Public-Key: (256 bit)
                pub:
                    04:91:1c:d5:31:82:82:85:cf:61:7a:0c:26:e7:db:
                    b2:6a:3d:67:a5:d7:10:91:3f:95:14:31:5a:fa:b3:
                    b4:ac:56:11:34:ad:7e:88:0c:de:48:bb:c0:d1:2f:
                    54:49:ee:e0:c7:87:76:bb:5e:8f:e3:dc:b7:84:e8:
                    e9:b8:04:51:7c
                ASN1 OID: secp256k1
        X509v3 extensions:
            X509v3 Key Usage: critical
                Digital Signature, Key Encipherment
            X509v3 Basic Constraints: critical
                CA:FALSE, pathlen:3
    Signature Algorithm: ecdsa-with-SHA256
         30:45:02:21:00:ad:a5:e1:39:6c:e0:77:cd:f6:73:63:1c:0a:
         a3:0c:d6:b9:1d:30:7f:17:eb:e1:a0:14:0d:1b:88:36:7f:6f:
         ac:02:20:5d:a0:50:ff:7a:3b:9e:f1:6d:1f:f9:5e:06:7e:e2:
         bd:d6:e8:e8:99:25:d8:0b:3c:3f:e1:b7:b3:93:4a:f8:fa
-----BEGIN CERTIFICATE-----
MIIB8zCCAZmgAwIBAgIBDDAKBggqhkjOPQQDAjCBmTEYMBYGA1UEAwwPUmVnaW9u
ZSBUb3NjYW5hMQswCQYDVQQGEwJJVDEPMA0GA1UECAwGSXRhbGlhMRgwFgYDVQQK
DA9FLVZvdGluZyBzeXN0ZW0xIjAgBgNVBAsMGUUtVm90aW5nIHN5c3RlbSBhdXRo
b3JpdHkxITAfBgkqhkiG9w0BCQEWElRvc2NhbmFAZXZvdGluZy5pdDAeFw0yMjA4
MjYxNTE5MjdaFw0yMzA4MjYxNTE5MjdaMEoxEDAOBgNVBAMMB1JpY2hhcmQxCzAJ
BgNVBAYTAklUMQ8wDQYDVQQIDAZJdGFsaWExGDAWBgNVBAoMD1JlZ2lvbmUgVG9z
Y2FuYTBWMBAGByqGSM49AgEGBSuBBAAKA0IABJEc1TGCgoXPYXoMJufbsmo9Z6XX
EJE/lRQxWvqztKxWETStfogM3ki7wNEvVEnu4MeHdrtej+Pct4To6bgEUXyjIzAh
MA4GA1UdDwEB/wQEAwIFoDAPBgNVHRMBAf8EBTADAgEDMAoGCCqGSM49BAMCA0gA
MEUCIQCtpeE5bOB3zfZzYxwKowzWuR0wfxfr4aAUDRuINn9vrAIgXaBQ/3o7nvFt
H/leBn7ivdbo6Jkl2As8P+G3s5NK+Po=
-----END CERTIFICATE-----
