Certificate:
    Data:
        Version: 3 (0x2)
        Serial Number: 29 (0x1d)
        Signature Algorithm: ecdsa-with-SHA256
        Issuer: CN=Regione Toscana, C=IT, ST=Italia, O=E-Voting system, OU=E-Voting system authority/emailAddress=Toscana@evoting.it
        Validity
            Not Before: Aug 26 15:20:38 2022 GMT
            Not After : Aug 26 15:20:38 2023 GMT
        Subject: CN=Ricky, C=IT, ST=Italia, O=Regione Toscana
        Subject Public Key Info:
            Public Key Algorithm: id-ecPublicKey
                Public-Key: (256 bit)
                pub:
                    04:0f:87:5a:83:cc:21:0c:44:f0:d0:aa:6f:15:28:
                    77:7b:3c:03:f8:14:0a:44:34:78:53:cf:0c:99:0d:
                    6b:8c:85:c6:6d:0b:92:a2:9a:9d:5b:64:23:5d:77:
                    c3:a0:0d:65:8b:6e:9b:5d:8a:f0:72:2f:6f:d6:17:
                    9d:82:cd:97:19
                ASN1 OID: secp256k1
        X509v3 extensions:
            X509v3 Key Usage: critical
                Digital Signature, Key Encipherment
            X509v3 Basic Constraints: critical
                CA:FALSE, pathlen:3
    Signature Algorithm: ecdsa-with-SHA256
         30:46:02:21:00:c0:a4:5e:c8:3a:0b:b8:46:e4:b6:71:dd:cc:
         57:db:e1:d8:b6:8b:86:2c:51:7e:be:76:1f:b5:38:fa:35:ef:
         45:02:21:00:d7:fe:26:a3:77:e3:5a:6d:f2:88:f7:02:29:7b:
         1d:c2:de:8d:74:36:f2:e9:88:d9:18:43:26:d0:f6:f5:83:b9
-----BEGIN CERTIFICATE-----
MIIB8jCCAZegAwIBAgIBHTAKBggqhkjOPQQDAjCBmTEYMBYGA1UEAwwPUmVnaW9u
ZSBUb3NjYW5hMQswCQYDVQQGEwJJVDEPMA0GA1UECAwGSXRhbGlhMRgwFgYDVQQK
DA9FLVZvdGluZyBzeXN0ZW0xIjAgBgNVBAsMGUUtVm90aW5nIHN5c3RlbSBhdXRo
b3JpdHkxITAfBgkqhkiG9w0BCQEWElRvc2NhbmFAZXZvdGluZy5pdDAeFw0yMjA4
MjYxNTIwMzhaFw0yMzA4MjYxNTIwMzhaMEgxDjAMBgNVBAMMBVJpY2t5MQswCQYD
VQQGEwJJVDEPMA0GA1UECAwGSXRhbGlhMRgwFgYDVQQKDA9SZWdpb25lIFRvc2Nh
bmEwVjAQBgcqhkjOPQIBBgUrgQQACgNCAAQPh1qDzCEMRPDQqm8VKHd7PAP4FApE
NHhTzwyZDWuMhcZtC5Kimp1bZCNdd8OgDWWLbptdivByL2/WF52CzZcZoyMwITAO
BgNVHQ8BAf8EBAMCBaAwDwYDVR0TAQH/BAUwAwIBAzAKBggqhkjOPQQDAgNJADBG
AiEAwKReyDoLuEbktnHdzFfb4di2i4YsUX6+dh+1OPo170UCIQDX/iajd+NabfKI
9wIpex3C3o10NvLpiNkYQybQ9vWDuQ==
-----END CERTIFICATE-----
