Certificate:
    Data:
        Version: 3 (0x2)
        Serial Number: 40 (0x28)
        Signature Algorithm: ecdsa-with-SHA256
        Issuer: CN=Regione Liguria, C=IT, ST=Italia, O=E-Voting system, OU=E-Voting system authority/emailAddress=Liguria@evoting.it
        Validity
            Not Before: Aug 26 15:20:30 2022 GMT
            Not After : Aug 26 15:20:30 2023 GMT
        Subject: CN=Rick, C=IT, ST=Italia, O=Regione Liguria
        Subject Public Key Info:
            Public Key Algorithm: id-ecPublicKey
                Public-Key: (256 bit)
                pub:
                    04:5c:b5:19:02:f5:68:d7:98:75:d0:38:9b:61:11:
                    4e:36:c2:d7:cf:00:bd:6f:86:91:cf:c0:0d:98:fa:
                    4e:1b:f9:7b:99:18:e7:0f:64:a1:54:65:af:cd:82:
                    c0:58:7c:b2:91:78:a9:75:d0:9f:85:00:2c:81:a5:
                    4a:7f:1c:3f:ad
                ASN1 OID: secp256k1
        X509v3 extensions:
            X509v3 Key Usage: critical
                Digital Signature, Key Encipherment
            X509v3 Basic Constraints: critical
                CA:FALSE, pathlen:3
    Signature Algorithm: ecdsa-with-SHA256
         30:44:02:20:11:73:c5:9b:12:30:40:cf:ff:92:6b:f6:ad:f4:
         57:67:bb:e8:ca:7a:9e:de:6b:99:39:df:b5:07:0d:00:9a:87:
         02:20:3d:c3:1d:ed:c6:f8:b2:d2:36:3b:86:8f:29:60:6b:61:
         b7:68:d3:d7:c5:34:28:2c:1b:0b:bd:8d:2d:84:01:29
-----BEGIN CERTIFICATE-----
MIIB7zCCAZagAwIBAgIBKDAKBggqhkjOPQQDAjCBmTEYMBYGA1UEAwwPUmVnaW9u
ZSBMaWd1cmlhMQswCQYDVQQGEwJJVDEPMA0GA1UECAwGSXRhbGlhMRgwFgYDVQQK
DA9FLVZvdGluZyBzeXN0ZW0xIjAgBgNVBAsMGUUtVm90aW5nIHN5c3RlbSBhdXRo
b3JpdHkxITAfBgkqhkiG9w0BCQEWEkxpZ3VyaWFAZXZvdGluZy5pdDAeFw0yMjA4
MjYxNTIwMzBaFw0yMzA4MjYxNTIwMzBaMEcxDTALBgNVBAMMBFJpY2sxCzAJBgNV
BAYTAklUMQ8wDQYDVQQIDAZJdGFsaWExGDAWBgNVBAoMD1JlZ2lvbmUgTGlndXJp
YTBWMBAGByqGSM49AgEGBSuBBAAKA0IABFy1GQL1aNeYddA4m2ERTjbC188AvW+G
kc/ADZj6Thv5e5kY5w9koVRlr82CwFh8spF4qXXQn4UALIGlSn8cP62jIzAhMA4G
A1UdDwEB/wQEAwIFoDAPBgNVHRMBAf8EBTADAgEDMAoGCCqGSM49BAMCA0cAMEQC
IBFzxZsSMEDP/5Jr9q30V2e76Mp6nt5rmTnftQcNAJqHAiA9wx3txviy0jY7ho8p
YGtht2jT18U0KCwbC72NLYQBKQ==
-----END CERTIFICATE-----
