Certificate:
    Data:
        Version: 3 (0x2)
        Serial Number: 25 (0x19)
        Signature Algorithm: ecdsa-with-SHA256
        Issuer: CN=Regione Sardegna, C=IT, ST=Italia, O=E-Voting system, OU=E-Voting system authority/emailAddress=Sardegna@evoting.it
        Validity
            Not Before: Aug  3 13:27:26 2022 GMT
            Not After : Aug  3 13:27:26 2023 GMT
        Subject: CN=Ricky, C=IT, ST=Italia, O=Regione Sardegna
        Subject Public Key Info:
            Public Key Algorithm: id-ecPublicKey
                Public-Key: (256 bit)
                pub:
                    04:9e:c5:6e:bf:11:a0:c0:0e:2e:02:e7:b3:c5:60:
                    f5:54:ff:a5:df:ab:e4:3f:ed:ca:b7:98:32:82:13:
                    5f:49:f9:18:2a:00:f2:58:82:2e:d2:5d:b3:e8:4c:
                    7b:d5:25:c1:c3:13:6b:cd:f4:ac:4a:68:23:ac:2e:
                    e1:8b:3a:cf:e3
                ASN1 OID: prime256v1
                NIST CURVE: P-256
        X509v3 extensions:
            X509v3 Key Usage: critical
                Digital Signature, Key Encipherment
            X509v3 Basic Constraints: critical
                CA:FALSE, pathlen:3
    Signature Algorithm: ecdsa-with-SHA256
         30:45:02:20:1c:d0:37:90:3b:47:57:09:11:f9:a6:c7:8b:0b:
         28:09:83:11:b4:a7:cd:06:79:16:df:41:47:2e:12:90:88:d6:
         02:21:00:f6:58:94:e5:5e:17:f8:f8:7a:4d:19:86:fc:82:fd:
         ed:08:bb:f4:c5:9f:99:78:6a:61:26:c0:d5:b9:20:ab:dd
-----BEGIN CERTIFICATE-----
MIIB9zCCAZ2gAwIBAgIBGTAKBggqhkjOPQQDAjCBmzEZMBcGA1UEAwwQUmVnaW9u
ZSBTYXJkZWduYTELMAkGA1UEBhMCSVQxDzANBgNVBAgMBkl0YWxpYTEYMBYGA1UE
CgwPRS1Wb3Rpbmcgc3lzdGVtMSIwIAYDVQQLDBlFLVZvdGluZyBzeXN0ZW0gYXV0
aG9yaXR5MSIwIAYJKoZIhvcNAQkBFhNTYXJkZWduYUBldm90aW5nLml0MB4XDTIy
MDgwMzEzMjcyNloXDTIzMDgwMzEzMjcyNlowSTEOMAwGA1UEAwwFUmlja3kxCzAJ
BgNVBAYTAklUMQ8wDQYDVQQIDAZJdGFsaWExGTAXBgNVBAoMEFJlZ2lvbmUgU2Fy
ZGVnbmEwWTATBgcqhkjOPQIBBggqhkjOPQMBBwNCAASexW6/EaDADi4C57PFYPVU
/6Xfq+Q/7cq3mDKCE19J+RgqAPJYgi7SXbPoTHvVJcHDE2vN9KxKaCOsLuGLOs/j
oyMwITAOBgNVHQ8BAf8EBAMCBaAwDwYDVR0TAQH/BAUwAwIBAzAKBggqhkjOPQQD
AgNIADBFAiAc0DeQO0dXCRH5pseLCygJgxG0p80GeRbfQUcuEpCI1gIhAPZYlOVe
F/j4ek0ZhvyC/e0Iu/TFn5l4amEmwNW5IKvd
-----END CERTIFICATE-----
