Certificate:
    Data:
        Version: 3 (0x2)
        Serial Number: 34 (0x22)
        Signature Algorithm: ecdsa-with-SHA256
        Issuer: CN=Regione Campania, C=IT, ST=Italia, O=E-Voting system, OU=E-Voting system authority/emailAddress=Campania@evoting.it
        Validity
            Not Before: Aug 26 15:20:44 2022 GMT
            Not After : Aug 26 15:20:44 2023 GMT
        Subject: CN=Rita, C=IT, ST=Italia, O=Regione Campania
        Subject Public Key Info:
            Public Key Algorithm: id-ecPublicKey
                Public-Key: (256 bit)
                pub:
                    04:90:c9:26:1a:3b:47:4a:be:09:71:1b:38:a0:85:
                    fb:91:64:f9:41:e1:7e:d3:a6:cc:d0:5f:e8:01:dd:
                    cc:de:9c:0e:ab:d1:28:fc:2d:82:f6:e9:c3:2d:5a:
                    4c:c4:3c:00:9a:38:f3:48:45:95:28:ba:bc:6b:09:
                    b0:9d:24:f5:50
                ASN1 OID: secp256k1
        X509v3 extensions:
            X509v3 Key Usage: critical
                Digital Signature, Key Encipherment
            X509v3 Basic Constraints: critical
                CA:FALSE, pathlen:3
    Signature Algorithm: ecdsa-with-SHA256
         30:46:02:21:00:b0:45:43:f5:d7:89:26:16:b2:e9:b5:3e:aa:
         77:3c:b2:5c:fd:9c:e4:90:42:53:d8:5b:bd:02:b9:98:3f:bf:
         b4:02:21:00:88:9e:42:74:8c:46:43:1a:13:ae:c9:5f:fd:d7:
         d3:1e:1c:4e:af:c9:f4:af:ee:70:7b:cf:b1:fd:56:ed:27:4a
-----BEGIN CERTIFICATE-----
MIIB9DCCAZmgAwIBAgIBIjAKBggqhkjOPQQDAjCBmzEZMBcGA1UEAwwQUmVnaW9u
ZSBDYW1wYW5pYTELMAkGA1UEBhMCSVQxDzANBgNVBAgMBkl0YWxpYTEYMBYGA1UE
CgwPRS1Wb3Rpbmcgc3lzdGVtMSIwIAYDVQQLDBlFLVZvdGluZyBzeXN0ZW0gYXV0
aG9yaXR5MSIwIAYJKoZIhvcNAQkBFhNDYW1wYW5pYUBldm90aW5nLml0MB4XDTIy
MDgyNjE1MjA0NFoXDTIzMDgyNjE1MjA0NFowSDENMAsGA1UEAwwEUml0YTELMAkG
A1UEBhMCSVQxDzANBgNVBAgMBkl0YWxpYTEZMBcGA1UECgwQUmVnaW9uZSBDYW1w
YW5pYTBWMBAGByqGSM49AgEGBSuBBAAKA0IABJDJJho7R0q+CXEbOKCF+5Fk+UHh
ftOmzNBf6AHdzN6cDqvRKPwtgvbpwy1aTMQ8AJo480hFlSi6vGsJsJ0k9VCjIzAh
MA4GA1UdDwEB/wQEAwIFoDAPBgNVHRMBAf8EBTADAgEDMAoGCCqGSM49BAMCA0kA
MEYCIQCwRUP114kmFrLptT6qdzyyXP2c5JBCU9hbvQK5mD+/tAIhAIieQnSMRkMa
E67JX/3X0x4cTq/J9K/ucHvPsf1W7SdK
-----END CERTIFICATE-----
