Certificate:
    Data:
        Version: 3 (0x2)
        Serial Number: 23 (0x17)
        Signature Algorithm: ecdsa-with-SHA256
        Issuer: CN=Regione Emilia_Romagna, C=IT, ST=Italia, O=E-Voting system, OU=E-Voting system authority/emailAddress=Emilia_Romagna@evoting.it
        Validity
            Not Before: Aug 26 15:19:52 2022 GMT
            Not After : Aug 26 15:19:52 2023 GMT
        Subject: CN=Rob, C=IT, ST=Italia, O=Regione Emilia_Romagna
        Subject Public Key Info:
            Public Key Algorithm: id-ecPublicKey
                Public-Key: (256 bit)
                pub:
                    04:91:29:2f:3b:f8:73:75:99:9f:43:b3:40:80:bd:
                    39:c3:57:46:b1:bb:10:86:85:e2:2b:ab:e7:d2:db:
                    26:6b:73:d1:60:97:29:97:bf:f7:b8:7c:fc:9f:df:
                    06:36:dc:8a:f6:19:7c:03:ec:e1:03:9f:00:07:4f:
                    fc:99:66:60:4a
                ASN1 OID: secp256k1
        X509v3 extensions:
            X509v3 Key Usage: critical
                Digital Signature, Key Encipherment
            X509v3 Basic Constraints: critical
                CA:FALSE, pathlen:3
    Signature Algorithm: ecdsa-with-SHA256
         30:46:02:21:00:a3:36:fc:ad:2f:d3:ae:99:37:62:af:69:08:
         1a:93:99:ae:7a:a2:ba:61:b3:82:a8:1c:fc:44:31:23:e7:17:
         51:02:21:00:81:b6:a9:cb:a6:7d:1c:a1:a8:76:b3:f9:21:ad:
         95:d6:e4:2c:b1:d9:a2:bc:98:83:9b:8a:8b:20:db:13:a8:c8
-----BEGIN CERTIFICATE-----
MIICBTCCAaqgAwIBAgIBFzAKBggqhkjOPQQDAjCBpzEfMB0GA1UEAwwWUmVnaW9u
ZSBFbWlsaWFfUm9tYWduYTELMAkGA1UEBhMCSVQxDzANBgNVBAgMBkl0YWxpYTEY
MBYGA1UECgwPRS1Wb3Rpbmcgc3lzdGVtMSIwIAYDVQQLDBlFLVZvdGluZyBzeXN0
ZW0gYXV0aG9yaXR5MSgwJgYJKoZIhvcNAQkBFhlFbWlsaWFfUm9tYWduYUBldm90
aW5nLml0MB4XDTIyMDgyNjE1MTk1MloXDTIzMDgyNjE1MTk1MlowTTEMMAoGA1UE
AwwDUm9iMQswCQYDVQQGEwJJVDEPMA0GA1UECAwGSXRhbGlhMR8wHQYDVQQKDBZS
ZWdpb25lIEVtaWxpYV9Sb21hZ25hMFYwEAYHKoZIzj0CAQYFK4EEAAoDQgAEkSkv
O/hzdZmfQ7NAgL05w1dGsbsQhoXiK6vn0tsma3PRYJcpl7/3uHz8n98GNtyK9hl8
A+zhA58AB0/8mWZgSqMjMCEwDgYDVR0PAQH/BAQDAgWgMA8GA1UdEwEB/wQFMAMC
AQMwCgYIKoZIzj0EAwIDSQAwRgIhAKM2/K0v066ZN2KvaQgak5mueqK6YbOCqBz8
RDEj5xdRAiEAgbapy6Z9HKGodrP5Ia2V1uQssdmivJiDm4qLINsTqMg=
-----END CERTIFICATE-----
