Certificate:
    Data:
        Version: 3 (0x2)
        Serial Number: 28 (0x1c)
        Signature Algorithm: ecdsa-with-SHA256
        Issuer: CN=Regione Liguria, C=IT, ST=Italia, O=E-Voting system, OU=E-Voting system authority/emailAddress=Liguria@evoting.it
        Validity
            Not Before: Aug  3 13:26:57 2022 GMT
            Not After : Aug  3 13:26:57 2023 GMT
        Subject: CN=Robbie, C=IT, ST=Italia, O=Regione Liguria
        Subject Public Key Info:
            Public Key Algorithm: id-ecPublicKey
                Public-Key: (256 bit)
                pub:
                    04:b9:5d:fd:dc:96:10:03:47:2e:4a:9d:8f:74:51:
                    f6:55:d8:1a:13:1b:2f:8b:bf:46:b7:15:51:77:ac:
                    bf:ba:2b:b0:27:25:85:50:e1:e3:54:e7:06:1e:33:
                    42:c0:7f:21:e6:d0:40:f6:10:36:eb:f3:e0:28:2e:
                    d7:18:83:d2:45
                ASN1 OID: prime256v1
                NIST CURVE: P-256
        X509v3 extensions:
            X509v3 Key Usage: critical
                Digital Signature, Key Encipherment
            X509v3 Basic Constraints: critical
                CA:FALSE, pathlen:3
    Signature Algorithm: ecdsa-with-SHA256
         30:44:02:21:00:99:f3:eb:f6:10:21:c2:49:d9:02:70:d4:9e:
         d5:a8:6c:c8:b9:27:17:2c:3c:19:82:5c:b6:65:ff:30:43:71:
         9d:02:1f:49:fc:51:64:69:ce:47:6c:d3:10:91:b9:e6:67:6d:
         0a:e0:6c:53:df:ba:dd:71:06:dd:5b:59:6f:a9:d9:01
-----BEGIN CERTIFICATE-----
MIIB9DCCAZugAwIBAgIBHDAKBggqhkjOPQQDAjCBmTEYMBYGA1UEAwwPUmVnaW9u
ZSBMaWd1cmlhMQswCQYDVQQGEwJJVDEPMA0GA1UECAwGSXRhbGlhMRgwFgYDVQQK
DA9FLVZvdGluZyBzeXN0ZW0xIjAgBgNVBAsMGUUtVm90aW5nIHN5c3RlbSBhdXRo
b3JpdHkxITAfBgkqhkiG9w0BCQEWEkxpZ3VyaWFAZXZvdGluZy5pdDAeFw0yMjA4
MDMxMzI2NTdaFw0yMzA4MDMxMzI2NTdaMEkxDzANBgNVBAMMBlJvYmJpZTELMAkG
A1UEBhMCSVQxDzANBgNVBAgMBkl0YWxpYTEYMBYGA1UECgwPUmVnaW9uZSBMaWd1
cmlhMFkwEwYHKoZIzj0CAQYIKoZIzj0DAQcDQgAEuV393JYQA0cuSp2PdFH2Vdga
Exsvi79GtxVRd6y/uiuwJyWFUOHjVOcGHjNCwH8h5tBA9hA26/PgKC7XGIPSRaMj
MCEwDgYDVR0PAQH/BAQDAgWgMA8GA1UdEwEB/wQFMAMCAQMwCgYIKoZIzj0EAwID
RwAwRAIhAJnz6/YQIcJJ2QJw1J7VqGzIuScXLDwZgly2Zf8wQ3GdAh9J/FFkac5H
bNMQkbnmZ20K4GxT37rdcQbdW1lvqdkB
-----END CERTIFICATE-----
