Certificate:
    Data:
        Version: 3 (0x2)
        Serial Number: 11 (0xb)
        Signature Algorithm: ecdsa-with-SHA256
        Issuer: CN=Regione Sicilia, C=IT, ST=Italia, O=E-Voting system, OU=E-Voting system authority/emailAddress=Sicilia@evoting.it
        Validity
            Not Before: Aug 26 15:19:06 2022 GMT
            Not After : Aug 26 15:19:06 2023 GMT
        Subject: CN=Robbie, C=IT, ST=Italia, O=Regione Sicilia
        Subject Public Key Info:
            Public Key Algorithm: id-ecPublicKey
                Public-Key: (256 bit)
                pub:
                    04:63:92:53:5f:f0:b4:b6:d5:78:b7:05:f4:9a:45:
                    54:94:1d:7d:35:53:b2:92:84:ec:bc:fa:f4:78:de:
                    74:40:7d:b9:76:f8:da:30:2d:cb:67:f7:94:58:f3:
                    f9:db:35:96:52:ac:2b:77:dc:cd:a2:9f:cf:81:02:
                    78:90:ca:8f:b7
                ASN1 OID: secp256k1
        X509v3 extensions:
            X509v3 Key Usage: critical
                Digital Signature, Key Encipherment
            X509v3 Basic Constraints: critical
                CA:FALSE, pathlen:3
    Signature Algorithm: ecdsa-with-SHA256
         30:46:02:21:00:ec:b2:82:bb:37:07:5f:1a:c4:98:78:7a:63:
         86:f1:9e:d7:bf:6a:53:08:84:35:d7:dd:a0:63:6d:bd:73:da:
         ed:02:21:00:cf:c0:42:73:1f:7c:ff:4a:92:24:fd:78:c3:01:
         bd:47:2f:76:18:c2:7b:0d:31:29:74:0f:05:df:b6:27:07:eb
-----BEGIN CERTIFICATE-----
MIIB8zCCAZigAwIBAgIBCzAKBggqhkjOPQQDAjCBmTEYMBYGA1UEAwwPUmVnaW9u
ZSBTaWNpbGlhMQswCQYDVQQGEwJJVDEPMA0GA1UECAwGSXRhbGlhMRgwFgYDVQQK
DA9FLVZvdGluZyBzeXN0ZW0xIjAgBgNVBAsMGUUtVm90aW5nIHN5c3RlbSBhdXRo
b3JpdHkxITAfBgkqhkiG9w0BCQEWElNpY2lsaWFAZXZvdGluZy5pdDAeFw0yMjA4
MjYxNTE5MDZaFw0yMzA4MjYxNTE5MDZaMEkxDzANBgNVBAMMBlJvYmJpZTELMAkG
A1UEBhMCSVQxDzANBgNVBAgMBkl0YWxpYTEYMBYGA1UECgwPUmVnaW9uZSBTaWNp
bGlhMFYwEAYHKoZIzj0CAQYFK4EEAAoDQgAEY5JTX/C0ttV4twX0mkVUlB19NVOy
koTsvPr0eN50QH25dvjaMC3LZ/eUWPP52zWWUqwrd9zNop/PgQJ4kMqPt6MjMCEw
DgYDVR0PAQH/BAQDAgWgMA8GA1UdEwEB/wQFMAMCAQMwCgYIKoZIzj0EAwIDSQAw
RgIhAOyygrs3B18axJh4emOG8Z7Xv2pTCIQ1192gY229c9rtAiEAz8BCcx98/0qS
JP14wwG9Ry92GMJ7DTEpdA8F37YnB+s=
-----END CERTIFICATE-----
