Certificate:
    Data:
        Version: 3 (0x2)
        Serial Number: 25 (0x19)
        Signature Algorithm: ecdsa-with-SHA256
        Issuer: CN=Regione Calabria, C=IT, ST=Italia, O=E-Voting system, OU=E-Voting system authority/emailAddress=Calabria@evoting.it
        Validity
            Not Before: Aug 26 15:20:26 2022 GMT
            Not After : Aug 26 15:20:26 2023 GMT
        Subject: CN=Robert, C=IT, ST=Italia, O=Regione Calabria
        Subject Public Key Info:
            Public Key Algorithm: id-ecPublicKey
                Public-Key: (256 bit)
                pub:
                    04:86:56:0f:66:7e:d7:e1:a4:c7:4c:8f:48:20:1b:
                    0f:53:4f:55:41:5b:45:6c:3c:5f:9d:f5:9d:a2:0f:
                    22:63:5d:6e:36:2f:6e:a5:13:e6:68:a0:cc:db:4a:
                    b2:ca:16:c7:24:0c:be:be:60:49:f3:65:38:75:99:
                    01:88:25:14:70
                ASN1 OID: secp256k1
        X509v3 extensions:
            X509v3 Key Usage: critical
                Digital Signature, Key Encipherment
            X509v3 Basic Constraints: critical
                CA:FALSE, pathlen:3
    Signature Algorithm: ecdsa-with-SHA256
         30:46:02:21:00:99:d0:47:c4:6c:f8:6a:c5:c8:41:c6:b9:f8:
         7e:16:86:b1:ed:41:7b:e1:0d:0a:6b:ba:52:f0:f7:19:6f:d1:
         df:02:21:00:d6:54:3a:ce:15:a7:25:e6:f9:c3:4b:30:44:9f:
         cc:55:9c:f1:88:f2:77:e4:7a:41:e8:ea:26:f2:2b:d5:ad:84
-----BEGIN CERTIFICATE-----
MIIB9jCCAZugAwIBAgIBGTAKBggqhkjOPQQDAjCBmzEZMBcGA1UEAwwQUmVnaW9u
ZSBDYWxhYnJpYTELMAkGA1UEBhMCSVQxDzANBgNVBAgMBkl0YWxpYTEYMBYGA1UE
CgwPRS1Wb3Rpbmcgc3lzdGVtMSIwIAYDVQQLDBlFLVZvdGluZyBzeXN0ZW0gYXV0
aG9yaXR5MSIwIAYJKoZIhvcNAQkBFhNDYWxhYnJpYUBldm90aW5nLml0MB4XDTIy
MDgyNjE1MjAyNloXDTIzMDgyNjE1MjAyNlowSjEPMA0GA1UEAwwGUm9iZXJ0MQsw
CQYDVQQGEwJJVDEPMA0GA1UECAwGSXRhbGlhMRkwFwYDVQQKDBBSZWdpb25lIENh
bGFicmlhMFYwEAYHKoZIzj0CAQYFK4EEAAoDQgAEhlYPZn7X4aTHTI9IIBsPU09V
QVtFbDxfnfWdog8iY11uNi9upRPmaKDM20qyyhbHJAy+vmBJ82U4dZkBiCUUcKMj
MCEwDgYDVR0PAQH/BAQDAgWgMA8GA1UdEwEB/wQFMAMCAQMwCgYIKoZIzj0EAwID
SQAwRgIhAJnQR8Rs+GrFyEHGufh+Foax7UF74Q0Ka7pS8PcZb9HfAiEA1lQ6zhWn
Jeb5w0swRJ/MVZzxiPJ35HpB6Oom8ivVrYQ=
-----END CERTIFICATE-----
