Certificate:
    Data:
        Version: 3 (0x2)
        Serial Number: 35 (0x23)
        Signature Algorithm: ecdsa-with-SHA256
        Issuer: CN=Regione Sicilia, C=IT, ST=Italia, O=E-Voting system, OU=E-Voting system authority/emailAddress=Sicilia@evoting.it
        Validity
            Not Before: Aug 26 15:20:38 2022 GMT
            Not After : Aug 26 15:20:38 2023 GMT
        Subject: CN=Roberto, C=IT, ST=Italia, O=Regione Sicilia
        Subject Public Key Info:
            Public Key Algorithm: id-ecPublicKey
                Public-Key: (256 bit)
                pub:
                    04:87:58:34:ff:72:84:bc:47:36:d5:e8:32:c2:db:
                    bd:a0:95:64:71:12:45:ec:e5:86:08:dc:31:88:c7:
                    d4:d9:13:99:f0:24:19:bd:a1:c0:99:f2:13:67:e0:
                    16:a7:00:65:3a:75:01:2d:dc:c6:87:6c:0e:ca:9b:
                    bb:3f:1d:81:cc
                ASN1 OID: secp256k1
        X509v3 extensions:
            X509v3 Key Usage: critical
                Digital Signature, Key Encipherment
            X509v3 Basic Constraints: critical
                CA:FALSE, pathlen:3
    Signature Algorithm: ecdsa-with-SHA256
         30:45:02:21:00:f1:4e:86:36:5b:ad:1a:64:37:79:07:77:31:
         da:39:8c:12:68:35:0c:f5:56:bf:06:a1:73:aa:a3:c2:45:8d:
         9e:02:20:0f:77:3c:d9:91:1d:83:37:a6:da:0e:89:5d:8c:e3:
         6a:a7:b7:91:8e:aa:32:76:55:24:15:32:42:cd:00:d1:96
-----BEGIN CERTIFICATE-----
MIIB8zCCAZmgAwIBAgIBIzAKBggqhkjOPQQDAjCBmTEYMBYGA1UEAwwPUmVnaW9u
ZSBTaWNpbGlhMQswCQYDVQQGEwJJVDEPMA0GA1UECAwGSXRhbGlhMRgwFgYDVQQK
DA9FLVZvdGluZyBzeXN0ZW0xIjAgBgNVBAsMGUUtVm90aW5nIHN5c3RlbSBhdXRo
b3JpdHkxITAfBgkqhkiG9w0BCQEWElNpY2lsaWFAZXZvdGluZy5pdDAeFw0yMjA4
MjYxNTIwMzhaFw0yMzA4MjYxNTIwMzhaMEoxEDAOBgNVBAMMB1JvYmVydG8xCzAJ
BgNVBAYTAklUMQ8wDQYDVQQIDAZJdGFsaWExGDAWBgNVBAoMD1JlZ2lvbmUgU2lj
aWxpYTBWMBAGByqGSM49AgEGBSuBBAAKA0IABIdYNP9yhLxHNtXoMsLbvaCVZHES
RezlhgjcMYjH1NkTmfAkGb2hwJnyE2fgFqcAZTp1AS3cxodsDsqbuz8dgcyjIzAh
MA4GA1UdDwEB/wQEAwIFoDAPBgNVHRMBAf8EBTADAgEDMAoGCCqGSM49BAMCA0gA
MEUCIQDxToY2W60aZDd5B3cx2jmMEmg1DPVWvwahc6qjwkWNngIgD3c82ZEdgzem
2g6JXYzjaqe3kY6qMnZVJBUyQs0A0ZY=
-----END CERTIFICATE-----
