Certificate:
    Data:
        Version: 3 (0x2)
        Serial Number: 3 (0x3)
        Signature Algorithm: ecdsa-with-SHA256
        Issuer: CN=Regione Umbria, C=IT, ST=Italia, O=E-Voting system, OU=E-Voting system authority/emailAddress=Umbria@evoting.it
        Validity
            Not Before: Aug 26 15:18:29 2022 GMT
            Not After : Aug 26 15:18:29 2023 GMT
        Subject: CN=Robin, C=IT, ST=Italia, O=Regione Umbria
        Subject Public Key Info:
            Public Key Algorithm: id-ecPublicKey
                Public-Key: (256 bit)
                pub:
                    04:8e:13:0d:52:92:40:e7:5b:40:8a:e9:b0:78:24:
                    80:d8:be:24:15:53:9a:bc:53:95:99:f4:6b:5b:41:
                    0d:a0:7a:d2:ee:de:4c:ec:43:45:ea:77:d7:38:61:
                    c7:8e:bd:5b:96:a9:ab:8a:81:bf:f8:a0:d8:f8:0f:
                    d6:82:b6:07:2f
                ASN1 OID: secp256k1
        X509v3 extensions:
            X509v3 Key Usage: critical
                Digital Signature, Key Encipherment
            X509v3 Basic Constraints: critical
                CA:FALSE, pathlen:3
    Signature Algorithm: ecdsa-with-SHA256
         30:46:02:21:00:cd:a9:b0:45:21:9f:59:ad:f8:2d:77:ee:1c:
         eb:c0:79:66:b8:15:a4:35:12:9f:d2:fa:10:cb:ce:a4:1c:20:
         b6:02:21:00:8d:c4:ce:9c:8e:c0:71:84:7a:db:88:05:67:e4:
         e9:0e:b1:49:42:06:5b:28:8d:2e:7e:4c:3f:6d:65:95:ad:15
-----BEGIN CERTIFICATE-----
MIIB7zCCAZSgAwIBAgIBAzAKBggqhkjOPQQDAjCBlzEXMBUGA1UEAwwOUmVnaW9u
ZSBVbWJyaWExCzAJBgNVBAYTAklUMQ8wDQYDVQQIDAZJdGFsaWExGDAWBgNVBAoM
D0UtVm90aW5nIHN5c3RlbTEiMCAGA1UECwwZRS1Wb3Rpbmcgc3lzdGVtIGF1dGhv
cml0eTEgMB4GCSqGSIb3DQEJARYRVW1icmlhQGV2b3RpbmcuaXQwHhcNMjIwODI2
MTUxODI5WhcNMjMwODI2MTUxODI5WjBHMQ4wDAYDVQQDDAVSb2JpbjELMAkGA1UE
BhMCSVQxDzANBgNVBAgMBkl0YWxpYTEXMBUGA1UECgwOUmVnaW9uZSBVbWJyaWEw
VjAQBgcqhkjOPQIBBgUrgQQACgNCAASOEw1SkkDnW0CK6bB4JIDYviQVU5q8U5WZ
9GtbQQ2getLu3kzsQ0Xqd9c4YceOvVuWqauKgb/4oNj4D9aCtgcvoyMwITAOBgNV
HQ8BAf8EBAMCBaAwDwYDVR0TAQH/BAUwAwIBAzAKBggqhkjOPQQDAgNJADBGAiEA
zamwRSGfWa34LXfuHOvAeWa4FaQ1Ep/S+hDLzqQcILYCIQCNxM6cjsBxhHrbiAVn
5OkOsUlCBlsojS5+TD9tZZWtFQ==
-----END CERTIFICATE-----
