Certificate:
    Data:
        Version: 3 (0x2)
        Serial Number: 43 (0x2b)
        Signature Algorithm: ecdsa-with-SHA256
        Issuer: CN=Regione Marche, C=IT, ST=Italia, O=E-Voting system, OU=E-Voting system authority/emailAddress=Marche@evoting.it
        Validity
            Not Before: Aug  3 13:28:11 2022 GMT
            Not After : Aug  3 13:28:11 2023 GMT
        Subject: CN=Robyn, C=IT, ST=Italia, O=Regione Marche
        Subject Public Key Info:
            Public Key Algorithm: id-ecPublicKey
                Public-Key: (256 bit)
                pub:
                    04:a2:7a:81:e8:f7:47:0f:82:fc:fd:79:4f:4c:6f:
                    90:b8:44:94:c4:04:dd:5f:df:02:c0:6f:43:1a:53:
                    31:d9:79:76:de:f3:6b:73:ed:b5:e1:08:a2:d2:8e:
                    59:64:1b:07:00:01:a9:8c:97:13:41:8e:dd:06:2d:
                    98:ff:d7:b1:95
                ASN1 OID: prime256v1
                NIST CURVE: P-256
        X509v3 extensions:
            X509v3 Key Usage: critical
                Digital Signature, Key Encipherment
            X509v3 Basic Constraints: critical
                CA:FALSE, pathlen:3
    Signature Algorithm: ecdsa-with-SHA256
         30:45:02:20:63:1c:e5:23:8a:a7:30:32:2d:d7:2c:30:2c:f1:
         eb:b0:de:a9:ea:88:04:31:81:3d:4b:63:ef:90:5e:a8:c8:1d:
         02:21:00:8e:42:b7:fe:34:fc:68:d0:d1:c1:4d:c6:5c:82:50:
         6e:13:1d:43:ad:8c:a1:57:a5:4e:b4:ef:b8:24:59:f1:40
-----BEGIN CERTIFICATE-----
MIIB8TCCAZegAwIBAgIBKzAKBggqhkjOPQQDAjCBlzEXMBUGA1UEAwwOUmVnaW9u
ZSBNYXJjaGUxCzAJBgNVBAYTAklUMQ8wDQYDVQQIDAZJdGFsaWExGDAWBgNVBAoM
D0UtVm90aW5nIHN5c3RlbTEiMCAGA1UECwwZRS1Wb3Rpbmcgc3lzdGVtIGF1dGhv
cml0eTEgMB4GCSqGSIb3DQEJARYRTWFyY2hlQGV2b3RpbmcuaXQwHhcNMjIwODAz
MTMyODExWhcNMjMwODAzMTMyODExWjBHMQ4wDAYDVQQDDAVSb2J5bjELMAkGA1UE
BhMCSVQxDzANBgNVBAgMBkl0YWxpYTEXMBUGA1UECgwOUmVnaW9uZSBNYXJjaGUw
WTATBgcqhkjOPQIBBggqhkjOPQMBBwNCAASieoHo90cPgvz9eU9Mb5C4RJTEBN1f
3wLAb0MaUzHZeXbe82tz7bXhCKLSjllkGwcAAamMlxNBjt0GLZj/17GVoyMwITAO
BgNVHQ8BAf8EBAMCBaAwDwYDVR0TAQH/BAUwAwIBAzAKBggqhkjOPQQDAgNIADBF
AiBjHOUjiqcwMi3XLDAs8euw3qnqiAQxgT1LY++QXqjIHQIhAI5Ct/40/GjQ0cFN
xlyCUG4THUOtjKFXpU6077gkWfFA
-----END CERTIFICATE-----
