Certificate:
    Data:
        Version: 3 (0x2)
        Serial Number: 43 (0x2b)
        Signature Algorithm: ecdsa-with-SHA256
        Issuer: CN=Regione Emilia_Romagna, C=IT, ST=Italia, O=E-Voting system, OU=E-Voting system authority/emailAddress=Emilia_Romagna@evoting.it
        Validity
            Not Before: Aug 26 15:21:15 2022 GMT
            Not After : Aug 26 15:21:15 2023 GMT
        Subject: CN=Robyn, C=IT, ST=Italia, O=Regione Emilia_Romagna
        Subject Public Key Info:
            Public Key Algorithm: id-ecPublicKey
                Public-Key: (256 bit)
                pub:
                    04:d7:8f:d5:d8:62:9b:7b:74:08:d7:a0:d0:39:7a:
                    0a:10:0e:65:ff:0f:55:04:5d:52:30:c9:10:ad:5d:
                    d9:45:da:fd:3c:b0:ef:55:95:a7:42:02:51:54:f1:
                    0d:a4:31:14:f9:d1:ee:fd:a9:1b:90:21:cb:e0:c9:
                    23:58:33:0e:5c
                ASN1 OID: secp256k1
        X509v3 extensions:
            X509v3 Key Usage: critical
                Digital Signature, Key Encipherment
            X509v3 Basic Constraints: critical
                CA:FALSE, pathlen:3
    Signature Algorithm: ecdsa-with-SHA256
         30:45:02:20:4b:74:55:b6:54:e9:b7:0c:1f:b6:ed:0e:06:3c:
         70:04:6c:c6:7d:90:dc:3f:37:24:7e:79:c4:69:d9:a1:00:4d:
         02:21:00:c8:11:92:de:82:ae:89:db:9f:16:da:3e:16:df:b5:
         5f:92:f0:9e:e1:3e:b2:ce:b3:07:48:6b:11:f4:8f:14:64
-----BEGIN CERTIFICATE-----
MIICBjCCAaygAwIBAgIBKzAKBggqhkjOPQQDAjCBpzEfMB0GA1UEAwwWUmVnaW9u
ZSBFbWlsaWFfUm9tYWduYTELMAkGA1UEBhMCSVQxDzANBgNVBAgMBkl0YWxpYTEY
MBYGA1UECgwPRS1Wb3Rpbmcgc3lzdGVtMSIwIAYDVQQLDBlFLVZvdGluZyBzeXN0
ZW0gYXV0aG9yaXR5MSgwJgYJKoZIhvcNAQkBFhlFbWlsaWFfUm9tYWduYUBldm90
aW5nLml0MB4XDTIyMDgyNjE1MjExNVoXDTIzMDgyNjE1MjExNVowTzEOMAwGA1UE
AwwFUm9ieW4xCzAJBgNVBAYTAklUMQ8wDQYDVQQIDAZJdGFsaWExHzAdBgNVBAoM
FlJlZ2lvbmUgRW1pbGlhX1JvbWFnbmEwVjAQBgcqhkjOPQIBBgUrgQQACgNCAATX
j9XYYpt7dAjXoNA5egoQDmX/D1UEXVIwyRCtXdlF2v08sO9VladCAlFU8Q2kMRT5
0e79qRuQIcvgySNYMw5coyMwITAOBgNVHQ8BAf8EBAMCBaAwDwYDVR0TAQH/BAUw
AwIBAzAKBggqhkjOPQQDAgNIADBFAiBLdFW2VOm3DB+27Q4GPHAEbMZ9kNw/NyR+
ecRp2aEATQIhAMgRkt6CronbnxbaPhbftV+S8J7hPrLOswdIaxH0jxRk
-----END CERTIFICATE-----
