Certificate:
    Data:
        Version: 3 (0x2)
        Serial Number: 11 (0xb)
        Signature Algorithm: ecdsa-with-SHA256
        Issuer: CN=Regione Campania, C=IT, ST=Italia, O=E-Voting system, OU=E-Voting system authority/emailAddress=Campania@evoting.it
        Validity
            Not Before: Aug  3 13:26:03 2022 GMT
            Not After : Aug  3 13:26:03 2023 GMT
        Subject: CN=Rocco, C=IT, ST=Italia, O=Regione Campania
        Subject Public Key Info:
            Public Key Algorithm: id-ecPublicKey
                Public-Key: (256 bit)
                pub:
                    04:47:6e:b7:97:5a:11:ab:dd:cf:38:c8:d7:41:9a:
                    27:39:36:c3:57:52:95:2b:63:e8:6d:be:b3:8e:4b:
                    ec:44:77:4b:98:ce:ee:48:51:41:de:f0:61:b6:36:
                    e4:0e:8b:8c:e3:b2:09:d3:9f:7c:ad:d2:6d:d5:5c:
                    27:10:f4:7d:5e
                ASN1 OID: prime256v1
                NIST CURVE: P-256
        X509v3 extensions:
            X509v3 Key Usage: critical
                Digital Signature, Key Encipherment
            X509v3 Basic Constraints: critical
                CA:FALSE, pathlen:3
    Signature Algorithm: ecdsa-with-SHA256
         30:45:02:21:00:b4:4a:a0:b5:65:e5:cc:32:33:81:4d:0c:f0:
         3e:79:6a:4e:25:24:0d:6a:44:1b:d6:bd:4f:82:81:98:00:f7:
         b4:02:20:55:e9:41:c5:04:8f:18:f4:f7:97:7b:73:bb:2e:39:
         a8:3e:ed:f5:94:6f:bb:12:c7:98:09:20:23:fa:8e:8f:38
-----BEGIN CERTIFICATE-----
MIIB9zCCAZ2gAwIBAgIBCzAKBggqhkjOPQQDAjCBmzEZMBcGA1UEAwwQUmVnaW9u
ZSBDYW1wYW5pYTELMAkGA1UEBhMCSVQxDzANBgNVBAgMBkl0YWxpYTEYMBYGA1UE
CgwPRS1Wb3Rpbmcgc3lzdGVtMSIwIAYDVQQLDBlFLVZvdGluZyBzeXN0ZW0gYXV0
aG9yaXR5MSIwIAYJKoZIhvcNAQkBFhNDYW1wYW5pYUBldm90aW5nLml0MB4XDTIy
MDgwMzEzMjYwM1oXDTIzMDgwMzEzMjYwM1owSTEOMAwGA1UEAwwFUm9jY28xCzAJ
BgNVBAYTAklUMQ8wDQYDVQQIDAZJdGFsaWExGTAXBgNVBAoMEFJlZ2lvbmUgQ2Ft
cGFuaWEwWTATBgcqhkjOPQIBBggqhkjOPQMBBwNCAARHbreXWhGr3c84yNdBmic5
NsNXUpUrY+htvrOOS+xEd0uYzu5IUUHe8GG2NuQOi4zjsgnTn3yt0m3VXCcQ9H1e
oyMwITAOBgNVHQ8BAf8EBAMCBaAwDwYDVR0TAQH/BAUwAwIBAzAKBggqhkjOPQQD
AgNIADBFAiEAtEqgtWXlzDIzgU0M8D55ak4lJA1qRBvWvU+CgZgA97QCIFXpQcUE
jxj095d7c7suOag+7fWUb7sSx5gJICP6jo84
-----END CERTIFICATE-----
