Certificate:
    Data:
        Version: 3 (0x2)
        Serial Number: 43 (0x2b)
        Signature Algorithm: ecdsa-with-SHA256
        Issuer: CN=Regione Calabria, C=IT, ST=Italia, O=E-Voting system, OU=E-Voting system authority/emailAddress=Calabria@evoting.it
        Validity
            Not Before: Aug  3 13:28:14 2022 GMT
            Not After : Aug  3 13:28:14 2023 GMT
        Subject: CN=Rochelle, C=IT, ST=Italia, O=Regione Calabria
        Subject Public Key Info:
            Public Key Algorithm: id-ecPublicKey
                Public-Key: (256 bit)
                pub:
                    04:f9:59:b0:8c:f7:85:11:7f:dc:35:7f:75:3f:30:
                    f8:46:95:dd:04:49:8b:32:6b:45:0f:ff:27:4d:0f:
                    59:d8:d8:c7:58:87:1f:47:4a:e1:4c:30:c8:8a:54:
                    be:3d:e6:27:fc:45:75:75:2d:4e:d5:b2:53:70:2c:
                    22:99:f5:65:ae
                ASN1 OID: prime256v1
                NIST CURVE: P-256
        X509v3 extensions:
            X509v3 Key Usage: critical
                Digital Signature, Key Encipherment
            X509v3 Basic Constraints: critical
                CA:FALSE, pathlen:3
    Signature Algorithm: ecdsa-with-SHA256
         30:46:02:21:00:83:9c:70:b5:2d:73:3a:25:be:83:5f:48:87:
         0a:75:a4:ca:78:5b:ef:d3:50:10:d7:ca:60:2a:67:72:98:a0:
         24:02:21:00:ca:d0:b9:f3:91:4b:2e:af:03:b7:18:5b:8c:d0:
         a9:eb:87:15:f8:e3:60:83:6e:ef:be:50:77:b8:9c:38:f8:76
-----BEGIN CERTIFICATE-----
MIIB+zCCAaCgAwIBAgIBKzAKBggqhkjOPQQDAjCBmzEZMBcGA1UEAwwQUmVnaW9u
ZSBDYWxhYnJpYTELMAkGA1UEBhMCSVQxDzANBgNVBAgMBkl0YWxpYTEYMBYGA1UE
CgwPRS1Wb3Rpbmcgc3lzdGVtMSIwIAYDVQQLDBlFLVZvdGluZyBzeXN0ZW0gYXV0
aG9yaXR5MSIwIAYJKoZIhvcNAQkBFhNDYWxhYnJpYUBldm90aW5nLml0MB4XDTIy
MDgwMzEzMjgxNFoXDTIzMDgwMzEzMjgxNFowTDERMA8GA1UEAwwIUm9jaGVsbGUx
CzAJBgNVBAYTAklUMQ8wDQYDVQQIDAZJdGFsaWExGTAXBgNVBAoMEFJlZ2lvbmUg
Q2FsYWJyaWEwWTATBgcqhkjOPQIBBggqhkjOPQMBBwNCAAT5WbCM94URf9w1f3U/
MPhGld0ESYsya0UP/ydND1nY2MdYhx9HSuFMMMiKVL495if8RXV1LU7VslNwLCKZ
9WWuoyMwITAOBgNVHQ8BAf8EBAMCBaAwDwYDVR0TAQH/BAUwAwIBAzAKBggqhkjO
PQQDAgNJADBGAiEAg5xwtS1zOiW+g19Ihwp1pMp4W+/TUBDXymAqZ3KYoCQCIQDK
0LnzkUsurwO3GFuM0KnrhxX442CDbu++UHe4nDj4dg==
-----END CERTIFICATE-----
