Certificate:
    Data:
        Version: 3 (0x2)
        Serial Number: 31 (0x1f)
        Signature Algorithm: ecdsa-with-SHA256
        Issuer: CN=Regione Sicilia, C=IT, ST=Italia, O=E-Voting system, OU=E-Voting system authority/emailAddress=Sicilia@evoting.it
        Validity
            Not Before: Aug  3 13:28:21 2022 GMT
            Not After : Aug  3 13:28:21 2023 GMT
        Subject: CN=Roderick, C=IT, ST=Italia, O=Regione Sicilia
        Subject Public Key Info:
            Public Key Algorithm: id-ecPublicKey
                Public-Key: (256 bit)
                pub:
                    04:c2:39:0e:24:bc:e8:f1:11:8b:f2:cd:e4:ab:f0:
                    83:50:d4:56:b8:42:60:08:6a:6f:2c:60:3c:9d:58:
                    9a:ca:0a:e8:b1:a4:ab:0b:ee:47:db:e6:c0:cf:9e:
                    4d:6e:6d:3f:bc:17:ef:dc:c1:1d:66:2b:ac:e5:05:
                    74:ab:61:06:2b
                ASN1 OID: prime256v1
                NIST CURVE: P-256
        X509v3 extensions:
            X509v3 Key Usage: critical
                Digital Signature, Key Encipherment
            X509v3 Basic Constraints: critical
                CA:FALSE, pathlen:3
    Signature Algorithm: ecdsa-with-SHA256
         30:45:02:20:5e:a6:f4:1e:50:0e:86:50:dd:ab:cc:73:1f:e9:
         08:4e:66:f9:8f:09:1e:c7:13:ec:92:98:b3:04:24:36:be:64:
         02:21:00:b0:b5:a2:85:95:43:89:91:c3:96:9d:47:5f:d8:82:
         91:85:80:70:14:9f:eb:78:07:f7:32:af:b3:e2:5f:c9:ba
-----BEGIN CERTIFICATE-----
MIIB9zCCAZ2gAwIBAgIBHzAKBggqhkjOPQQDAjCBmTEYMBYGA1UEAwwPUmVnaW9u
ZSBTaWNpbGlhMQswCQYDVQQGEwJJVDEPMA0GA1UECAwGSXRhbGlhMRgwFgYDVQQK
DA9FLVZvdGluZyBzeXN0ZW0xIjAgBgNVBAsMGUUtVm90aW5nIHN5c3RlbSBhdXRo
b3JpdHkxITAfBgkqhkiG9w0BCQEWElNpY2lsaWFAZXZvdGluZy5pdDAeFw0yMjA4
MDMxMzI4MjFaFw0yMzA4MDMxMzI4MjFaMEsxETAPBgNVBAMMCFJvZGVyaWNrMQsw
CQYDVQQGEwJJVDEPMA0GA1UECAwGSXRhbGlhMRgwFgYDVQQKDA9SZWdpb25lIFNp
Y2lsaWEwWTATBgcqhkjOPQIBBggqhkjOPQMBBwNCAATCOQ4kvOjxEYvyzeSr8INQ
1Fa4QmAIam8sYDydWJrKCuixpKsL7kfb5sDPnk1ubT+8F+/cwR1mK6zlBXSrYQYr
oyMwITAOBgNVHQ8BAf8EBAMCBaAwDwYDVR0TAQH/BAUwAwIBAzAKBggqhkjOPQQD
AgNIADBFAiBepvQeUA6GUN2rzHMf6QhOZvmPCR7HE+ySmLMEJDa+ZAIhALC1ooWV
Q4mRw5adR1/YgpGFgHAUn+t4B/cyr7PiX8m6
-----END CERTIFICATE-----
