Certificate:
    Data:
        Version: 3 (0x2)
        Serial Number: 44 (0x2c)
        Signature Algorithm: ecdsa-with-SHA256
        Issuer: CN=Regione Puglia, C=IT, ST=Italia, O=E-Voting system, OU=E-Voting system authority/emailAddress=Puglia@evoting.it
        Validity
            Not Before: Aug 26 15:21:14 2022 GMT
            Not After : Aug 26 15:21:14 2023 GMT
        Subject: CN=Roderick, C=IT, ST=Italia, O=Regione Puglia
        Subject Public Key Info:
            Public Key Algorithm: id-ecPublicKey
                Public-Key: (256 bit)
                pub:
                    04:43:22:2e:fb:42:ee:9d:78:79:a7:55:5b:c4:63:
                    f0:9e:0a:fd:a0:32:de:e1:f1:c1:ee:de:ac:dc:59:
                    21:8a:d7:84:53:1d:57:d2:2f:7e:99:ce:16:45:2e:
                    a9:f4:f2:dd:7f:29:e7:4f:5d:e1:f4:e3:a5:4f:0a:
                    05:be:11:fe:56
                ASN1 OID: secp256k1
        X509v3 extensions:
            X509v3 Key Usage: critical
                Digital Signature, Key Encipherment
            X509v3 Basic Constraints: critical
                CA:FALSE, pathlen:3
    Signature Algorithm: ecdsa-with-SHA256
         30:46:02:21:00:89:8a:ed:98:68:01:a8:ec:5c:d5:b1:7f:97:
         a9:5a:6a:c0:4e:12:aa:93:90:09:54:ea:f9:b5:49:84:f9:f0:
         73:02:21:00:b9:3e:7c:09:5e:66:16:25:5b:ac:16:6f:e1:42:
         5b:b6:dc:22:0d:95:fc:96:0d:66:ae:65:c4:b4:77:a7:20:e7
-----BEGIN CERTIFICATE-----
MIIB8jCCAZegAwIBAgIBLDAKBggqhkjOPQQDAjCBlzEXMBUGA1UEAwwOUmVnaW9u
ZSBQdWdsaWExCzAJBgNVBAYTAklUMQ8wDQYDVQQIDAZJdGFsaWExGDAWBgNVBAoM
D0UtVm90aW5nIHN5c3RlbTEiMCAGA1UECwwZRS1Wb3Rpbmcgc3lzdGVtIGF1dGhv
cml0eTEgMB4GCSqGSIb3DQEJARYRUHVnbGlhQGV2b3RpbmcuaXQwHhcNMjIwODI2
MTUyMTE0WhcNMjMwODI2MTUyMTE0WjBKMREwDwYDVQQDDAhSb2RlcmljazELMAkG
A1UEBhMCSVQxDzANBgNVBAgMBkl0YWxpYTEXMBUGA1UECgwOUmVnaW9uZSBQdWds
aWEwVjAQBgcqhkjOPQIBBgUrgQQACgNCAARDIi77Qu6deHmnVVvEY/CeCv2gMt7h
8cHu3qzcWSGK14RTHVfSL36ZzhZFLqn08t1/KedPXeH046VPCgW+Ef5WoyMwITAO
BgNVHQ8BAf8EBAMCBaAwDwYDVR0TAQH/BAUwAwIBAzAKBggqhkjOPQQDAgNJADBG
AiEAiYrtmGgBqOxc1bF/l6laasBOEqqTkAlU6vm1SYT58HMCIQC5PnwJXmYWJVus
Fm/hQlu23CINlfyWDWauZcS0d6cg5w==
-----END CERTIFICATE-----
