Certificate:
    Data:
        Version: 3 (0x2)
        Serial Number: 31 (0x1f)
        Signature Algorithm: ecdsa-with-SHA256
        Issuer: CN=Regione Abruzzo, C=IT, ST=Italia, O=E-Voting system, OU=E-Voting system authority/emailAddress=Abruzzo@evoting.it
        Validity
            Not Before: Aug 26 15:20:45 2022 GMT
            Not After : Aug 26 15:20:45 2023 GMT
        Subject: CN=Rodney, C=IT, ST=Italia, O=Regione Abruzzo
        Subject Public Key Info:
            Public Key Algorithm: id-ecPublicKey
                Public-Key: (256 bit)
                pub:
                    04:41:a5:32:cd:f7:3c:ff:d5:db:55:6b:6f:ef:c1:
                    23:d4:0a:1b:21:85:e3:83:72:91:ea:3d:e3:d3:aa:
                    6b:f5:82:1f:1a:28:bd:fe:36:48:cd:46:0d:02:11:
                    30:d4:bd:22:cf:ca:9f:f7:20:51:b2:34:3e:09:13:
                    a1:83:9a:5b:15
                ASN1 OID: secp256k1
        X509v3 extensions:
            X509v3 Key Usage: critical
                Digital Signature, Key Encipherment
            X509v3 Basic Constraints: critical
                CA:FALSE, pathlen:3
    Signature Algorithm: ecdsa-with-SHA256
         30:45:02:20:6c:8d:75:3b:ba:ba:09:bc:bb:e5:a2:42:df:c4:
         74:14:63:d3:67:9f:74:ff:74:24:98:f9:70:c6:e0:61:27:08:
         02:21:00:ff:69:24:32:68:1a:30:5d:e1:7c:49:59:d2:8b:5e:
         e6:b4:b3:e7:51:01:ca:0b:cd:fc:95:ab:ec:ec:18:aa:75
-----BEGIN CERTIFICATE-----
MIIB8jCCAZigAwIBAgIBHzAKBggqhkjOPQQDAjCBmTEYMBYGA1UEAwwPUmVnaW9u
ZSBBYnJ1enpvMQswCQYDVQQGEwJJVDEPMA0GA1UECAwGSXRhbGlhMRgwFgYDVQQK
DA9FLVZvdGluZyBzeXN0ZW0xIjAgBgNVBAsMGUUtVm90aW5nIHN5c3RlbSBhdXRo
b3JpdHkxITAfBgkqhkiG9w0BCQEWEkFicnV6em9AZXZvdGluZy5pdDAeFw0yMjA4
MjYxNTIwNDVaFw0yMzA4MjYxNTIwNDVaMEkxDzANBgNVBAMMBlJvZG5leTELMAkG
A1UEBhMCSVQxDzANBgNVBAgMBkl0YWxpYTEYMBYGA1UECgwPUmVnaW9uZSBBYnJ1
enpvMFYwEAYHKoZIzj0CAQYFK4EEAAoDQgAEQaUyzfc8/9XbVWtv78Ej1AobIYXj
g3KR6j3j06pr9YIfGii9/jZIzUYNAhEw1L0iz8qf9yBRsjQ+CROhg5pbFaMjMCEw
DgYDVR0PAQH/BAQDAgWgMA8GA1UdEwEB/wQFMAMCAQMwCgYIKoZIzj0EAwIDSAAw
RQIgbI11O7q6Cby75aJC38R0FGPTZ590/3QkmPlwxuBhJwgCIQD/aSQyaBowXeF8
SVnSi17mtLPnUQHKC838lavs7BiqdQ==
-----END CERTIFICATE-----
