Certificate:
    Data:
        Version: 3 (0x2)
        Serial Number: 10 (0xa)
        Signature Algorithm: ecdsa-with-SHA256
        Issuer: CN=Regione Valle_d_Aosta, C=IT, ST=Italia, O=E-Voting system, OU=E-Voting system authority/emailAddress=Valle_d_Aosta@evoting.it
        Validity
            Not Before: Aug  3 13:26:10 2022 GMT
            Not After : Aug  3 13:26:10 2023 GMT
        Subject: CN=Rodolfo, C=IT, ST=Italia, O=Regione Valle_d_Aosta
        Subject Public Key Info:
            Public Key Algorithm: id-ecPublicKey
                Public-Key: (256 bit)
                pub:
                    04:7a:fe:da:ea:4d:32:66:ba:14:37:0e:1b:e9:f6:
                    95:05:05:e3:49:f6:0e:7d:42:d3:81:52:aa:16:81:
                    7d:e9:b8:b3:b6:20:f6:55:71:75:92:6a:7c:45:d6:
                    ba:7c:fc:e8:70:76:ce:e9:dd:57:ca:44:a5:3b:f3:
                    2b:77:b0:da:1f
                ASN1 OID: prime256v1
                NIST CURVE: P-256
        X509v3 extensions:
            X509v3 Key Usage: critical
                Digital Signature, Key Encipherment
            X509v3 Basic Constraints: critical
                CA:FALSE, pathlen:3
    Signature Algorithm: ecdsa-with-SHA256
         30:45:02:21:00:c2:aa:7e:ab:7e:95:4b:6e:71:3b:1f:9f:2a:
         d4:7a:b6:5b:4f:cf:10:93:0c:02:a1:07:18:c3:82:e0:96:b4:
         a1:02:20:4d:f8:61:12:fd:b6:6a:6e:dc:d3:32:e7:24:40:ec:
         62:d5:24:72:11:08:7f:c6:45:b1:a9:e6:98:c3:83:9e:59
-----BEGIN CERTIFICATE-----
MIICCDCCAa6gAwIBAgIBCjAKBggqhkjOPQQDAjCBpTEeMBwGA1UEAwwVUmVnaW9u
ZSBWYWxsZV9kX0Fvc3RhMQswCQYDVQQGEwJJVDEPMA0GA1UECAwGSXRhbGlhMRgw
FgYDVQQKDA9FLVZvdGluZyBzeXN0ZW0xIjAgBgNVBAsMGUUtVm90aW5nIHN5c3Rl
bSBhdXRob3JpdHkxJzAlBgkqhkiG9w0BCQEWGFZhbGxlX2RfQW9zdGFAZXZvdGlu
Zy5pdDAeFw0yMjA4MDMxMzI2MTBaFw0yMzA4MDMxMzI2MTBaMFAxEDAOBgNVBAMM
B1JvZG9sZm8xCzAJBgNVBAYTAklUMQ8wDQYDVQQIDAZJdGFsaWExHjAcBgNVBAoM
FVJlZ2lvbmUgVmFsbGVfZF9Bb3N0YTBZMBMGByqGSM49AgEGCCqGSM49AwEHA0IA
BHr+2upNMma6FDcOG+n2lQUF40n2Dn1C04FSqhaBfem4s7Yg9lVxdZJqfEXWunz8
6HB2zundV8pEpTvzK3ew2h+jIzAhMA4GA1UdDwEB/wQEAwIFoDAPBgNVHRMBAf8E
BTADAgEDMAoGCCqGSM49BAMCA0gAMEUCIQDCqn6rfpVLbnE7H58q1Hq2W0/PEJMM
AqEHGMOC4Ja0oQIgTfhhEv22am7c0zLnJEDsYtUkchEIf8ZFsanmmMODnlk=
-----END CERTIFICATE-----
