Certificate:
    Data:
        Version: 3 (0x2)
        Serial Number: 8 (0x8)
        Signature Algorithm: ecdsa-with-SHA256
        Issuer: CN=Regione Friuli_Venezia_Giulia, C=IT, ST=Italia, O=E-Voting system, OU=E-Voting system authority/emailAddress=Friuli_Venezia_Giulia@evoting.it
        Validity
            Not Before: Aug 26 15:18:50 2022 GMT
            Not After : Aug 26 15:18:50 2023 GMT
        Subject: CN=Rodolfo, C=IT, ST=Italia, O=Regione Friuli_Venezia_Giulia
        Subject Public Key Info:
            Public Key Algorithm: id-ecPublicKey
                Public-Key: (256 bit)
                pub:
                    04:23:02:f4:f9:6a:ec:0e:36:db:67:95:be:e4:0f:
                    b1:8d:de:50:7a:d6:e5:d4:51:79:3e:4d:ac:3d:60:
                    df:f6:c6:9f:90:9a:c5:7d:fd:83:c4:49:4b:c0:3a:
                    29:39:c1:29:13:27:51:96:76:af:39:2b:26:83:88:
                    8d:a7:6d:d4:23
                ASN1 OID: secp256k1
        X509v3 extensions:
            X509v3 Key Usage: critical
                Digital Signature, Key Encipherment
            X509v3 Basic Constraints: critical
                CA:FALSE, pathlen:3
    Signature Algorithm: ecdsa-with-SHA256
         30:46:02:21:00:ec:1b:e5:98:6f:fd:11:14:be:a8:d4:22:f7:
         b6:a7:bf:5b:fc:90:25:7e:e1:dc:31:3c:6e:59:36:fa:c5:96:
         32:02:21:00:d2:07:cb:9c:df:f7:cb:b0:7c:e6:93:60:0a:ab:
         d9:65:c4:6e:d3:31:3d:56:b7:a5:88:a1:eb:d1:b0:cf:42:79
-----BEGIN CERTIFICATE-----
MIICHjCCAcOgAwIBAgIBCDAKBggqhkjOPQQDAjCBtTEmMCQGA1UEAwwdUmVnaW9u
ZSBGcml1bGlfVmVuZXppYV9HaXVsaWExCzAJBgNVBAYTAklUMQ8wDQYDVQQIDAZJ
dGFsaWExGDAWBgNVBAoMD0UtVm90aW5nIHN5c3RlbTEiMCAGA1UECwwZRS1Wb3Rp
bmcgc3lzdGVtIGF1dGhvcml0eTEvMC0GCSqGSIb3DQEJARYgRnJpdWxpX1ZlbmV6
aWFfR2l1bGlhQGV2b3RpbmcuaXQwHhcNMjIwODI2MTUxODUwWhcNMjMwODI2MTUx
ODUwWjBYMRAwDgYDVQQDDAdSb2RvbGZvMQswCQYDVQQGEwJJVDEPMA0GA1UECAwG
SXRhbGlhMSYwJAYDVQQKDB1SZWdpb25lIEZyaXVsaV9WZW5lemlhX0dpdWxpYTBW
MBAGByqGSM49AgEGBSuBBAAKA0IABCMC9Plq7A4222eVvuQPsY3eUHrW5dRReT5N
rD1g3/bGn5CaxX39g8RJS8A6KTnBKRMnUZZ2rzkrJoOIjadt1COjIzAhMA4GA1Ud
DwEB/wQEAwIFoDAPBgNVHRMBAf8EBTADAgEDMAoGCCqGSM49BAMCA0kAMEYCIQDs
G+WYb/0RFL6o1CL3tqe/W/yQJX7h3DE8blk2+sWWMgIhANIHy5zf98uwfOaTYAqr
2WXEbtMxPVa3pYih69Gwz0J5
-----END CERTIFICATE-----
