Certificate:
    Data:
        Version: 3 (0x2)
        Serial Number: 19 (0x13)
        Signature Algorithm: ecdsa-with-SHA256
        Issuer: CN=Regione Trentino_Alto_Adige, C=IT, ST=Italia, O=E-Voting system, OU=E-Voting system authority/emailAddress=Trentino_Alto_Adige@evoting.it
        Validity
            Not Before: Aug  3 13:27:01 2022 GMT
            Not After : Aug  3 13:27:01 2023 GMT
        Subject: CN=Rodrigo, C=IT, ST=Italia, O=Regione Trentino_Alto_Adige
        Subject Public Key Info:
            Public Key Algorithm: id-ecPublicKey
                Public-Key: (256 bit)
                pub:
                    04:22:a9:6c:d6:e6:47:7a:d2:21:47:70:00:20:43:
                    23:56:c0:d9:ea:48:e8:8d:22:39:db:6d:cf:37:96:
                    47:57:f9:2b:33:00:a7:a7:6b:a8:78:28:b7:1a:03:
                    76:26:fc:30:f7:5e:6c:be:cd:0a:48:3d:0f:6a:00:
                    46:9a:01:dc:a3
                ASN1 OID: prime256v1
                NIST CURVE: P-256
        X509v3 extensions:
            X509v3 Key Usage: critical
                Digital Signature, Key Encipherment
            X509v3 Basic Constraints: critical
                CA:FALSE, pathlen:3
    Signature Algorithm: ecdsa-with-SHA256
         30:44:02:20:10:50:5e:e7:99:ca:4b:26:27:f2:ef:28:5f:12:
         fa:7c:9b:5c:fe:1a:10:7d:d8:57:8e:0f:b6:67:89:c2:99:f2:
         02:20:61:55:df:4a:a7:be:58:01:25:92:19:97:99:a0:81:e1:
         d4:98:47:76:55:d1:a4:7b:40:60:ad:da:d0:7d:ce:43
-----BEGIN CERTIFICATE-----
MIICGTCCAcCgAwIBAgIBEzAKBggqhkjOPQQDAjCBsTEkMCIGA1UEAwwbUmVnaW9u
ZSBUcmVudGlub19BbHRvX0FkaWdlMQswCQYDVQQGEwJJVDEPMA0GA1UECAwGSXRh
bGlhMRgwFgYDVQQKDA9FLVZvdGluZyBzeXN0ZW0xIjAgBgNVBAsMGUUtVm90aW5n
IHN5c3RlbSBhdXRob3JpdHkxLTArBgkqhkiG9w0BCQEWHlRyZW50aW5vX0FsdG9f
QWRpZ2VAZXZvdGluZy5pdDAeFw0yMjA4MDMxMzI3MDFaFw0yMzA4MDMxMzI3MDFa
MFYxEDAOBgNVBAMMB1JvZHJpZ28xCzAJBgNVBAYTAklUMQ8wDQYDVQQIDAZJdGFs
aWExJDAiBgNVBAoMG1JlZ2lvbmUgVHJlbnRpbm9fQWx0b19BZGlnZTBZMBMGByqG
SM49AgEGCCqGSM49AwEHA0IABCKpbNbmR3rSIUdwACBDI1bA2epI6I0iOdttzzeW
R1f5KzMAp6drqHgotxoDdib8MPdebL7NCkg9D2oARpoB3KOjIzAhMA4GA1UdDwEB
/wQEAwIFoDAPBgNVHRMBAf8EBTADAgEDMAoGCCqGSM49BAMCA0cAMEQCIBBQXueZ
yksmJ/LvKF8S+nybXP4aEH3YV44PtmeJwpnyAiBhVd9Kp75YASWSGZeZoIHh1JhH
dlXRpHtAYK3a0H3OQw==
-----END CERTIFICATE-----
