Certificate:
    Data:
        Version: 3 (0x2)
        Serial Number: 25 (0x19)
        Signature Algorithm: ecdsa-with-SHA256
        Issuer: CN=Regione Friuli_Venezia_Giulia, C=IT, ST=Italia, O=E-Voting system, OU=E-Voting system authority/emailAddress=Friuli_Venezia_Giulia@evoting.it
        Validity
            Not Before: Aug 26 15:20:26 2022 GMT
            Not After : Aug 26 15:20:26 2023 GMT
        Subject: CN=Roger, C=IT, ST=Italia, O=Regione Friuli_Venezia_Giulia
        Subject Public Key Info:
            Public Key Algorithm: id-ecPublicKey
                Public-Key: (256 bit)
                pub:
                    04:df:22:d3:8d:76:fb:f3:64:69:a2:fa:2e:a7:ed:
                    29:aa:0a:de:c2:23:d7:3d:98:18:4f:b6:9c:e8:db:
                    7c:c4:36:fe:f9:06:4d:ec:91:ca:48:f1:5d:2e:8d:
                    6e:c4:b9:c3:11:a0:f8:89:ad:40:f8:35:54:4e:ea:
                    1e:8d:10:a6:16
                ASN1 OID: secp256k1
        X509v3 extensions:
            X509v3 Key Usage: critical
                Digital Signature, Key Encipherment
            X509v3 Basic Constraints: critical
                CA:FALSE, pathlen:3
    Signature Algorithm: ecdsa-with-SHA256
         30:45:02:21:00:9f:70:53:4c:dc:57:02:53:d7:e3:80:73:46:
         a4:18:a4:50:e3:17:9e:24:be:37:4d:6e:95:2a:10:87:8d:b9:
         ea:02:20:5d:91:27:ae:02:07:53:d9:7b:e6:aa:f7:fa:23:f9:
         4a:66:00:91:18:ca:ba:2f:db:33:1e:c3:ce:c7:61:8f:2f
-----BEGIN CERTIFICATE-----
MIICGzCCAcGgAwIBAgIBGTAKBggqhkjOPQQDAjCBtTEmMCQGA1UEAwwdUmVnaW9u
ZSBGcml1bGlfVmVuZXppYV9HaXVsaWExCzAJBgNVBAYTAklUMQ8wDQYDVQQIDAZJ
dGFsaWExGDAWBgNVBAoMD0UtVm90aW5nIHN5c3RlbTEiMCAGA1UECwwZRS1Wb3Rp
bmcgc3lzdGVtIGF1dGhvcml0eTEvMC0GCSqGSIb3DQEJARYgRnJpdWxpX1ZlbmV6
aWFfR2l1bGlhQGV2b3RpbmcuaXQwHhcNMjIwODI2MTUyMDI2WhcNMjMwODI2MTUy
MDI2WjBWMQ4wDAYDVQQDDAVSb2dlcjELMAkGA1UEBhMCSVQxDzANBgNVBAgMBkl0
YWxpYTEmMCQGA1UECgwdUmVnaW9uZSBGcml1bGlfVmVuZXppYV9HaXVsaWEwVjAQ
BgcqhkjOPQIBBgUrgQQACgNCAATfItONdvvzZGmi+i6n7SmqCt7CI9c9mBhPtpzo
23zENv75Bk3skcpI8V0ujW7EucMRoPiJrUD4NVRO6h6NEKYWoyMwITAOBgNVHQ8B
Af8EBAMCBaAwDwYDVR0TAQH/BAUwAwIBAzAKBggqhkjOPQQDAgNIADBFAiEAn3BT
TNxXAlPX44BzRqQYpFDjF54kvjdNbpUqEIeNueoCIF2RJ64CB1PZe+aq9/oj+Upm
AJEYyrov2zMew87HYY8v
-----END CERTIFICATE-----
