Certificate:
    Data:
        Version: 3 (0x2)
        Serial Number: 60 (0x3c)
        Signature Algorithm: ecdsa-with-SHA256
        Issuer: CN=Regione Campania, C=IT, ST=Italia, O=E-Voting system, OU=E-Voting system authority/emailAddress=Campania@evoting.it
        Validity
            Not Before: Aug  3 13:28:50 2022 GMT
            Not After : Aug  3 13:28:50 2023 GMT
        Subject: CN=Rogelio, C=IT, ST=Italia, O=Regione Campania
        Subject Public Key Info:
            Public Key Algorithm: id-ecPublicKey
                Public-Key: (256 bit)
                pub:
                    04:5b:ab:e0:b9:ef:ad:4b:42:5e:ce:98:76:ef:27:
                    72:42:21:94:f1:bf:6c:0c:ab:d2:a1:f5:4b:6e:a6:
                    1e:8b:37:79:bd:95:23:77:f0:44:75:ee:55:a2:85:
                    ee:15:65:25:70:d1:d3:8c:9a:f7:2b:98:18:a4:22:
                    f9:6a:43:d8:28
                ASN1 OID: prime256v1
                NIST CURVE: P-256
        X509v3 extensions:
            X509v3 Key Usage: critical
                Digital Signature, Key Encipherment
            X509v3 Basic Constraints: critical
                CA:FALSE, pathlen:3
    Signature Algorithm: ecdsa-with-SHA256
         30:46:02:21:00:d6:9c:80:82:5c:a3:56:ff:9e:a4:e4:47:76:
         95:30:c6:2a:fc:4e:96:0e:de:af:b5:fd:97:d4:ec:4b:19:57:
         d3:02:21:00:99:bd:1c:7a:46:87:b1:75:5f:6c:40:f7:d6:d3:
         31:63:78:95:2c:0a:92:ce:aa:fa:a5:bb:6b:d0:d3:c8:0b:b2
-----BEGIN CERTIFICATE-----
MIIB+jCCAZ+gAwIBAgIBPDAKBggqhkjOPQQDAjCBmzEZMBcGA1UEAwwQUmVnaW9u
ZSBDYW1wYW5pYTELMAkGA1UEBhMCSVQxDzANBgNVBAgMBkl0YWxpYTEYMBYGA1UE
CgwPRS1Wb3Rpbmcgc3lzdGVtMSIwIAYDVQQLDBlFLVZvdGluZyBzeXN0ZW0gYXV0
aG9yaXR5MSIwIAYJKoZIhvcNAQkBFhNDYW1wYW5pYUBldm90aW5nLml0MB4XDTIy
MDgwMzEzMjg1MFoXDTIzMDgwMzEzMjg1MFowSzEQMA4GA1UEAwwHUm9nZWxpbzEL
MAkGA1UEBhMCSVQxDzANBgNVBAgMBkl0YWxpYTEZMBcGA1UECgwQUmVnaW9uZSBD
YW1wYW5pYTBZMBMGByqGSM49AgEGCCqGSM49AwEHA0IABFur4LnvrUtCXs6Ydu8n
ckIhlPG/bAyr0qH1S26mHos3eb2VI3fwRHXuVaKF7hVlJXDR04ya9yuYGKQi+WpD
2CijIzAhMA4GA1UdDwEB/wQEAwIFoDAPBgNVHRMBAf8EBTADAgEDMAoGCCqGSM49
BAMCA0kAMEYCIQDWnICCXKNW/56k5Ed2lTDGKvxOlg7er7X9l9TsSxlX0wIhAJm9
HHpGh7F1X2xA99bTMWN4lSwKks6q+qW7a9DTyAuy
-----END CERTIFICATE-----
