Certificate:
    Data:
        Version: 3 (0x2)
        Serial Number: 10 (0xa)
        Signature Algorithm: ecdsa-with-SHA256
        Issuer: CN=Regione Basilicata, C=IT, ST=Italia, O=E-Voting system, OU=E-Voting system authority/emailAddress=Basilicata@evoting.it
        Validity
            Not Before: Aug  3 13:26:09 2022 GMT
            Not After : Aug  3 13:26:09 2023 GMT
        Subject: CN=Roland, C=IT, ST=Italia, O=Regione Basilicata
        Subject Public Key Info:
            Public Key Algorithm: id-ecPublicKey
                Public-Key: (256 bit)
                pub:
                    04:91:bd:c5:20:fd:14:ae:56:b0:fd:11:08:7a:eb:
                    c1:cf:c8:c6:e3:45:ab:ba:db:5d:7a:81:e9:4c:e8:
                    f7:f0:c6:f8:12:c5:65:1d:4c:00:08:63:21:ff:89:
                    ce:c1:a1:fb:12:32:ea:5b:fd:b6:55:4e:da:c9:c1:
                    f0:b1:12:76:68
                ASN1 OID: prime256v1
                NIST CURVE: P-256
        X509v3 extensions:
            X509v3 Key Usage: critical
                Digital Signature, Key Encipherment
            X509v3 Basic Constraints: critical
                CA:FALSE, pathlen:3
    Signature Algorithm: ecdsa-with-SHA256
         30:45:02:20:63:76:6f:c8:1d:3b:46:6c:95:e9:a0:ff:6a:7a:
         d4:45:b7:e2:cc:a6:8a:10:d5:07:bd:e1:87:7c:96:b6:27:63:
         02:21:00:a3:ed:01:85:74:69:c4:07:dc:f1:87:a7:df:1d:47:
         75:89:a7:cc:57:ff:ab:3f:7e:93:1b:60:2a:e2:d6:37:51
-----BEGIN CERTIFICATE-----
MIIB/jCCAaSgAwIBAgIBCjAKBggqhkjOPQQDAjCBnzEbMBkGA1UEAwwSUmVnaW9u
ZSBCYXNpbGljYXRhMQswCQYDVQQGEwJJVDEPMA0GA1UECAwGSXRhbGlhMRgwFgYD
VQQKDA9FLVZvdGluZyBzeXN0ZW0xIjAgBgNVBAsMGUUtVm90aW5nIHN5c3RlbSBh
dXRob3JpdHkxJDAiBgkqhkiG9w0BCQEWFUJhc2lsaWNhdGFAZXZvdGluZy5pdDAe
Fw0yMjA4MDMxMzI2MDlaFw0yMzA4MDMxMzI2MDlaMEwxDzANBgNVBAMMBlJvbGFu
ZDELMAkGA1UEBhMCSVQxDzANBgNVBAgMBkl0YWxpYTEbMBkGA1UECgwSUmVnaW9u
ZSBCYXNpbGljYXRhMFkwEwYHKoZIzj0CAQYIKoZIzj0DAQcDQgAEkb3FIP0Urlaw
/REIeuvBz8jG40WruttdeoHpTOj38Mb4EsVlHUwACGMh/4nOwaH7EjLqW/22VU7a
ycHwsRJ2aKMjMCEwDgYDVR0PAQH/BAQDAgWgMA8GA1UdEwEB/wQFMAMCAQMwCgYI
KoZIzj0EAwIDSAAwRQIgY3ZvyB07RmyV6aD/anrURbfizKaKENUHveGHfJa2J2MC
IQCj7QGFdGnEB9zxh6ffHUd1iafMV/+rP36TG2Aq4tY3UQ==
-----END CERTIFICATE-----
