Certificate:
    Data:
        Version: 3 (0x2)
        Serial Number: 13 (0xd)
        Signature Algorithm: ecdsa-with-SHA256
        Issuer: CN=Regione Puglia, C=IT, ST=Italia, O=E-Voting system, OU=E-Voting system authority/emailAddress=Puglia@evoting.it
        Validity
            Not Before: Aug  3 13:26:40 2022 GMT
            Not After : Aug  3 13:26:40 2023 GMT
        Subject: CN=Roman, C=IT, ST=Italia, O=Regione Puglia
        Subject Public Key Info:
            Public Key Algorithm: id-ecPublicKey
                Public-Key: (256 bit)
                pub:
                    04:c0:2b:2c:55:ac:bc:c5:4d:0d:a0:d3:21:6f:af:
                    99:73:5e:24:0c:d2:54:4e:ef:48:ba:9e:8f:f3:3a:
                    9b:0b:8a:e7:70:d3:b5:6b:0e:10:fc:3d:6c:f2:f8:
                    81:c8:be:de:8a:1a:a0:43:bb:70:0d:db:0b:72:02:
                    5e:70:d5:7d:0e
                ASN1 OID: prime256v1
                NIST CURVE: P-256
        X509v3 extensions:
            X509v3 Key Usage: critical
                Digital Signature, Key Encipherment
            X509v3 Basic Constraints: critical
                CA:FALSE, pathlen:3
    Signature Algorithm: ecdsa-with-SHA256
         30:44:02:20:67:2f:f8:4b:d9:51:6f:34:69:ca:4e:23:7c:d4:
         54:fa:cf:73:cb:28:18:39:51:a4:44:ca:bb:4b:cb:f4:46:05:
         02:20:53:a8:f1:06:14:c0:d8:1f:af:cc:0f:9a:de:96:1a:1c:
         74:f3:0d:13:5c:8f:74:04:49:39:ce:50:85:3c:73:be
-----BEGIN CERTIFICATE-----
MIIB8DCCAZegAwIBAgIBDTAKBggqhkjOPQQDAjCBlzEXMBUGA1UEAwwOUmVnaW9u
ZSBQdWdsaWExCzAJBgNVBAYTAklUMQ8wDQYDVQQIDAZJdGFsaWExGDAWBgNVBAoM
D0UtVm90aW5nIHN5c3RlbTEiMCAGA1UECwwZRS1Wb3Rpbmcgc3lzdGVtIGF1dGhv
cml0eTEgMB4GCSqGSIb3DQEJARYRUHVnbGlhQGV2b3RpbmcuaXQwHhcNMjIwODAz
MTMyNjQwWhcNMjMwODAzMTMyNjQwWjBHMQ4wDAYDVQQDDAVSb21hbjELMAkGA1UE
BhMCSVQxDzANBgNVBAgMBkl0YWxpYTEXMBUGA1UECgwOUmVnaW9uZSBQdWdsaWEw
WTATBgcqhkjOPQIBBggqhkjOPQMBBwNCAATAKyxVrLzFTQ2g0yFvr5lzXiQM0lRO
70i6no/zOpsLiudw07VrDhD8PWzy+IHIvt6KGqBDu3AN2wtyAl5w1X0OoyMwITAO
BgNVHQ8BAf8EBAMCBaAwDwYDVR0TAQH/BAUwAwIBAzAKBggqhkjOPQQDAgNHADBE
AiBnL/hL2VFvNGnKTiN81FT6z3PLKBg5UaREyrtLy/RGBQIgU6jxBhTA2B+vzA+a
3pYaHHTzDRNcj3QESTnOUIU8c74=
-----END CERTIFICATE-----
