Certificate:
    Data:
        Version: 3 (0x2)
        Serial Number: 24 (0x18)
        Signature Algorithm: ecdsa-with-SHA256
        Issuer: CN=Regione Lazio, C=IT, ST=Italia, O=E-Voting system, OU=E-Voting system authority/emailAddress=Lazio@evoting.it
        Validity
            Not Before: Aug  3 13:26:49 2022 GMT
            Not After : Aug  3 13:26:49 2023 GMT
        Subject: CN=Romeo, C=IT, ST=Italia, O=Regione Lazio
        Subject Public Key Info:
            Public Key Algorithm: id-ecPublicKey
                Public-Key: (256 bit)
                pub:
                    04:e3:de:a1:89:7f:5c:b9:0f:e2:3d:68:b2:e9:49:
                    bc:2b:3c:64:10:7a:e2:12:8a:a2:77:5e:bd:5d:e2:
                    d9:ea:b9:c9:dc:5a:3f:1b:ae:07:7e:11:98:b2:d5:
                    4c:7c:18:8c:f1:17:45:2d:6c:2d:11:7b:31:36:d1:
                    a1:f4:fe:b7:eb
                ASN1 OID: prime256v1
                NIST CURVE: P-256
        X509v3 extensions:
            X509v3 Key Usage: critical
                Digital Signature, Key Encipherment
            X509v3 Basic Constraints: critical
                CA:FALSE, pathlen:3
    Signature Algorithm: ecdsa-with-SHA256
         30:45:02:21:00:9d:76:17:3e:2e:00:41:13:70:f6:79:fc:c6:
         77:2e:e8:31:51:72:6c:ae:b7:fb:d1:71:57:85:53:21:48:cd:
         bb:02:20:29:b0:e0:ab:fe:be:ba:8d:42:c3:5a:76:85:9c:0e:
         3e:69:09:ee:b6:31:52:eb:4e:f7:95:7e:07:af:06:18:2a
-----BEGIN CERTIFICATE-----
MIIB7jCCAZSgAwIBAgIBGDAKBggqhkjOPQQDAjCBlTEWMBQGA1UEAwwNUmVnaW9u
ZSBMYXppbzELMAkGA1UEBhMCSVQxDzANBgNVBAgMBkl0YWxpYTEYMBYGA1UECgwP
RS1Wb3Rpbmcgc3lzdGVtMSIwIAYDVQQLDBlFLVZvdGluZyBzeXN0ZW0gYXV0aG9y
aXR5MR8wHQYJKoZIhvcNAQkBFhBMYXppb0Bldm90aW5nLml0MB4XDTIyMDgwMzEz
MjY0OVoXDTIzMDgwMzEzMjY0OVowRjEOMAwGA1UEAwwFUm9tZW8xCzAJBgNVBAYT
AklUMQ8wDQYDVQQIDAZJdGFsaWExFjAUBgNVBAoMDVJlZ2lvbmUgTGF6aW8wWTAT
BgcqhkjOPQIBBggqhkjOPQMBBwNCAATj3qGJf1y5D+I9aLLpSbwrPGQQeuISiqJ3
Xr1d4tnqucncWj8brgd+EZiy1Ux8GIzxF0UtbC0RezE20aH0/rfroyMwITAOBgNV
HQ8BAf8EBAMCBaAwDwYDVR0TAQH/BAUwAwIBAzAKBggqhkjOPQQDAgNIADBFAiEA
nXYXPi4AQRNw9nn8xncu6DFRcmyut/vRcVeFUyFIzbsCICmw4Kv+vrqNQsNadoWc
Dj5pCe62MVLrTveVfgevBhgq
-----END CERTIFICATE-----
