Certificate:
    Data:
        Version: 3 (0x2)
        Serial Number: 33 (0x21)
        Signature Algorithm: ecdsa-with-SHA256
        Issuer: CN=Regione Abruzzo, C=IT, ST=Italia, O=E-Voting system, OU=E-Voting system authority/emailAddress=Abruzzo@evoting.it
        Validity
            Not Before: Aug  3 13:27:15 2022 GMT
            Not After : Aug  3 13:27:15 2023 GMT
        Subject: CN=Ron, C=IT, ST=Italia, O=Regione Abruzzo
        Subject Public Key Info:
            Public Key Algorithm: id-ecPublicKey
                Public-Key: (256 bit)
                pub:
                    04:55:27:78:fe:96:44:36:eb:85:fb:fe:0a:24:a8:
                    82:23:6e:4e:40:d1:35:c1:14:0d:93:0d:1a:fa:d3:
                    ba:c2:4d:28:8a:42:bf:5c:43:fc:58:c2:22:71:04:
                    2e:5c:62:d0:ec:c7:72:33:85:19:4d:34:6b:4e:7e:
                    65:d4:3c:72:cf
                ASN1 OID: prime256v1
                NIST CURVE: P-256
        X509v3 extensions:
            X509v3 Key Usage: critical
                Digital Signature, Key Encipherment
            X509v3 Basic Constraints: critical
                CA:FALSE, pathlen:3
    Signature Algorithm: ecdsa-with-SHA256
         30:45:02:20:47:c6:26:db:1e:fd:c8:3e:5a:7f:8b:1e:7a:cd:
         d3:d6:e3:00:4d:23:67:2c:56:3a:e6:9b:a4:1e:fc:ca:99:64:
         02:21:00:e6:52:af:77:0c:fb:d4:06:69:c2:4c:3c:05:db:c2:
         0e:97:36:e0:d5:d1:f3:ed:bc:de:1c:88:c8:f4:bd:e1:1d
-----BEGIN CERTIFICATE-----
MIIB8jCCAZigAwIBAgIBITAKBggqhkjOPQQDAjCBmTEYMBYGA1UEAwwPUmVnaW9u
ZSBBYnJ1enpvMQswCQYDVQQGEwJJVDEPMA0GA1UECAwGSXRhbGlhMRgwFgYDVQQK
DA9FLVZvdGluZyBzeXN0ZW0xIjAgBgNVBAsMGUUtVm90aW5nIHN5c3RlbSBhdXRo
b3JpdHkxITAfBgkqhkiG9w0BCQEWEkFicnV6em9AZXZvdGluZy5pdDAeFw0yMjA4
MDMxMzI3MTVaFw0yMzA4MDMxMzI3MTVaMEYxDDAKBgNVBAMMA1JvbjELMAkGA1UE
BhMCSVQxDzANBgNVBAgMBkl0YWxpYTEYMBYGA1UECgwPUmVnaW9uZSBBYnJ1enpv
MFkwEwYHKoZIzj0CAQYIKoZIzj0DAQcDQgAEVSd4/pZENuuF+/4KJKiCI25OQNE1
wRQNkw0a+tO6wk0oikK/XEP8WMIicQQuXGLQ7MdyM4UZTTRrTn5l1Dxyz6MjMCEw
DgYDVR0PAQH/BAQDAgWgMA8GA1UdEwEB/wQFMAMCAQMwCgYIKoZIzj0EAwIDSAAw
RQIgR8Ym2x79yD5af4sees3T1uMATSNnLFY65pukHvzKmWQCIQDmUq93DPvUBmnC
TDwF28IOlzbg1dHz7bzeHIjI9L3hHQ==
-----END CERTIFICATE-----
