Certificate:
    Data:
        Version: 3 (0x2)
        Serial Number: 13 (0xd)
        Signature Algorithm: ecdsa-with-SHA256
        Issuer: CN=Regione Veneto, C=IT, ST=Italia, O=E-Voting system, OU=E-Voting system authority/emailAddress=Veneto@evoting.it
        Validity
            Not Before: Aug  3 13:26:18 2022 GMT
            Not After : Aug  3 13:26:18 2023 GMT
        Subject: CN=Ronnie, C=IT, ST=Italia, O=Regione Veneto
        Subject Public Key Info:
            Public Key Algorithm: id-ecPublicKey
                Public-Key: (256 bit)
                pub:
                    04:88:55:74:c5:a1:fd:2c:55:5c:b3:a3:66:db:c9:
                    2f:97:df:ab:f3:6a:2d:a2:bc:6b:88:27:de:35:a6:
                    85:22:42:03:b8:5f:90:4b:59:24:f5:d6:ac:60:90:
                    3d:ed:ec:53:bd:81:0b:c8:5c:2d:3c:44:13:a1:9d:
                    7e:f8:65:a5:bc
                ASN1 OID: prime256v1
                NIST CURVE: P-256
        X509v3 extensions:
            X509v3 Key Usage: critical
                Digital Signature, Key Encipherment
            X509v3 Basic Constraints: critical
                CA:FALSE, pathlen:3
    Signature Algorithm: ecdsa-with-SHA256
         30:44:02:20:14:4f:ea:b9:d4:d7:64:3c:45:4e:61:94:b7:ec:
         9a:a8:bb:54:d4:07:42:ad:c7:d6:fd:61:c3:30:0c:f0:08:30:
         02:20:15:d6:6a:b9:43:59:a8:5b:a9:05:53:35:9c:df:fd:2b:
         23:59:22:45:84:a2:11:72:8e:5e:85:6b:68:35:f3:0d
-----BEGIN CERTIFICATE-----
MIIB8TCCAZigAwIBAgIBDTAKBggqhkjOPQQDAjCBlzEXMBUGA1UEAwwOUmVnaW9u
ZSBWZW5ldG8xCzAJBgNVBAYTAklUMQ8wDQYDVQQIDAZJdGFsaWExGDAWBgNVBAoM
D0UtVm90aW5nIHN5c3RlbTEiMCAGA1UECwwZRS1Wb3Rpbmcgc3lzdGVtIGF1dGhv
cml0eTEgMB4GCSqGSIb3DQEJARYRVmVuZXRvQGV2b3RpbmcuaXQwHhcNMjIwODAz
MTMyNjE4WhcNMjMwODAzMTMyNjE4WjBIMQ8wDQYDVQQDDAZSb25uaWUxCzAJBgNV
BAYTAklUMQ8wDQYDVQQIDAZJdGFsaWExFzAVBgNVBAoMDlJlZ2lvbmUgVmVuZXRv
MFkwEwYHKoZIzj0CAQYIKoZIzj0DAQcDQgAEiFV0xaH9LFVcs6Nm28kvl9+r82ot
orxriCfeNaaFIkIDuF+QS1kk9dasYJA97exTvYELyFwtPEQToZ1++GWlvKMjMCEw
DgYDVR0PAQH/BAQDAgWgMA8GA1UdEwEB/wQFMAMCAQMwCgYIKoZIzj0EAwIDRwAw
RAIgFE/qudTXZDxFTmGUt+yaqLtU1AdCrcfW/WHDMAzwCDACIBXWarlDWahbqQVT
NZzf/SsjWSJFhKIRco5ehWtoNfMN
-----END CERTIFICATE-----
