Certificate:
    Data:
        Version: 3 (0x2)
        Serial Number: 10 (0xa)
        Signature Algorithm: ecdsa-with-SHA256
        Issuer: CN=Regione Emilia_Romagna, C=IT, ST=Italia, O=E-Voting system, OU=E-Voting system authority/emailAddress=Emilia_Romagna@evoting.it
        Validity
            Not Before: Aug 26 15:19:02 2022 GMT
            Not After : Aug 26 15:19:02 2023 GMT
        Subject: CN=Ronnie, C=IT, ST=Italia, O=Regione Emilia_Romagna
        Subject Public Key Info:
            Public Key Algorithm: id-ecPublicKey
                Public-Key: (256 bit)
                pub:
                    04:d2:a2:18:ef:5f:17:38:2e:ea:01:ec:43:40:d1:
                    7f:99:7e:05:66:4e:f9:1b:5c:c7:ea:7e:5f:0d:24:
                    a3:c4:ea:52:d3:77:7d:58:88:23:bd:d0:90:c0:b4:
                    d7:d7:3c:53:57:bc:d1:ca:30:e4:1b:b9:ac:0e:6b:
                    b2:27:bf:2c:c0
                ASN1 OID: secp256k1
        X509v3 extensions:
            X509v3 Key Usage: critical
                Digital Signature, Key Encipherment
            X509v3 Basic Constraints: critical
                CA:FALSE, pathlen:3
    Signature Algorithm: ecdsa-with-SHA256
         30:46:02:21:00:a6:82:f5:30:5d:ca:18:ec:17:e8:2d:d2:c5:
         60:8b:5c:ab:74:de:33:25:16:c8:03:63:93:c8:13:39:3a:be:
         76:02:21:00:84:c1:9d:d2:fc:5c:17:0a:47:af:07:ac:ae:ab:
         66:a4:96:1d:68:c0:cd:ea:00:54:86:94:82:e7:d5:3f:c2:4d
-----BEGIN CERTIFICATE-----
MIICCDCCAa2gAwIBAgIBCjAKBggqhkjOPQQDAjCBpzEfMB0GA1UEAwwWUmVnaW9u
ZSBFbWlsaWFfUm9tYWduYTELMAkGA1UEBhMCSVQxDzANBgNVBAgMBkl0YWxpYTEY
MBYGA1UECgwPRS1Wb3Rpbmcgc3lzdGVtMSIwIAYDVQQLDBlFLVZvdGluZyBzeXN0
ZW0gYXV0aG9yaXR5MSgwJgYJKoZIhvcNAQkBFhlFbWlsaWFfUm9tYWduYUBldm90
aW5nLml0MB4XDTIyMDgyNjE1MTkwMloXDTIzMDgyNjE1MTkwMlowUDEPMA0GA1UE
AwwGUm9ubmllMQswCQYDVQQGEwJJVDEPMA0GA1UECAwGSXRhbGlhMR8wHQYDVQQK
DBZSZWdpb25lIEVtaWxpYV9Sb21hZ25hMFYwEAYHKoZIzj0CAQYFK4EEAAoDQgAE
0qIY718XOC7qAexDQNF/mX4FZk75G1zH6n5fDSSjxOpS03d9WIgjvdCQwLTX1zxT
V7zRyjDkG7msDmuyJ78swKMjMCEwDgYDVR0PAQH/BAQDAgWgMA8GA1UdEwEB/wQF
MAMCAQMwCgYIKoZIzj0EAwIDSQAwRgIhAKaC9TBdyhjsF+gt0sVgi1yrdN4zJRbI
A2OTyBM5Or52AiEAhMGd0vxcFwpHrwesrqtmpJYdaMDN6gBUhpSC59U/wk0=
-----END CERTIFICATE-----
