Certificate:
    Data:
        Version: 3 (0x2)
        Serial Number: 9 (0x9)
        Signature Algorithm: ecdsa-with-SHA256
        Issuer: CN=Regione Toscana, C=IT, ST=Italia, O=E-Voting system, OU=E-Voting system authority/emailAddress=Toscana@evoting.it
        Validity
            Not Before: Aug 26 15:19:16 2022 GMT
            Not After : Aug 26 15:19:16 2023 GMT
        Subject: CN=Roosevelt, C=IT, ST=Italia, O=Regione Toscana
        Subject Public Key Info:
            Public Key Algorithm: id-ecPublicKey
                Public-Key: (256 bit)
                pub:
                    04:d9:99:84:06:45:2a:a6:1a:26:99:b4:1f:ad:ed:
                    70:c2:f3:44:a4:ff:9f:40:14:32:e8:99:08:e0:23:
                    4d:18:d4:36:1a:e5:c2:0e:19:60:45:54:10:f7:f1:
                    a1:d1:3d:08:5b:00:08:54:e8:4b:9d:79:4f:a2:bb:
                    30:63:3f:99:7b
                ASN1 OID: secp256k1
        X509v3 extensions:
            X509v3 Key Usage: critical
                Digital Signature, Key Encipherment
            X509v3 Basic Constraints: critical
                CA:FALSE, pathlen:3
    Signature Algorithm: ecdsa-with-SHA256
         30:45:02:20:14:92:c2:5e:ac:3e:df:10:f2:d8:c9:5b:67:50:
         22:de:37:b8:cd:1d:82:ff:aa:65:21:b0:79:d2:d1:bc:a6:1f:
         02:21:00:ee:e4:c1:8f:f2:44:6d:24:1f:c4:9f:d4:ed:1d:64:
         e4:16:1d:58:a0:be:5e:57:81:53:98:12:9c:23:10:86:11
-----BEGIN CERTIFICATE-----
MIIB9TCCAZugAwIBAgIBCTAKBggqhkjOPQQDAjCBmTEYMBYGA1UEAwwPUmVnaW9u
ZSBUb3NjYW5hMQswCQYDVQQGEwJJVDEPMA0GA1UECAwGSXRhbGlhMRgwFgYDVQQK
DA9FLVZvdGluZyBzeXN0ZW0xIjAgBgNVBAsMGUUtVm90aW5nIHN5c3RlbSBhdXRo
b3JpdHkxITAfBgkqhkiG9w0BCQEWElRvc2NhbmFAZXZvdGluZy5pdDAeFw0yMjA4
MjYxNTE5MTZaFw0yMzA4MjYxNTE5MTZaMEwxEjAQBgNVBAMMCVJvb3NldmVsdDEL
MAkGA1UEBhMCSVQxDzANBgNVBAgMBkl0YWxpYTEYMBYGA1UECgwPUmVnaW9uZSBU
b3NjYW5hMFYwEAYHKoZIzj0CAQYFK4EEAAoDQgAE2ZmEBkUqphommbQfre1wwvNE
pP+fQBQy6JkI4CNNGNQ2GuXCDhlgRVQQ9/Gh0T0IWwAIVOhLnXlPorswYz+Ze6Mj
MCEwDgYDVR0PAQH/BAQDAgWgMA8GA1UdEwEB/wQFMAMCAQMwCgYIKoZIzj0EAwID
SAAwRQIgFJLCXqw+3xDy2MlbZ1Ai3je4zR2C/6plIbB50tG8ph8CIQDu5MGP8kRt
JB/En9TtHWTkFh1YoL5eV4FTmBKcIxCGEQ==
-----END CERTIFICATE-----
