Certificate:
    Data:
        Version: 3 (0x2)
        Serial Number: 43 (0x2b)
        Signature Algorithm: ecdsa-with-SHA256
        Issuer: CN=Regione Friuli_Venezia_Giulia, C=IT, ST=Italia, O=E-Voting system, OU=E-Voting system authority/emailAddress=Friuli_Venezia_Giulia@evoting.it
        Validity
            Not Before: Aug 26 15:21:45 2022 GMT
            Not After : Aug 26 15:21:45 2023 GMT
        Subject: CN=Rosalinda, C=IT, ST=Italia, O=Regione Friuli_Venezia_Giulia
        Subject Public Key Info:
            Public Key Algorithm: id-ecPublicKey
                Public-Key: (256 bit)
                pub:
                    04:b8:a1:4b:43:bb:0c:6f:b3:bd:8e:e2:58:86:71:
                    f9:b1:d0:e4:83:e6:1e:f6:b2:40:2f:cf:be:5c:5a:
                    72:f4:89:5a:da:af:2d:85:b4:09:1f:c8:51:d4:99:
                    63:57:c7:a8:e3:74:4b:8d:36:e9:ce:ae:13:08:11:
                    b7:15:83:a7:ab
                ASN1 OID: secp256k1
        X509v3 extensions:
            X509v3 Key Usage: critical
                Digital Signature, Key Encipherment
            X509v3 Basic Constraints: critical
                CA:FALSE, pathlen:3
    Signature Algorithm: ecdsa-with-SHA256
         30:46:02:21:00:c5:87:85:30:18:55:5b:bc:71:1f:c5:30:fc:
         47:ff:13:01:40:62:17:ff:9e:0c:30:b4:2a:20:20:c5:38:5e:
         d9:02:21:00:a8:9e:70:3a:9a:a2:e1:0c:e6:5c:32:dc:16:8e:
         df:0d:c8:ea:4d:a6:a3:da:2b:03:82:95:52:8e:ec:f4:6a:04
-----BEGIN CERTIFICATE-----
MIICIDCCAcWgAwIBAgIBKzAKBggqhkjOPQQDAjCBtTEmMCQGA1UEAwwdUmVnaW9u
ZSBGcml1bGlfVmVuZXppYV9HaXVsaWExCzAJBgNVBAYTAklUMQ8wDQYDVQQIDAZJ
dGFsaWExGDAWBgNVBAoMD0UtVm90aW5nIHN5c3RlbTEiMCAGA1UECwwZRS1Wb3Rp
bmcgc3lzdGVtIGF1dGhvcml0eTEvMC0GCSqGSIb3DQEJARYgRnJpdWxpX1ZlbmV6
aWFfR2l1bGlhQGV2b3RpbmcuaXQwHhcNMjIwODI2MTUyMTQ1WhcNMjMwODI2MTUy
MTQ1WjBaMRIwEAYDVQQDDAlSb3NhbGluZGExCzAJBgNVBAYTAklUMQ8wDQYDVQQI
DAZJdGFsaWExJjAkBgNVBAoMHVJlZ2lvbmUgRnJpdWxpX1ZlbmV6aWFfR2l1bGlh
MFYwEAYHKoZIzj0CAQYFK4EEAAoDQgAEuKFLQ7sMb7O9juJYhnH5sdDkg+Ye9rJA
L8++XFpy9Ila2q8thbQJH8hR1JljV8eo43RLjTbpzq4TCBG3FYOnq6MjMCEwDgYD
VR0PAQH/BAQDAgWgMA8GA1UdEwEB/wQFMAMCAQMwCgYIKoZIzj0EAwIDSQAwRgIh
AMWHhTAYVVu8cR/FMPxH/xMBQGIX/54MMLQqICDFOF7ZAiEAqJ5wOpqi4QzmXDLc
Fo7fDcjqTaaj2isDgpVSjuz0agQ=
-----END CERTIFICATE-----
