Certificate:
    Data:
        Version: 3 (0x2)
        Serial Number: 32 (0x20)
        Signature Algorithm: ecdsa-with-SHA256
        Issuer: CN=Regione Trentino_Alto_Adige, C=IT, ST=Italia, O=E-Voting system, OU=E-Voting system authority/emailAddress=Trentino_Alto_Adige@evoting.it
        Validity
            Not Before: Aug 26 15:20:38 2022 GMT
            Not After : Aug 26 15:20:38 2023 GMT
        Subject: CN=Rosalba, C=IT, ST=Italia, O=Regione Trentino_Alto_Adige
        Subject Public Key Info:
            Public Key Algorithm: id-ecPublicKey
                Public-Key: (256 bit)
                pub:
                    04:5c:86:78:c9:0e:43:12:88:5e:d6:ef:30:df:7a:
                    ce:5c:80:8e:b7:ad:03:1d:80:61:10:9a:f5:14:59:
                    a5:14:59:d2:b5:6c:a8:f1:50:41:83:31:59:3d:06:
                    f4:5f:a1:48:a4:d7:a9:a0:b6:0b:65:11:50:f7:b6:
                    c6:69:95:e6:ec
                ASN1 OID: secp256k1
        X509v3 extensions:
            X509v3 Key Usage: critical
                Digital Signature, Key Encipherment
            X509v3 Basic Constraints: critical
                CA:FALSE, pathlen:3
    Signature Algorithm: ecdsa-with-SHA256
         30:44:02:20:2b:4b:58:83:ce:26:74:8a:9f:73:93:5e:8e:d0:
         ab:9c:28:b8:d4:a9:de:3e:82:7c:99:67:c7:14:61:54:81:71:
         02:20:0d:35:d5:c4:38:47:48:ba:bd:ef:78:36:d4:a8:04:58:
         97:01:7e:cb:90:76:b8:dc:5d:04:17:58:42:7a:d6:7c
-----BEGIN CERTIFICATE-----
MIICFjCCAb2gAwIBAgIBIDAKBggqhkjOPQQDAjCBsTEkMCIGA1UEAwwbUmVnaW9u
ZSBUcmVudGlub19BbHRvX0FkaWdlMQswCQYDVQQGEwJJVDEPMA0GA1UECAwGSXRh
bGlhMRgwFgYDVQQKDA9FLVZvdGluZyBzeXN0ZW0xIjAgBgNVBAsMGUUtVm90aW5n
IHN5c3RlbSBhdXRob3JpdHkxLTArBgkqhkiG9w0BCQEWHlRyZW50aW5vX0FsdG9f
QWRpZ2VAZXZvdGluZy5pdDAeFw0yMjA4MjYxNTIwMzhaFw0yMzA4MjYxNTIwMzha
MFYxEDAOBgNVBAMMB1Jvc2FsYmExCzAJBgNVBAYTAklUMQ8wDQYDVQQIDAZJdGFs
aWExJDAiBgNVBAoMG1JlZ2lvbmUgVHJlbnRpbm9fQWx0b19BZGlnZTBWMBAGByqG
SM49AgEGBSuBBAAKA0IABFyGeMkOQxKIXtbvMN96zlyAjretAx2AYRCa9RRZpRRZ
0rVsqPFQQYMxWT0G9F+hSKTXqaC2C2URUPe2xmmV5uyjIzAhMA4GA1UdDwEB/wQE
AwIFoDAPBgNVHRMBAf8EBTADAgEDMAoGCCqGSM49BAMCA0cAMEQCICtLWIPOJnSK
n3OTXo7Qq5wouNSp3j6CfJlnxxRhVIFxAiANNdXEOEdIur3veDbUqARYlwF+y5B2
uNxdBBdYQnrWfA==
-----END CERTIFICATE-----
