Certificate:
    Data:
        Version: 3 (0x2)
        Serial Number: 23 (0x17)
        Signature Algorithm: ecdsa-with-SHA256
        Issuer: CN=Regione Lazio, C=IT, ST=Italia, O=E-Voting system, OU=E-Voting system authority/emailAddress=Lazio@evoting.it
        Validity
            Not Before: Aug  3 13:26:49 2022 GMT
            Not After : Aug  3 13:26:49 2023 GMT
        Subject: CN=Rosa, C=IT, ST=Italia, O=Regione Lazio
        Subject Public Key Info:
            Public Key Algorithm: id-ecPublicKey
                Public-Key: (256 bit)
                pub:
                    04:e5:d4:41:e5:08:56:b2:63:ff:d9:40:44:73:4d:
                    59:d8:83:cf:49:85:c4:a8:2c:4c:09:51:af:12:3a:
                    22:46:a7:19:86:8b:b2:e0:f9:7f:3d:e3:16:89:ed:
                    50:d4:14:86:d6:05:57:e0:ec:08:e3:91:33:47:0b:
                    93:10:bd:13:12
                ASN1 OID: prime256v1
                NIST CURVE: P-256
        X509v3 extensions:
            X509v3 Key Usage: critical
                Digital Signature, Key Encipherment
            X509v3 Basic Constraints: critical
                CA:FALSE, pathlen:3
    Signature Algorithm: ecdsa-with-SHA256
         30:45:02:21:00:ec:40:f3:73:6c:dd:1e:7a:c1:3d:58:fb:05:
         80:9d:ec:3f:88:01:08:49:ae:4f:88:44:7d:35:d0:48:6d:17:
         52:02:20:39:0a:09:54:ff:ad:7d:29:cd:2d:24:b6:28:cc:64:
         2f:d4:93:dd:59:6d:32:8f:0d:f2:a5:65:25:e7:08:8f:d6
-----BEGIN CERTIFICATE-----
MIIB7TCCAZOgAwIBAgIBFzAKBggqhkjOPQQDAjCBlTEWMBQGA1UEAwwNUmVnaW9u
ZSBMYXppbzELMAkGA1UEBhMCSVQxDzANBgNVBAgMBkl0YWxpYTEYMBYGA1UECgwP
RS1Wb3Rpbmcgc3lzdGVtMSIwIAYDVQQLDBlFLVZvdGluZyBzeXN0ZW0gYXV0aG9y
aXR5MR8wHQYJKoZIhvcNAQkBFhBMYXppb0Bldm90aW5nLml0MB4XDTIyMDgwMzEz
MjY0OVoXDTIzMDgwMzEzMjY0OVowRTENMAsGA1UEAwwEUm9zYTELMAkGA1UEBhMC
SVQxDzANBgNVBAgMBkl0YWxpYTEWMBQGA1UECgwNUmVnaW9uZSBMYXppbzBZMBMG
ByqGSM49AgEGCCqGSM49AwEHA0IABOXUQeUIVrJj/9lARHNNWdiDz0mFxKgsTAlR
rxI6IkanGYaLsuD5fz3jFontUNQUhtYFV+DsCOORM0cLkxC9ExKjIzAhMA4GA1Ud
DwEB/wQEAwIFoDAPBgNVHRMBAf8EBTADAgEDMAoGCCqGSM49BAMCA0gAMEUCIQDs
QPNzbN0eesE9WPsFgJ3sP4gBCEmuT4hEfTXQSG0XUgIgOQoJVP+tfSnNLSS2KMxk
L9ST3VltMo8N8qVlJecIj9Y=
-----END CERTIFICATE-----
