Certificate:
    Data:
        Version: 3 (0x2)
        Serial Number: 35 (0x23)
        Signature Algorithm: ecdsa-with-SHA256
        Issuer: CN=Regione Umbria, C=IT, ST=Italia, O=E-Voting system, OU=E-Voting system authority/emailAddress=Umbria@evoting.it
        Validity
            Not Before: Aug  3 13:28:39 2022 GMT
            Not After : Aug  3 13:28:39 2023 GMT
        Subject: CN=Rosetta, C=IT, ST=Italia, O=Regione Umbria
        Subject Public Key Info:
            Public Key Algorithm: id-ecPublicKey
                Public-Key: (256 bit)
                pub:
                    04:2d:7a:1b:b1:2b:1d:f0:54:d7:d7:92:b6:46:6d:
                    26:43:f4:bd:b7:00:6d:5b:dc:b0:03:31:1e:1d:54:
                    b9:10:a1:c3:58:83:cf:d6:8c:90:ca:cf:a9:8a:27:
                    85:70:6b:fa:be:a4:19:5e:f5:7d:c7:f1:c8:87:ff:
                    e9:73:50:40:7d
                ASN1 OID: prime256v1
                NIST CURVE: P-256
        X509v3 extensions:
            X509v3 Key Usage: critical
                Digital Signature, Key Encipherment
            X509v3 Basic Constraints: critical
                CA:FALSE, pathlen:3
    Signature Algorithm: ecdsa-with-SHA256
         30:45:02:21:00:d2:e1:1b:08:7e:b6:56:81:db:04:23:98:c4:
         6b:be:64:9c:f7:f7:c8:2e:89:2b:5f:81:6f:4e:73:9d:26:b6:
         13:02:20:50:81:18:9f:ac:bc:ec:1c:36:2b:a9:b0:fa:9d:e1:
         0a:52:f8:ad:7f:71:62:e0:0f:fb:27:d4:c1:f5:0a:10:7a
-----BEGIN CERTIFICATE-----
MIIB8zCCAZmgAwIBAgIBIzAKBggqhkjOPQQDAjCBlzEXMBUGA1UEAwwOUmVnaW9u
ZSBVbWJyaWExCzAJBgNVBAYTAklUMQ8wDQYDVQQIDAZJdGFsaWExGDAWBgNVBAoM
D0UtVm90aW5nIHN5c3RlbTEiMCAGA1UECwwZRS1Wb3Rpbmcgc3lzdGVtIGF1dGhv
cml0eTEgMB4GCSqGSIb3DQEJARYRVW1icmlhQGV2b3RpbmcuaXQwHhcNMjIwODAz
MTMyODM5WhcNMjMwODAzMTMyODM5WjBJMRAwDgYDVQQDDAdSb3NldHRhMQswCQYD
VQQGEwJJVDEPMA0GA1UECAwGSXRhbGlhMRcwFQYDVQQKDA5SZWdpb25lIFVtYnJp
YTBZMBMGByqGSM49AgEGCCqGSM49AwEHA0IABC16G7ErHfBU19eStkZtJkP0vbcA
bVvcsAMxHh1UuRChw1iDz9aMkMrPqYonhXBr+r6kGV71fcfxyIf/6XNQQH2jIzAh
MA4GA1UdDwEB/wQEAwIFoDAPBgNVHRMBAf8EBTADAgEDMAoGCCqGSM49BAMCA0gA
MEUCIQDS4RsIfrZWgdsEI5jEa75knPf3yC6JK1+Bb05znSa2EwIgUIEYn6y87Bw2
K6mw+p3hClL4rX9xYuAP+yfUwfUKEHo=
-----END CERTIFICATE-----
