Certificate:
    Data:
        Version: 3 (0x2)
        Serial Number: 13 (0xd)
        Signature Algorithm: ecdsa-with-SHA256
        Issuer: CN=Regione Lombardia, C=IT, ST=Italia, O=E-Voting system, OU=E-Voting system authority/emailAddress=Lombardia@evoting.it
        Validity
            Not Before: Aug  3 13:26:23 2022 GMT
            Not After : Aug  3 13:26:23 2023 GMT
        Subject: CN=Rose, C=IT, ST=Italia, O=Regione Lombardia
        Subject Public Key Info:
            Public Key Algorithm: id-ecPublicKey
                Public-Key: (256 bit)
                pub:
                    04:21:81:a4:d4:fd:b5:0f:41:a5:eb:dc:78:5d:2e:
                    8f:d2:12:a8:5b:98:82:75:7f:cc:0d:82:40:fe:bc:
                    8e:77:bc:a8:ae:59:ba:a5:2a:17:2f:40:2c:18:69:
                    41:e6:f4:12:e2:a3:86:20:de:c4:db:f3:cc:be:1a:
                    fe:31:72:fd:28
                ASN1 OID: prime256v1
                NIST CURVE: P-256
        X509v3 extensions:
            X509v3 Key Usage: critical
                Digital Signature, Key Encipherment
            X509v3 Basic Constraints: critical
                CA:FALSE, pathlen:3
    Signature Algorithm: ecdsa-with-SHA256
         30:45:02:21:00:97:97:3c:1c:9d:f4:c7:de:b8:f8:9e:d0:8a:
         2c:9f:c0:70:d1:2d:96:26:f3:db:74:5d:98:d4:fc:3a:21:04:
         71:02:20:2e:fa:cc:79:bd:85:10:ff:b2:fb:6c:0a:8e:13:c1:
         7c:01:ad:f0:53:ae:c5:a8:73:47:92:44:e3:96:2e:06:c4
-----BEGIN CERTIFICATE-----
MIIB+TCCAZ+gAwIBAgIBDTAKBggqhkjOPQQDAjCBnTEaMBgGA1UEAwwRUmVnaW9u
ZSBMb21iYXJkaWExCzAJBgNVBAYTAklUMQ8wDQYDVQQIDAZJdGFsaWExGDAWBgNV
BAoMD0UtVm90aW5nIHN5c3RlbTEiMCAGA1UECwwZRS1Wb3Rpbmcgc3lzdGVtIGF1
dGhvcml0eTEjMCEGCSqGSIb3DQEJARYUTG9tYmFyZGlhQGV2b3RpbmcuaXQwHhcN
MjIwODAzMTMyNjIzWhcNMjMwODAzMTMyNjIzWjBJMQ0wCwYDVQQDDARSb3NlMQsw
CQYDVQQGEwJJVDEPMA0GA1UECAwGSXRhbGlhMRowGAYDVQQKDBFSZWdpb25lIExv
bWJhcmRpYTBZMBMGByqGSM49AgEGCCqGSM49AwEHA0IABCGBpNT9tQ9BpevceF0u
j9ISqFuYgnV/zA2CQP68jne8qK5ZuqUqFy9ALBhpQeb0EuKjhiDexNvzzL4a/jFy
/SijIzAhMA4GA1UdDwEB/wQEAwIFoDAPBgNVHRMBAf8EBTADAgEDMAoGCCqGSM49
BAMCA0gAMEUCIQCXlzwcnfTH3rj4ntCKLJ/AcNEtlibz23RdmNT8OiEEcQIgLvrM
eb2FEP+y+2wKjhPBfAGt8FOuxahzR5JE45YuBsQ=
-----END CERTIFICATE-----
