Certificate:
    Data:
        Version: 3 (0x2)
        Serial Number: 28 (0x1c)
        Signature Algorithm: ecdsa-with-SHA256
        Issuer: CN=Regione Toscana, C=IT, ST=Italia, O=E-Voting system, OU=E-Voting system authority/emailAddress=Toscana@evoting.it
        Validity
            Not Before: Aug 26 15:20:26 2022 GMT
            Not After : Aug 26 15:20:26 2023 GMT
        Subject: CN=Rosetta, C=IT, ST=Italia, O=Regione Toscana
        Subject Public Key Info:
            Public Key Algorithm: id-ecPublicKey
                Public-Key: (256 bit)
                pub:
                    04:4c:43:1d:07:34:fd:61:35:33:d4:0c:8d:53:4a:
                    e7:a6:51:85:67:dd:d4:39:ee:d2:6e:6f:ea:e8:66:
                    5f:0d:40:bb:a1:fd:95:73:4d:0d:3e:ae:c5:2a:49:
                    9c:75:25:69:76:a6:0c:61:49:8f:35:b3:6b:0b:04:
                    c1:15:e5:09:57
                ASN1 OID: secp256k1
        X509v3 extensions:
            X509v3 Key Usage: critical
                Digital Signature, Key Encipherment
            X509v3 Basic Constraints: critical
                CA:FALSE, pathlen:3
    Signature Algorithm: ecdsa-with-SHA256
         30:45:02:20:20:4c:20:55:65:41:d8:77:59:2b:7c:da:de:71:
         cf:af:da:9d:6c:ec:cb:a8:85:92:17:f2:bd:8d:2a:37:87:9c:
         02:21:00:b2:fd:da:2d:e0:ac:14:89:28:c1:d6:d9:5d:dd:34:
         d0:27:78:80:4f:bf:5f:e1:1a:6f:4c:72:1f:51:28:7b:8c
-----BEGIN CERTIFICATE-----
MIIB8zCCAZmgAwIBAgIBHDAKBggqhkjOPQQDAjCBmTEYMBYGA1UEAwwPUmVnaW9u
ZSBUb3NjYW5hMQswCQYDVQQGEwJJVDEPMA0GA1UECAwGSXRhbGlhMRgwFgYDVQQK
DA9FLVZvdGluZyBzeXN0ZW0xIjAgBgNVBAsMGUUtVm90aW5nIHN5c3RlbSBhdXRo
b3JpdHkxITAfBgkqhkiG9w0BCQEWElRvc2NhbmFAZXZvdGluZy5pdDAeFw0yMjA4
MjYxNTIwMjZaFw0yMzA4MjYxNTIwMjZaMEoxEDAOBgNVBAMMB1Jvc2V0dGExCzAJ
BgNVBAYTAklUMQ8wDQYDVQQIDAZJdGFsaWExGDAWBgNVBAoMD1JlZ2lvbmUgVG9z
Y2FuYTBWMBAGByqGSM49AgEGBSuBBAAKA0IABExDHQc0/WE1M9QMjVNK56ZRhWfd
1Dnu0m5v6uhmXw1Au6H9lXNNDT6uxSpJnHUlaXamDGFJjzWzawsEwRXlCVejIzAh
MA4GA1UdDwEB/wQEAwIFoDAPBgNVHRMBAf8EBTADAgEDMAoGCCqGSM49BAMCA0gA
MEUCICBMIFVlQdh3WSt82t5xz6/anWzsy6iFkhfyvY0qN4ecAiEAsv3aLeCsFIko
wdbZXd000Cd4gE+/X+Eab0xyH1Eoe4w=
-----END CERTIFICATE-----
