Certificate:
    Data:
        Version: 3 (0x2)
        Serial Number: 40 (0x28)
        Signature Algorithm: ecdsa-with-SHA256
        Issuer: CN=Regione Umbria, C=IT, ST=Italia, O=E-Voting system, OU=E-Voting system authority/emailAddress=Umbria@evoting.it
        Validity
            Not Before: Aug 26 15:21:00 2022 GMT
            Not After : Aug 26 15:21:00 2023 GMT
        Subject: CN=Rosemary, C=IT, ST=Italia, O=Regione Umbria
        Subject Public Key Info:
            Public Key Algorithm: id-ecPublicKey
                Public-Key: (256 bit)
                pub:
                    04:93:20:b0:a5:82:1d:a0:53:cd:9a:5f:29:4e:3a:
                    7b:63:78:da:f0:4b:39:d9:d2:cc:ad:df:cc:7d:50:
                    1e:83:d9:52:f4:a9:75:35:5f:a9:3f:8f:71:0f:65:
                    82:56:1a:7e:1c:f8:0b:79:68:14:9b:39:00:6d:18:
                    dc:62:67:cf:17
                ASN1 OID: secp256k1
        X509v3 extensions:
            X509v3 Key Usage: critical
                Digital Signature, Key Encipherment
            X509v3 Basic Constraints: critical
                CA:FALSE, pathlen:3
    Signature Algorithm: ecdsa-with-SHA256
         30:46:02:21:00:ee:6c:df:dc:b1:89:84:cc:69:aa:39:58:89:
         cf:4e:29:df:93:eb:20:79:0e:52:2e:6a:20:2b:1a:d8:99:f5:
         f4:02:21:00:b1:da:e3:00:2a:e4:08:1b:10:14:64:2c:2f:e5:
         f0:ec:47:08:3e:48:32:04:cb:22:bf:c1:79:11:a1:59:46:18
-----BEGIN CERTIFICATE-----
MIIB8jCCAZegAwIBAgIBKDAKBggqhkjOPQQDAjCBlzEXMBUGA1UEAwwOUmVnaW9u
ZSBVbWJyaWExCzAJBgNVBAYTAklUMQ8wDQYDVQQIDAZJdGFsaWExGDAWBgNVBAoM
D0UtVm90aW5nIHN5c3RlbTEiMCAGA1UECwwZRS1Wb3Rpbmcgc3lzdGVtIGF1dGhv
cml0eTEgMB4GCSqGSIb3DQEJARYRVW1icmlhQGV2b3RpbmcuaXQwHhcNMjIwODI2
MTUyMTAwWhcNMjMwODI2MTUyMTAwWjBKMREwDwYDVQQDDAhSb3NlbWFyeTELMAkG
A1UEBhMCSVQxDzANBgNVBAgMBkl0YWxpYTEXMBUGA1UECgwOUmVnaW9uZSBVbWJy
aWEwVjAQBgcqhkjOPQIBBgUrgQQACgNCAASTILClgh2gU82aXylOOntjeNrwSznZ
0syt38x9UB6D2VL0qXU1X6k/j3EPZYJWGn4c+At5aBSbOQBtGNxiZ88XoyMwITAO
BgNVHQ8BAf8EBAMCBaAwDwYDVR0TAQH/BAUwAwIBAzAKBggqhkjOPQQDAgNJADBG
AiEA7mzf3LGJhMxpqjlYic9OKd+T6yB5DlIuaiArGtiZ9fQCIQCx2uMAKuQIGxAU
ZCwv5fDsRwg+SDIEyyK/wXkRoVlGGA==
-----END CERTIFICATE-----
