Certificate:
    Data:
        Version: 3 (0x2)
        Serial Number: 12 (0xc)
        Signature Algorithm: ecdsa-with-SHA256
        Issuer: CN=Regione Trentino_Alto_Adige, C=IT, ST=Italia, O=E-Voting system, OU=E-Voting system authority/emailAddress=Trentino_Alto_Adige@evoting.it
        Validity
            Not Before: Aug 26 15:19:25 2022 GMT
            Not After : Aug 26 15:19:25 2023 GMT
        Subject: CN=Rose, C=IT, ST=Italia, O=Regione Trentino_Alto_Adige
        Subject Public Key Info:
            Public Key Algorithm: id-ecPublicKey
                Public-Key: (256 bit)
                pub:
                    04:b0:58:a5:a5:29:b0:9a:31:cb:ec:07:56:b5:a6:
                    74:f4:13:10:55:4a:fc:f0:7f:bd:74:fd:fe:ac:77:
                    e1:84:ce:ab:55:ad:22:89:81:65:91:dd:7e:72:93:
                    77:3e:7c:11:68:49:71:72:a6:2e:5f:af:9d:d2:09:
                    fa:f6:fc:40:ed
                ASN1 OID: secp256k1
        X509v3 extensions:
            X509v3 Key Usage: critical
                Digital Signature, Key Encipherment
            X509v3 Basic Constraints: critical
                CA:FALSE, pathlen:3
    Signature Algorithm: ecdsa-with-SHA256
         30:45:02:21:00:a8:b7:09:be:e0:94:7f:a4:f2:1f:27:71:52:
         91:6e:e9:5e:c7:ca:b9:d0:d0:15:23:2c:e2:c7:d9:68:af:f1:
         50:02:20:50:94:a5:b2:39:3c:af:ed:2f:11:29:a5:09:bd:13:
         ad:17:01:57:6a:5c:8c:f9:26:9a:2a:db:d1:77:76:88:b8
-----BEGIN CERTIFICATE-----
MIICFDCCAbqgAwIBAgIBDDAKBggqhkjOPQQDAjCBsTEkMCIGA1UEAwwbUmVnaW9u
ZSBUcmVudGlub19BbHRvX0FkaWdlMQswCQYDVQQGEwJJVDEPMA0GA1UECAwGSXRh
bGlhMRgwFgYDVQQKDA9FLVZvdGluZyBzeXN0ZW0xIjAgBgNVBAsMGUUtVm90aW5n
IHN5c3RlbSBhdXRob3JpdHkxLTArBgkqhkiG9w0BCQEWHlRyZW50aW5vX0FsdG9f
QWRpZ2VAZXZvdGluZy5pdDAeFw0yMjA4MjYxNTE5MjVaFw0yMzA4MjYxNTE5MjVa
MFMxDTALBgNVBAMMBFJvc2UxCzAJBgNVBAYTAklUMQ8wDQYDVQQIDAZJdGFsaWEx
JDAiBgNVBAoMG1JlZ2lvbmUgVHJlbnRpbm9fQWx0b19BZGlnZTBWMBAGByqGSM49
AgEGBSuBBAAKA0IABLBYpaUpsJoxy+wHVrWmdPQTEFVK/PB/vXT9/qx34YTOq1Wt
IomBZZHdfnKTdz58EWhJcXKmLl+vndIJ+vb8QO2jIzAhMA4GA1UdDwEB/wQEAwIF
oDAPBgNVHRMBAf8EBTADAgEDMAoGCCqGSM49BAMCA0gAMEUCIQCotwm+4JR/pPIf
J3FSkW7pXsfKudDQFSMs4sfZaK/xUAIgUJSlsjk8r+0vESmlCb0TrRcBV2pcjPkm
mirb0Xd2iLg=
-----END CERTIFICATE-----
