Certificate:
    Data:
        Version: 3 (0x2)
        Serial Number: 30 (0x1e)
        Signature Algorithm: ecdsa-with-SHA256
        Issuer: CN=Regione Marche, C=IT, ST=Italia, O=E-Voting system, OU=E-Voting system authority/emailAddress=Marche@evoting.it
        Validity
            Not Before: Aug  3 13:27:18 2022 GMT
            Not After : Aug  3 13:27:18 2023 GMT
        Subject: CN=Ross, C=IT, ST=Italia, O=Regione Marche
        Subject Public Key Info:
            Public Key Algorithm: id-ecPublicKey
                Public-Key: (256 bit)
                pub:
                    04:5c:de:41:d6:9e:92:6a:59:59:95:21:f4:2c:d4:
                    92:74:dc:c8:05:db:68:61:1d:25:b3:97:9c:3a:af:
                    bd:5f:58:b3:12:ff:cd:8b:15:6c:2c:90:57:4d:50:
                    1e:51:4a:93:ef:c5:9e:d9:fc:24:d0:5d:e5:d0:76:
                    43:84:fa:55:ff
                ASN1 OID: prime256v1
                NIST CURVE: P-256
        X509v3 extensions:
            X509v3 Key Usage: critical
                Digital Signature, Key Encipherment
            X509v3 Basic Constraints: critical
                CA:FALSE, pathlen:3
    Signature Algorithm: ecdsa-with-SHA256
         30:45:02:20:0b:44:b9:f2:1f:cc:6c:a8:79:1a:bf:e5:7c:80:
         20:a9:6f:8d:18:f3:e8:d9:e2:e5:15:08:89:f0:79:27:f4:b0:
         02:21:00:d0:a7:dc:93:25:7d:b4:ca:a4:5f:69:5e:51:eb:f4:
         4d:94:48:a7:69:a5:8e:ce:30:70:b3:e0:61:fe:9d:47:f4
-----BEGIN CERTIFICATE-----
MIIB8DCCAZagAwIBAgIBHjAKBggqhkjOPQQDAjCBlzEXMBUGA1UEAwwOUmVnaW9u
ZSBNYXJjaGUxCzAJBgNVBAYTAklUMQ8wDQYDVQQIDAZJdGFsaWExGDAWBgNVBAoM
D0UtVm90aW5nIHN5c3RlbTEiMCAGA1UECwwZRS1Wb3Rpbmcgc3lzdGVtIGF1dGhv
cml0eTEgMB4GCSqGSIb3DQEJARYRTWFyY2hlQGV2b3RpbmcuaXQwHhcNMjIwODAz
MTMyNzE4WhcNMjMwODAzMTMyNzE4WjBGMQ0wCwYDVQQDDARSb3NzMQswCQYDVQQG
EwJJVDEPMA0GA1UECAwGSXRhbGlhMRcwFQYDVQQKDA5SZWdpb25lIE1hcmNoZTBZ
MBMGByqGSM49AgEGCCqGSM49AwEHA0IABFzeQdaekmpZWZUh9CzUknTcyAXbaGEd
JbOXnDqvvV9YsxL/zYsVbCyQV01QHlFKk+/Fntn8JNBd5dB2Q4T6Vf+jIzAhMA4G
A1UdDwEB/wQEAwIFoDAPBgNVHRMBAf8EBTADAgEDMAoGCCqGSM49BAMCA0gAMEUC
IAtEufIfzGyoeRq/5XyAIKlvjRjz6Nni5RUIifB5J/SwAiEA0KfckyV9tMqkX2le
Uev0TZRIp2mljs4wcLPgYf6dR/Q=
-----END CERTIFICATE-----
