Certificate:
    Data:
        Version: 3 (0x2)
        Serial Number: 41 (0x29)
        Signature Algorithm: ecdsa-with-SHA256
        Issuer: CN=Regione Trentino_Alto_Adige, C=IT, ST=Italia, O=E-Voting system, OU=E-Voting system authority/emailAddress=Trentino_Alto_Adige@evoting.it
        Validity
            Not Before: Aug  3 13:28:18 2022 GMT
            Not After : Aug  3 13:28:18 2023 GMT
        Subject: CN=Roxane, C=IT, ST=Italia, O=Regione Trentino_Alto_Adige
        Subject Public Key Info:
            Public Key Algorithm: id-ecPublicKey
                Public-Key: (256 bit)
                pub:
                    04:b1:1a:88:35:30:9c:a3:b2:39:02:25:81:f1:f1:
                    e3:cb:f8:58:8e:e4:2e:da:88:b0:86:c6:40:79:60:
                    cd:9c:0e:d0:d5:7f:ce:fc:87:a9:b7:25:8d:6c:3a:
                    be:6d:3e:84:83:2f:07:4a:b5:a0:dc:72:db:7b:c9:
                    e0:6f:90:d8:49
                ASN1 OID: prime256v1
                NIST CURVE: P-256
        X509v3 extensions:
            X509v3 Key Usage: critical
                Digital Signature, Key Encipherment
            X509v3 Basic Constraints: critical
                CA:FALSE, pathlen:3
    Signature Algorithm: ecdsa-with-SHA256
         30:46:02:21:00:bc:8a:3f:86:0a:5d:df:b6:14:e4:dc:1b:6b:
         84:1a:ae:04:48:14:1e:da:32:27:1e:8e:b9:c3:28:27:c4:7b:
         45:02:21:00:c0:f7:db:6e:93:f4:11:24:1d:ce:02:c5:5e:22:
         64:38:11:6d:09:f9:69:ef:43:15:00:e8:4f:5f:ad:3c:64:8f
-----BEGIN CERTIFICATE-----
MIICGjCCAb+gAwIBAgIBKTAKBggqhkjOPQQDAjCBsTEkMCIGA1UEAwwbUmVnaW9u
ZSBUcmVudGlub19BbHRvX0FkaWdlMQswCQYDVQQGEwJJVDEPMA0GA1UECAwGSXRh
bGlhMRgwFgYDVQQKDA9FLVZvdGluZyBzeXN0ZW0xIjAgBgNVBAsMGUUtVm90aW5n
IHN5c3RlbSBhdXRob3JpdHkxLTArBgkqhkiG9w0BCQEWHlRyZW50aW5vX0FsdG9f
QWRpZ2VAZXZvdGluZy5pdDAeFw0yMjA4MDMxMzI4MThaFw0yMzA4MDMxMzI4MTha
MFUxDzANBgNVBAMMBlJveGFuZTELMAkGA1UEBhMCSVQxDzANBgNVBAgMBkl0YWxp
YTEkMCIGA1UECgwbUmVnaW9uZSBUcmVudGlub19BbHRvX0FkaWdlMFkwEwYHKoZI
zj0CAQYIKoZIzj0DAQcDQgAEsRqINTCco7I5AiWB8fHjy/hYjuQu2oiwhsZAeWDN
nA7Q1X/O/IeptyWNbDq+bT6Egy8HSrWg3HLbe8ngb5DYSaMjMCEwDgYDVR0PAQH/
BAQDAgWgMA8GA1UdEwEB/wQFMAMCAQMwCgYIKoZIzj0EAwIDSQAwRgIhALyKP4YK
Xd+2FOTcG2uEGq4ESBQe2jInHo65wygnxHtFAiEAwPfbbpP0ESQdzgLFXiJkOBFt
Cflp70MVAOhPX608ZI8=
-----END CERTIFICATE-----
