Certificate:
    Data:
        Version: 3 (0x2)
        Serial Number: 48 (0x30)
        Signature Algorithm: ecdsa-with-SHA256
        Issuer: CN=Regione Sicilia, C=IT, ST=Italia, O=E-Voting system, OU=E-Voting system authority/emailAddress=Sicilia@evoting.it
        Validity
            Not Before: Aug 26 15:21:25 2022 GMT
            Not After : Aug 26 15:21:25 2023 GMT
        Subject: CN=Roxie, C=IT, ST=Italia, O=Regione Sicilia
        Subject Public Key Info:
            Public Key Algorithm: id-ecPublicKey
                Public-Key: (256 bit)
                pub:
                    04:87:fa:54:63:7a:48:5c:e0:d5:b7:a4:c7:21:11:
                    54:c3:3f:c1:ff:28:87:2e:1c:dc:02:ca:f2:c7:46:
                    86:50:1a:32:20:e6:db:53:83:12:09:18:0a:96:cc:
                    dc:c3:90:15:3d:33:8d:c0:1d:18:b9:e6:4c:58:6c:
                    4c:1a:25:b1:11
                ASN1 OID: secp256k1
        X509v3 extensions:
            X509v3 Key Usage: critical
                Digital Signature, Key Encipherment
            X509v3 Basic Constraints: critical
                CA:FALSE, pathlen:3
    Signature Algorithm: ecdsa-with-SHA256
         30:45:02:21:00:d1:3f:65:3a:3b:5d:af:20:6f:49:b7:ab:ba:
         99:e4:35:a6:06:3f:7f:c9:6f:ec:49:3b:a7:eb:e2:ca:21:4f:
         13:02:20:4d:78:92:28:a1:1b:eb:de:ab:b9:1d:23:10:c9:e4:
         d6:d7:79:41:c3:b1:41:86:5a:ed:66:b0:de:46:f6:58:f5
-----BEGIN CERTIFICATE-----
MIIB8TCCAZegAwIBAgIBMDAKBggqhkjOPQQDAjCBmTEYMBYGA1UEAwwPUmVnaW9u
ZSBTaWNpbGlhMQswCQYDVQQGEwJJVDEPMA0GA1UECAwGSXRhbGlhMRgwFgYDVQQK
DA9FLVZvdGluZyBzeXN0ZW0xIjAgBgNVBAsMGUUtVm90aW5nIHN5c3RlbSBhdXRo
b3JpdHkxITAfBgkqhkiG9w0BCQEWElNpY2lsaWFAZXZvdGluZy5pdDAeFw0yMjA4
MjYxNTIxMjVaFw0yMzA4MjYxNTIxMjVaMEgxDjAMBgNVBAMMBVJveGllMQswCQYD
VQQGEwJJVDEPMA0GA1UECAwGSXRhbGlhMRgwFgYDVQQKDA9SZWdpb25lIFNpY2ls
aWEwVjAQBgcqhkjOPQIBBgUrgQQACgNCAASH+lRjekhc4NW3pMchEVTDP8H/KIcu
HNwCyvLHRoZQGjIg5ttTgxIJGAqWzNzDkBU9M43AHRi55kxYbEwaJbERoyMwITAO
BgNVHQ8BAf8EBAMCBaAwDwYDVR0TAQH/BAUwAwIBAzAKBggqhkjOPQQDAgNIADBF
AiEA0T9lOjtdryBvSberupnkNaYGP3/Jb+xJO6fr4sohTxMCIE14kiihG+veq7kd
IxDJ5NbXeUHDsUGGWu1msN5G9lj1
-----END CERTIFICATE-----
