Certificate:
    Data:
        Version: 3 (0x2)
        Serial Number: 40 (0x28)
        Signature Algorithm: ecdsa-with-SHA256
        Issuer: CN=Regione Molise, C=IT, ST=Italia, O=E-Voting system, OU=E-Voting system authority/emailAddress=Molise@evoting.it
        Validity
            Not Before: Aug  3 13:27:55 2022 GMT
            Not After : Aug  3 13:27:55 2023 GMT
        Subject: CN=Roy, C=IT, ST=Italia, O=Regione Molise
        Subject Public Key Info:
            Public Key Algorithm: id-ecPublicKey
                Public-Key: (256 bit)
                pub:
                    04:82:d2:4b:a7:16:2b:e0:55:dd:cf:3c:1c:40:2e:
                    fe:5a:fd:86:37:83:d8:e3:94:89:25:6d:9a:d8:30:
                    24:3e:a4:47:c7:b8:60:33:84:b3:15:6d:4b:1d:26:
                    2b:d0:21:7f:0e:4c:2a:7a:96:c8:89:5b:87:dc:ad:
                    41:74:5e:a9:16
                ASN1 OID: prime256v1
                NIST CURVE: P-256
        X509v3 extensions:
            X509v3 Key Usage: critical
                Digital Signature, Key Encipherment
            X509v3 Basic Constraints: critical
                CA:FALSE, pathlen:3
    Signature Algorithm: ecdsa-with-SHA256
         30:46:02:21:00:d1:31:ae:8a:08:a6:4a:8c:f4:47:09:09:f3:
         e0:53:8d:29:ee:9e:18:a4:5d:81:09:c3:7f:d0:2e:04:3e:0b:
         de:02:21:00:ae:24:b1:d4:2b:0c:75:61:34:c8:0c:e5:67:10:
         68:74:6a:31:36:73:cd:b1:04:27:ea:17:ec:7b:5d:68:7f:21
-----BEGIN CERTIFICATE-----
MIIB8DCCAZWgAwIBAgIBKDAKBggqhkjOPQQDAjCBlzEXMBUGA1UEAwwOUmVnaW9u
ZSBNb2xpc2UxCzAJBgNVBAYTAklUMQ8wDQYDVQQIDAZJdGFsaWExGDAWBgNVBAoM
D0UtVm90aW5nIHN5c3RlbTEiMCAGA1UECwwZRS1Wb3Rpbmcgc3lzdGVtIGF1dGhv
cml0eTEgMB4GCSqGSIb3DQEJARYRTW9saXNlQGV2b3RpbmcuaXQwHhcNMjIwODAz
MTMyNzU1WhcNMjMwODAzMTMyNzU1WjBFMQwwCgYDVQQDDANSb3kxCzAJBgNVBAYT
AklUMQ8wDQYDVQQIDAZJdGFsaWExFzAVBgNVBAoMDlJlZ2lvbmUgTW9saXNlMFkw
EwYHKoZIzj0CAQYIKoZIzj0DAQcDQgAEgtJLpxYr4FXdzzwcQC7+Wv2GN4PY45SJ
JW2a2DAkPqRHx7hgM4SzFW1LHSYr0CF/DkwqepbIiVuH3K1BdF6pFqMjMCEwDgYD
VR0PAQH/BAQDAgWgMA8GA1UdEwEB/wQFMAMCAQMwCgYIKoZIzj0EAwIDSQAwRgIh
ANExrooIpkqM9EcJCfPgU40p7p4YpF2BCcN/0C4EPgveAiEAriSx1CsMdWE0yAzl
ZxBodGoxNnPNsQQn6hfse11ofyE=
-----END CERTIFICATE-----
