Certificate:
    Data:
        Version: 3 (0x2)
        Serial Number: 24 (0x18)
        Signature Algorithm: ecdsa-with-SHA256
        Issuer: CN=Regione Emilia_Romagna, C=IT, ST=Italia, O=E-Voting system, OU=E-Voting system authority/emailAddress=Emilia_Romagna@evoting.it
        Validity
            Not Before: Aug 26 15:19:54 2022 GMT
            Not After : Aug 26 15:19:54 2023 GMT
        Subject: CN=Roy, C=IT, ST=Italia, O=Regione Emilia_Romagna
        Subject Public Key Info:
            Public Key Algorithm: id-ecPublicKey
                Public-Key: (256 bit)
                pub:
                    04:16:ea:86:5f:74:10:3f:a5:cf:04:94:f6:03:5a:
                    a2:da:be:f2:d8:60:5c:1a:cc:b1:b3:27:25:ef:17:
                    6a:1f:6b:22:13:2c:db:8a:da:38:df:65:60:9c:f4:
                    f4:76:43:3a:cb:08:a5:18:34:e4:a1:24:51:8f:b3:
                    82:56:44:47:d4
                ASN1 OID: secp256k1
        X509v3 extensions:
            X509v3 Key Usage: critical
                Digital Signature, Key Encipherment
            X509v3 Basic Constraints: critical
                CA:FALSE, pathlen:3
    Signature Algorithm: ecdsa-with-SHA256
         30:44:02:20:37:3b:ff:68:2a:d6:68:3f:76:74:16:49:dd:ae:
         ed:50:03:a8:63:f3:d6:55:ee:b4:f7:c1:7c:9b:c8:1c:97:a1:
         02:20:39:99:56:7d:80:05:b1:f3:70:d2:81:2d:60:f5:34:b7:
         8d:45:2b:a3:8c:55:1d:68:0a:38:88:b0:2a:e9:84:65
-----BEGIN CERTIFICATE-----
MIICAzCCAaqgAwIBAgIBGDAKBggqhkjOPQQDAjCBpzEfMB0GA1UEAwwWUmVnaW9u
ZSBFbWlsaWFfUm9tYWduYTELMAkGA1UEBhMCSVQxDzANBgNVBAgMBkl0YWxpYTEY
MBYGA1UECgwPRS1Wb3Rpbmcgc3lzdGVtMSIwIAYDVQQLDBlFLVZvdGluZyBzeXN0
ZW0gYXV0aG9yaXR5MSgwJgYJKoZIhvcNAQkBFhlFbWlsaWFfUm9tYWduYUBldm90
aW5nLml0MB4XDTIyMDgyNjE1MTk1NFoXDTIzMDgyNjE1MTk1NFowTTEMMAoGA1UE
AwwDUm95MQswCQYDVQQGEwJJVDEPMA0GA1UECAwGSXRhbGlhMR8wHQYDVQQKDBZS
ZWdpb25lIEVtaWxpYV9Sb21hZ25hMFYwEAYHKoZIzj0CAQYFK4EEAAoDQgAEFuqG
X3QQP6XPBJT2A1qi2r7y2GBcGsyxsycl7xdqH2siEyzbito432VgnPT0dkM6ywil
GDTkoSRRj7OCVkRH1KMjMCEwDgYDVR0PAQH/BAQDAgWgMA8GA1UdEwEB/wQFMAMC
AQMwCgYIKoZIzj0EAwIDRwAwRAIgNzv/aCrWaD92dBZJ3a7tUAOoY/PWVe6098F8
m8gcl6ECIDmZVn2ABbHzcNKBLWD1NLeNRSujjFUdaAo4iLAq6YRl
-----END CERTIFICATE-----
