Certificate:
    Data:
        Version: 3 (0x2)
        Serial Number: 13 (0xd)
        Signature Algorithm: ecdsa-with-SHA256
        Issuer: CN=Regione Abruzzo, C=IT, ST=Italia, O=E-Voting system, OU=E-Voting system authority/emailAddress=Abruzzo@evoting.it
        Validity
            Not Before: Aug 26 15:19:37 2022 GMT
            Not After : Aug 26 15:19:37 2023 GMT
        Subject: CN=Ruben, C=IT, ST=Italia, O=Regione Abruzzo
        Subject Public Key Info:
            Public Key Algorithm: id-ecPublicKey
                Public-Key: (256 bit)
                pub:
                    04:c6:62:cb:a8:e5:99:11:c5:74:af:5a:1b:79:35:
                    21:13:f8:a1:08:99:c3:23:a6:3c:ee:91:ac:73:e3:
                    bd:78:ec:2b:7b:60:0c:4f:58:cd:b2:88:43:39:cb:
                    fa:68:ad:49:a3:d7:02:c8:76:1a:b6:07:b3:26:05:
                    f9:92:4b:cf:43
                ASN1 OID: secp256k1
        X509v3 extensions:
            X509v3 Key Usage: critical
                Digital Signature, Key Encipherment
            X509v3 Basic Constraints: critical
                CA:FALSE, pathlen:3
    Signature Algorithm: ecdsa-with-SHA256
         30:45:02:20:38:27:57:ab:f1:9e:96:25:49:28:b3:45:92:09:
         a6:69:71:53:09:15:3c:72:35:98:86:d5:30:e7:85:ab:0b:1f:
         02:21:00:a2:87:c7:00:d2:f7:5b:36:cb:a2:d7:77:f3:0f:b5:
         ec:2c:5e:68:6a:36:39:d2:d4:60:2c:43:56:95:6f:29:c8
-----BEGIN CERTIFICATE-----
MIIB8TCCAZegAwIBAgIBDTAKBggqhkjOPQQDAjCBmTEYMBYGA1UEAwwPUmVnaW9u
ZSBBYnJ1enpvMQswCQYDVQQGEwJJVDEPMA0GA1UECAwGSXRhbGlhMRgwFgYDVQQK
DA9FLVZvdGluZyBzeXN0ZW0xIjAgBgNVBAsMGUUtVm90aW5nIHN5c3RlbSBhdXRo
b3JpdHkxITAfBgkqhkiG9w0BCQEWEkFicnV6em9AZXZvdGluZy5pdDAeFw0yMjA4
MjYxNTE5MzdaFw0yMzA4MjYxNTE5MzdaMEgxDjAMBgNVBAMMBVJ1YmVuMQswCQYD
VQQGEwJJVDEPMA0GA1UECAwGSXRhbGlhMRgwFgYDVQQKDA9SZWdpb25lIEFicnV6
em8wVjAQBgcqhkjOPQIBBgUrgQQACgNCAATGYsuo5ZkRxXSvWht5NSET+KEImcMj
pjzukaxz47147Ct7YAxPWM2yiEM5y/porUmj1wLIdhq2B7MmBfmSS89DoyMwITAO
BgNVHQ8BAf8EBAMCBaAwDwYDVR0TAQH/BAUwAwIBAzAKBggqhkjOPQQDAgNIADBF
AiA4J1er8Z6WJUkos0WSCaZpcVMJFTxyNZiG1TDnhasLHwIhAKKHxwDS91s2y6LX
d/MPtewsXmhqNjnS1GAsQ1aVbynI
-----END CERTIFICATE-----
