Certificate:
    Data:
        Version: 3 (0x2)
        Serial Number: 32 (0x20)
        Signature Algorithm: ecdsa-with-SHA256
        Issuer: CN=Regione Emilia_Romagna, C=IT, ST=Italia, O=E-Voting system, OU=E-Voting system authority/emailAddress=Emilia_Romagna@evoting.it
        Validity
            Not Before: Aug  3 13:27:27 2022 GMT
            Not After : Aug  3 13:27:27 2023 GMT
        Subject: CN=Rubi, C=IT, ST=Italia, O=Regione Emilia_Romagna
        Subject Public Key Info:
            Public Key Algorithm: id-ecPublicKey
                Public-Key: (256 bit)
                pub:
                    04:b6:e1:a6:60:06:54:7e:40:3e:74:47:8e:9a:e6:
                    8b:d7:ec:90:fe:e7:05:db:22:e9:58:b5:6c:f9:9c:
                    dd:5f:fb:d5:84:01:ca:d7:f6:ad:fb:35:c7:34:e9:
                    d6:54:c2:64:4f:31:3a:c7:e9:d5:6f:92:50:85:9e:
                    c7:85:28:d9:ac
                ASN1 OID: prime256v1
                NIST CURVE: P-256
        X509v3 extensions:
            X509v3 Key Usage: critical
                Digital Signature, Key Encipherment
            X509v3 Basic Constraints: critical
                CA:FALSE, pathlen:3
    Signature Algorithm: ecdsa-with-SHA256
         30:45:02:21:00:d5:a4:86:61:d3:8f:1c:5c:8d:c4:2a:65:2a:
         8f:03:9c:a4:a6:f3:cb:59:6f:5e:42:19:c1:43:fe:dd:46:f5:
         48:02:20:2d:42:34:ec:cc:70:ee:6c:b3:2b:d0:1e:f6:96:ac:
         96:77:1f:e4:be:b5:19:9a:9c:69:70:1f:13:68:fc:6d:95
-----BEGIN CERTIFICATE-----
MIICCDCCAa6gAwIBAgIBIDAKBggqhkjOPQQDAjCBpzEfMB0GA1UEAwwWUmVnaW9u
ZSBFbWlsaWFfUm9tYWduYTELMAkGA1UEBhMCSVQxDzANBgNVBAgMBkl0YWxpYTEY
MBYGA1UECgwPRS1Wb3Rpbmcgc3lzdGVtMSIwIAYDVQQLDBlFLVZvdGluZyBzeXN0
ZW0gYXV0aG9yaXR5MSgwJgYJKoZIhvcNAQkBFhlFbWlsaWFfUm9tYWduYUBldm90
aW5nLml0MB4XDTIyMDgwMzEzMjcyN1oXDTIzMDgwMzEzMjcyN1owTjENMAsGA1UE
AwwEUnViaTELMAkGA1UEBhMCSVQxDzANBgNVBAgMBkl0YWxpYTEfMB0GA1UECgwW
UmVnaW9uZSBFbWlsaWFfUm9tYWduYTBZMBMGByqGSM49AgEGCCqGSM49AwEHA0IA
BLbhpmAGVH5APnRHjprmi9fskP7nBdsi6Vi1bPmc3V/71YQBytf2rfs1xzTp1lTC
ZE8xOsfp1W+SUIWex4Uo2ayjIzAhMA4GA1UdDwEB/wQEAwIFoDAPBgNVHRMBAf8E
BTADAgEDMAoGCCqGSM49BAMCA0gAMEUCIQDVpIZh048cXI3EKmUqjwOcpKbzy1lv
XkIZwUP+3Ub1SAIgLUI07Mxw7myzK9Ae9paslncf5L61GZqcaXAfE2j8bZU=
-----END CERTIFICATE-----
