Certificate:
    Data:
        Version: 3 (0x2)
        Serial Number: 4 (0x4)
        Signature Algorithm: ecdsa-with-SHA256
        Issuer: CN=Regione Abruzzo, C=IT, ST=Italia, O=E-Voting system, OU=E-Voting system authority/emailAddress=Abruzzo@evoting.it
        Validity
            Not Before: Aug 26 15:18:33 2022 GMT
            Not After : Aug 26 15:18:33 2023 GMT
        Subject: CN=Russell, C=IT, ST=Italia, O=Regione Abruzzo
        Subject Public Key Info:
            Public Key Algorithm: id-ecPublicKey
                Public-Key: (256 bit)
                pub:
                    04:ab:80:8f:60:30:9f:68:a5:30:50:ce:9c:04:73:
                    6c:eb:b1:fe:55:a0:52:8a:1d:d6:16:b9:41:9b:50:
                    b6:b4:f5:b4:5b:93:0e:40:e1:11:b5:f6:32:b1:a3:
                    3d:f2:b1:78:71:b6:60:80:de:b4:ef:c0:ab:4c:e8:
                    d2:ac:06:b6:9d
                ASN1 OID: secp256k1
        X509v3 extensions:
            X509v3 Key Usage: critical
                Digital Signature, Key Encipherment
            X509v3 Basic Constraints: critical
                CA:FALSE, pathlen:3
    Signature Algorithm: ecdsa-with-SHA256
         30:45:02:21:00:ae:14:df:72:99:ce:3d:9b:27:8f:02:3c:c1:
         3a:78:a4:d5:dc:0e:91:35:fa:ef:70:3d:07:e9:5c:f7:70:2c:
         62:02:20:09:5b:c5:fa:e5:36:c4:26:53:8d:68:cf:1d:51:96:
         c5:f9:d8:fb:2a:e9:87:b2:f4:b5:6b:8b:c3:f2:68:5f:96
-----BEGIN CERTIFICATE-----
MIIB8zCCAZmgAwIBAgIBBDAKBggqhkjOPQQDAjCBmTEYMBYGA1UEAwwPUmVnaW9u
ZSBBYnJ1enpvMQswCQYDVQQGEwJJVDEPMA0GA1UECAwGSXRhbGlhMRgwFgYDVQQK
DA9FLVZvdGluZyBzeXN0ZW0xIjAgBgNVBAsMGUUtVm90aW5nIHN5c3RlbSBhdXRo
b3JpdHkxITAfBgkqhkiG9w0BCQEWEkFicnV6em9AZXZvdGluZy5pdDAeFw0yMjA4
MjYxNTE4MzNaFw0yMzA4MjYxNTE4MzNaMEoxEDAOBgNVBAMMB1J1c3NlbGwxCzAJ
BgNVBAYTAklUMQ8wDQYDVQQIDAZJdGFsaWExGDAWBgNVBAoMD1JlZ2lvbmUgQWJy
dXp6bzBWMBAGByqGSM49AgEGBSuBBAAKA0IABKuAj2Awn2ilMFDOnARzbOux/lWg
Uood1ha5QZtQtrT1tFuTDkDhEbX2MrGjPfKxeHG2YIDetO/Aq0zo0qwGtp2jIzAh
MA4GA1UdDwEB/wQEAwIFoDAPBgNVHRMBAf8EBTADAgEDMAoGCCqGSM49BAMCA0gA
MEUCIQCuFN9ymc49myePAjzBOnik1dwOkTX673A9B+lc93AsYgIgCVvF+uU2xCZT
jWjPHVGWxfnY+yrph7L0tWuLw/JoX5Y=
-----END CERTIFICATE-----
