Certificate:
    Data:
        Version: 3 (0x2)
        Serial Number: 49 (0x31)
        Signature Algorithm: ecdsa-with-SHA256
        Issuer: CN=Regione Sicilia, C=IT, ST=Italia, O=E-Voting system, OU=E-Voting system authority/emailAddress=Sicilia@evoting.it
        Validity
            Not Before: Aug 26 15:21:26 2022 GMT
            Not After : Aug 26 15:21:26 2023 GMT
        Subject: CN=Rusty, C=IT, ST=Italia, O=Regione Sicilia
        Subject Public Key Info:
            Public Key Algorithm: id-ecPublicKey
                Public-Key: (256 bit)
                pub:
                    04:45:06:b3:72:3a:08:1b:1d:08:b5:0c:35:af:0a:
                    5d:9f:ed:d3:31:f5:c7:df:1e:9a:08:9e:2b:32:2d:
                    5c:4d:84:7c:33:b5:9d:de:52:d4:1d:0a:fa:c2:bb:
                    59:39:74:3e:07:f8:98:14:dc:bc:ec:46:fc:99:13:
                    1a:4c:f8:cc:d4
                ASN1 OID: secp256k1
        X509v3 extensions:
            X509v3 Key Usage: critical
                Digital Signature, Key Encipherment
            X509v3 Basic Constraints: critical
                CA:FALSE, pathlen:3
    Signature Algorithm: ecdsa-with-SHA256
         30:45:02:20:6c:07:f7:ac:3d:2d:db:eb:1e:d9:57:c8:e6:80:
         db:71:00:4e:68:34:9a:6b:c9:60:c5:47:78:80:11:b7:30:fe:
         02:21:00:d0:d1:6c:87:cf:a2:a4:82:63:ea:a6:4a:6d:a6:37:
         af:65:1c:a3:7d:7c:86:c5:6d:dc:b1:28:d2:42:f9:8e:1e
-----BEGIN CERTIFICATE-----
MIIB8TCCAZegAwIBAgIBMTAKBggqhkjOPQQDAjCBmTEYMBYGA1UEAwwPUmVnaW9u
ZSBTaWNpbGlhMQswCQYDVQQGEwJJVDEPMA0GA1UECAwGSXRhbGlhMRgwFgYDVQQK
DA9FLVZvdGluZyBzeXN0ZW0xIjAgBgNVBAsMGUUtVm90aW5nIHN5c3RlbSBhdXRo
b3JpdHkxITAfBgkqhkiG9w0BCQEWElNpY2lsaWFAZXZvdGluZy5pdDAeFw0yMjA4
MjYxNTIxMjZaFw0yMzA4MjYxNTIxMjZaMEgxDjAMBgNVBAMMBVJ1c3R5MQswCQYD
VQQGEwJJVDEPMA0GA1UECAwGSXRhbGlhMRgwFgYDVQQKDA9SZWdpb25lIFNpY2ls
aWEwVjAQBgcqhkjOPQIBBgUrgQQACgNCAARFBrNyOggbHQi1DDWvCl2f7dMx9cff
HpoInisyLVxNhHwztZ3eUtQdCvrCu1k5dD4H+JgU3LzsRvyZExpM+MzUoyMwITAO
BgNVHQ8BAf8EBAMCBaAwDwYDVR0TAQH/BAUwAwIBAzAKBggqhkjOPQQDAgNIADBF
AiBsB/esPS3b6x7ZV8jmgNtxAE5oNJpryWDFR3iAEbcw/gIhANDRbIfPoqSCY+qm
Sm2mN69lHKN9fIbFbdyxKNJC+Y4e
-----END CERTIFICATE-----
