Certificate:
    Data:
        Version: 3 (0x2)
        Serial Number: 52 (0x34)
        Signature Algorithm: ecdsa-with-SHA256
        Issuer: CN=Regione Lazio, C=IT, ST=Italia, O=E-Voting system, OU=E-Voting system authority/emailAddress=Lazio@evoting.it
        Validity
            Not Before: Aug 26 15:21:48 2022 GMT
            Not After : Aug 26 15:21:48 2023 GMT
        Subject: CN=Ruth, C=IT, ST=Italia, O=Regione Lazio
        Subject Public Key Info:
            Public Key Algorithm: id-ecPublicKey
                Public-Key: (256 bit)
                pub:
                    04:c2:c2:d3:8e:19:e7:f3:77:52:ba:be:04:ea:7e:
                    ab:96:7e:c7:51:0f:40:58:15:fc:57:4c:48:b7:53:
                    08:d9:e1:2e:96:2c:70:ef:67:40:8c:5a:c3:c5:80:
                    e6:50:26:e0:4a:9c:40:76:17:8c:af:82:be:af:46:
                    98:c7:62:d1:f6
                ASN1 OID: secp256k1
        X509v3 extensions:
            X509v3 Key Usage: critical
                Digital Signature, Key Encipherment
            X509v3 Basic Constraints: critical
                CA:FALSE, pathlen:3
    Signature Algorithm: ecdsa-with-SHA256
         30:45:02:21:00:cc:d7:f3:96:88:fa:78:71:b1:51:37:bd:fc:
         30:52:17:b1:a5:63:06:15:35:b1:88:3a:77:61:41:69:30:b1:
         04:02:20:79:89:38:2f:9e:30:b2:c4:58:39:d7:e6:bf:14:97:
         46:4e:cb:77:06:02:5e:ac:45:4e:6b:86:f9:de:aa:8e:e5
-----BEGIN CERTIFICATE-----
MIIB6jCCAZCgAwIBAgIBNDAKBggqhkjOPQQDAjCBlTEWMBQGA1UEAwwNUmVnaW9u
ZSBMYXppbzELMAkGA1UEBhMCSVQxDzANBgNVBAgMBkl0YWxpYTEYMBYGA1UECgwP
RS1Wb3Rpbmcgc3lzdGVtMSIwIAYDVQQLDBlFLVZvdGluZyBzeXN0ZW0gYXV0aG9y
aXR5MR8wHQYJKoZIhvcNAQkBFhBMYXppb0Bldm90aW5nLml0MB4XDTIyMDgyNjE1
MjE0OFoXDTIzMDgyNjE1MjE0OFowRTENMAsGA1UEAwwEUnV0aDELMAkGA1UEBhMC
SVQxDzANBgNVBAgMBkl0YWxpYTEWMBQGA1UECgwNUmVnaW9uZSBMYXppbzBWMBAG
ByqGSM49AgEGBSuBBAAKA0IABMLC044Z5/N3Urq+BOp+q5Z+x1EPQFgV/FdMSLdT
CNnhLpYscO9nQIxaw8WA5lAm4EqcQHYXjK+Cvq9GmMdi0fajIzAhMA4GA1UdDwEB
/wQEAwIFoDAPBgNVHRMBAf8EBTADAgEDMAoGCCqGSM49BAMCA0gAMEUCIQDM1/OW
iPp4cbFRN738MFIXsaVjBhU1sYg6d2FBaTCxBAIgeYk4L54wssRYOdfmvxSXRk7L
dwYCXqxFTmuG+d6qjuU=
-----END CERTIFICATE-----
