Certificate:
    Data:
        Version: 3 (0x2)
        Serial Number: 2 (0x2)
        Signature Algorithm: ecdsa-with-SHA256
        Issuer: CN=Regione Sicilia, C=IT, ST=Italia, O=E-Voting system, OU=E-Voting system authority/emailAddress=Sicilia@evoting.it
        Validity
            Not Before: Aug 26 15:18:26 2022 GMT
            Not After : Aug 26 15:18:26 2023 GMT
        Subject: CN=Ryan, C=IT, ST=Italia, O=Regione Sicilia
        Subject Public Key Info:
            Public Key Algorithm: id-ecPublicKey
                Public-Key: (256 bit)
                pub:
                    04:95:5e:47:ed:a6:4d:1a:37:bd:6f:fb:c5:a9:33:
                    b5:6c:c6:94:36:05:0e:ec:31:dd:48:6b:f9:fa:18:
                    9a:b9:ff:3d:31:9e:14:e2:a4:7d:ce:14:1a:89:29:
                    0b:61:5b:6f:1f:aa:82:fc:fb:f3:e5:2b:7b:7a:0a:
                    cb:e4:4b:bf:7e
                ASN1 OID: secp256k1
        X509v3 extensions:
            X509v3 Key Usage: critical
                Digital Signature, Key Encipherment
            X509v3 Basic Constraints: critical
                CA:FALSE, pathlen:3
    Signature Algorithm: ecdsa-with-SHA256
         30:44:02:20:06:93:b4:51:c2:2d:79:16:f3:79:42:d6:0f:f6:
         af:18:f5:b5:ee:e2:c4:dd:17:a9:07:ef:5a:ea:65:df:0d:2c:
         02:20:22:96:43:49:52:0e:d2:91:c3:71:c1:25:e6:4a:ad:77:
         80:32:fc:26:fe:c0:90:66:fb:7e:55:ad:89:72:47:f5
-----BEGIN CERTIFICATE-----
MIIB7zCCAZagAwIBAgIBAjAKBggqhkjOPQQDAjCBmTEYMBYGA1UEAwwPUmVnaW9u
ZSBTaWNpbGlhMQswCQYDVQQGEwJJVDEPMA0GA1UECAwGSXRhbGlhMRgwFgYDVQQK
DA9FLVZvdGluZyBzeXN0ZW0xIjAgBgNVBAsMGUUtVm90aW5nIHN5c3RlbSBhdXRo
b3JpdHkxITAfBgkqhkiG9w0BCQEWElNpY2lsaWFAZXZvdGluZy5pdDAeFw0yMjA4
MjYxNTE4MjZaFw0yMzA4MjYxNTE4MjZaMEcxDTALBgNVBAMMBFJ5YW4xCzAJBgNV
BAYTAklUMQ8wDQYDVQQIDAZJdGFsaWExGDAWBgNVBAoMD1JlZ2lvbmUgU2ljaWxp
YTBWMBAGByqGSM49AgEGBSuBBAAKA0IABJVeR+2mTRo3vW/7xakztWzGlDYFDuwx
3Uhr+foYmrn/PTGeFOKkfc4UGokpC2Fbbx+qgvz78+Ure3oKy+RLv36jIzAhMA4G
A1UdDwEB/wQEAwIFoDAPBgNVHRMBAf8EBTADAgEDMAoGCCqGSM49BAMCA0cAMEQC
IAaTtFHCLXkW83lC1g/2rxj1te7ixN0XqQfvWupl3w0sAiAilkNJUg7SkcNxwSXm
Sq13gDL8Jv7AkGb7flWtiXJH9Q==
-----END CERTIFICATE-----
