Certificate:
    Data:
        Version: 3 (0x2)
        Serial Number: 46 (0x2e)
        Signature Algorithm: ecdsa-with-SHA256
        Issuer: CN=Regione Emilia_Romagna, C=IT, ST=Italia, O=E-Voting system, OU=E-Voting system authority/emailAddress=Emilia_Romagna@evoting.it
        Validity
            Not Before: Aug 26 15:21:23 2022 GMT
            Not After : Aug 26 15:21:23 2023 GMT
        Subject: CN=Sabina, C=IT, ST=Italia, O=Regione Emilia_Romagna
        Subject Public Key Info:
            Public Key Algorithm: id-ecPublicKey
                Public-Key: (256 bit)
                pub:
                    04:a0:77:7c:9a:f1:45:a6:85:65:20:21:1a:f7:73:
                    67:e1:9e:b6:d7:b2:9d:82:07:bc:e2:9f:0e:49:e6:
                    b4:03:d0:b5:e7:4e:ec:6d:69:4a:ea:01:70:1b:15:
                    63:5e:5e:5c:3e:a2:12:60:31:c8:f7:d3:7c:7e:8b:
                    ba:33:ea:9c:eb
                ASN1 OID: secp256k1
        X509v3 extensions:
            X509v3 Key Usage: critical
                Digital Signature, Key Encipherment
            X509v3 Basic Constraints: critical
                CA:FALSE, pathlen:3
    Signature Algorithm: ecdsa-with-SHA256
         30:45:02:21:00:bf:1d:55:41:2f:a6:3b:5b:0d:c7:10:0c:42:
         3f:c7:7b:07:66:fe:51:82:81:22:de:f3:2d:b0:f5:de:5f:0e:
         eb:02:20:41:7c:3d:e9:80:ef:ad:57:ec:f7:0a:48:ed:3a:24:
         d3:43:6c:5c:a7:9f:16:79:a8:25:08:21:d4:71:08:13:be
-----BEGIN CERTIFICATE-----
MIICBzCCAa2gAwIBAgIBLjAKBggqhkjOPQQDAjCBpzEfMB0GA1UEAwwWUmVnaW9u
ZSBFbWlsaWFfUm9tYWduYTELMAkGA1UEBhMCSVQxDzANBgNVBAgMBkl0YWxpYTEY
MBYGA1UECgwPRS1Wb3Rpbmcgc3lzdGVtMSIwIAYDVQQLDBlFLVZvdGluZyBzeXN0
ZW0gYXV0aG9yaXR5MSgwJgYJKoZIhvcNAQkBFhlFbWlsaWFfUm9tYWduYUBldm90
aW5nLml0MB4XDTIyMDgyNjE1MjEyM1oXDTIzMDgyNjE1MjEyM1owUDEPMA0GA1UE
AwwGU2FiaW5hMQswCQYDVQQGEwJJVDEPMA0GA1UECAwGSXRhbGlhMR8wHQYDVQQK
DBZSZWdpb25lIEVtaWxpYV9Sb21hZ25hMFYwEAYHKoZIzj0CAQYFK4EEAAoDQgAE
oHd8mvFFpoVlICEa93Nn4Z6217Kdgge84p8OSea0A9C1507sbWlK6gFwGxVjXl5c
PqISYDHI99N8fou6M+qc66MjMCEwDgYDVR0PAQH/BAQDAgWgMA8GA1UdEwEB/wQF
MAMCAQMwCgYIKoZIzj0EAwIDSAAwRQIhAL8dVUEvpjtbDccQDEI/x3sHZv5RgoEi
3vMtsPXeXw7rAiBBfD3pgO+tV+z3CkjtOiTTQ2xcp58WeaglCCHUcQgTvg==
-----END CERTIFICATE-----
