Certificate:
    Data:
        Version: 3 (0x2)
        Serial Number: 28 (0x1c)
        Signature Algorithm: ecdsa-with-SHA256
        Issuer: CN=Regione Campania, C=IT, ST=Italia, O=E-Voting system, OU=E-Voting system authority/emailAddress=Campania@evoting.it
        Validity
            Not Before: Aug 26 15:20:32 2022 GMT
            Not After : Aug 26 15:20:32 2023 GMT
        Subject: CN=Sabrina, C=IT, ST=Italia, O=Regione Campania
        Subject Public Key Info:
            Public Key Algorithm: id-ecPublicKey
                Public-Key: (256 bit)
                pub:
                    04:5f:a6:c1:13:d1:08:36:35:61:0d:2e:dd:3a:2b:
                    7e:1b:85:f5:d4:92:2d:f0:d9:c8:12:66:6e:5e:ad:
                    25:24:a9:10:cb:70:f3:05:0b:5e:65:8a:43:20:49:
                    91:44:1e:a4:b3:8b:af:c0:13:11:4f:60:a0:c6:5f:
                    91:0c:dd:af:39
                ASN1 OID: secp256k1
        X509v3 extensions:
            X509v3 Key Usage: critical
                Digital Signature, Key Encipherment
            X509v3 Basic Constraints: critical
                CA:FALSE, pathlen:3
    Signature Algorithm: ecdsa-with-SHA256
         30:45:02:21:00:c5:e0:e9:bc:ba:ee:32:27:5c:17:4d:39:6d:
         73:fb:a7:df:07:25:ea:4a:a3:b3:d8:52:91:30:cd:c6:63:05:
         5f:02:20:13:98:ae:17:7f:36:6f:37:c8:37:1a:11:88:92:5c:
         33:cb:4e:80:95:9c:b1:5a:63:bc:65:0d:39:cb:c3:65:73
-----BEGIN CERTIFICATE-----
MIIB9jCCAZygAwIBAgIBHDAKBggqhkjOPQQDAjCBmzEZMBcGA1UEAwwQUmVnaW9u
ZSBDYW1wYW5pYTELMAkGA1UEBhMCSVQxDzANBgNVBAgMBkl0YWxpYTEYMBYGA1UE
CgwPRS1Wb3Rpbmcgc3lzdGVtMSIwIAYDVQQLDBlFLVZvdGluZyBzeXN0ZW0gYXV0
aG9yaXR5MSIwIAYJKoZIhvcNAQkBFhNDYW1wYW5pYUBldm90aW5nLml0MB4XDTIy
MDgyNjE1MjAzMloXDTIzMDgyNjE1MjAzMlowSzEQMA4GA1UEAwwHU2FicmluYTEL
MAkGA1UEBhMCSVQxDzANBgNVBAgMBkl0YWxpYTEZMBcGA1UECgwQUmVnaW9uZSBD
YW1wYW5pYTBWMBAGByqGSM49AgEGBSuBBAAKA0IABF+mwRPRCDY1YQ0u3TorfhuF
9dSSLfDZyBJmbl6tJSSpEMtw8wULXmWKQyBJkUQepLOLr8ATEU9goMZfkQzdrzmj
IzAhMA4GA1UdDwEB/wQEAwIFoDAPBgNVHRMBAf8EBTADAgEDMAoGCCqGSM49BAMC
A0gAMEUCIQDF4Om8uu4yJ1wXTTltc/un3wcl6kqjs9hSkTDNxmMFXwIgE5iuF382
bzfINxoRiJJcM8tOgJWcsVpjvGUNOcvDZXM=
-----END CERTIFICATE-----
