Certificate:
    Data:
        Version: 3 (0x2)
        Serial Number: 52 (0x34)
        Signature Algorithm: ecdsa-with-SHA256
        Issuer: CN=Regione Abruzzo, C=IT, ST=Italia, O=E-Voting system, OU=E-Voting system authority/emailAddress=Abruzzo@evoting.it
        Validity
            Not Before: Aug  3 13:28:29 2022 GMT
            Not After : Aug  3 13:28:29 2023 GMT
        Subject: CN=Sabrina, C=IT, ST=Italia, O=Regione Abruzzo
        Subject Public Key Info:
            Public Key Algorithm: id-ecPublicKey
                Public-Key: (256 bit)
                pub:
                    04:4c:1a:65:71:a7:e4:6f:ea:1e:4b:6d:0e:24:a3:
                    f9:2b:dc:cf:fa:0a:29:64:69:fa:d6:27:e3:fe:be:
                    50:28:65:3d:e9:63:86:72:e5:ea:1f:35:ac:ff:25:
                    4e:a9:45:cc:bb:b3:79:ef:4a:c4:4c:e7:58:ea:b5:
                    7b:d3:3a:55:ea
                ASN1 OID: prime256v1
                NIST CURVE: P-256
        X509v3 extensions:
            X509v3 Key Usage: critical
                Digital Signature, Key Encipherment
            X509v3 Basic Constraints: critical
                CA:FALSE, pathlen:3
    Signature Algorithm: ecdsa-with-SHA256
         30:45:02:21:00:92:4b:7e:85:87:b0:f8:93:bf:43:f0:6e:3f:
         ef:27:4b:1e:20:61:20:d7:aa:3c:fe:d4:ff:3f:55:ef:d4:30:
         cc:02:20:7e:34:cd:51:b1:c7:fa:da:74:c5:d9:5f:20:77:f4:
         4a:3e:92:b7:ed:e3:5e:61:25:82:bd:cd:fd:19:72:12:90
-----BEGIN CERTIFICATE-----
MIIB9jCCAZygAwIBAgIBNDAKBggqhkjOPQQDAjCBmTEYMBYGA1UEAwwPUmVnaW9u
ZSBBYnJ1enpvMQswCQYDVQQGEwJJVDEPMA0GA1UECAwGSXRhbGlhMRgwFgYDVQQK
DA9FLVZvdGluZyBzeXN0ZW0xIjAgBgNVBAsMGUUtVm90aW5nIHN5c3RlbSBhdXRo
b3JpdHkxITAfBgkqhkiG9w0BCQEWEkFicnV6em9AZXZvdGluZy5pdDAeFw0yMjA4
MDMxMzI4MjlaFw0yMzA4MDMxMzI4MjlaMEoxEDAOBgNVBAMMB1NhYnJpbmExCzAJ
BgNVBAYTAklUMQ8wDQYDVQQIDAZJdGFsaWExGDAWBgNVBAoMD1JlZ2lvbmUgQWJy
dXp6bzBZMBMGByqGSM49AgEGCCqGSM49AwEHA0IABEwaZXGn5G/qHkttDiSj+Svc
z/oKKWRp+tYn4/6+UChlPeljhnLl6h81rP8lTqlFzLuzee9KxEznWOq1e9M6Veqj
IzAhMA4GA1UdDwEB/wQEAwIFoDAPBgNVHRMBAf8EBTADAgEDMAoGCCqGSM49BAMC
A0gAMEUCIQCSS36Fh7D4k79D8G4/7ydLHiBhINeqPP7U/z9V79QwzAIgfjTNUbHH
+tp0xdlfIHf0Sj6St+3jXmElgr3N/RlyEpA=
-----END CERTIFICATE-----
