Certificate:
    Data:
        Version: 3 (0x2)
        Serial Number: 1 (0x1)
        Signature Algorithm: ecdsa-with-SHA256
        Issuer: CN=Regione Calabria, C=IT, ST=Italia, O=E-Voting system, OU=E-Voting system authority/emailAddress=Calabria@evoting.it
        Validity
            Not Before: Aug 26 15:18:26 2022 GMT
            Not After : Aug 26 15:18:26 2023 GMT
        Subject: CN=Sadie, C=IT, ST=Italia, O=Regione Calabria
        Subject Public Key Info:
            Public Key Algorithm: id-ecPublicKey
                Public-Key: (256 bit)
                pub:
                    04:37:20:ae:31:30:91:ad:91:d2:7c:ee:a6:71:04:
                    21:f4:d2:34:ca:ae:9f:bf:5f:0e:6c:6b:77:8b:98:
                    b5:ad:2d:4a:39:a2:a7:1f:6e:97:10:b2:17:de:b0:
                    26:65:03:50:e4:7e:c2:fa:da:6c:31:9f:08:9e:3f:
                    fd:58:9d:df:2b
                ASN1 OID: secp256k1
        X509v3 extensions:
            X509v3 Key Usage: critical
                Digital Signature, Key Encipherment
            X509v3 Basic Constraints: critical
                CA:FALSE, pathlen:3
    Signature Algorithm: ecdsa-with-SHA256
         30:46:02:21:00:a9:59:57:0f:cb:6a:d6:9c:ea:90:2e:70:7b:
         05:1e:22:12:ea:1c:7a:20:dd:ef:1b:65:08:44:c6:3d:d5:df:
         92:02:21:00:de:fa:89:ef:af:9e:61:12:09:00:3f:7a:98:15:
         a1:e5:3f:ec:00:1f:1c:32:f8:23:31:ae:db:ef:59:16:4e:33
-----BEGIN CERTIFICATE-----
MIIB9TCCAZqgAwIBAgIBATAKBggqhkjOPQQDAjCBmzEZMBcGA1UEAwwQUmVnaW9u
ZSBDYWxhYnJpYTELMAkGA1UEBhMCSVQxDzANBgNVBAgMBkl0YWxpYTEYMBYGA1UE
CgwPRS1Wb3Rpbmcgc3lzdGVtMSIwIAYDVQQLDBlFLVZvdGluZyBzeXN0ZW0gYXV0
aG9yaXR5MSIwIAYJKoZIhvcNAQkBFhNDYWxhYnJpYUBldm90aW5nLml0MB4XDTIy
MDgyNjE1MTgyNloXDTIzMDgyNjE1MTgyNlowSTEOMAwGA1UEAwwFU2FkaWUxCzAJ
BgNVBAYTAklUMQ8wDQYDVQQIDAZJdGFsaWExGTAXBgNVBAoMEFJlZ2lvbmUgQ2Fs
YWJyaWEwVjAQBgcqhkjOPQIBBgUrgQQACgNCAAQ3IK4xMJGtkdJ87qZxBCH00jTK
rp+/Xw5sa3eLmLWtLUo5oqcfbpcQshfesCZlA1DkfsL62mwxnwieP/1Ynd8royMw
ITAOBgNVHQ8BAf8EBAMCBaAwDwYDVR0TAQH/BAUwAwIBAzAKBggqhkjOPQQDAgNJ
ADBGAiEAqVlXD8tq1pzqkC5wewUeIhLqHHog3e8bZQhExj3V35ICIQDe+onvr55h
EgkAP3qYFaHlP+wAHxwy+CMxrtvvWRZOMw==
-----END CERTIFICATE-----
