Certificate:
    Data:
        Version: 3 (0x2)
        Serial Number: 6 (0x6)
        Signature Algorithm: ecdsa-with-SHA256
        Issuer: CN=Regione Abruzzo, C=IT, ST=Italia, O=E-Voting system, OU=E-Voting system authority/emailAddress=Abruzzo@evoting.it
        Validity
            Not Before: Aug 26 15:18:38 2022 GMT
            Not After : Aug 26 15:18:38 2023 GMT
        Subject: CN=Sallie, C=IT, ST=Italia, O=Regione Abruzzo
        Subject Public Key Info:
            Public Key Algorithm: id-ecPublicKey
                Public-Key: (256 bit)
                pub:
                    04:01:a8:f4:18:bb:f2:24:98:41:15:df:59:88:01:
                    65:b2:44:3d:8b:a4:5a:b5:8a:e5:be:d6:ee:84:29:
                    74:0d:aa:dc:60:f1:f0:2c:5e:42:61:1a:0b:eb:54:
                    a9:8a:7d:af:ed:1d:aa:21:cd:8b:c0:ca:4f:c9:b3:
                    fb:e7:fd:45:13
                ASN1 OID: secp256k1
        X509v3 extensions:
            X509v3 Key Usage: critical
                Digital Signature, Key Encipherment
            X509v3 Basic Constraints: critical
                CA:FALSE, pathlen:3
    Signature Algorithm: ecdsa-with-SHA256
         30:45:02:21:00:97:51:34:a7:3d:f0:64:62:67:c8:9d:19:c8:
         84:c7:52:18:f9:38:6f:46:00:48:7a:81:d0:50:86:b3:87:dd:
         e6:02:20:00:88:d0:63:10:5b:07:8c:1c:9c:1d:f5:9b:fe:f8:
         9f:1c:ad:f3:75:d2:1e:30:2b:71:a9:c8:4e:a8:26:95:49
-----BEGIN CERTIFICATE-----
MIIB8jCCAZigAwIBAgIBBjAKBggqhkjOPQQDAjCBmTEYMBYGA1UEAwwPUmVnaW9u
ZSBBYnJ1enpvMQswCQYDVQQGEwJJVDEPMA0GA1UECAwGSXRhbGlhMRgwFgYDVQQK
DA9FLVZvdGluZyBzeXN0ZW0xIjAgBgNVBAsMGUUtVm90aW5nIHN5c3RlbSBhdXRo
b3JpdHkxITAfBgkqhkiG9w0BCQEWEkFicnV6em9AZXZvdGluZy5pdDAeFw0yMjA4
MjYxNTE4MzhaFw0yMzA4MjYxNTE4MzhaMEkxDzANBgNVBAMMBlNhbGxpZTELMAkG
A1UEBhMCSVQxDzANBgNVBAgMBkl0YWxpYTEYMBYGA1UECgwPUmVnaW9uZSBBYnJ1
enpvMFYwEAYHKoZIzj0CAQYFK4EEAAoDQgAEAaj0GLvyJJhBFd9ZiAFlskQ9i6Ra
tYrlvtbuhCl0DarcYPHwLF5CYRoL61Spin2v7R2qIc2LwMpPybP75/1FE6MjMCEw
DgYDVR0PAQH/BAQDAgWgMA8GA1UdEwEB/wQFMAMCAQMwCgYIKoZIzj0EAwIDSAAw
RQIhAJdRNKc98GRiZ8idGciEx1IY+ThvRgBIeoHQUIazh93mAiAAiNBjEFsHjByc
HfWb/vifHK3zddIeMCtxqchOqCaVSQ==
-----END CERTIFICATE-----
