Certificate:
    Data:
        Version: 3 (0x2)
        Serial Number: 41 (0x29)
        Signature Algorithm: ecdsa-with-SHA256
        Issuer: CN=Regione Friuli_Venezia_Giulia, C=IT, ST=Italia, O=E-Voting system, OU=E-Voting system authority/emailAddress=Friuli_Venezia_Giulia@evoting.it
        Validity
            Not Before: Aug 26 15:21:36 2022 GMT
            Not After : Aug 26 15:21:36 2023 GMT
        Subject: CN=Sam, C=IT, ST=Italia, O=Regione Friuli_Venezia_Giulia
        Subject Public Key Info:
            Public Key Algorithm: id-ecPublicKey
                Public-Key: (256 bit)
                pub:
                    04:ae:02:6e:97:56:d4:0b:d6:20:74:09:6a:c3:99:
                    80:e3:f1:8e:58:ad:c1:ee:04:04:46:a7:8d:58:5c:
                    bf:f5:a6:85:16:55:90:e7:58:c5:8f:a1:5c:66:44:
                    06:6f:f1:ff:d2:e3:2a:eb:b7:65:18:97:19:ef:13:
                    fb:c1:f4:29:01
                ASN1 OID: secp256k1
        X509v3 extensions:
            X509v3 Key Usage: critical
                Digital Signature, Key Encipherment
            X509v3 Basic Constraints: critical
                CA:FALSE, pathlen:3
    Signature Algorithm: ecdsa-with-SHA256
         30:45:02:20:62:ae:1d:a4:e5:96:26:8f:64:c5:70:dd:44:25:
         34:af:27:cc:34:ad:25:38:c7:00:ff:4d:88:8a:da:a0:83:1d:
         02:21:00:87:74:a0:0c:ad:25:6e:18:20:d3:4e:e9:1d:f4:f5:
         5e:08:72:29:c2:cb:ab:d4:8e:b6:cf:6c:46:bd:ce:5f:53
-----BEGIN CERTIFICATE-----
MIICGTCCAb+gAwIBAgIBKTAKBggqhkjOPQQDAjCBtTEmMCQGA1UEAwwdUmVnaW9u
ZSBGcml1bGlfVmVuZXppYV9HaXVsaWExCzAJBgNVBAYTAklUMQ8wDQYDVQQIDAZJ
dGFsaWExGDAWBgNVBAoMD0UtVm90aW5nIHN5c3RlbTEiMCAGA1UECwwZRS1Wb3Rp
bmcgc3lzdGVtIGF1dGhvcml0eTEvMC0GCSqGSIb3DQEJARYgRnJpdWxpX1ZlbmV6
aWFfR2l1bGlhQGV2b3RpbmcuaXQwHhcNMjIwODI2MTUyMTM2WhcNMjMwODI2MTUy
MTM2WjBUMQwwCgYDVQQDDANTYW0xCzAJBgNVBAYTAklUMQ8wDQYDVQQIDAZJdGFs
aWExJjAkBgNVBAoMHVJlZ2lvbmUgRnJpdWxpX1ZlbmV6aWFfR2l1bGlhMFYwEAYH
KoZIzj0CAQYFK4EEAAoDQgAErgJul1bUC9YgdAlqw5mA4/GOWK3B7gQERqeNWFy/
9aaFFlWQ51jFj6FcZkQGb/H/0uMq67dlGJcZ7xP7wfQpAaMjMCEwDgYDVR0PAQH/
BAQDAgWgMA8GA1UdEwEB/wQFMAMCAQMwCgYIKoZIzj0EAwIDSAAwRQIgYq4dpOWW
Jo9kxXDdRCU0ryfMNK0lOMcA/02Iitqggx0CIQCHdKAMrSVuGCDTTukd9PVeCHIp
wsur1I62z2xGvc5fUw==
-----END CERTIFICATE-----
