Certificate:
    Data:
        Version: 3 (0x2)
        Serial Number: 33 (0x21)
        Signature Algorithm: ecdsa-with-SHA256
        Issuer: CN=Regione Abruzzo, C=IT, ST=Italia, O=E-Voting system, OU=E-Voting system authority/emailAddress=Abruzzo@evoting.it
        Validity
            Not Before: Aug 26 15:20:49 2022 GMT
            Not After : Aug 26 15:20:49 2023 GMT
        Subject: CN=Samantha, C=IT, ST=Italia, O=Regione Abruzzo
        Subject Public Key Info:
            Public Key Algorithm: id-ecPublicKey
                Public-Key: (256 bit)
                pub:
                    04:ba:91:ad:27:87:f8:73:ca:06:fb:47:eb:da:44:
                    03:13:9f:62:a7:ce:35:63:88:0a:d8:46:b9:9c:4c:
                    f0:c2:53:1b:d2:66:ad:2c:fd:30:1c:06:de:7f:47:
                    4f:81:10:f9:cd:da:fe:06:be:40:6e:90:db:89:37:
                    64:4c:4d:14:45
                ASN1 OID: secp256k1
        X509v3 extensions:
            X509v3 Key Usage: critical
                Digital Signature, Key Encipherment
            X509v3 Basic Constraints: critical
                CA:FALSE, pathlen:3
    Signature Algorithm: ecdsa-with-SHA256
         30:44:02:20:18:48:c3:08:90:28:6e:9e:44:72:cc:0a:97:b5:
         aa:0e:17:f0:cd:4f:0b:fd:fe:ea:2f:8b:c1:58:a6:bf:6e:ba:
         02:20:78:90:77:9d:7e:0a:25:b8:b7:53:ba:c6:97:ac:35:91:
         45:88:56:45:97:89:dc:fa:fc:1e:4d:14:9e:3a:88:d3
-----BEGIN CERTIFICATE-----
MIIB8zCCAZqgAwIBAgIBITAKBggqhkjOPQQDAjCBmTEYMBYGA1UEAwwPUmVnaW9u
ZSBBYnJ1enpvMQswCQYDVQQGEwJJVDEPMA0GA1UECAwGSXRhbGlhMRgwFgYDVQQK
DA9FLVZvdGluZyBzeXN0ZW0xIjAgBgNVBAsMGUUtVm90aW5nIHN5c3RlbSBhdXRo
b3JpdHkxITAfBgkqhkiG9w0BCQEWEkFicnV6em9AZXZvdGluZy5pdDAeFw0yMjA4
MjYxNTIwNDlaFw0yMzA4MjYxNTIwNDlaMEsxETAPBgNVBAMMCFNhbWFudGhhMQsw
CQYDVQQGEwJJVDEPMA0GA1UECAwGSXRhbGlhMRgwFgYDVQQKDA9SZWdpb25lIEFi
cnV6em8wVjAQBgcqhkjOPQIBBgUrgQQACgNCAAS6ka0nh/hzygb7R+vaRAMTn2Kn
zjVjiArYRrmcTPDCUxvSZq0s/TAcBt5/R0+BEPnN2v4GvkBukNuJN2RMTRRFoyMw
ITAOBgNVHQ8BAf8EBAMCBaAwDwYDVR0TAQH/BAUwAwIBAzAKBggqhkjOPQQDAgNH
ADBEAiAYSMMIkChunkRyzAqXtaoOF/DNTwv9/uovi8FYpr9uugIgeJB3nX4KJbi3
U7rGl6w1kUWIVkWXidz6/B5NFJ46iNM=
-----END CERTIFICATE-----
