Certificate:
    Data:
        Version: 3 (0x2)
        Serial Number: 37 (0x25)
        Signature Algorithm: ecdsa-with-SHA256
        Issuer: CN=Regione Calabria, C=IT, ST=Italia, O=E-Voting system, OU=E-Voting system authority/emailAddress=Calabria@evoting.it
        Validity
            Not Before: Aug 26 15:21:24 2022 GMT
            Not After : Aug 26 15:21:24 2023 GMT
        Subject: CN=Sandy, C=IT, ST=Italia, O=Regione Calabria
        Subject Public Key Info:
            Public Key Algorithm: id-ecPublicKey
                Public-Key: (256 bit)
                pub:
                    04:b4:8e:a9:fa:83:71:fc:a0:ed:dd:49:db:0a:08:
                    35:93:7d:32:ac:21:b4:18:cd:17:fe:20:22:84:40:
                    43:7a:d9:f4:c1:7c:ec:4f:0f:23:57:3d:80:aa:8b:
                    0d:b5:eb:80:ea:16:71:66:c6:90:f6:55:c7:6a:2d:
                    ed:0a:fa:71:4d
                ASN1 OID: secp256k1
        X509v3 extensions:
            X509v3 Key Usage: critical
                Digital Signature, Key Encipherment
            X509v3 Basic Constraints: critical
                CA:FALSE, pathlen:3
    Signature Algorithm: ecdsa-with-SHA256
         30:44:02:20:1e:37:6b:3b:07:08:01:09:a2:2e:a0:a1:c5:f3:
         95:a4:38:e1:1d:d5:53:d4:a7:62:fb:d0:9a:69:50:a7:4c:36:
         02:20:7e:26:3c:34:f7:46:0c:ec:17:69:58:c6:51:75:1d:02:
         2f:f7:11:80:dc:43:f8:8a:c6:72:e6:14:d0:42:9e:d9
-----BEGIN CERTIFICATE-----
MIIB8zCCAZqgAwIBAgIBJTAKBggqhkjOPQQDAjCBmzEZMBcGA1UEAwwQUmVnaW9u
ZSBDYWxhYnJpYTELMAkGA1UEBhMCSVQxDzANBgNVBAgMBkl0YWxpYTEYMBYGA1UE
CgwPRS1Wb3Rpbmcgc3lzdGVtMSIwIAYDVQQLDBlFLVZvdGluZyBzeXN0ZW0gYXV0
aG9yaXR5MSIwIAYJKoZIhvcNAQkBFhNDYWxhYnJpYUBldm90aW5nLml0MB4XDTIy
MDgyNjE1MjEyNFoXDTIzMDgyNjE1MjEyNFowSTEOMAwGA1UEAwwFU2FuZHkxCzAJ
BgNVBAYTAklUMQ8wDQYDVQQIDAZJdGFsaWExGTAXBgNVBAoMEFJlZ2lvbmUgQ2Fs
YWJyaWEwVjAQBgcqhkjOPQIBBgUrgQQACgNCAAS0jqn6g3H8oO3dSdsKCDWTfTKs
IbQYzRf+ICKEQEN62fTBfOxPDyNXPYCqiw2164DqFnFmxpD2VcdqLe0K+nFNoyMw
ITAOBgNVHQ8BAf8EBAMCBaAwDwYDVR0TAQH/BAUwAwIBAzAKBggqhkjOPQQDAgNH
ADBEAiAeN2s7BwgBCaIuoKHF85WkOOEd1VPUp2L70JppUKdMNgIgfiY8NPdGDOwX
aVjGUXUdAi/3EYDcQ/iKxnLmFNBCntk=
-----END CERTIFICATE-----
