Certificate:
    Data:
        Version: 3 (0x2)
        Serial Number: 4 (0x4)
        Signature Algorithm: ecdsa-with-SHA256
        Issuer: CN=Regione Veneto, C=IT, ST=Italia, O=E-Voting system, OU=E-Voting system authority/emailAddress=Veneto@evoting.it
        Validity
            Not Before: Aug 26 15:18:48 2022 GMT
            Not After : Aug 26 15:18:48 2023 GMT
        Subject: CN=Sandra, C=IT, ST=Italia, O=Regione Veneto
        Subject Public Key Info:
            Public Key Algorithm: id-ecPublicKey
                Public-Key: (256 bit)
                pub:
                    04:4a:eb:fb:e3:5c:52:6c:2d:6e:5b:59:00:48:b3:
                    e9:22:a8:1d:a9:47:ce:97:14:e6:22:f4:db:73:f6:
                    09:95:c5:b1:1f:97:9b:1c:96:12:6a:78:ab:07:aa:
                    18:26:d4:a8:fa:6d:7c:75:b4:55:2b:44:4b:0e:c4:
                    b3:71:fe:af:15
                ASN1 OID: secp256k1
        X509v3 extensions:
            X509v3 Key Usage: critical
                Digital Signature, Key Encipherment
            X509v3 Basic Constraints: critical
                CA:FALSE, pathlen:3
    Signature Algorithm: ecdsa-with-SHA256
         30:44:02:20:2e:fe:2c:b4:92:8d:5d:b9:6d:b9:e7:eb:9a:09:
         46:ca:18:b0:10:39:64:23:9b:8f:c4:fa:d4:2c:f3:8b:c1:9a:
         02:20:6b:ef:e8:f6:ce:5b:1f:fd:82:9c:2a:14:21:09:43:fd:
         ce:e1:ef:c2:04:a0:a7:99:1f:51:78:86:7e:25:56:d4
-----BEGIN CERTIFICATE-----
MIIB7jCCAZWgAwIBAgIBBDAKBggqhkjOPQQDAjCBlzEXMBUGA1UEAwwOUmVnaW9u
ZSBWZW5ldG8xCzAJBgNVBAYTAklUMQ8wDQYDVQQIDAZJdGFsaWExGDAWBgNVBAoM
D0UtVm90aW5nIHN5c3RlbTEiMCAGA1UECwwZRS1Wb3Rpbmcgc3lzdGVtIGF1dGhv
cml0eTEgMB4GCSqGSIb3DQEJARYRVmVuZXRvQGV2b3RpbmcuaXQwHhcNMjIwODI2
MTUxODQ4WhcNMjMwODI2MTUxODQ4WjBIMQ8wDQYDVQQDDAZTYW5kcmExCzAJBgNV
BAYTAklUMQ8wDQYDVQQIDAZJdGFsaWExFzAVBgNVBAoMDlJlZ2lvbmUgVmVuZXRv
MFYwEAYHKoZIzj0CAQYFK4EEAAoDQgAESuv741xSbC1uW1kASLPpIqgdqUfOlxTm
IvTbc/YJlcWxH5ebHJYSanirB6oYJtSo+m18dbRVK0RLDsSzcf6vFaMjMCEwDgYD
VR0PAQH/BAQDAgWgMA8GA1UdEwEB/wQFMAMCAQMwCgYIKoZIzj0EAwIDRwAwRAIg
Lv4stJKNXbltuefrmglGyhiwEDlkI5uPxPrULPOLwZoCIGvv6PbOWx/9gpwqFCEJ
Q/3O4e/CBKCnmR9ReIZ+JVbU
-----END CERTIFICATE-----
