Certificate:
    Data:
        Version: 3 (0x2)
        Serial Number: 1 (0x1)
        Signature Algorithm: ecdsa-with-SHA256
        Issuer: CN=Regione Sicilia, C=IT, ST=Italia, O=E-Voting system, OU=E-Voting system authority/emailAddress=Sicilia@evoting.it
        Validity
            Not Before: Aug  3 13:25:47 2022 GMT
            Not After : Aug  3 13:25:47 2023 GMT
        Subject: CN=Santa, C=IT, ST=Italia, O=Regione Sicilia
        Subject Public Key Info:
            Public Key Algorithm: id-ecPublicKey
                Public-Key: (256 bit)
                pub:
                    04:a8:b2:2d:d7:fb:f3:b6:19:d1:22:fb:7e:44:b6:
                    67:24:f4:27:a6:ce:ee:5e:32:92:20:c1:5c:78:f0:
                    fa:fd:55:d7:6e:2c:bd:e2:ed:4d:6c:fa:f7:9d:4d:
                    f5:4c:11:60:a4:96:2e:ec:30:ec:42:50:ef:76:f6:
                    c7:59:82:f3:a4
                ASN1 OID: prime256v1
                NIST CURVE: P-256
        X509v3 extensions:
            X509v3 Key Usage: critical
                Digital Signature, Key Encipherment
            X509v3 Basic Constraints: critical
                CA:FALSE, pathlen:3
    Signature Algorithm: ecdsa-with-SHA256
         30:44:02:20:14:2b:6c:e9:94:06:5b:ba:a4:45:fa:49:13:c6:
         d9:b6:7a:e0:5c:e6:74:f2:ac:71:0c:ec:fd:15:3d:a2:45:33:
         02:20:77:ef:99:3c:0a:d1:94:59:34:45:77:6b:37:6a:75:9f:
         73:77:7e:8c:1a:c4:3c:2b:3d:d1:78:81:84:16:9a:4b
-----BEGIN CERTIFICATE-----
MIIB8zCCAZqgAwIBAgIBATAKBggqhkjOPQQDAjCBmTEYMBYGA1UEAwwPUmVnaW9u
ZSBTaWNpbGlhMQswCQYDVQQGEwJJVDEPMA0GA1UECAwGSXRhbGlhMRgwFgYDVQQK
DA9FLVZvdGluZyBzeXN0ZW0xIjAgBgNVBAsMGUUtVm90aW5nIHN5c3RlbSBhdXRo
b3JpdHkxITAfBgkqhkiG9w0BCQEWElNpY2lsaWFAZXZvdGluZy5pdDAeFw0yMjA4
MDMxMzI1NDdaFw0yMzA4MDMxMzI1NDdaMEgxDjAMBgNVBAMMBVNhbnRhMQswCQYD
VQQGEwJJVDEPMA0GA1UECAwGSXRhbGlhMRgwFgYDVQQKDA9SZWdpb25lIFNpY2ls
aWEwWTATBgcqhkjOPQIBBggqhkjOPQMBBwNCAASosi3X+/O2GdEi+35Etmck9Cem
zu5eMpIgwVx48Pr9VdduLL3i7U1s+vedTfVMEWCkli7sMOxCUO929sdZgvOkoyMw
ITAOBgNVHQ8BAf8EBAMCBaAwDwYDVR0TAQH/BAUwAwIBAzAKBggqhkjOPQQDAgNH
ADBEAiAUK2zplAZbuqRF+kkTxtm2euBc5nTyrHEM7P0VPaJFMwIgd++ZPArRlFk0
RXdrN2p1n3N3fowaxDwrPdF4gYQWmks=
-----END CERTIFICATE-----
