Certificate:
    Data:
        Version: 3 (0x2)
        Serial Number: 3 (0x3)
        Signature Algorithm: ecdsa-with-SHA256
        Issuer: CN=Regione Valle_d_Aosta, C=IT, ST=Italia, O=E-Voting system, OU=E-Voting system authority/emailAddress=Valle_d_Aosta@evoting.it
        Validity
            Not Before: Aug  3 13:25:52 2022 GMT
            Not After : Aug  3 13:25:52 2023 GMT
        Subject: CN=Santiago, C=IT, ST=Italia, O=Regione Valle_d_Aosta
        Subject Public Key Info:
            Public Key Algorithm: id-ecPublicKey
                Public-Key: (256 bit)
                pub:
                    04:ab:eb:f3:47:2c:5d:ae:ae:80:a4:a9:53:f0:61:
                    b8:0d:4a:ab:4b:79:d1:8a:ff:64:6b:9b:70:6e:49:
                    0f:20:79:1a:3e:cf:4b:78:25:0f:73:46:87:13:da:
                    ff:d2:86:1f:31:c7:84:4c:5c:34:67:c6:60:34:e2:
                    1e:4b:0f:16:62
                ASN1 OID: prime256v1
                NIST CURVE: P-256
        X509v3 extensions:
            X509v3 Key Usage: critical
                Digital Signature, Key Encipherment
            X509v3 Basic Constraints: critical
                CA:FALSE, pathlen:3
    Signature Algorithm: ecdsa-with-SHA256
         30:46:02:21:00:a8:57:16:f9:ac:b2:a2:34:e5:fc:de:7d:9f:
         e1:5b:e6:9a:ca:82:b0:10:6d:23:17:2a:78:5a:4e:c3:88:51:
         3f:02:21:00:95:41:1d:fb:58:78:7d:af:34:6e:fc:aa:63:cb:
         30:dd:d9:1e:f6:cb:2d:61:12:6e:86:3f:f6:82:0b:40:3a:1f
-----BEGIN CERTIFICATE-----
MIICCjCCAa+gAwIBAgIBAzAKBggqhkjOPQQDAjCBpTEeMBwGA1UEAwwVUmVnaW9u
ZSBWYWxsZV9kX0Fvc3RhMQswCQYDVQQGEwJJVDEPMA0GA1UECAwGSXRhbGlhMRgw
FgYDVQQKDA9FLVZvdGluZyBzeXN0ZW0xIjAgBgNVBAsMGUUtVm90aW5nIHN5c3Rl
bSBhdXRob3JpdHkxJzAlBgkqhkiG9w0BCQEWGFZhbGxlX2RfQW9zdGFAZXZvdGlu
Zy5pdDAeFw0yMjA4MDMxMzI1NTJaFw0yMzA4MDMxMzI1NTJaMFExETAPBgNVBAMM
CFNhbnRpYWdvMQswCQYDVQQGEwJJVDEPMA0GA1UECAwGSXRhbGlhMR4wHAYDVQQK
DBVSZWdpb25lIFZhbGxlX2RfQW9zdGEwWTATBgcqhkjOPQIBBggqhkjOPQMBBwNC
AASr6/NHLF2uroCkqVPwYbgNSqtLedGK/2Rrm3BuSQ8geRo+z0t4JQ9zRocT2v/S
hh8xx4RMXDRnxmA04h5LDxZioyMwITAOBgNVHQ8BAf8EBAMCBaAwDwYDVR0TAQH/
BAUwAwIBAzAKBggqhkjOPQQDAgNJADBGAiEAqFcW+ayyojTl/N59n+Fb5prKgrAQ
bSMXKnhaTsOIUT8CIQCVQR37WHh9rzRu/KpjyzDd2R72yy1hEm6GP/aCC0A6Hw==
-----END CERTIFICATE-----
