Certificate:
    Data:
        Version: 3 (0x2)
        Serial Number: 14 (0xe)
        Signature Algorithm: ecdsa-with-SHA256
        Issuer: CN=Regione Trentino_Alto_Adige, C=IT, ST=Italia, O=E-Voting system, OU=E-Voting system authority/emailAddress=Trentino_Alto_Adige@evoting.it
        Validity
            Not Before: Aug  3 13:26:34 2022 GMT
            Not After : Aug  3 13:26:34 2023 GMT
        Subject: CN=Sara, C=IT, ST=Italia, O=Regione Trentino_Alto_Adige
        Subject Public Key Info:
            Public Key Algorithm: id-ecPublicKey
                Public-Key: (256 bit)
                pub:
                    04:ea:db:32:f3:3a:35:4f:a8:6d:ec:92:79:49:e0:
                    84:33:89:38:fc:f0:2c:1d:81:69:64:d0:55:de:cd:
                    29:d0:fa:c5:1c:3c:a1:ea:06:ee:4f:8d:94:27:ae:
                    03:d0:62:52:fe:d3:b1:43:14:5b:c8:d5:c0:4f:7c:
                    06:82:69:b3:99
                ASN1 OID: prime256v1
                NIST CURVE: P-256
        X509v3 extensions:
            X509v3 Key Usage: critical
                Digital Signature, Key Encipherment
            X509v3 Basic Constraints: critical
                CA:FALSE, pathlen:3
    Signature Algorithm: ecdsa-with-SHA256
         30:46:02:21:00:b0:1d:57:65:2d:98:3e:c2:dd:51:c2:63:0e:
         cd:39:b0:5e:44:82:5a:17:56:6c:d4:d4:77:a2:08:ea:e8:4b:
         ff:02:21:00:a6:5f:48:6e:b4:db:94:99:55:ac:90:cb:bc:56:
         89:d4:4b:04:3c:80:13:71:0d:c7:2e:6d:fe:16:0e:9b:89:ac
-----BEGIN CERTIFICATE-----
MIICGDCCAb2gAwIBAgIBDjAKBggqhkjOPQQDAjCBsTEkMCIGA1UEAwwbUmVnaW9u
ZSBUcmVudGlub19BbHRvX0FkaWdlMQswCQYDVQQGEwJJVDEPMA0GA1UECAwGSXRh
bGlhMRgwFgYDVQQKDA9FLVZvdGluZyBzeXN0ZW0xIjAgBgNVBAsMGUUtVm90aW5n
IHN5c3RlbSBhdXRob3JpdHkxLTArBgkqhkiG9w0BCQEWHlRyZW50aW5vX0FsdG9f
QWRpZ2VAZXZvdGluZy5pdDAeFw0yMjA4MDMxMzI2MzRaFw0yMzA4MDMxMzI2MzRa
MFMxDTALBgNVBAMMBFNhcmExCzAJBgNVBAYTAklUMQ8wDQYDVQQIDAZJdGFsaWEx
JDAiBgNVBAoMG1JlZ2lvbmUgVHJlbnRpbm9fQWx0b19BZGlnZTBZMBMGByqGSM49
AgEGCCqGSM49AwEHA0IABOrbMvM6NU+obeySeUnghDOJOPzwLB2BaWTQVd7NKdD6
xRw8oeoG7k+NlCeuA9BiUv7TsUMUW8jVwE98BoJps5mjIzAhMA4GA1UdDwEB/wQE
AwIFoDAPBgNVHRMBAf8EBTADAgEDMAoGCCqGSM49BAMCA0kAMEYCIQCwHVdlLZg+
wt1RwmMOzTmwXkSCWhdWbNTUd6II6uhL/wIhAKZfSG6025SZVayQy7xWidRLBDyA
E3ENxy5t/hYOm4ms
-----END CERTIFICATE-----
