Certificate:
    Data:
        Version: 3 (0x2)
        Serial Number: 17 (0x11)
        Signature Algorithm: ecdsa-with-SHA256
        Issuer: CN=Regione Basilicata, C=IT, ST=Italia, O=E-Voting system, OU=E-Voting system authority/emailAddress=Basilicata@evoting.it
        Validity
            Not Before: Aug 26 15:19:30 2022 GMT
            Not After : Aug 26 15:19:30 2023 GMT
        Subject: CN=Sarah, C=IT, ST=Italia, O=Regione Basilicata
        Subject Public Key Info:
            Public Key Algorithm: id-ecPublicKey
                Public-Key: (256 bit)
                pub:
                    04:fa:e6:ff:3d:38:61:8e:cf:10:3d:ae:32:d7:41:
                    51:1c:f5:15:3f:e6:b4:4c:cc:8f:2c:86:c3:92:55:
                    ba:ac:af:c5:60:1b:20:5a:ae:9e:4b:94:27:c8:99:
                    50:6b:a3:46:b3:ad:0c:95:fe:db:95:b1:0c:62:b9:
                    66:35:63:96:50
                ASN1 OID: secp256k1
        X509v3 extensions:
            X509v3 Key Usage: critical
                Digital Signature, Key Encipherment
            X509v3 Basic Constraints: critical
                CA:FALSE, pathlen:3
    Signature Algorithm: ecdsa-with-SHA256
         30:46:02:21:00:cd:8f:6e:d7:e3:58:b0:b6:df:d7:ea:f7:09:
         d6:fd:34:18:a8:91:60:47:78:5f:6e:33:05:e8:2f:34:f3:56:
         f1:02:21:00:aa:7d:be:81:c5:6e:af:4a:18:25:da:27:29:f7:
         da:16:29:86:6a:1d:fb:2f:63:42:8e:8f:91:7d:93:ed:b6:c3
-----BEGIN CERTIFICATE-----
MIIB+zCCAaCgAwIBAgIBETAKBggqhkjOPQQDAjCBnzEbMBkGA1UEAwwSUmVnaW9u
ZSBCYXNpbGljYXRhMQswCQYDVQQGEwJJVDEPMA0GA1UECAwGSXRhbGlhMRgwFgYD
VQQKDA9FLVZvdGluZyBzeXN0ZW0xIjAgBgNVBAsMGUUtVm90aW5nIHN5c3RlbSBh
dXRob3JpdHkxJDAiBgkqhkiG9w0BCQEWFUJhc2lsaWNhdGFAZXZvdGluZy5pdDAe
Fw0yMjA4MjYxNTE5MzBaFw0yMzA4MjYxNTE5MzBaMEsxDjAMBgNVBAMMBVNhcmFo
MQswCQYDVQQGEwJJVDEPMA0GA1UECAwGSXRhbGlhMRswGQYDVQQKDBJSZWdpb25l
IEJhc2lsaWNhdGEwVjAQBgcqhkjOPQIBBgUrgQQACgNCAAT65v89OGGOzxA9rjLX
QVEc9RU/5rRMzI8shsOSVbqsr8VgGyBarp5LlCfImVBro0azrQyV/tuVsQxiuWY1
Y5ZQoyMwITAOBgNVHQ8BAf8EBAMCBaAwDwYDVR0TAQH/BAUwAwIBAzAKBggqhkjO
PQQDAgNJADBGAiEAzY9u1+NYsLbf1+r3Cdb9NBiokWBHeF9uMwXoLzTzVvECIQCq
fb6BxW6vShgl2icp99oWKYZqHfsvY0KOj5F9k+22ww==
-----END CERTIFICATE-----
