Certificate:
    Data:
        Version: 3 (0x2)
        Serial Number: 42 (0x2a)
        Signature Algorithm: ecdsa-with-SHA256
        Issuer: CN=Regione Umbria, C=IT, ST=Italia, O=E-Voting system, OU=E-Voting system authority/emailAddress=Umbria@evoting.it
        Validity
            Not Before: Aug 26 15:21:05 2022 GMT
            Not After : Aug 26 15:21:05 2023 GMT
        Subject: CN=Sara, C=IT, ST=Italia, O=Regione Umbria
        Subject Public Key Info:
            Public Key Algorithm: id-ecPublicKey
                Public-Key: (256 bit)
                pub:
                    04:32:6f:9f:b0:a7:4d:f5:aa:1a:03:56:31:1c:95:
                    23:8d:bb:d9:f8:2f:a8:6a:86:b8:c1:b7:ea:11:86:
                    02:02:a4:13:58:50:1a:47:7f:1f:67:e7:c9:ed:6b:
                    2f:3e:a5:ff:dd:0a:ef:1e:29:81:01:20:34:da:1d:
                    6b:6a:bd:1c:ff
                ASN1 OID: secp256k1
        X509v3 extensions:
            X509v3 Key Usage: critical
                Digital Signature, Key Encipherment
            X509v3 Basic Constraints: critical
                CA:FALSE, pathlen:3
    Signature Algorithm: ecdsa-with-SHA256
         30:45:02:21:00:89:89:d0:e6:b1:b8:ed:c0:1a:a9:18:ba:c1:
         86:ba:fa:24:42:f6:28:84:7c:56:7c:7d:56:6e:b5:2f:51:a0:
         8c:02:20:33:5d:ee:77:09:b7:40:9a:6d:ef:1e:0b:a9:9f:04:
         de:96:e0:36:6f:2d:d9:c0:41:c0:fa:5f:c4:6f:6a:7b:03
-----BEGIN CERTIFICATE-----
MIIB7TCCAZOgAwIBAgIBKjAKBggqhkjOPQQDAjCBlzEXMBUGA1UEAwwOUmVnaW9u
ZSBVbWJyaWExCzAJBgNVBAYTAklUMQ8wDQYDVQQIDAZJdGFsaWExGDAWBgNVBAoM
D0UtVm90aW5nIHN5c3RlbTEiMCAGA1UECwwZRS1Wb3Rpbmcgc3lzdGVtIGF1dGhv
cml0eTEgMB4GCSqGSIb3DQEJARYRVW1icmlhQGV2b3RpbmcuaXQwHhcNMjIwODI2
MTUyMTA1WhcNMjMwODI2MTUyMTA1WjBGMQ0wCwYDVQQDDARTYXJhMQswCQYDVQQG
EwJJVDEPMA0GA1UECAwGSXRhbGlhMRcwFQYDVQQKDA5SZWdpb25lIFVtYnJpYTBW
MBAGByqGSM49AgEGBSuBBAAKA0IABDJvn7CnTfWqGgNWMRyVI4272fgvqGqGuMG3
6hGGAgKkE1hQGkd/H2fnye1rLz6l/90K7x4pgQEgNNoda2q9HP+jIzAhMA4GA1Ud
DwEB/wQEAwIFoDAPBgNVHRMBAf8EBTADAgEDMAoGCCqGSM49BAMCA0gAMEUCIQCJ
idDmsbjtwBqpGLrBhrr6JEL2KIR8Vnx9Vm61L1GgjAIgM13udwm3QJpt7x4LqZ8E
3pbgNm8t2cBBwPpfxG9qewM=
-----END CERTIFICATE-----
