Certificate:
    Data:
        Version: 3 (0x2)
        Serial Number: 21 (0x15)
        Signature Algorithm: ecdsa-with-SHA256
        Issuer: CN=Regione Molise, C=IT, ST=Italia, O=E-Voting system, OU=E-Voting system authority/emailAddress=Molise@evoting.it
        Validity
            Not Before: Aug 26 15:20:05 2022 GMT
            Not After : Aug 26 15:20:05 2023 GMT
        Subject: CN=Scarlet, C=IT, ST=Italia, O=Regione Molise
        Subject Public Key Info:
            Public Key Algorithm: id-ecPublicKey
                Public-Key: (256 bit)
                pub:
                    04:9a:57:65:17:fc:c8:2a:35:e7:f0:42:e6:91:db:
                    7f:10:df:15:07:25:be:82:bd:19:63:84:8a:66:d9:
                    f9:5f:a8:99:a5:25:8f:ac:88:f6:58:e5:5c:4b:37:
                    48:1e:1f:5f:3f:14:48:c7:db:73:b3:50:8e:c1:dd:
                    98:94:da:0a:67
                ASN1 OID: secp256k1
        X509v3 extensions:
            X509v3 Key Usage: critical
                Digital Signature, Key Encipherment
            X509v3 Basic Constraints: critical
                CA:FALSE, pathlen:3
    Signature Algorithm: ecdsa-with-SHA256
         30:45:02:21:00:86:c6:af:70:34:4e:a1:db:18:5b:da:d4:f4:
         ed:8f:c1:61:65:13:c2:1e:a5:0b:0b:02:6d:33:fd:67:d8:79:
         55:02:20:44:20:e0:21:da:df:00:0c:f1:b6:ed:d1:cf:51:cc:
         07:c5:81:ba:73:72:f1:49:2d:e0:68:49:d3:40:fc:86:c2
-----BEGIN CERTIFICATE-----
MIIB8DCCAZagAwIBAgIBFTAKBggqhkjOPQQDAjCBlzEXMBUGA1UEAwwOUmVnaW9u
ZSBNb2xpc2UxCzAJBgNVBAYTAklUMQ8wDQYDVQQIDAZJdGFsaWExGDAWBgNVBAoM
D0UtVm90aW5nIHN5c3RlbTEiMCAGA1UECwwZRS1Wb3Rpbmcgc3lzdGVtIGF1dGhv
cml0eTEgMB4GCSqGSIb3DQEJARYRTW9saXNlQGV2b3RpbmcuaXQwHhcNMjIwODI2
MTUyMDA1WhcNMjMwODI2MTUyMDA1WjBJMRAwDgYDVQQDDAdTY2FybGV0MQswCQYD
VQQGEwJJVDEPMA0GA1UECAwGSXRhbGlhMRcwFQYDVQQKDA5SZWdpb25lIE1vbGlz
ZTBWMBAGByqGSM49AgEGBSuBBAAKA0IABJpXZRf8yCo15/BC5pHbfxDfFQclvoK9
GWOEimbZ+V+omaUlj6yI9ljlXEs3SB4fXz8USMfbc7NQjsHdmJTaCmejIzAhMA4G
A1UdDwEB/wQEAwIFoDAPBgNVHRMBAf8EBTADAgEDMAoGCCqGSM49BAMCA0gAMEUC
IQCGxq9wNE6h2xhb2tT07Y/BYWUTwh6lCwsCbTP9Z9h5VQIgRCDgIdrfAAzxtu3R
z1HMB8WBunNy8Ukt4GhJ00D8hsI=
-----END CERTIFICATE-----
