Certificate:
    Data:
        Version: 3 (0x2)
        Serial Number: 2 (0x2)
        Signature Algorithm: ecdsa-with-SHA256
        Issuer: CN=Regione Valle_d_Aosta, C=IT, ST=Italia, O=E-Voting system, OU=E-Voting system authority/emailAddress=Valle_d_Aosta@evoting.it
        Validity
            Not Before: Aug 26 15:18:34 2022 GMT
            Not After : Aug 26 15:18:34 2023 GMT
        Subject: CN=Scott, C=IT, ST=Italia, O=Regione Valle_d_Aosta
        Subject Public Key Info:
            Public Key Algorithm: id-ecPublicKey
                Public-Key: (256 bit)
                pub:
                    04:10:88:7e:29:d7:83:19:dc:ba:28:3c:36:c6:25:
                    7e:5f:7f:28:f5:0e:fe:3f:c8:79:a9:51:6f:34:93:
                    57:3c:3c:c4:13:8d:8d:99:0c:78:a0:6d:41:fc:35:
                    56:de:fb:4d:65:f8:17:ef:96:f2:dd:b2:5d:b4:0e:
                    93:7a:d9:4f:70
                ASN1 OID: secp256k1
        X509v3 extensions:
            X509v3 Key Usage: critical
                Digital Signature, Key Encipherment
            X509v3 Basic Constraints: critical
                CA:FALSE, pathlen:3
    Signature Algorithm: ecdsa-with-SHA256
         30:44:02:20:2f:55:82:fc:fc:8c:f4:15:c6:41:ee:3b:83:4b:
         ef:19:9c:a3:02:c8:db:f3:ba:4c:d0:13:62:5f:d6:69:c0:47:
         02:20:60:01:77:70:cf:48:f3:c8:14:8c:28:40:e1:8a:49:cf:
         77:3e:36:a0:79:29:f7:ae:73:57:45:1b:86:5a:27:89
-----BEGIN CERTIFICATE-----
MIICAjCCAamgAwIBAgIBAjAKBggqhkjOPQQDAjCBpTEeMBwGA1UEAwwVUmVnaW9u
ZSBWYWxsZV9kX0Fvc3RhMQswCQYDVQQGEwJJVDEPMA0GA1UECAwGSXRhbGlhMRgw
FgYDVQQKDA9FLVZvdGluZyBzeXN0ZW0xIjAgBgNVBAsMGUUtVm90aW5nIHN5c3Rl
bSBhdXRob3JpdHkxJzAlBgkqhkiG9w0BCQEWGFZhbGxlX2RfQW9zdGFAZXZvdGlu
Zy5pdDAeFw0yMjA4MjYxNTE4MzRaFw0yMzA4MjYxNTE4MzRaME4xDjAMBgNVBAMM
BVNjb3R0MQswCQYDVQQGEwJJVDEPMA0GA1UECAwGSXRhbGlhMR4wHAYDVQQKDBVS
ZWdpb25lIFZhbGxlX2RfQW9zdGEwVjAQBgcqhkjOPQIBBgUrgQQACgNCAAQQiH4p
14MZ3LooPDbGJX5ffyj1Dv4/yHmpUW80k1c8PMQTjY2ZDHigbUH8NVbe+01l+Bfv
lvLdsl20DpN62U9woyMwITAOBgNVHQ8BAf8EBAMCBaAwDwYDVR0TAQH/BAUwAwIB
AzAKBggqhkjOPQQDAgNHADBEAiAvVYL8/Iz0FcZB7juDS+8ZnKMCyNvzukzQE2Jf
1mnARwIgYAF3cM9I88gUjChA4YpJz3c+NqB5Kfeuc1dFG4ZaJ4k=
-----END CERTIFICATE-----
