Certificate:
    Data:
        Version: 3 (0x2)
        Serial Number: 15 (0xf)
        Signature Algorithm: ecdsa-with-SHA256
        Issuer: CN=Regione Umbria, C=IT, ST=Italia, O=E-Voting system, OU=E-Voting system authority/emailAddress=Umbria@evoting.it
        Validity
            Not Before: Aug  3 13:26:30 2022 GMT
            Not After : Aug  3 13:26:30 2023 GMT
        Subject: CN=Scottie, C=IT, ST=Italia, O=Regione Umbria
        Subject Public Key Info:
            Public Key Algorithm: id-ecPublicKey
                Public-Key: (256 bit)
                pub:
                    04:46:e4:70:bd:4d:cc:67:63:19:95:af:2d:79:5a:
                    a0:1a:9a:68:dc:ed:18:a0:78:05:c6:90:4d:f5:1b:
                    d5:f1:b1:0d:98:2e:0e:77:3e:cf:d7:eb:28:95:ef:
                    fb:1f:e2:28:83:73:a8:83:73:3b:24:b6:b6:59:78:
                    6d:4b:61:51:55
                ASN1 OID: prime256v1
                NIST CURVE: P-256
        X509v3 extensions:
            X509v3 Key Usage: critical
                Digital Signature, Key Encipherment
            X509v3 Basic Constraints: critical
                CA:FALSE, pathlen:3
    Signature Algorithm: ecdsa-with-SHA256
         30:46:02:21:00:ca:0f:69:e2:64:58:2d:94:e9:ae:99:44:3f:
         62:95:47:a3:47:02:dd:eb:39:c2:67:4d:65:2a:7b:3b:56:40:
         70:02:21:00:ba:fd:3e:f3:2d:0b:a9:b5:a4:11:23:c0:91:49:
         38:b1:bd:e1:92:6d:1c:4e:e7:3d:cb:c8:af:bf:27:af:d9:89
-----BEGIN CERTIFICATE-----
MIIB9DCCAZmgAwIBAgIBDzAKBggqhkjOPQQDAjCBlzEXMBUGA1UEAwwOUmVnaW9u
ZSBVbWJyaWExCzAJBgNVBAYTAklUMQ8wDQYDVQQIDAZJdGFsaWExGDAWBgNVBAoM
D0UtVm90aW5nIHN5c3RlbTEiMCAGA1UECwwZRS1Wb3Rpbmcgc3lzdGVtIGF1dGhv
cml0eTEgMB4GCSqGSIb3DQEJARYRVW1icmlhQGV2b3RpbmcuaXQwHhcNMjIwODAz
MTMyNjMwWhcNMjMwODAzMTMyNjMwWjBJMRAwDgYDVQQDDAdTY290dGllMQswCQYD
VQQGEwJJVDEPMA0GA1UECAwGSXRhbGlhMRcwFQYDVQQKDA5SZWdpb25lIFVtYnJp
YTBZMBMGByqGSM49AgEGCCqGSM49AwEHA0IABEbkcL1NzGdjGZWvLXlaoBqaaNzt
GKB4BcaQTfUb1fGxDZguDnc+z9frKJXv+x/iKINzqINzOyS2tll4bUthUVWjIzAh
MA4GA1UdDwEB/wQEAwIFoDAPBgNVHRMBAf8EBTADAgEDMAoGCCqGSM49BAMCA0kA
MEYCIQDKD2niZFgtlOmumUQ/YpVHo0cC3es5wmdNZSp7O1ZAcAIhALr9PvMtC6m1
pBEjwJFJOLG94ZJtHE7nPcvIr78nr9mJ
-----END CERTIFICATE-----
