Certificate:
    Data:
        Version: 3 (0x2)
        Serial Number: 33 (0x21)
        Signature Algorithm: ecdsa-with-SHA256
        Issuer: CN=Regione Valle_d_Aosta, C=IT, ST=Italia, O=E-Voting system, OU=E-Voting system authority/emailAddress=Valle_d_Aosta@evoting.it
        Validity
            Not Before: Aug 26 15:20:40 2022 GMT
            Not After : Aug 26 15:20:40 2023 GMT
        Subject: CN=Sean, C=IT, ST=Italia, O=Regione Valle_d_Aosta
        Subject Public Key Info:
            Public Key Algorithm: id-ecPublicKey
                Public-Key: (256 bit)
                pub:
                    04:1b:a2:e3:2b:b3:03:9e:c2:bb:53:f1:9c:cd:de:
                    8f:1e:83:47:bb:5e:81:07:cc:c9:3f:a8:9f:90:59:
                    61:05:a8:8b:fe:d7:cd:dd:e3:8c:22:f5:ae:ed:5c:
                    13:94:46:0f:04:a8:fe:27:e8:14:a0:8b:6e:cb:45:
                    1c:19:89:fa:87
                ASN1 OID: secp256k1
        X509v3 extensions:
            X509v3 Key Usage: critical
                Digital Signature, Key Encipherment
            X509v3 Basic Constraints: critical
                CA:FALSE, pathlen:3
    Signature Algorithm: ecdsa-with-SHA256
         30:45:02:20:52:76:63:91:ea:aa:65:71:0f:00:87:aa:84:84:
         0b:b8:ef:e7:a7:21:7d:33:1f:d0:cb:b0:cd:98:3a:8a:a9:bd:
         02:21:00:a1:85:73:21:da:e0:d3:b1:2e:f8:02:a8:e1:d2:50:
         12:a8:b6:ae:d0:9a:c3:8a:5c:40:86:1b:75:77:1d:b5:f9
-----BEGIN CERTIFICATE-----
MIICAjCCAaigAwIBAgIBITAKBggqhkjOPQQDAjCBpTEeMBwGA1UEAwwVUmVnaW9u
ZSBWYWxsZV9kX0Fvc3RhMQswCQYDVQQGEwJJVDEPMA0GA1UECAwGSXRhbGlhMRgw
FgYDVQQKDA9FLVZvdGluZyBzeXN0ZW0xIjAgBgNVBAsMGUUtVm90aW5nIHN5c3Rl
bSBhdXRob3JpdHkxJzAlBgkqhkiG9w0BCQEWGFZhbGxlX2RfQW9zdGFAZXZvdGlu
Zy5pdDAeFw0yMjA4MjYxNTIwNDBaFw0yMzA4MjYxNTIwNDBaME0xDTALBgNVBAMM
BFNlYW4xCzAJBgNVBAYTAklUMQ8wDQYDVQQIDAZJdGFsaWExHjAcBgNVBAoMFVJl
Z2lvbmUgVmFsbGVfZF9Bb3N0YTBWMBAGByqGSM49AgEGBSuBBAAKA0IABBui4yuz
A57Cu1PxnM3ejx6DR7tegQfMyT+on5BZYQWoi/7Xzd3jjCL1ru1cE5RGDwSo/ifo
FKCLbstFHBmJ+oejIzAhMA4GA1UdDwEB/wQEAwIFoDAPBgNVHRMBAf8EBTADAgED
MAoGCCqGSM49BAMCA0gAMEUCIFJ2Y5HqqmVxDwCHqoSEC7jv56chfTMf0MuwzZg6
iqm9AiEAoYVzIdrg07Eu+AKo4dJQEqi2rtCaw4pcQIYbdXcdtfk=
-----END CERTIFICATE-----
