Certificate:
    Data:
        Version: 3 (0x2)
        Serial Number: 36 (0x24)
        Signature Algorithm: ecdsa-with-SHA256
        Issuer: CN=Regione Molise, C=IT, ST=Italia, O=E-Voting system, OU=E-Voting system authority/emailAddress=Molise@evoting.it
        Validity
            Not Before: Aug  3 13:27:49 2022 GMT
            Not After : Aug  3 13:27:49 2023 GMT
        Subject: CN=Sean, C=IT, ST=Italia, O=Regione Molise
        Subject Public Key Info:
            Public Key Algorithm: id-ecPublicKey
                Public-Key: (256 bit)
                pub:
                    04:18:36:29:66:a0:84:25:14:85:ed:6a:a2:25:00:
                    6d:81:79:20:b8:c1:5c:60:07:e5:58:1a:65:0e:7d:
                    7f:ab:03:1c:1b:c7:19:6b:51:2e:f1:72:3a:96:ee:
                    0a:50:c9:53:0c:ee:b5:ba:b8:ff:5d:5e:b3:5e:7a:
                    41:10:4d:e7:be
                ASN1 OID: prime256v1
                NIST CURVE: P-256
        X509v3 extensions:
            X509v3 Key Usage: critical
                Digital Signature, Key Encipherment
            X509v3 Basic Constraints: critical
                CA:FALSE, pathlen:3
    Signature Algorithm: ecdsa-with-SHA256
         30:44:02:20:05:2c:1d:f3:99:3f:c9:a2:4e:81:0f:e8:00:f7:
         de:27:be:1c:f6:47:fc:16:a0:9d:cc:ed:cd:f7:36:ad:da:c8:
         02:20:5d:38:5b:8c:c1:e3:d0:e0:98:0f:f8:af:ec:31:9c:a1:
         77:54:af:b2:77:9e:31:c1:6a:13:dd:19:6e:43:b7:ce
-----BEGIN CERTIFICATE-----
MIIB7zCCAZagAwIBAgIBJDAKBggqhkjOPQQDAjCBlzEXMBUGA1UEAwwOUmVnaW9u
ZSBNb2xpc2UxCzAJBgNVBAYTAklUMQ8wDQYDVQQIDAZJdGFsaWExGDAWBgNVBAoM
D0UtVm90aW5nIHN5c3RlbTEiMCAGA1UECwwZRS1Wb3Rpbmcgc3lzdGVtIGF1dGhv
cml0eTEgMB4GCSqGSIb3DQEJARYRTW9saXNlQGV2b3RpbmcuaXQwHhcNMjIwODAz
MTMyNzQ5WhcNMjMwODAzMTMyNzQ5WjBGMQ0wCwYDVQQDDARTZWFuMQswCQYDVQQG
EwJJVDEPMA0GA1UECAwGSXRhbGlhMRcwFQYDVQQKDA5SZWdpb25lIE1vbGlzZTBZ
MBMGByqGSM49AgEGCCqGSM49AwEHA0IABBg2KWaghCUUhe1qoiUAbYF5ILjBXGAH
5VgaZQ59f6sDHBvHGWtRLvFyOpbuClDJUwzutbq4/11es156QRBN576jIzAhMA4G
A1UdDwEB/wQEAwIFoDAPBgNVHRMBAf8EBTADAgEDMAoGCCqGSM49BAMCA0cAMEQC
IAUsHfOZP8miToEP6AD33ie+HPZH/Bagncztzfc2rdrIAiBdOFuMwePQ4JgP+K/s
MZyhd1SvsneeMcFqE90ZbkO3zg==
-----END CERTIFICATE-----
