Certificate:
    Data:
        Version: 3 (0x2)
        Serial Number: 31 (0x1f)
        Signature Algorithm: ecdsa-with-SHA256
        Issuer: CN=Regione Piemonte, C=IT, ST=Italia, O=E-Voting system, OU=E-Voting system authority/emailAddress=Piemonte@evoting.it
        Validity
            Not Before: Aug  3 13:26:56 2022 GMT
            Not After : Aug  3 13:26:56 2023 GMT
        Subject: CN=Seymour, C=IT, ST=Italia, O=Regione Piemonte
        Subject Public Key Info:
            Public Key Algorithm: id-ecPublicKey
                Public-Key: (256 bit)
                pub:
                    04:10:53:60:7c:ca:d8:a3:89:4d:57:da:1b:98:f9:
                    1a:83:8c:62:e4:6f:c4:34:2f:a3:ea:03:7c:dd:6d:
                    eb:96:43:9a:cb:36:2d:fd:1a:1e:84:af:af:f0:08:
                    b6:9d:06:49:0e:6a:9e:4c:b4:37:e1:d5:62:c7:22:
                    ad:83:63:af:eb
                ASN1 OID: prime256v1
                NIST CURVE: P-256
        X509v3 extensions:
            X509v3 Key Usage: critical
                Digital Signature, Key Encipherment
            X509v3 Basic Constraints: critical
                CA:FALSE, pathlen:3
    Signature Algorithm: ecdsa-with-SHA256
         30:45:02:20:01:99:78:5d:3f:15:78:a5:3f:af:70:9b:82:a4:
         36:d5:ac:46:e5:94:ef:58:6c:36:40:d5:e5:6d:8d:de:aa:d6:
         02:21:00:ef:af:8a:d5:35:3d:6e:68:19:48:58:c7:94:0c:a3:
         8f:bd:34:6b:ee:c5:14:b6:1b:39:b8:f6:db:ae:76:c2:c4
-----BEGIN CERTIFICATE-----
MIIB+TCCAZ+gAwIBAgIBHzAKBggqhkjOPQQDAjCBmzEZMBcGA1UEAwwQUmVnaW9u
ZSBQaWVtb250ZTELMAkGA1UEBhMCSVQxDzANBgNVBAgMBkl0YWxpYTEYMBYGA1UE
CgwPRS1Wb3Rpbmcgc3lzdGVtMSIwIAYDVQQLDBlFLVZvdGluZyBzeXN0ZW0gYXV0
aG9yaXR5MSIwIAYJKoZIhvcNAQkBFhNQaWVtb250ZUBldm90aW5nLml0MB4XDTIy
MDgwMzEzMjY1NloXDTIzMDgwMzEzMjY1NlowSzEQMA4GA1UEAwwHU2V5bW91cjEL
MAkGA1UEBhMCSVQxDzANBgNVBAgMBkl0YWxpYTEZMBcGA1UECgwQUmVnaW9uZSBQ
aWVtb250ZTBZMBMGByqGSM49AgEGCCqGSM49AwEHA0IABBBTYHzK2KOJTVfaG5j5
GoOMYuRvxDQvo+oDfN1t65ZDmss2Lf0aHoSvr/AItp0GSQ5qnky0N+HVYscirYNj
r+ujIzAhMA4GA1UdDwEB/wQEAwIFoDAPBgNVHRMBAf8EBTADAgEDMAoGCCqGSM49
BAMCA0gAMEUCIAGZeF0/FXilP69wm4KkNtWsRuWU71hsNkDV5W2N3qrWAiEA76+K
1TU9bmgZSFjHlAyjj700a+7FFLYbObj22652wsQ=
-----END CERTIFICATE-----
