Certificate:
    Data:
        Version: 3 (0x2)
        Serial Number: 34 (0x22)
        Signature Algorithm: ecdsa-with-SHA256
        Issuer: CN=Regione Lombardia, C=IT, ST=Italia, O=E-Voting system, OU=E-Voting system authority/emailAddress=Lombardia@evoting.it
        Validity
            Not Before: Aug 26 15:20:39 2022 GMT
            Not After : Aug 26 15:20:39 2023 GMT
        Subject: CN=Shala, C=IT, ST=Italia, O=Regione Lombardia
        Subject Public Key Info:
            Public Key Algorithm: id-ecPublicKey
                Public-Key: (256 bit)
                pub:
                    04:86:86:4d:92:e8:16:e1:fa:a9:7c:7a:f3:91:f9:
                    a0:23:f2:84:2d:43:36:b4:92:91:d3:d3:4b:83:71:
                    18:63:b5:6c:a3:53:3d:a4:4c:ab:56:89:f8:2b:b5:
                    5f:0d:16:44:74:23:e8:1a:0d:50:13:2e:6e:4d:ac:
                    dc:23:72:eb:ce
                ASN1 OID: secp256k1
        X509v3 extensions:
            X509v3 Key Usage: critical
                Digital Signature, Key Encipherment
            X509v3 Basic Constraints: critical
                CA:FALSE, pathlen:3
    Signature Algorithm: ecdsa-with-SHA256
         30:45:02:21:00:81:9a:df:0e:79:f9:2e:73:0d:16:da:8b:d4:
         f2:30:6c:29:28:e0:db:6a:8e:93:0f:df:74:d0:77:fc:f9:31:
         69:02:20:05:f0:01:3c:4f:6d:53:16:5c:de:a9:60:88:48:a5:
         c6:70:08:fa:1b:89:1a:7d:4a:1f:8f:da:93:bc:6d:b4:a4
-----BEGIN CERTIFICATE-----
MIIB9zCCAZ2gAwIBAgIBIjAKBggqhkjOPQQDAjCBnTEaMBgGA1UEAwwRUmVnaW9u
ZSBMb21iYXJkaWExCzAJBgNVBAYTAklUMQ8wDQYDVQQIDAZJdGFsaWExGDAWBgNV
BAoMD0UtVm90aW5nIHN5c3RlbTEiMCAGA1UECwwZRS1Wb3Rpbmcgc3lzdGVtIGF1
dGhvcml0eTEjMCEGCSqGSIb3DQEJARYUTG9tYmFyZGlhQGV2b3RpbmcuaXQwHhcN
MjIwODI2MTUyMDM5WhcNMjMwODI2MTUyMDM5WjBKMQ4wDAYDVQQDDAVTaGFsYTEL
MAkGA1UEBhMCSVQxDzANBgNVBAgMBkl0YWxpYTEaMBgGA1UECgwRUmVnaW9uZSBM
b21iYXJkaWEwVjAQBgcqhkjOPQIBBgUrgQQACgNCAASGhk2S6Bbh+ql8evOR+aAj
8oQtQza0kpHT00uDcRhjtWyjUz2kTKtWifgrtV8NFkR0I+gaDVATLm5NrNwjcuvO
oyMwITAOBgNVHQ8BAf8EBAMCBaAwDwYDVR0TAQH/BAUwAwIBAzAKBggqhkjOPQQD
AgNIADBFAiEAgZrfDnn5LnMNFtqL1PIwbCko4NtqjpMP33TQd/z5MWkCIAXwATxP
bVMWXN6pYIhIpcZwCPobiRp9Sh+P2pO8bbSk
-----END CERTIFICATE-----
