Certificate:
    Data:
        Version: 3 (0x2)
        Serial Number: 48 (0x30)
        Signature Algorithm: ecdsa-with-SHA256
        Issuer: CN=Regione Sardegna, C=IT, ST=Italia, O=E-Voting system, OU=E-Voting system authority/emailAddress=Sardegna@evoting.it
        Validity
            Not Before: Aug 26 15:21:42 2022 GMT
            Not After : Aug 26 15:21:42 2023 GMT
        Subject: CN=Shannon, C=IT, ST=Italia, O=Regione Sardegna
        Subject Public Key Info:
            Public Key Algorithm: id-ecPublicKey
                Public-Key: (256 bit)
                pub:
                    04:46:e4:8e:0a:25:83:95:95:dd:4f:32:5c:6b:de:
                    e3:24:22:26:20:c6:e8:29:fc:33:b6:b5:a4:11:61:
                    9b:42:5e:d7:b0:64:6e:6d:de:ba:6c:05:b7:75:2e:
                    c9:56:35:72:a1:e9:86:f7:b4:ed:c1:46:8a:7b:a8:
                    e4:b3:9a:50:39
                ASN1 OID: secp256k1
        X509v3 extensions:
            X509v3 Key Usage: critical
                Digital Signature, Key Encipherment
            X509v3 Basic Constraints: critical
                CA:FALSE, pathlen:3
    Signature Algorithm: ecdsa-with-SHA256
         30:45:02:21:00:f5:76:3f:75:ad:93:b5:f9:bd:cc:81:f9:6f:
         1f:cb:48:d2:4a:95:8a:33:8f:2d:0f:a4:3d:cf:11:99:b0:1f:
         da:02:20:15:65:8b:85:6b:24:86:ed:21:3a:cb:4a:2c:9d:ae:
         e8:a3:d8:2f:0b:72:53:62:2b:07:bd:d2:a5:1d:18:e9:54
-----BEGIN CERTIFICATE-----
MIIB9jCCAZygAwIBAgIBMDAKBggqhkjOPQQDAjCBmzEZMBcGA1UEAwwQUmVnaW9u
ZSBTYXJkZWduYTELMAkGA1UEBhMCSVQxDzANBgNVBAgMBkl0YWxpYTEYMBYGA1UE
CgwPRS1Wb3Rpbmcgc3lzdGVtMSIwIAYDVQQLDBlFLVZvdGluZyBzeXN0ZW0gYXV0
aG9yaXR5MSIwIAYJKoZIhvcNAQkBFhNTYXJkZWduYUBldm90aW5nLml0MB4XDTIy
MDgyNjE1MjE0MloXDTIzMDgyNjE1MjE0MlowSzEQMA4GA1UEAwwHU2hhbm5vbjEL
MAkGA1UEBhMCSVQxDzANBgNVBAgMBkl0YWxpYTEZMBcGA1UECgwQUmVnaW9uZSBT
YXJkZWduYTBWMBAGByqGSM49AgEGBSuBBAAKA0IABEbkjgolg5WV3U8yXGve4yQi
JiDG6Cn8M7a1pBFhm0Je17Bkbm3eumwFt3UuyVY1cqHphve07cFGinuo5LOaUDmj
IzAhMA4GA1UdDwEB/wQEAwIFoDAPBgNVHRMBAf8EBTADAgEDMAoGCCqGSM49BAMC
A0gAMEUCIQD1dj91rZO1+b3MgflvH8tI0kqVijOPLQ+kPc8RmbAf2gIgFWWLhWsk
hu0hOstKLJ2u6KPYLwtyU2IrB73SpR0Y6VQ=
-----END CERTIFICATE-----
