Certificate:
    Data:
        Version: 3 (0x2)
        Serial Number: 22 (0x16)
        Signature Algorithm: ecdsa-with-SHA256
        Issuer: CN=Regione Calabria, C=IT, ST=Italia, O=E-Voting system, OU=E-Voting system authority/emailAddress=Calabria@evoting.it
        Validity
            Not Before: Aug  3 13:27:01 2022 GMT
            Not After : Aug  3 13:27:01 2023 GMT
        Subject: CN=Sharon, C=IT, ST=Italia, O=Regione Calabria
        Subject Public Key Info:
            Public Key Algorithm: id-ecPublicKey
                Public-Key: (256 bit)
                pub:
                    04:e1:4d:04:79:ba:6d:b8:ef:76:de:23:b3:24:7d:
                    69:aa:8b:6f:29:87:1e:f8:67:33:72:b4:b9:36:b6:
                    ae:8b:0d:0f:b2:13:9b:ad:82:bf:a6:bc:69:75:5e:
                    0c:d7:42:9a:1f:fd:f8:65:4d:c2:5e:97:f2:b0:c5:
                    65:3b:4e:0d:55
                ASN1 OID: prime256v1
                NIST CURVE: P-256
        X509v3 extensions:
            X509v3 Key Usage: critical
                Digital Signature, Key Encipherment
            X509v3 Basic Constraints: critical
                CA:FALSE, pathlen:3
    Signature Algorithm: ecdsa-with-SHA256
         30:45:02:20:2f:81:e0:d4:ee:7a:1c:82:27:83:fc:77:fe:a6:
         03:e5:d7:15:9b:c7:6b:5a:cf:9f:85:bd:11:2d:cc:49:c5:54:
         02:21:00:c9:87:b3:16:f8:89:cd:7f:5b:14:23:be:4e:81:06:
         76:eb:d2:ab:03:58:1b:18:f5:9c:6c:71:6a:1a:f6:a9:66
-----BEGIN CERTIFICATE-----
MIIB+DCCAZ6gAwIBAgIBFjAKBggqhkjOPQQDAjCBmzEZMBcGA1UEAwwQUmVnaW9u
ZSBDYWxhYnJpYTELMAkGA1UEBhMCSVQxDzANBgNVBAgMBkl0YWxpYTEYMBYGA1UE
CgwPRS1Wb3Rpbmcgc3lzdGVtMSIwIAYDVQQLDBlFLVZvdGluZyBzeXN0ZW0gYXV0
aG9yaXR5MSIwIAYJKoZIhvcNAQkBFhNDYWxhYnJpYUBldm90aW5nLml0MB4XDTIy
MDgwMzEzMjcwMVoXDTIzMDgwMzEzMjcwMVowSjEPMA0GA1UEAwwGU2hhcm9uMQsw
CQYDVQQGEwJJVDEPMA0GA1UECAwGSXRhbGlhMRkwFwYDVQQKDBBSZWdpb25lIENh
bGFicmlhMFkwEwYHKoZIzj0CAQYIKoZIzj0DAQcDQgAE4U0EebptuO923iOzJH1p
qotvKYce+GczcrS5Nrauiw0PshObrYK/prxpdV4M10KaH/34ZU3CXpfysMVlO04N
VaMjMCEwDgYDVR0PAQH/BAQDAgWgMA8GA1UdEwEB/wQFMAMCAQMwCgYIKoZIzj0E
AwIDSAAwRQIgL4Hg1O56HIIng/x3/qYD5dcVm8drWs+fhb0RLcxJxVQCIQDJh7MW
+InNf1sUI75OgQZ269KrA1gbGPWcbHFqGvapZg==
-----END CERTIFICATE-----
