Certificate:
    Data:
        Version: 3 (0x2)
        Serial Number: 53 (0x35)
        Signature Algorithm: ecdsa-with-SHA256
        Issuer: CN=Regione Umbria, C=IT, ST=Italia, O=E-Voting system, OU=E-Voting system authority/emailAddress=Umbria@evoting.it
        Validity
            Not Before: Aug 26 15:21:34 2022 GMT
            Not After : Aug 26 15:21:34 2023 GMT
        Subject: CN=Sharon, C=IT, ST=Italia, O=Regione Umbria
        Subject Public Key Info:
            Public Key Algorithm: id-ecPublicKey
                Public-Key: (256 bit)
                pub:
                    04:d3:dc:4b:60:d3:46:94:8e:e7:88:ad:62:34:f0:
                    74:28:7e:04:86:af:2b:2b:ed:2b:74:59:e0:97:44:
                    d7:c5:95:ef:31:e8:d5:c3:85:07:6e:09:d2:d3:99:
                    7c:b7:ed:69:46:f4:31:c0:1f:1c:f7:f3:5a:74:17:
                    cd:65:67:00:ab
                ASN1 OID: secp256k1
        X509v3 extensions:
            X509v3 Key Usage: critical
                Digital Signature, Key Encipherment
            X509v3 Basic Constraints: critical
                CA:FALSE, pathlen:3
    Signature Algorithm: ecdsa-with-SHA256
         30:45:02:20:4a:a7:c3:10:f5:7d:c7:7c:ca:08:ba:6a:d3:dc:
         61:38:ac:d0:68:14:56:96:7d:d8:6e:a3:ce:e4:63:02:85:bc:
         02:21:00:ad:63:8e:c0:a4:4c:53:09:80:bd:00:a9:e2:d8:b8:
         e9:7f:73:f0:c6:76:c6:6b:82:d0:2b:22:ea:6d:43:67:4d
-----BEGIN CERTIFICATE-----
MIIB7zCCAZWgAwIBAgIBNTAKBggqhkjOPQQDAjCBlzEXMBUGA1UEAwwOUmVnaW9u
ZSBVbWJyaWExCzAJBgNVBAYTAklUMQ8wDQYDVQQIDAZJdGFsaWExGDAWBgNVBAoM
D0UtVm90aW5nIHN5c3RlbTEiMCAGA1UECwwZRS1Wb3Rpbmcgc3lzdGVtIGF1dGhv
cml0eTEgMB4GCSqGSIb3DQEJARYRVW1icmlhQGV2b3RpbmcuaXQwHhcNMjIwODI2
MTUyMTM0WhcNMjMwODI2MTUyMTM0WjBIMQ8wDQYDVQQDDAZTaGFyb24xCzAJBgNV
BAYTAklUMQ8wDQYDVQQIDAZJdGFsaWExFzAVBgNVBAoMDlJlZ2lvbmUgVW1icmlh
MFYwEAYHKoZIzj0CAQYFK4EEAAoDQgAE09xLYNNGlI7niK1iNPB0KH4Ehq8rK+0r
dFngl0TXxZXvMejVw4UHbgnS05l8t+1pRvQxwB8c9/NadBfNZWcAq6MjMCEwDgYD
VR0PAQH/BAQDAgWgMA8GA1UdEwEB/wQFMAMCAQMwCgYIKoZIzj0EAwIDSAAwRQIg
SqfDEPV9x3zKCLpq09xhOKzQaBRWln3YbqPO5GMChbwCIQCtY47ApExTCYC9AKni
2Ljpf3PwxnbGa4LQKyLqbUNnTQ==
-----END CERTIFICATE-----
