Certificate:
    Data:
        Version: 3 (0x2)
        Serial Number: 25 (0x19)
        Signature Algorithm: ecdsa-with-SHA256
        Issuer: CN=Regione Marche, C=IT, ST=Italia, O=E-Voting system, OU=E-Voting system authority/emailAddress=Marche@evoting.it
        Validity
            Not Before: Aug  3 13:27:06 2022 GMT
            Not After : Aug  3 13:27:06 2023 GMT
        Subject: CN=Shawn, C=IT, ST=Italia, O=Regione Marche
        Subject Public Key Info:
            Public Key Algorithm: id-ecPublicKey
                Public-Key: (256 bit)
                pub:
                    04:f9:5f:2b:59:7a:45:7a:c9:10:a0:dc:97:45:97:
                    7c:7d:07:54:bf:b6:cb:9b:45:8f:72:70:5c:d7:ec:
                    9e:95:fd:f9:5c:37:af:32:41:4f:55:8e:4f:7d:a5:
                    54:a0:e4:8e:04:16:76:80:59:f1:72:29:d3:ac:71:
                    d0:7c:9c:98:c1
                ASN1 OID: prime256v1
                NIST CURVE: P-256
        X509v3 extensions:
            X509v3 Key Usage: critical
                Digital Signature, Key Encipherment
            X509v3 Basic Constraints: critical
                CA:FALSE, pathlen:3
    Signature Algorithm: ecdsa-with-SHA256
         30:46:02:21:00:a7:b4:7c:ea:93:66:d3:44:b3:64:df:0b:25:
         95:3c:a2:fa:ac:71:0f:75:42:10:3d:0b:ab:32:1e:bb:25:86:
         c3:02:21:00:d8:79:9e:20:ed:78:d6:7c:e7:e3:9e:20:d3:42:
         c2:db:c3:05:a6:58:4a:18:87:3e:0f:db:bb:41:ad:ba:f4:bb
-----BEGIN CERTIFICATE-----
MIIB8jCCAZegAwIBAgIBGTAKBggqhkjOPQQDAjCBlzEXMBUGA1UEAwwOUmVnaW9u
ZSBNYXJjaGUxCzAJBgNVBAYTAklUMQ8wDQYDVQQIDAZJdGFsaWExGDAWBgNVBAoM
D0UtVm90aW5nIHN5c3RlbTEiMCAGA1UECwwZRS1Wb3Rpbmcgc3lzdGVtIGF1dGhv
cml0eTEgMB4GCSqGSIb3DQEJARYRTWFyY2hlQGV2b3RpbmcuaXQwHhcNMjIwODAz
MTMyNzA2WhcNMjMwODAzMTMyNzA2WjBHMQ4wDAYDVQQDDAVTaGF3bjELMAkGA1UE
BhMCSVQxDzANBgNVBAgMBkl0YWxpYTEXMBUGA1UECgwOUmVnaW9uZSBNYXJjaGUw
WTATBgcqhkjOPQIBBggqhkjOPQMBBwNCAAT5XytZekV6yRCg3JdFl3x9B1S/tsub
RY9ycFzX7J6V/flcN68yQU9Vjk99pVSg5I4EFnaAWfFyKdOscdB8nJjBoyMwITAO
BgNVHQ8BAf8EBAMCBaAwDwYDVR0TAQH/BAUwAwIBAzAKBggqhkjOPQQDAgNJADBG
AiEAp7R86pNm00SzZN8LJZU8ovqscQ91QhA9C6syHrslhsMCIQDYeZ4g7XjWfOfj
niDTQsLbwwWmWEoYhz4P27tBrbr0uw==
-----END CERTIFICATE-----
