Certificate:
    Data:
        Version: 3 (0x2)
        Serial Number: 37 (0x25)
        Signature Algorithm: ecdsa-with-SHA256
        Issuer: CN=Regione Friuli_Venezia_Giulia, C=IT, ST=Italia, O=E-Voting system, OU=E-Voting system authority/emailAddress=Friuli_Venezia_Giulia@evoting.it
        Validity
            Not Before: Aug 26 15:21:10 2022 GMT
            Not After : Aug 26 15:21:10 2023 GMT
        Subject: CN=Shawna, C=IT, ST=Italia, O=Regione Friuli_Venezia_Giulia
        Subject Public Key Info:
            Public Key Algorithm: id-ecPublicKey
                Public-Key: (256 bit)
                pub:
                    04:c4:d7:62:72:df:b2:d5:91:e0:3a:d3:86:7e:77:
                    50:4c:8c:89:82:7f:5a:e2:ff:6e:c0:e3:1f:15:d2:
                    90:50:57:c5:81:cd:42:6f:9a:fd:5a:10:2b:00:08:
                    eb:28:ba:db:4a:b9:32:3a:8d:0c:62:41:8c:55:05:
                    06:f5:1e:d0:0f
                ASN1 OID: secp256k1
        X509v3 extensions:
            X509v3 Key Usage: critical
                Digital Signature, Key Encipherment
            X509v3 Basic Constraints: critical
                CA:FALSE, pathlen:3
    Signature Algorithm: ecdsa-with-SHA256
         30:45:02:21:00:91:cf:3d:df:e8:d4:86:67:83:e3:8b:e0:0b:
         ba:ad:3e:85:24:70:99:14:69:27:e6:78:d2:0f:5d:c9:97:f8:
         44:02:20:61:ea:95:35:2f:37:c9:b9:86:5f:44:0a:d6:45:3a:
         a3:71:c7:bf:f5:9e:84:66:bb:97:7b:5b:8a:e0:17:1a:17
-----BEGIN CERTIFICATE-----
MIICHDCCAcKgAwIBAgIBJTAKBggqhkjOPQQDAjCBtTEmMCQGA1UEAwwdUmVnaW9u
ZSBGcml1bGlfVmVuZXppYV9HaXVsaWExCzAJBgNVBAYTAklUMQ8wDQYDVQQIDAZJ
dGFsaWExGDAWBgNVBAoMD0UtVm90aW5nIHN5c3RlbTEiMCAGA1UECwwZRS1Wb3Rp
bmcgc3lzdGVtIGF1dGhvcml0eTEvMC0GCSqGSIb3DQEJARYgRnJpdWxpX1ZlbmV6
aWFfR2l1bGlhQGV2b3RpbmcuaXQwHhcNMjIwODI2MTUyMTEwWhcNMjMwODI2MTUy
MTEwWjBXMQ8wDQYDVQQDDAZTaGF3bmExCzAJBgNVBAYTAklUMQ8wDQYDVQQIDAZJ
dGFsaWExJjAkBgNVBAoMHVJlZ2lvbmUgRnJpdWxpX1ZlbmV6aWFfR2l1bGlhMFYw
EAYHKoZIzj0CAQYFK4EEAAoDQgAExNdict+y1ZHgOtOGfndQTIyJgn9a4v9uwOMf
FdKQUFfFgc1Cb5r9WhArAAjrKLrbSrkyOo0MYkGMVQUG9R7QD6MjMCEwDgYDVR0P
AQH/BAQDAgWgMA8GA1UdEwEB/wQFMAMCAQMwCgYIKoZIzj0EAwIDSAAwRQIhAJHP
Pd/o1IZng+OL4Au6rT6FJHCZFGkn5njSD13Jl/hEAiBh6pU1LzfJuYZfRArWRTqj
cce/9Z6EZruXe1uK4BcaFw==
-----END CERTIFICATE-----
