Certificate:
    Data:
        Version: 3 (0x2)
        Serial Number: 37 (0x25)
        Signature Algorithm: ecdsa-with-SHA256
        Issuer: CN=Regione Puglia, C=IT, ST=Italia, O=E-Voting system, OU=E-Voting system authority/emailAddress=Puglia@evoting.it
        Validity
            Not Before: Aug  3 13:28:30 2022 GMT
            Not After : Aug  3 13:28:30 2023 GMT
        Subject: CN=Shawna, C=IT, ST=Italia, O=Regione Puglia
        Subject Public Key Info:
            Public Key Algorithm: id-ecPublicKey
                Public-Key: (256 bit)
                pub:
                    04:e2:90:9f:38:b0:5c:11:47:db:dc:f4:1d:d9:de:
                    7c:ac:ab:e5:bd:35:ee:47:f9:6b:d5:ec:8a:31:e9:
                    53:14:15:52:bc:55:2b:e1:c3:c0:62:97:30:ce:72:
                    8a:63:47:fd:41:2a:ab:d9:f0:2f:3b:ed:ed:76:a5:
                    e2:03:e7:ea:0d
                ASN1 OID: prime256v1
                NIST CURVE: P-256
        X509v3 extensions:
            X509v3 Key Usage: critical
                Digital Signature, Key Encipherment
            X509v3 Basic Constraints: critical
                CA:FALSE, pathlen:3
    Signature Algorithm: ecdsa-with-SHA256
         30:45:02:20:6f:d4:6d:7e:56:4b:bc:60:c3:9d:1b:f0:02:ee:
         dc:78:e4:ef:69:b0:7b:34:4c:ec:e4:80:c6:cd:85:f0:a7:93:
         02:21:00:ea:0c:98:61:9e:14:e5:3b:4f:10:58:7c:81:2b:bb:
         3b:f2:9b:8c:92:c7:15:0e:3e:33:be:53:cf:74:2e:20:61
-----BEGIN CERTIFICATE-----
MIIB8jCCAZigAwIBAgIBJTAKBggqhkjOPQQDAjCBlzEXMBUGA1UEAwwOUmVnaW9u
ZSBQdWdsaWExCzAJBgNVBAYTAklUMQ8wDQYDVQQIDAZJdGFsaWExGDAWBgNVBAoM
D0UtVm90aW5nIHN5c3RlbTEiMCAGA1UECwwZRS1Wb3Rpbmcgc3lzdGVtIGF1dGhv
cml0eTEgMB4GCSqGSIb3DQEJARYRUHVnbGlhQGV2b3RpbmcuaXQwHhcNMjIwODAz
MTMyODMwWhcNMjMwODAzMTMyODMwWjBIMQ8wDQYDVQQDDAZTaGF3bmExCzAJBgNV
BAYTAklUMQ8wDQYDVQQIDAZJdGFsaWExFzAVBgNVBAoMDlJlZ2lvbmUgUHVnbGlh
MFkwEwYHKoZIzj0CAQYIKoZIzj0DAQcDQgAE4pCfOLBcEUfb3PQd2d58rKvlvTXu
R/lr1eyKMelTFBVSvFUr4cPAYpcwznKKY0f9QSqr2fAvO+3tdqXiA+fqDaMjMCEw
DgYDVR0PAQH/BAQDAgWgMA8GA1UdEwEB/wQFMAMCAQMwCgYIKoZIzj0EAwIDSAAw
RQIgb9RtflZLvGDDnRvwAu7ceOTvabB7NEzs5IDGzYXwp5MCIQDqDJhhnhTlO08Q
WHyBK7s78puMkscVDj4zvlPPdC4gYQ==
-----END CERTIFICATE-----
