Certificate:
    Data:
        Version: 3 (0x2)
        Serial Number: 51 (0x33)
        Signature Algorithm: ecdsa-with-SHA256
        Issuer: CN=Regione Valle_d_Aosta, C=IT, ST=Italia, O=E-Voting system, OU=E-Voting system authority/emailAddress=Valle_d_Aosta@evoting.it
        Validity
            Not Before: Aug 26 15:21:34 2022 GMT
            Not After : Aug 26 15:21:34 2023 GMT
        Subject: CN=Shawn, C=IT, ST=Italia, O=Regione Valle_d_Aosta
        Subject Public Key Info:
            Public Key Algorithm: id-ecPublicKey
                Public-Key: (256 bit)
                pub:
                    04:8b:76:d9:36:48:cc:d3:8a:a0:ce:a9:7c:62:ba:
                    17:5a:a4:da:60:b3:f1:de:c3:7b:eb:95:b1:39:d6:
                    0d:ff:3f:be:7f:f2:4b:6f:3b:55:69:5a:ad:c0:ca:
                    fc:64:0f:a8:a6:e3:bb:e4:5d:79:ac:36:40:d9:54:
                    28:69:96:dc:3a
                ASN1 OID: secp256k1
        X509v3 extensions:
            X509v3 Key Usage: critical
                Digital Signature, Key Encipherment
            X509v3 Basic Constraints: critical
                CA:FALSE, pathlen:3
    Signature Algorithm: ecdsa-with-SHA256
         30:44:02:20:44:18:80:36:ae:13:75:2e:ec:4b:56:d8:a8:bb:
         94:23:0e:7d:3f:32:af:3e:68:5e:fa:b5:ed:16:b8:5d:30:05:
         02:20:56:fa:7a:90:52:4c:1c:3c:93:87:6f:77:21:03:18:47:
         3d:76:c7:d7:ea:49:ef:ee:e6:84:0e:af:8b:61:ad:e8
-----BEGIN CERTIFICATE-----
MIICAjCCAamgAwIBAgIBMzAKBggqhkjOPQQDAjCBpTEeMBwGA1UEAwwVUmVnaW9u
ZSBWYWxsZV9kX0Fvc3RhMQswCQYDVQQGEwJJVDEPMA0GA1UECAwGSXRhbGlhMRgw
FgYDVQQKDA9FLVZvdGluZyBzeXN0ZW0xIjAgBgNVBAsMGUUtVm90aW5nIHN5c3Rl
bSBhdXRob3JpdHkxJzAlBgkqhkiG9w0BCQEWGFZhbGxlX2RfQW9zdGFAZXZvdGlu
Zy5pdDAeFw0yMjA4MjYxNTIxMzRaFw0yMzA4MjYxNTIxMzRaME4xDjAMBgNVBAMM
BVNoYXduMQswCQYDVQQGEwJJVDEPMA0GA1UECAwGSXRhbGlhMR4wHAYDVQQKDBVS
ZWdpb25lIFZhbGxlX2RfQW9zdGEwVjAQBgcqhkjOPQIBBgUrgQQACgNCAASLdtk2
SMzTiqDOqXxiuhdapNpgs/Hew3vrlbE51g3/P75/8ktvO1VpWq3AyvxkD6im47vk
XXmsNkDZVChpltw6oyMwITAOBgNVHQ8BAf8EBAMCBaAwDwYDVR0TAQH/BAUwAwIB
AzAKBggqhkjOPQQDAgNHADBEAiBEGIA2rhN1LuxLVtiou5QjDn0/Mq8+aF76te0W
uF0wBQIgVvp6kFJMHDyTh293IQMYRz12x9fqSe/u5oQOr4threg=
-----END CERTIFICATE-----
