Certificate:
    Data:
        Version: 3 (0x2)
        Serial Number: 17 (0x11)
        Signature Algorithm: ecdsa-with-SHA256
        Issuer: CN=Regione Marche, C=IT, ST=Italia, O=E-Voting system, OU=E-Voting system authority/emailAddress=Marche@evoting.it
        Validity
            Not Before: Aug  3 13:26:23 2022 GMT
            Not After : Aug  3 13:26:23 2023 GMT
        Subject: CN=Sheila, C=IT, ST=Italia, O=Regione Marche
        Subject Public Key Info:
            Public Key Algorithm: id-ecPublicKey
                Public-Key: (256 bit)
                pub:
                    04:f0:f3:a3:fa:6f:54:99:60:f7:c8:68:f8:0d:e9:
                    99:c1:0f:e5:c9:b4:a8:8d:ee:ce:16:3e:94:82:85:
                    31:5d:0e:c5:a2:46:7d:05:da:c9:b5:e8:52:b7:b7:
                    94:78:8f:da:7e:ff:e3:fd:5d:12:eb:46:0d:e4:a4:
                    75:bb:78:c6:1b
                ASN1 OID: prime256v1
                NIST CURVE: P-256
        X509v3 extensions:
            X509v3 Key Usage: critical
                Digital Signature, Key Encipherment
            X509v3 Basic Constraints: critical
                CA:FALSE, pathlen:3
    Signature Algorithm: ecdsa-with-SHA256
         30:44:02:20:67:0a:7a:e7:d4:b3:96:97:2f:01:94:3d:38:50:
         ab:be:52:ff:84:8e:7c:6d:90:e6:2e:03:fa:ff:84:fb:27:a1:
         02:20:37:a7:2a:dc:48:f7:c7:32:bd:83:4a:1f:c3:75:2c:5d:
         b9:6e:13:1a:12:19:d4:24:aa:36:90:c1:41:32:1f:a4
-----BEGIN CERTIFICATE-----
MIIB8TCCAZigAwIBAgIBETAKBggqhkjOPQQDAjCBlzEXMBUGA1UEAwwOUmVnaW9u
ZSBNYXJjaGUxCzAJBgNVBAYTAklUMQ8wDQYDVQQIDAZJdGFsaWExGDAWBgNVBAoM
D0UtVm90aW5nIHN5c3RlbTEiMCAGA1UECwwZRS1Wb3Rpbmcgc3lzdGVtIGF1dGhv
cml0eTEgMB4GCSqGSIb3DQEJARYRTWFyY2hlQGV2b3RpbmcuaXQwHhcNMjIwODAz
MTMyNjIzWhcNMjMwODAzMTMyNjIzWjBIMQ8wDQYDVQQDDAZTaGVpbGExCzAJBgNV
BAYTAklUMQ8wDQYDVQQIDAZJdGFsaWExFzAVBgNVBAoMDlJlZ2lvbmUgTWFyY2hl
MFkwEwYHKoZIzj0CAQYIKoZIzj0DAQcDQgAE8POj+m9UmWD3yGj4DemZwQ/lybSo
je7OFj6UgoUxXQ7FokZ9BdrJtehSt7eUeI/afv/j/V0S60YN5KR1u3jGG6MjMCEw
DgYDVR0PAQH/BAQDAgWgMA8GA1UdEwEB/wQFMAMCAQMwCgYIKoZIzj0EAwIDRwAw
RAIgZwp659SzlpcvAZQ9OFCrvlL/hI58bZDmLgP6/4T7J6ECIDenKtxI98cyvYNK
H8N1LF25bhMaEhnUJKo2kMFBMh+k
-----END CERTIFICATE-----
