Certificate:
    Data:
        Version: 3 (0x2)
        Serial Number: 9 (0x9)
        Signature Algorithm: ecdsa-with-SHA256
        Issuer: CN=Regione Sicilia, C=IT, ST=Italia, O=E-Voting system, OU=E-Voting system authority/emailAddress=Sicilia@evoting.it
        Validity
            Not Before: Aug  3 13:26:29 2022 GMT
            Not After : Aug  3 13:26:29 2023 GMT
        Subject: CN=Shelby, C=IT, ST=Italia, O=Regione Sicilia
        Subject Public Key Info:
            Public Key Algorithm: id-ecPublicKey
                Public-Key: (256 bit)
                pub:
                    04:4d:bd:3d:06:34:c3:ce:0f:fb:69:8b:1c:18:1c:
                    9d:94:36:42:44:6d:73:c4:b8:83:b2:2f:7c:c4:c9:
                    81:0d:8a:95:cd:07:a0:5a:31:18:19:1c:15:51:3e:
                    67:37:91:28:c8:6e:6d:6e:ba:8e:c1:60:71:86:b8:
                    74:c1:57:0b:5f
                ASN1 OID: prime256v1
                NIST CURVE: P-256
        X509v3 extensions:
            X509v3 Key Usage: critical
                Digital Signature, Key Encipherment
            X509v3 Basic Constraints: critical
                CA:FALSE, pathlen:3
    Signature Algorithm: ecdsa-with-SHA256
         30:45:02:21:00:9a:8d:38:05:a8:16:5b:98:75:d7:6c:e0:75:
         e0:8e:eb:fb:dc:11:d1:17:a1:4f:d8:80:97:82:15:98:d8:c0:
         4a:02:20:0e:43:9a:e0:88:0e:39:5b:b3:67:c8:5d:1b:de:b1:
         45:a5:c5:cc:03:96:17:64:c5:b5:59:80:b6:0b:53:e3:5e
-----BEGIN CERTIFICATE-----
MIIB9TCCAZugAwIBAgIBCTAKBggqhkjOPQQDAjCBmTEYMBYGA1UEAwwPUmVnaW9u
ZSBTaWNpbGlhMQswCQYDVQQGEwJJVDEPMA0GA1UECAwGSXRhbGlhMRgwFgYDVQQK
DA9FLVZvdGluZyBzeXN0ZW0xIjAgBgNVBAsMGUUtVm90aW5nIHN5c3RlbSBhdXRo
b3JpdHkxITAfBgkqhkiG9w0BCQEWElNpY2lsaWFAZXZvdGluZy5pdDAeFw0yMjA4
MDMxMzI2MjlaFw0yMzA4MDMxMzI2MjlaMEkxDzANBgNVBAMMBlNoZWxieTELMAkG
A1UEBhMCSVQxDzANBgNVBAgMBkl0YWxpYTEYMBYGA1UECgwPUmVnaW9uZSBTaWNp
bGlhMFkwEwYHKoZIzj0CAQYIKoZIzj0DAQcDQgAETb09BjTDzg/7aYscGBydlDZC
RG1zxLiDsi98xMmBDYqVzQegWjEYGRwVUT5nN5EoyG5tbrqOwWBxhrh0wVcLX6Mj
MCEwDgYDVR0PAQH/BAQDAgWgMA8GA1UdEwEB/wQFMAMCAQMwCgYIKoZIzj0EAwID
SAAwRQIhAJqNOAWoFluYddds4HXgjuv73BHRF6FP2ICXghWY2MBKAiAOQ5rgiA45
W7NnyF0b3rFFpcXMA5YXZMW1WYC2C1PjXg==
-----END CERTIFICATE-----
