Certificate:
    Data:
        Version: 3 (0x2)
        Serial Number: 17 (0x11)
        Signature Algorithm: ecdsa-with-SHA256
        Issuer: CN=Regione Campania, C=IT, ST=Italia, O=E-Voting system, OU=E-Voting system authority/emailAddress=Campania@evoting.it
        Validity
            Not Before: Aug 26 15:19:26 2022 GMT
            Not After : Aug 26 15:19:26 2023 GMT
        Subject: CN=Shelley, C=IT, ST=Italia, O=Regione Campania
        Subject Public Key Info:
            Public Key Algorithm: id-ecPublicKey
                Public-Key: (256 bit)
                pub:
                    04:28:9e:ed:9e:a9:26:92:06:70:47:96:c2:33:05:
                    cb:e4:8b:b2:6f:39:8c:ea:ab:30:44:a6:b3:03:94:
                    ef:53:56:55:db:f2:7f:21:f7:45:32:9d:ef:80:dc:
                    b7:d2:d9:cd:2e:86:43:55:0c:4b:e6:6f:ca:9f:b2:
                    4e:49:76:3a:2d
                ASN1 OID: secp256k1
        X509v3 extensions:
            X509v3 Key Usage: critical
                Digital Signature, Key Encipherment
            X509v3 Basic Constraints: critical
                CA:FALSE, pathlen:3
    Signature Algorithm: ecdsa-with-SHA256
         30:45:02:21:00:85:28:38:bb:b8:ef:ed:ed:2e:14:86:c6:33:
         cc:01:e0:ff:9b:97:a7:6d:a6:27:7b:a5:17:22:b0:92:73:d2:
         d9:02:20:7d:33:7a:ed:c9:48:91:f0:55:92:fc:59:9b:37:14:
         e4:b8:57:10:8d:8b:36:fc:a7:61:0a:d4:b6:62:a9:8b:4c
-----BEGIN CERTIFICATE-----
MIIB9jCCAZygAwIBAgIBETAKBggqhkjOPQQDAjCBmzEZMBcGA1UEAwwQUmVnaW9u
ZSBDYW1wYW5pYTELMAkGA1UEBhMCSVQxDzANBgNVBAgMBkl0YWxpYTEYMBYGA1UE
CgwPRS1Wb3Rpbmcgc3lzdGVtMSIwIAYDVQQLDBlFLVZvdGluZyBzeXN0ZW0gYXV0
aG9yaXR5MSIwIAYJKoZIhvcNAQkBFhNDYW1wYW5pYUBldm90aW5nLml0MB4XDTIy
MDgyNjE1MTkyNloXDTIzMDgyNjE1MTkyNlowSzEQMA4GA1UEAwwHU2hlbGxleTEL
MAkGA1UEBhMCSVQxDzANBgNVBAgMBkl0YWxpYTEZMBcGA1UECgwQUmVnaW9uZSBD
YW1wYW5pYTBWMBAGByqGSM49AgEGBSuBBAAKA0IABCie7Z6pJpIGcEeWwjMFy+SL
sm85jOqrMESmswOU71NWVdvyfyH3RTKd74Dct9LZzS6GQ1UMS+Zvyp+yTkl2Oi2j
IzAhMA4GA1UdDwEB/wQEAwIFoDAPBgNVHRMBAf8EBTADAgEDMAoGCCqGSM49BAMC
A0gAMEUCIQCFKDi7uO/t7S4UhsYzzAHg/5uXp22mJ3ulFyKwknPS2QIgfTN67clI
kfBVkvxZmzcU5LhXEI2LNvynYQrUtmKpi0w=
-----END CERTIFICATE-----
