Certificate:
    Data:
        Version: 3 (0x2)
        Serial Number: 20 (0x14)
        Signature Algorithm: ecdsa-with-SHA256
        Issuer: CN=Regione Valle_d_Aosta, C=IT, ST=Italia, O=E-Voting system, OU=E-Voting system authority/emailAddress=Valle_d_Aosta@evoting.it
        Validity
            Not Before: Aug  3 13:26:32 2022 GMT
            Not After : Aug  3 13:26:32 2023 GMT
        Subject: CN=Shelly, C=IT, ST=Italia, O=Regione Valle_d_Aosta
        Subject Public Key Info:
            Public Key Algorithm: id-ecPublicKey
                Public-Key: (256 bit)
                pub:
                    04:0c:6d:8e:fa:89:b0:da:bc:cc:c2:58:af:a4:58:
                    ce:5b:68:be:d3:26:3d:39:aa:8c:f6:99:06:67:61:
                    ad:c3:ba:26:ee:54:ed:1b:ae:d2:a4:a6:8c:d6:52:
                    53:7e:9f:51:ad:7c:16:7f:da:00:7a:15:e9:5f:b4:
                    b9:0a:fd:6d:1b
                ASN1 OID: prime256v1
                NIST CURVE: P-256
        X509v3 extensions:
            X509v3 Key Usage: critical
                Digital Signature, Key Encipherment
            X509v3 Basic Constraints: critical
                CA:FALSE, pathlen:3
    Signature Algorithm: ecdsa-with-SHA256
         30:45:02:21:00:ef:09:4a:b1:39:67:df:19:6c:fe:83:5d:9d:
         ec:00:6e:9b:a9:af:bc:40:28:3e:3c:cb:d2:d7:74:df:5d:95:
         df:02:20:55:33:d7:f3:aa:dd:b7:17:35:26:56:46:37:41:4c:
         d4:c5:6a:cc:16:3e:28:33:81:25:9b:0c:aa:8d:49:a4:a9
-----BEGIN CERTIFICATE-----
MIICBzCCAa2gAwIBAgIBFDAKBggqhkjOPQQDAjCBpTEeMBwGA1UEAwwVUmVnaW9u
ZSBWYWxsZV9kX0Fvc3RhMQswCQYDVQQGEwJJVDEPMA0GA1UECAwGSXRhbGlhMRgw
FgYDVQQKDA9FLVZvdGluZyBzeXN0ZW0xIjAgBgNVBAsMGUUtVm90aW5nIHN5c3Rl
bSBhdXRob3JpdHkxJzAlBgkqhkiG9w0BCQEWGFZhbGxlX2RfQW9zdGFAZXZvdGlu
Zy5pdDAeFw0yMjA4MDMxMzI2MzJaFw0yMzA4MDMxMzI2MzJaME8xDzANBgNVBAMM
BlNoZWxseTELMAkGA1UEBhMCSVQxDzANBgNVBAgMBkl0YWxpYTEeMBwGA1UECgwV
UmVnaW9uZSBWYWxsZV9kX0Fvc3RhMFkwEwYHKoZIzj0CAQYIKoZIzj0DAQcDQgAE
DG2O+omw2rzMwlivpFjOW2i+0yY9OaqM9pkGZ2Gtw7om7lTtG67SpKaM1lJTfp9R
rXwWf9oAehXpX7S5Cv1tG6MjMCEwDgYDVR0PAQH/BAQDAgWgMA8GA1UdEwEB/wQF
MAMCAQMwCgYIKoZIzj0EAwIDSAAwRQIhAO8JSrE5Z98ZbP6DXZ3sAG6bqa+8QCg+
PMvS13TfXZXfAiBVM9fzqt23FzUmVkY3QUzUxWrMFj4oM4ElmwyqjUmkqQ==
-----END CERTIFICATE-----
