Certificate:
    Data:
        Version: 3 (0x2)
        Serial Number: 17 (0x11)
        Signature Algorithm: ecdsa-with-SHA256
        Issuer: CN=Regione Piemonte, C=IT, ST=Italia, O=E-Voting system, OU=E-Voting system authority/emailAddress=Piemonte@evoting.it
        Validity
            Not Before: Aug 26 15:19:49 2022 GMT
            Not After : Aug 26 15:19:49 2023 GMT
        Subject: CN=Shelton, C=IT, ST=Italia, O=Regione Piemonte
        Subject Public Key Info:
            Public Key Algorithm: id-ecPublicKey
                Public-Key: (256 bit)
                pub:
                    04:42:c4:ea:46:51:88:4d:bd:d7:7f:36:58:e2:2c:
                    59:0c:82:7e:57:c0:41:80:83:9a:8b:c2:eb:66:6b:
                    82:fa:10:85:24:88:4c:b4:07:52:37:c9:07:86:d0:
                    56:e9:6e:10:34:4e:a9:f7:e1:f5:5f:66:d5:70:c4:
                    4c:3b:57:1f:c8
                ASN1 OID: secp256k1
        X509v3 extensions:
            X509v3 Key Usage: critical
                Digital Signature, Key Encipherment
            X509v3 Basic Constraints: critical
                CA:FALSE, pathlen:3
    Signature Algorithm: ecdsa-with-SHA256
         30:45:02:20:47:4c:05:87:b0:38:e1:b2:89:4d:67:4e:25:68:
         e4:34:c3:f4:a0:0e:20:87:49:5d:d3:a8:cb:d9:52:8f:3f:41:
         02:21:00:ba:52:ba:e6:2a:a9:68:1f:5d:b9:e9:b9:db:c6:0c:
         21:bf:7c:a7:5c:a9:17:52:46:97:38:6a:bc:4e:80:20:80
-----BEGIN CERTIFICATE-----
MIIB9jCCAZygAwIBAgIBETAKBggqhkjOPQQDAjCBmzEZMBcGA1UEAwwQUmVnaW9u
ZSBQaWVtb250ZTELMAkGA1UEBhMCSVQxDzANBgNVBAgMBkl0YWxpYTEYMBYGA1UE
CgwPRS1Wb3Rpbmcgc3lzdGVtMSIwIAYDVQQLDBlFLVZvdGluZyBzeXN0ZW0gYXV0
aG9yaXR5MSIwIAYJKoZIhvcNAQkBFhNQaWVtb250ZUBldm90aW5nLml0MB4XDTIy
MDgyNjE1MTk0OVoXDTIzMDgyNjE1MTk0OVowSzEQMA4GA1UEAwwHU2hlbHRvbjEL
MAkGA1UEBhMCSVQxDzANBgNVBAgMBkl0YWxpYTEZMBcGA1UECgwQUmVnaW9uZSBQ
aWVtb250ZTBWMBAGByqGSM49AgEGBSuBBAAKA0IABELE6kZRiE291382WOIsWQyC
flfAQYCDmovC62ZrgvoQhSSITLQHUjfJB4bQVuluEDROqffh9V9m1XDETDtXH8ij
IzAhMA4GA1UdDwEB/wQEAwIFoDAPBgNVHRMBAf8EBTADAgEDMAoGCCqGSM49BAMC
A0gAMEUCIEdMBYewOOGyiU1nTiVo5DTD9KAOIIdJXdOoy9lSjz9BAiEAulK65iqp
aB9duem528YMIb98p1ypF1JGlzhqvE6AIIA=
-----END CERTIFICATE-----
