Certificate:
    Data:
        Version: 3 (0x2)
        Serial Number: 39 (0x27)
        Signature Algorithm: ecdsa-with-SHA256
        Issuer: CN=Regione Molise, C=IT, ST=Italia, O=E-Voting system, OU=E-Voting system authority/emailAddress=Molise@evoting.it
        Validity
            Not Before: Aug 26 15:21:19 2022 GMT
            Not After : Aug 26 15:21:19 2023 GMT
        Subject: CN=Shelly, C=IT, ST=Italia, O=Regione Molise
        Subject Public Key Info:
            Public Key Algorithm: id-ecPublicKey
                Public-Key: (256 bit)
                pub:
                    04:a6:98:cf:ef:54:24:60:df:99:74:82:7a:e9:5c:
                    6e:7a:2e:df:fc:14:e2:39:22:c3:91:de:26:27:3f:
                    65:9e:7b:d3:6e:7a:62:af:6d:cd:ce:6a:6c:eb:c2:
                    98:69:6c:b5:85:36:64:9f:d1:2a:ed:06:3e:97:01:
                    c7:67:f5:be:a3
                ASN1 OID: secp256k1
        X509v3 extensions:
            X509v3 Key Usage: critical
                Digital Signature, Key Encipherment
            X509v3 Basic Constraints: critical
                CA:FALSE, pathlen:3
    Signature Algorithm: ecdsa-with-SHA256
         30:45:02:21:00:a4:44:93:f7:d5:f7:2e:ea:49:de:99:4b:46:
         67:89:78:92:5a:c2:28:eb:f3:8e:90:7b:8a:55:0a:11:43:9b:
         a6:02:20:3a:2e:be:a5:e2:83:f9:17:f0:90:c0:70:a5:6b:dc:
         df:02:f5:bd:d9:c4:8f:6d:ff:74:36:ca:9a:f7:17:30:3c
-----BEGIN CERTIFICATE-----
MIIB7zCCAZWgAwIBAgIBJzAKBggqhkjOPQQDAjCBlzEXMBUGA1UEAwwOUmVnaW9u
ZSBNb2xpc2UxCzAJBgNVBAYTAklUMQ8wDQYDVQQIDAZJdGFsaWExGDAWBgNVBAoM
D0UtVm90aW5nIHN5c3RlbTEiMCAGA1UECwwZRS1Wb3Rpbmcgc3lzdGVtIGF1dGhv
cml0eTEgMB4GCSqGSIb3DQEJARYRTW9saXNlQGV2b3RpbmcuaXQwHhcNMjIwODI2
MTUyMTE5WhcNMjMwODI2MTUyMTE5WjBIMQ8wDQYDVQQDDAZTaGVsbHkxCzAJBgNV
BAYTAklUMQ8wDQYDVQQIDAZJdGFsaWExFzAVBgNVBAoMDlJlZ2lvbmUgTW9saXNl
MFYwEAYHKoZIzj0CAQYFK4EEAAoDQgAEppjP71QkYN+ZdIJ66Vxuei7f/BTiOSLD
kd4mJz9lnnvTbnpir23Nzmps68KYaWy1hTZkn9Eq7QY+lwHHZ/W+o6MjMCEwDgYD
VR0PAQH/BAQDAgWgMA8GA1UdEwEB/wQFMAMCAQMwCgYIKoZIzj0EAwIDSAAwRQIh
AKREk/fV9y7qSd6ZS0ZniXiSWsIo6/OOkHuKVQoRQ5umAiA6Lr6l4oP5F/CQwHCl
a9zfAvW92cSPbf90Nsqa9xcwPA==
-----END CERTIFICATE-----
