Certificate:
    Data:
        Version: 3 (0x2)
        Serial Number: 7 (0x7)
        Signature Algorithm: ecdsa-with-SHA256
        Issuer: CN=Regione Friuli_Venezia_Giulia, C=IT, ST=Italia, O=E-Voting system, OU=E-Voting system authority/emailAddress=Friuli_Venezia_Giulia@evoting.it
        Validity
            Not Before: Aug 26 15:18:40 2022 GMT
            Not After : Aug 26 15:18:40 2023 GMT
        Subject: CN=Sherry, C=IT, ST=Italia, O=Regione Friuli_Venezia_Giulia
        Subject Public Key Info:
            Public Key Algorithm: id-ecPublicKey
                Public-Key: (256 bit)
                pub:
                    04:ce:39:33:05:07:6a:af:15:89:c3:87:98:b0:71:
                    f7:78:5d:c2:b8:66:b8:3c:af:06:43:b2:f8:e0:a1:
                    c3:e7:36:6b:38:64:a9:8b:cb:ca:79:77:fc:70:6e:
                    b5:65:cf:85:8c:65:80:b1:e2:ad:6b:78:1d:bd:bb:
                    cc:f5:56:75:5d
                ASN1 OID: secp256k1
        X509v3 extensions:
            X509v3 Key Usage: critical
                Digital Signature, Key Encipherment
            X509v3 Basic Constraints: critical
                CA:FALSE, pathlen:3
    Signature Algorithm: ecdsa-with-SHA256
         30:45:02:21:00:c3:a8:f4:6b:c0:70:71:9c:8e:b5:dc:12:ac:
         5c:14:e9:dc:6a:3e:bb:44:42:f9:3f:b7:ea:ba:07:16:25:bc:
         7a:02:20:1b:1f:07:1c:0e:1e:26:e5:63:55:82:e2:16:5f:44:
         7d:f4:33:23:e5:91:34:f5:89:78:76:d9:aa:64:b2:bc:b2
-----BEGIN CERTIFICATE-----
MIICHDCCAcKgAwIBAgIBBzAKBggqhkjOPQQDAjCBtTEmMCQGA1UEAwwdUmVnaW9u
ZSBGcml1bGlfVmVuZXppYV9HaXVsaWExCzAJBgNVBAYTAklUMQ8wDQYDVQQIDAZJ
dGFsaWExGDAWBgNVBAoMD0UtVm90aW5nIHN5c3RlbTEiMCAGA1UECwwZRS1Wb3Rp
bmcgc3lzdGVtIGF1dGhvcml0eTEvMC0GCSqGSIb3DQEJARYgRnJpdWxpX1ZlbmV6
aWFfR2l1bGlhQGV2b3RpbmcuaXQwHhcNMjIwODI2MTUxODQwWhcNMjMwODI2MTUx
ODQwWjBXMQ8wDQYDVQQDDAZTaGVycnkxCzAJBgNVBAYTAklUMQ8wDQYDVQQIDAZJ
dGFsaWExJjAkBgNVBAoMHVJlZ2lvbmUgRnJpdWxpX1ZlbmV6aWFfR2l1bGlhMFYw
EAYHKoZIzj0CAQYFK4EEAAoDQgAEzjkzBQdqrxWJw4eYsHH3eF3CuGa4PK8GQ7L4
4KHD5zZrOGSpi8vKeXf8cG61Zc+FjGWAseKta3gdvbvM9VZ1XaMjMCEwDgYDVR0P
AQH/BAQDAgWgMA8GA1UdEwEB/wQFMAMCAQMwCgYIKoZIzj0EAwIDSAAwRQIhAMOo
9GvAcHGcjrXcEqxcFOncaj67REL5P7fqugcWJbx6AiAbHwccDh4m5WNVguIWX0R9
9DMj5ZE09Yl4dtmqZLK8sg==
-----END CERTIFICATE-----
