Certificate:
    Data:
        Version: 3 (0x2)
        Serial Number: 27 (0x1b)
        Signature Algorithm: ecdsa-with-SHA256
        Issuer: CN=Regione Umbria, C=IT, ST=Italia, O=E-Voting system, OU=E-Voting system authority/emailAddress=Umbria@evoting.it
        Validity
            Not Before: Aug 26 15:20:28 2022 GMT
            Not After : Aug 26 15:20:28 2023 GMT
        Subject: CN=Sheryl, C=IT, ST=Italia, O=Regione Umbria
        Subject Public Key Info:
            Public Key Algorithm: id-ecPublicKey
                Public-Key: (256 bit)
                pub:
                    04:cf:9f:78:60:66:d9:98:f2:83:b0:8a:4b:6e:e5:
                    39:da:0c:03:ca:e9:54:71:7b:d9:a7:ae:61:f4:bc:
                    6b:c8:37:6b:71:18:e6:7c:ea:1a:e7:70:3e:18:cf:
                    44:87:cd:5b:b6:5a:b2:49:11:40:6c:8e:00:ca:be:
                    80:df:cb:3c:16
                ASN1 OID: secp256k1
        X509v3 extensions:
            X509v3 Key Usage: critical
                Digital Signature, Key Encipherment
            X509v3 Basic Constraints: critical
                CA:FALSE, pathlen:3
    Signature Algorithm: ecdsa-with-SHA256
         30:45:02:20:6b:fd:73:29:cf:cb:41:bf:14:87:fe:a5:82:5a:
         bc:2c:8a:d7:5a:59:3d:f6:61:24:98:83:08:21:57:5a:bf:e6:
         02:21:00:d2:5f:f6:a9:f7:ef:1e:d8:0b:32:0a:4e:f2:50:84:
         b7:10:0d:f7:f1:ae:f1:d5:8c:07:3c:0f:ea:06:23:d3:65
-----BEGIN CERTIFICATE-----
MIIB7zCCAZWgAwIBAgIBGzAKBggqhkjOPQQDAjCBlzEXMBUGA1UEAwwOUmVnaW9u
ZSBVbWJyaWExCzAJBgNVBAYTAklUMQ8wDQYDVQQIDAZJdGFsaWExGDAWBgNVBAoM
D0UtVm90aW5nIHN5c3RlbTEiMCAGA1UECwwZRS1Wb3Rpbmcgc3lzdGVtIGF1dGhv
cml0eTEgMB4GCSqGSIb3DQEJARYRVW1icmlhQGV2b3RpbmcuaXQwHhcNMjIwODI2
MTUyMDI4WhcNMjMwODI2MTUyMDI4WjBIMQ8wDQYDVQQDDAZTaGVyeWwxCzAJBgNV
BAYTAklUMQ8wDQYDVQQIDAZJdGFsaWExFzAVBgNVBAoMDlJlZ2lvbmUgVW1icmlh
MFYwEAYHKoZIzj0CAQYFK4EEAAoDQgAEz594YGbZmPKDsIpLbuU52gwDyulUcXvZ
p65h9LxryDdrcRjmfOoa53A+GM9Eh81btlqySRFAbI4Ayr6A38s8FqMjMCEwDgYD
VR0PAQH/BAQDAgWgMA8GA1UdEwEB/wQFMAMCAQMwCgYIKoZIzj0EAwIDSAAwRQIg
a/1zKc/LQb8Uh/6lglq8LIrXWlk99mEkmIMIIVdav+YCIQDSX/ap9+8e2AsyCk7y
UIS3EA338a7x1YwHPA/qBiPTZQ==
-----END CERTIFICATE-----
