Certificate:
    Data:
        Version: 3 (0x2)
        Serial Number: 28 (0x1c)
        Signature Algorithm: ecdsa-with-SHA256
        Issuer: CN=Regione Trentino_Alto_Adige, C=IT, ST=Italia, O=E-Voting system, OU=E-Voting system authority/emailAddress=Trentino_Alto_Adige@evoting.it
        Validity
            Not Before: Aug 26 15:20:28 2022 GMT
            Not After : Aug 26 15:20:28 2023 GMT
        Subject: CN=Shonda, C=IT, ST=Italia, O=Regione Trentino_Alto_Adige
        Subject Public Key Info:
            Public Key Algorithm: id-ecPublicKey
                Public-Key: (256 bit)
                pub:
                    04:15:26:24:28:47:c5:8e:8c:e6:d0:a4:04:d8:59:
                    67:a0:a7:dd:4a:f9:38:dc:32:ef:1d:f3:9c:5c:cf:
                    6d:be:6e:ec:d3:bc:77:85:b9:26:ff:f9:fd:58:53:
                    06:0f:47:99:1c:0c:65:5f:63:3c:b9:ef:b4:1c:36:
                    36:a1:3c:8b:30
                ASN1 OID: secp256k1
        X509v3 extensions:
            X509v3 Key Usage: critical
                Digital Signature, Key Encipherment
            X509v3 Basic Constraints: critical
                CA:FALSE, pathlen:3
    Signature Algorithm: ecdsa-with-SHA256
         30:46:02:21:00:ec:4e:eb:19:32:1d:93:54:02:e1:46:2e:ae:
         b0:05:b0:7d:6c:b6:b8:f4:34:4e:e3:c1:91:6c:8b:37:20:f4:
         f3:02:21:00:b8:90:0a:3d:6b:f1:bf:0b:a7:d8:fe:78:6d:bb:
         44:b3:9a:54:5f:0f:0c:c0:3b:9f:a7:5d:a1:3e:db:a7:e4:33
-----BEGIN CERTIFICATE-----
MIICFzCCAbygAwIBAgIBHDAKBggqhkjOPQQDAjCBsTEkMCIGA1UEAwwbUmVnaW9u
ZSBUcmVudGlub19BbHRvX0FkaWdlMQswCQYDVQQGEwJJVDEPMA0GA1UECAwGSXRh
bGlhMRgwFgYDVQQKDA9FLVZvdGluZyBzeXN0ZW0xIjAgBgNVBAsMGUUtVm90aW5n
IHN5c3RlbSBhdXRob3JpdHkxLTArBgkqhkiG9w0BCQEWHlRyZW50aW5vX0FsdG9f
QWRpZ2VAZXZvdGluZy5pdDAeFw0yMjA4MjYxNTIwMjhaFw0yMzA4MjYxNTIwMjha
MFUxDzANBgNVBAMMBlNob25kYTELMAkGA1UEBhMCSVQxDzANBgNVBAgMBkl0YWxp
YTEkMCIGA1UECgwbUmVnaW9uZSBUcmVudGlub19BbHRvX0FkaWdlMFYwEAYHKoZI
zj0CAQYFK4EEAAoDQgAEFSYkKEfFjozm0KQE2FlnoKfdSvk43DLvHfOcXM9tvm7s
07x3hbkm//n9WFMGD0eZHAxlX2M8ue+0HDY2oTyLMKMjMCEwDgYDVR0PAQH/BAQD
AgWgMA8GA1UdEwEB/wQFMAMCAQMwCgYIKoZIzj0EAwIDSQAwRgIhAOxO6xkyHZNU
AuFGLq6wBbB9bLa49DRO48GRbIs3IPTzAiEAuJAKPWvxvwun2P54bbtEs5pUXw8M
wDufp12hPtun5DM=
-----END CERTIFICATE-----
