Certificate:
    Data:
        Version: 3 (0x2)
        Serial Number: 14 (0xe)
        Signature Algorithm: ecdsa-with-SHA256
        Issuer: CN=Regione Lazio, C=IT, ST=Italia, O=E-Voting system, OU=E-Voting system authority/emailAddress=Lazio@evoting.it
        Validity
            Not Before: Aug  3 13:26:03 2022 GMT
            Not After : Aug  3 13:26:03 2023 GMT
        Subject: CN=Silas, C=IT, ST=Italia, O=Regione Lazio
        Subject Public Key Info:
            Public Key Algorithm: id-ecPublicKey
                Public-Key: (256 bit)
                pub:
                    04:02:c5:67:87:47:53:58:cc:60:50:c7:ee:61:3f:
                    57:d6:19:38:28:69:af:ba:33:8e:7b:db:99:f0:6b:
                    89:e6:6f:53:99:f6:13:55:80:1d:81:37:61:b1:f9:
                    4b:71:31:37:2b:8f:ed:c2:cd:3f:b9:7a:14:eb:4a:
                    14:87:41:39:1d
                ASN1 OID: prime256v1
                NIST CURVE: P-256
        X509v3 extensions:
            X509v3 Key Usage: critical
                Digital Signature, Key Encipherment
            X509v3 Basic Constraints: critical
                CA:FALSE, pathlen:3
    Signature Algorithm: ecdsa-with-SHA256
         30:46:02:21:00:97:6b:ac:91:f3:8c:e2:cd:5f:54:eb:30:bc:
         43:b4:14:3c:5a:dd:1d:94:19:ec:44:37:b2:bb:18:07:ca:9d:
         aa:02:21:00:9b:78:4b:16:48:aa:50:34:0c:8d:1f:dd:9d:83:
         c5:8a:06:f2:58:56:97:cc:92:7b:b2:ea:96:cf:f2:51:d3:56
-----BEGIN CERTIFICATE-----
MIIB7zCCAZSgAwIBAgIBDjAKBggqhkjOPQQDAjCBlTEWMBQGA1UEAwwNUmVnaW9u
ZSBMYXppbzELMAkGA1UEBhMCSVQxDzANBgNVBAgMBkl0YWxpYTEYMBYGA1UECgwP
RS1Wb3Rpbmcgc3lzdGVtMSIwIAYDVQQLDBlFLVZvdGluZyBzeXN0ZW0gYXV0aG9y
aXR5MR8wHQYJKoZIhvcNAQkBFhBMYXppb0Bldm90aW5nLml0MB4XDTIyMDgwMzEz
MjYwM1oXDTIzMDgwMzEzMjYwM1owRjEOMAwGA1UEAwwFU2lsYXMxCzAJBgNVBAYT
AklUMQ8wDQYDVQQIDAZJdGFsaWExFjAUBgNVBAoMDVJlZ2lvbmUgTGF6aW8wWTAT
BgcqhkjOPQIBBggqhkjOPQMBBwNCAAQCxWeHR1NYzGBQx+5hP1fWGTgoaa+6M457
25nwa4nmb1OZ9hNVgB2BN2Gx+UtxMTcrj+3CzT+5ehTrShSHQTkdoyMwITAOBgNV
HQ8BAf8EBAMCBaAwDwYDVR0TAQH/BAUwAwIBAzAKBggqhkjOPQQDAgNJADBGAiEA
l2uskfOM4s1fVOswvEO0FDxa3R2UGexEN7K7GAfKnaoCIQCbeEsWSKpQNAyNH92d
g8WKBvJYVpfMknuy6pbP8lHTVg==
-----END CERTIFICATE-----
