Certificate:
    Data:
        Version: 3 (0x2)
        Serial Number: 41 (0x29)
        Signature Algorithm: ecdsa-with-SHA256
        Issuer: CN=Regione Lombardia, C=IT, ST=Italia, O=E-Voting system, OU=E-Voting system authority/emailAddress=Lombardia@evoting.it
        Validity
            Not Before: Aug  3 13:28:02 2022 GMT
            Not After : Aug  3 13:28:02 2023 GMT
        Subject: CN=Sima, C=IT, ST=Italia, O=Regione Lombardia
        Subject Public Key Info:
            Public Key Algorithm: id-ecPublicKey
                Public-Key: (256 bit)
                pub:
                    04:2d:21:5c:da:46:11:8c:b8:47:f6:bc:32:a4:ce:
                    d2:8f:68:fb:8b:a7:3d:39:ce:6b:23:be:cf:31:89:
                    f2:bf:3e:cd:29:59:f8:94:93:3d:a4:32:09:6d:a0:
                    d3:96:da:f0:dd:8b:8d:dd:d8:8e:63:3f:38:66:cd:
                    3a:e6:fe:10:4f
                ASN1 OID: prime256v1
                NIST CURVE: P-256
        X509v3 extensions:
            X509v3 Key Usage: critical
                Digital Signature, Key Encipherment
            X509v3 Basic Constraints: critical
                CA:FALSE, pathlen:3
    Signature Algorithm: ecdsa-with-SHA256
         30:44:02:20:50:74:b8:db:a4:85:9b:22:6b:19:1e:9a:ff:c3:
         ee:cf:f5:b3:3d:0b:91:27:4f:c7:66:f4:c5:c1:cf:2e:39:9f:
         02:20:1c:f8:e9:a4:ed:3d:f6:9f:63:d6:ad:4e:cf:04:be:de:
         b6:d3:9e:20:c2:da:46:5e:ae:8a:37:8f:12:d7:14:ad
-----BEGIN CERTIFICATE-----
MIIB+DCCAZ+gAwIBAgIBKTAKBggqhkjOPQQDAjCBnTEaMBgGA1UEAwwRUmVnaW9u
ZSBMb21iYXJkaWExCzAJBgNVBAYTAklUMQ8wDQYDVQQIDAZJdGFsaWExGDAWBgNV
BAoMD0UtVm90aW5nIHN5c3RlbTEiMCAGA1UECwwZRS1Wb3Rpbmcgc3lzdGVtIGF1
dGhvcml0eTEjMCEGCSqGSIb3DQEJARYUTG9tYmFyZGlhQGV2b3RpbmcuaXQwHhcN
MjIwODAzMTMyODAyWhcNMjMwODAzMTMyODAyWjBJMQ0wCwYDVQQDDARTaW1hMQsw
CQYDVQQGEwJJVDEPMA0GA1UECAwGSXRhbGlhMRowGAYDVQQKDBFSZWdpb25lIExv
bWJhcmRpYTBZMBMGByqGSM49AgEGCCqGSM49AwEHA0IABC0hXNpGEYy4R/a8MqTO
0o9o+4unPTnOayO+zzGJ8r8+zSlZ+JSTPaQyCW2g05ba8N2Ljd3YjmM/OGbNOub+
EE+jIzAhMA4GA1UdDwEB/wQEAwIFoDAPBgNVHRMBAf8EBTADAgEDMAoGCCqGSM49
BAMCA0cAMEQCIFB0uNukhZsiaxkemv/D7s/1sz0LkSdPx2b0xcHPLjmfAiAc+Omk
7T32n2PWrU7PBL7ettOeIMLaRl6uijePEtcUrQ==
-----END CERTIFICATE-----
