Certificate:
    Data:
        Version: 3 (0x2)
        Serial Number: 42 (0x2a)
        Signature Algorithm: ecdsa-with-SHA256
        Issuer: CN=Regione Veneto, C=IT, ST=Italia, O=E-Voting system, OU=E-Voting system authority/emailAddress=Veneto@evoting.it
        Validity
            Not Before: Aug  3 13:28:10 2022 GMT
            Not After : Aug  3 13:28:10 2023 GMT
        Subject: CN=Simon, C=IT, ST=Italia, O=Regione Veneto
        Subject Public Key Info:
            Public Key Algorithm: id-ecPublicKey
                Public-Key: (256 bit)
                pub:
                    04:78:f0:41:3a:5f:3c:c6:9c:57:df:d7:76:f5:36:
                    44:64:db:21:e9:b9:d7:59:6e:49:67:66:ac:8d:6f:
                    b6:52:d5:69:08:d6:6c:0c:dd:6e:75:d5:0b:e8:5b:
                    dc:30:a1:66:26:65:47:66:bc:35:aa:1f:5e:53:82:
                    b1:db:da:ab:97
                ASN1 OID: prime256v1
                NIST CURVE: P-256
        X509v3 extensions:
            X509v3 Key Usage: critical
                Digital Signature, Key Encipherment
            X509v3 Basic Constraints: critical
                CA:FALSE, pathlen:3
    Signature Algorithm: ecdsa-with-SHA256
         30:44:02:20:7b:2a:92:d7:35:1c:ac:f3:15:db:89:4d:77:62:
         db:a8:e6:76:f0:64:fd:06:d7:66:4f:53:2f:b1:6c:e0:7c:c3:
         02:20:2a:0f:af:58:41:a5:88:3f:2b:1a:4f:e9:d9:55:84:ed:
         c7:67:cc:21:b6:71:4d:0d:cd:8d:66:c5:8c:9e:59:87
-----BEGIN CERTIFICATE-----
MIIB8DCCAZegAwIBAgIBKjAKBggqhkjOPQQDAjCBlzEXMBUGA1UEAwwOUmVnaW9u
ZSBWZW5ldG8xCzAJBgNVBAYTAklUMQ8wDQYDVQQIDAZJdGFsaWExGDAWBgNVBAoM
D0UtVm90aW5nIHN5c3RlbTEiMCAGA1UECwwZRS1Wb3Rpbmcgc3lzdGVtIGF1dGhv
cml0eTEgMB4GCSqGSIb3DQEJARYRVmVuZXRvQGV2b3RpbmcuaXQwHhcNMjIwODAz
MTMyODEwWhcNMjMwODAzMTMyODEwWjBHMQ4wDAYDVQQDDAVTaW1vbjELMAkGA1UE
BhMCSVQxDzANBgNVBAgMBkl0YWxpYTEXMBUGA1UECgwOUmVnaW9uZSBWZW5ldG8w
WTATBgcqhkjOPQIBBggqhkjOPQMBBwNCAAR48EE6XzzGnFff13b1NkRk2yHpuddZ
bklnZqyNb7ZS1WkI1mwM3W511QvoW9wwoWYmZUdmvDWqH15TgrHb2quXoyMwITAO
BgNVHQ8BAf8EBAMCBaAwDwYDVR0TAQH/BAUwAwIBAzAKBggqhkjOPQQDAgNHADBE
AiB7KpLXNRys8xXbiU13Ytuo5nbwZP0G12ZPUy+xbOB8wwIgKg+vWEGliD8rGk/p
2VWE7cdnzCG2cU0NzY1mxYyeWYc=
-----END CERTIFICATE-----
