Certificate:
    Data:
        Version: 3 (0x2)
        Serial Number: 21 (0x15)
        Signature Algorithm: ecdsa-with-SHA256
        Issuer: CN=Regione Emilia_Romagna, C=IT, ST=Italia, O=E-Voting system, OU=E-Voting system authority/emailAddress=Emilia_Romagna@evoting.it
        Validity
            Not Before: Aug 26 15:19:41 2022 GMT
            Not After : Aug 26 15:19:41 2023 GMT
        Subject: CN=Simon, C=IT, ST=Italia, O=Regione Emilia_Romagna
        Subject Public Key Info:
            Public Key Algorithm: id-ecPublicKey
                Public-Key: (256 bit)
                pub:
                    04:19:59:04:a3:71:41:c6:42:02:c9:79:1b:62:bb:
                    ec:cb:4c:f6:ac:90:de:dd:9b:1a:f1:c8:9c:88:d6:
                    5a:f7:bf:2a:69:1b:47:81:75:e8:fb:56:67:97:95:
                    4a:c9:6b:40:ae:eb:27:1b:a4:3f:7b:ca:8f:de:d7:
                    4b:16:0b:7c:c5
                ASN1 OID: secp256k1
        X509v3 extensions:
            X509v3 Key Usage: critical
                Digital Signature, Key Encipherment
            X509v3 Basic Constraints: critical
                CA:FALSE, pathlen:3
    Signature Algorithm: ecdsa-with-SHA256
         30:45:02:21:00:e7:20:2a:2e:8b:85:46:24:88:61:31:fb:ff:
         3d:e8:0a:f3:aa:68:29:24:60:a1:af:c7:9c:1f:80:71:c1:73:
         2c:02:20:79:e9:e5:3a:01:7b:e3:25:0b:c1:5d:64:8c:8c:4a:
         9b:79:fe:4c:be:af:98:c1:2d:80:17:f6:1d:2c:2b:13:dc
-----BEGIN CERTIFICATE-----
MIICBjCCAaygAwIBAgIBFTAKBggqhkjOPQQDAjCBpzEfMB0GA1UEAwwWUmVnaW9u
ZSBFbWlsaWFfUm9tYWduYTELMAkGA1UEBhMCSVQxDzANBgNVBAgMBkl0YWxpYTEY
MBYGA1UECgwPRS1Wb3Rpbmcgc3lzdGVtMSIwIAYDVQQLDBlFLVZvdGluZyBzeXN0
ZW0gYXV0aG9yaXR5MSgwJgYJKoZIhvcNAQkBFhlFbWlsaWFfUm9tYWduYUBldm90
aW5nLml0MB4XDTIyMDgyNjE1MTk0MVoXDTIzMDgyNjE1MTk0MVowTzEOMAwGA1UE
AwwFU2ltb24xCzAJBgNVBAYTAklUMQ8wDQYDVQQIDAZJdGFsaWExHzAdBgNVBAoM
FlJlZ2lvbmUgRW1pbGlhX1JvbWFnbmEwVjAQBgcqhkjOPQIBBgUrgQQACgNCAAQZ
WQSjcUHGQgLJeRtiu+zLTPaskN7dmxrxyJyI1lr3vyppG0eBdej7VmeXlUrJa0Cu
6ycbpD97yo/e10sWC3zFoyMwITAOBgNVHQ8BAf8EBAMCBaAwDwYDVR0TAQH/BAUw
AwIBAzAKBggqhkjOPQQDAgNIADBFAiEA5yAqLouFRiSIYTH7/z3oCvOqaCkkYKGv
x5wfgHHBcywCIHnp5ToBe+MlC8FdZIyMSpt5/ky+r5jBLYAX9h0sKxPc
-----END CERTIFICATE-----
