Certificate:
    Data:
        Version: 3 (0x2)
        Serial Number: 41 (0x29)
        Signature Algorithm: ecdsa-with-SHA256
        Issuer: CN=Regione Piemonte, C=IT, ST=Italia, O=E-Voting system, OU=E-Voting system authority/emailAddress=Piemonte@evoting.it
        Validity
            Not Before: Aug 26 15:21:20 2022 GMT
            Not After : Aug 26 15:21:20 2023 GMT
        Subject: CN=So, C=IT, ST=Italia, O=Regione Piemonte
        Subject Public Key Info:
            Public Key Algorithm: id-ecPublicKey
                Public-Key: (256 bit)
                pub:
                    04:fa:48:ab:48:17:1d:d1:16:68:6e:d3:14:7b:b3:
                    d5:b5:9d:2f:07:8a:bb:cd:c1:6c:ee:f8:62:74:b4:
                    6c:85:31:9a:06:e9:d3:35:e9:79:83:f6:dc:66:7d:
                    da:4e:37:f3:44:da:f0:54:fb:8b:40:72:53:71:02:
                    37:c5:2b:54:91
                ASN1 OID: secp256k1
        X509v3 extensions:
            X509v3 Key Usage: critical
                Digital Signature, Key Encipherment
            X509v3 Basic Constraints: critical
                CA:FALSE, pathlen:3
    Signature Algorithm: ecdsa-with-SHA256
         30:46:02:21:00:95:fb:f5:c5:62:76:08:bc:8b:70:d4:c3:75:
         fd:e1:3b:88:ae:56:a8:8d:b4:f9:2d:b9:ff:88:dc:53:ec:d5:
         9b:02:21:00:d2:30:7c:fe:08:7d:29:9a:bb:72:66:57:53:54:
         1e:28:3a:1e:a4:5e:4a:28:f2:e7:61:5d:75:a7:d7:92:75:9b
-----BEGIN CERTIFICATE-----
MIIB8jCCAZegAwIBAgIBKTAKBggqhkjOPQQDAjCBmzEZMBcGA1UEAwwQUmVnaW9u
ZSBQaWVtb250ZTELMAkGA1UEBhMCSVQxDzANBgNVBAgMBkl0YWxpYTEYMBYGA1UE
CgwPRS1Wb3Rpbmcgc3lzdGVtMSIwIAYDVQQLDBlFLVZvdGluZyBzeXN0ZW0gYXV0
aG9yaXR5MSIwIAYJKoZIhvcNAQkBFhNQaWVtb250ZUBldm90aW5nLml0MB4XDTIy
MDgyNjE1MjEyMFoXDTIzMDgyNjE1MjEyMFowRjELMAkGA1UEAwwCU28xCzAJBgNV
BAYTAklUMQ8wDQYDVQQIDAZJdGFsaWExGTAXBgNVBAoMEFJlZ2lvbmUgUGllbW9u
dGUwVjAQBgcqhkjOPQIBBgUrgQQACgNCAAT6SKtIFx3RFmhu0xR7s9W1nS8HirvN
wWzu+GJ0tGyFMZoG6dM16XmD9txmfdpON/NE2vBU+4tAclNxAjfFK1SRoyMwITAO
BgNVHQ8BAf8EBAMCBaAwDwYDVR0TAQH/BAUwAwIBAzAKBggqhkjOPQQDAgNJADBG
AiEAlfv1xWJ2CLyLcNTDdf3hO4iuVqiNtPktuf+I3FPs1ZsCIQDSMHz+CH0pmrty
ZldTVB4oOh6kXkoo8udhXXWn15J1mw==
-----END CERTIFICATE-----
