Certificate:
    Data:
        Version: 3 (0x2)
        Serial Number: 15 (0xf)
        Signature Algorithm: ecdsa-with-SHA256
        Issuer: CN=Regione Veneto, C=IT, ST=Italia, O=E-Voting system, OU=E-Voting system authority/emailAddress=Veneto@evoting.it
        Validity
            Not Before: Aug 26 15:20:23 2022 GMT
            Not After : Aug 26 15:20:23 2023 GMT
        Subject: CN=Son, C=IT, ST=Italia, O=Regione Veneto
        Subject Public Key Info:
            Public Key Algorithm: id-ecPublicKey
                Public-Key: (256 bit)
                pub:
                    04:9f:08:32:15:b1:12:05:cc:3e:99:c0:b0:be:15:
                    43:dc:4a:a9:98:0f:37:8b:32:8f:47:45:9b:25:54:
                    e1:7d:1e:dc:49:8b:fb:57:71:2e:ac:c8:65:42:db:
                    b4:f4:f0:be:8a:4e:79:9f:11:83:c4:e2:09:c5:f0:
                    60:7b:65:fd:f7
                ASN1 OID: secp256k1
        X509v3 extensions:
            X509v3 Key Usage: critical
                Digital Signature, Key Encipherment
            X509v3 Basic Constraints: critical
                CA:FALSE, pathlen:3
    Signature Algorithm: ecdsa-with-SHA256
         30:46:02:21:00:9f:0b:6d:da:28:0e:36:fd:d9:64:c9:58:1f:
         14:46:ad:57:10:85:d3:d4:04:f8:2d:a7:b0:eb:a7:7a:ad:94:
         53:02:21:00:9c:6b:6b:12:0f:8b:09:b6:59:c5:0f:b2:8e:92:
         dc:b0:06:a2:ef:74:ef:90:e0:31:c5:e3:6d:e1:cc:ea:be:bb
-----BEGIN CERTIFICATE-----
MIIB7TCCAZKgAwIBAgIBDzAKBggqhkjOPQQDAjCBlzEXMBUGA1UEAwwOUmVnaW9u
ZSBWZW5ldG8xCzAJBgNVBAYTAklUMQ8wDQYDVQQIDAZJdGFsaWExGDAWBgNVBAoM
D0UtVm90aW5nIHN5c3RlbTEiMCAGA1UECwwZRS1Wb3Rpbmcgc3lzdGVtIGF1dGhv
cml0eTEgMB4GCSqGSIb3DQEJARYRVmVuZXRvQGV2b3RpbmcuaXQwHhcNMjIwODI2
MTUyMDIzWhcNMjMwODI2MTUyMDIzWjBFMQwwCgYDVQQDDANTb24xCzAJBgNVBAYT
AklUMQ8wDQYDVQQIDAZJdGFsaWExFzAVBgNVBAoMDlJlZ2lvbmUgVmVuZXRvMFYw
EAYHKoZIzj0CAQYFK4EEAAoDQgAEnwgyFbESBcw+mcCwvhVD3EqpmA83izKPR0Wb
JVThfR7cSYv7V3EurMhlQtu09PC+ik55nxGDxOIJxfBge2X996MjMCEwDgYDVR0P
AQH/BAQDAgWgMA8GA1UdEwEB/wQFMAMCAQMwCgYIKoZIzj0EAwIDSQAwRgIhAJ8L
bdooDjb92WTJWB8URq1XEIXT1AT4Laew66d6rZRTAiEAnGtrEg+LCbZZxQ+yjpLc
sAai73TvkOAxxeNt4czqvrs=
-----END CERTIFICATE-----
