Certificate:
    Data:
        Version: 3 (0x2)
        Serial Number: 33 (0x21)
        Signature Algorithm: ecdsa-with-SHA256
        Issuer: CN=Regione Veneto, C=IT, ST=Italia, O=E-Voting system, OU=E-Voting system authority/emailAddress=Veneto@evoting.it
        Validity
            Not Before: Aug  3 13:27:39 2022 GMT
            Not After : Aug  3 13:27:39 2023 GMT
        Subject: CN=Sonia, C=IT, ST=Italia, O=Regione Veneto
        Subject Public Key Info:
            Public Key Algorithm: id-ecPublicKey
                Public-Key: (256 bit)
                pub:
                    04:c5:43:f6:d2:92:89:50:b3:88:e2:ef:35:0f:92:
                    a5:b8:52:5c:66:17:43:e7:78:34:09:d3:ed:a9:2c:
                    26:51:7b:80:71:a7:56:c8:63:63:ca:76:04:fb:15:
                    14:d5:c6:a7:ae:d3:ee:45:02:d5:63:e7:9e:89:67:
                    b4:50:a5:c8:77
                ASN1 OID: prime256v1
                NIST CURVE: P-256
        X509v3 extensions:
            X509v3 Key Usage: critical
                Digital Signature, Key Encipherment
            X509v3 Basic Constraints: critical
                CA:FALSE, pathlen:3
    Signature Algorithm: ecdsa-with-SHA256
         30:46:02:21:00:d6:9f:b2:7c:e5:b7:a4:9b:bd:53:97:9a:98:
         a0:04:5d:87:e0:d9:7b:b5:17:75:50:e1:83:e4:54:d8:4c:5d:
         5c:02:21:00:ca:71:52:f9:d2:cd:a4:62:6a:07:0f:cf:41:96:
         a3:5a:01:1a:53:a9:62:40:43:98:76:f4:83:cb:a3:9b:9a:2b
-----BEGIN CERTIFICATE-----
MIIB8jCCAZegAwIBAgIBITAKBggqhkjOPQQDAjCBlzEXMBUGA1UEAwwOUmVnaW9u
ZSBWZW5ldG8xCzAJBgNVBAYTAklUMQ8wDQYDVQQIDAZJdGFsaWExGDAWBgNVBAoM
D0UtVm90aW5nIHN5c3RlbTEiMCAGA1UECwwZRS1Wb3Rpbmcgc3lzdGVtIGF1dGhv
cml0eTEgMB4GCSqGSIb3DQEJARYRVmVuZXRvQGV2b3RpbmcuaXQwHhcNMjIwODAz
MTMyNzM5WhcNMjMwODAzMTMyNzM5WjBHMQ4wDAYDVQQDDAVTb25pYTELMAkGA1UE
BhMCSVQxDzANBgNVBAgMBkl0YWxpYTEXMBUGA1UECgwOUmVnaW9uZSBWZW5ldG8w
WTATBgcqhkjOPQIBBggqhkjOPQMBBwNCAATFQ/bSkolQs4ji7zUPkqW4UlxmF0Pn
eDQJ0+2pLCZRe4Bxp1bIY2PKdgT7FRTVxqeu0+5FAtVj556JZ7RQpch3oyMwITAO
BgNVHQ8BAf8EBAMCBaAwDwYDVR0TAQH/BAUwAwIBAzAKBggqhkjOPQQDAgNJADBG
AiEA1p+yfOW3pJu9U5eamKAEXYfg2Xu1F3VQ4YPkVNhMXVwCIQDKcVL50s2kYmoH
D89BlqNaARpTqWJAQ5h29IPLo5uaKw==
-----END CERTIFICATE-----
