Certificate:
    Data:
        Version: 3 (0x2)
        Serial Number: 20 (0x14)
        Signature Algorithm: ecdsa-with-SHA256
        Issuer: CN=Regione Campania, C=IT, ST=Italia, O=E-Voting system, OU=E-Voting system authority/emailAddress=Campania@evoting.it
        Validity
            Not Before: Aug 26 15:19:28 2022 GMT
            Not After : Aug 26 15:19:28 2023 GMT
        Subject: CN=Soon, C=IT, ST=Italia, O=Regione Campania
        Subject Public Key Info:
            Public Key Algorithm: id-ecPublicKey
                Public-Key: (256 bit)
                pub:
                    04:6e:a8:29:eb:e8:52:c3:11:f4:57:cc:ad:30:c8:
                    4c:33:16:4b:f7:c7:21:93:9c:21:72:2d:47:48:50:
                    c8:8f:4b:12:cc:b4:5a:fd:ad:b1:c9:93:e1:84:51:
                    83:1c:4f:c7:f8:fa:f4:aa:36:e9:98:d7:44:f6:7f:
                    96:56:14:31:67
                ASN1 OID: secp256k1
        X509v3 extensions:
            X509v3 Key Usage: critical
                Digital Signature, Key Encipherment
            X509v3 Basic Constraints: critical
                CA:FALSE, pathlen:3
    Signature Algorithm: ecdsa-with-SHA256
         30:45:02:21:00:e7:10:95:45:c3:0a:83:97:cf:7c:0c:08:41:
         0a:f7:b6:60:0c:8b:30:79:fc:2f:a3:b9:d7:4c:89:54:02:fb:
         3d:02:20:48:fc:f1:c4:c1:8e:7f:db:1c:7f:bb:81:6a:2b:54:
         97:39:7c:64:85:4a:bb:39:a2:7f:03:ec:1b:00:88:48:c2
-----BEGIN CERTIFICATE-----
MIIB8zCCAZmgAwIBAgIBFDAKBggqhkjOPQQDAjCBmzEZMBcGA1UEAwwQUmVnaW9u
ZSBDYW1wYW5pYTELMAkGA1UEBhMCSVQxDzANBgNVBAgMBkl0YWxpYTEYMBYGA1UE
CgwPRS1Wb3Rpbmcgc3lzdGVtMSIwIAYDVQQLDBlFLVZvdGluZyBzeXN0ZW0gYXV0
aG9yaXR5MSIwIAYJKoZIhvcNAQkBFhNDYW1wYW5pYUBldm90aW5nLml0MB4XDTIy
MDgyNjE1MTkyOFoXDTIzMDgyNjE1MTkyOFowSDENMAsGA1UEAwwEU29vbjELMAkG
A1UEBhMCSVQxDzANBgNVBAgMBkl0YWxpYTEZMBcGA1UECgwQUmVnaW9uZSBDYW1w
YW5pYTBWMBAGByqGSM49AgEGBSuBBAAKA0IABG6oKevoUsMR9FfMrTDITDMWS/fH
IZOcIXItR0hQyI9LEsy0Wv2tscmT4YRRgxxPx/j69Ko26ZjXRPZ/llYUMWejIzAh
MA4GA1UdDwEB/wQEAwIFoDAPBgNVHRMBAf8EBTADAgEDMAoGCCqGSM49BAMCA0gA
MEUCIQDnEJVFwwqDl898DAhBCve2YAyLMHn8L6O510yJVAL7PQIgSPzxxMGOf9sc
f7uBaitUlzl8ZIVKuzmifwPsGwCISMI=
-----END CERTIFICATE-----
