Certificate:
    Data:
        Version: 3 (0x2)
        Serial Number: 41 (0x29)
        Signature Algorithm: ecdsa-with-SHA256
        Issuer: CN=Regione Basilicata, C=IT, ST=Italia, O=E-Voting system, OU=E-Voting system authority/emailAddress=Basilicata@evoting.it
        Validity
            Not Before: Aug  3 13:27:30 2022 GMT
            Not After : Aug  3 13:27:30 2023 GMT
        Subject: CN=Sophia, C=IT, ST=Italia, O=Regione Basilicata
        Subject Public Key Info:
            Public Key Algorithm: id-ecPublicKey
                Public-Key: (256 bit)
                pub:
                    04:58:ca:b4:39:be:ba:f7:13:61:92:63:bc:42:37:
                    fc:aa:54:4e:2c:b3:ad:1c:fc:a5:c0:aa:d9:81:7f:
                    f3:4b:3d:db:df:0a:ba:ad:24:6c:c5:31:93:df:06:
                    bf:6b:3e:77:45:9f:06:4d:5f:d2:3e:65:58:43:b3:
                    d9:52:b3:f2:81
                ASN1 OID: prime256v1
                NIST CURVE: P-256
        X509v3 extensions:
            X509v3 Key Usage: critical
                Digital Signature, Key Encipherment
            X509v3 Basic Constraints: critical
                CA:FALSE, pathlen:3
    Signature Algorithm: ecdsa-with-SHA256
         30:45:02:20:46:8c:cd:0d:59:99:93:4e:eb:e8:d7:c1:3c:ed:
         f2:ad:8e:12:3b:64:db:ae:03:ca:b7:10:ab:c7:aa:a7:53:6c:
         02:21:00:f0:9b:9d:1e:1a:c0:be:ad:a7:42:c7:a7:cb:1d:84:
         3c:68:07:6c:b7:28:c8:67:ac:b9:4b:5d:f8:38:20:c6:1a
-----BEGIN CERTIFICATE-----
MIIB/jCCAaSgAwIBAgIBKTAKBggqhkjOPQQDAjCBnzEbMBkGA1UEAwwSUmVnaW9u
ZSBCYXNpbGljYXRhMQswCQYDVQQGEwJJVDEPMA0GA1UECAwGSXRhbGlhMRgwFgYD
VQQKDA9FLVZvdGluZyBzeXN0ZW0xIjAgBgNVBAsMGUUtVm90aW5nIHN5c3RlbSBh
dXRob3JpdHkxJDAiBgkqhkiG9w0BCQEWFUJhc2lsaWNhdGFAZXZvdGluZy5pdDAe
Fw0yMjA4MDMxMzI3MzBaFw0yMzA4MDMxMzI3MzBaMEwxDzANBgNVBAMMBlNvcGhp
YTELMAkGA1UEBhMCSVQxDzANBgNVBAgMBkl0YWxpYTEbMBkGA1UECgwSUmVnaW9u
ZSBCYXNpbGljYXRhMFkwEwYHKoZIzj0CAQYIKoZIzj0DAQcDQgAEWMq0Ob669xNh
kmO8Qjf8qlROLLOtHPylwKrZgX/zSz3b3wq6rSRsxTGT3wa/az53RZ8GTV/SPmVY
Q7PZUrPygaMjMCEwDgYDVR0PAQH/BAQDAgWgMA8GA1UdEwEB/wQFMAMCAQMwCgYI
KoZIzj0EAwIDSAAwRQIgRozNDVmZk07r6NfBPO3yrY4SO2TbrgPKtxCrx6qnU2wC
IQDwm50eGsC+radCx6fLHYQ8aAdstyjIZ6y5S134OCDGGg==
-----END CERTIFICATE-----
