Certificate:
    Data:
        Version: 3 (0x2)
        Serial Number: 26 (0x1a)
        Signature Algorithm: ecdsa-with-SHA256
        Issuer: CN=Regione Piemonte, C=IT, ST=Italia, O=E-Voting system, OU=E-Voting system authority/emailAddress=Piemonte@evoting.it
        Validity
            Not Before: Aug  3 13:26:42 2022 GMT
            Not After : Aug  3 13:26:42 2023 GMT
        Subject: CN=Spencer, C=IT, ST=Italia, O=Regione Piemonte
        Subject Public Key Info:
            Public Key Algorithm: id-ecPublicKey
                Public-Key: (256 bit)
                pub:
                    04:a9:0f:d3:31:0d:c7:65:3f:79:70:fa:47:e8:05:
                    4d:1a:20:b0:20:98:50:05:4e:7c:d5:55:12:f6:f8:
                    2b:c5:65:b1:dc:c9:80:7c:dd:f8:01:55:f4:09:8d:
                    7e:6a:c1:04:99:ba:0e:58:53:ee:76:45:af:a6:f3:
                    94:42:47:ce:f9
                ASN1 OID: prime256v1
                NIST CURVE: P-256
        X509v3 extensions:
            X509v3 Key Usage: critical
                Digital Signature, Key Encipherment
            X509v3 Basic Constraints: critical
                CA:FALSE, pathlen:3
    Signature Algorithm: ecdsa-with-SHA256
         30:46:02:21:00:a3:a5:de:f2:b0:06:7f:22:0c:fd:07:c2:5f:
         ce:78:06:d5:28:90:6e:ac:a7:c9:4f:89:de:72:cd:38:66:86:
         e5:02:21:00:97:03:28:02:71:3a:bf:7e:0c:01:01:f2:08:ad:
         d4:ad:79:aa:d4:00:00:33:24:7c:07:38:ab:a9:45:7a:17:18
-----BEGIN CERTIFICATE-----
MIIB+jCCAZ+gAwIBAgIBGjAKBggqhkjOPQQDAjCBmzEZMBcGA1UEAwwQUmVnaW9u
ZSBQaWVtb250ZTELMAkGA1UEBhMCSVQxDzANBgNVBAgMBkl0YWxpYTEYMBYGA1UE
CgwPRS1Wb3Rpbmcgc3lzdGVtMSIwIAYDVQQLDBlFLVZvdGluZyBzeXN0ZW0gYXV0
aG9yaXR5MSIwIAYJKoZIhvcNAQkBFhNQaWVtb250ZUBldm90aW5nLml0MB4XDTIy
MDgwMzEzMjY0MloXDTIzMDgwMzEzMjY0MlowSzEQMA4GA1UEAwwHU3BlbmNlcjEL
MAkGA1UEBhMCSVQxDzANBgNVBAgMBkl0YWxpYTEZMBcGA1UECgwQUmVnaW9uZSBQ
aWVtb250ZTBZMBMGByqGSM49AgEGCCqGSM49AwEHA0IABKkP0zENx2U/eXD6R+gF
TRogsCCYUAVOfNVVEvb4K8VlsdzJgHzd+AFV9AmNfmrBBJm6DlhT7nZFr6bzlEJH
zvmjIzAhMA4GA1UdDwEB/wQEAwIFoDAPBgNVHRMBAf8EBTADAgEDMAoGCCqGSM49
BAMCA0kAMEYCIQCjpd7ysAZ/Igz9B8JfzngG1SiQbqynyU+J3nLNOGaG5QIhAJcD
KAJxOr9+DAEB8git1K15qtQAADMkfAc4q6lFehcY
-----END CERTIFICATE-----
