Certificate:
    Data:
        Version: 3 (0x2)
        Serial Number: 20 (0x14)
        Signature Algorithm: ecdsa-with-SHA256
        Issuer: CN=Regione Friuli_Venezia_Giulia, C=IT, ST=Italia, O=E-Voting system, OU=E-Voting system authority/emailAddress=Friuli_Venezia_Giulia@evoting.it
        Validity
            Not Before: Aug  3 13:26:46 2022 GMT
            Not After : Aug  3 13:26:46 2023 GMT
        Subject: CN=Stacie, C=IT, ST=Italia, O=Regione Friuli_Venezia_Giulia
        Subject Public Key Info:
            Public Key Algorithm: id-ecPublicKey
                Public-Key: (256 bit)
                pub:
                    04:90:a9:c2:63:01:48:21:f2:a5:96:49:64:bb:5c:
                    c3:a4:3b:7d:13:0f:9a:56:72:3e:eb:9f:16:41:45:
                    45:0d:d2:cb:72:34:09:80:34:6c:1d:11:d2:db:45:
                    23:40:5a:58:b0:d6:3c:ad:7c:89:64:b9:79:f6:fd:
                    40:46:dc:07:30
                ASN1 OID: prime256v1
                NIST CURVE: P-256
        X509v3 extensions:
            X509v3 Key Usage: critical
                Digital Signature, Key Encipherment
            X509v3 Basic Constraints: critical
                CA:FALSE, pathlen:3
    Signature Algorithm: ecdsa-with-SHA256
         30:46:02:21:00:c0:54:6e:63:d6:b8:96:ac:26:81:ae:9c:d4:
         8b:a2:76:44:9d:37:f8:ae:30:ab:95:c2:21:63:3e:2b:15:f8:
         b4:02:21:00:a2:e1:c5:ae:7c:10:cb:72:28:96:b5:36:4f:ed:
         83:f4:69:a0:aa:9d:4e:e0:ad:68:55:68:73:75:90:8d:ee:97
-----BEGIN CERTIFICATE-----
MIICIDCCAcWgAwIBAgIBFDAKBggqhkjOPQQDAjCBtTEmMCQGA1UEAwwdUmVnaW9u
ZSBGcml1bGlfVmVuZXppYV9HaXVsaWExCzAJBgNVBAYTAklUMQ8wDQYDVQQIDAZJ
dGFsaWExGDAWBgNVBAoMD0UtVm90aW5nIHN5c3RlbTEiMCAGA1UECwwZRS1Wb3Rp
bmcgc3lzdGVtIGF1dGhvcml0eTEvMC0GCSqGSIb3DQEJARYgRnJpdWxpX1ZlbmV6
aWFfR2l1bGlhQGV2b3RpbmcuaXQwHhcNMjIwODAzMTMyNjQ2WhcNMjMwODAzMTMy
NjQ2WjBXMQ8wDQYDVQQDDAZTdGFjaWUxCzAJBgNVBAYTAklUMQ8wDQYDVQQIDAZJ
dGFsaWExJjAkBgNVBAoMHVJlZ2lvbmUgRnJpdWxpX1ZlbmV6aWFfR2l1bGlhMFkw
EwYHKoZIzj0CAQYIKoZIzj0DAQcDQgAEkKnCYwFIIfKllklku1zDpDt9Ew+aVnI+
658WQUVFDdLLcjQJgDRsHRHS20UjQFpYsNY8rXyJZLl59v1ARtwHMKMjMCEwDgYD
VR0PAQH/BAQDAgWgMA8GA1UdEwEB/wQFMAMCAQMwCgYIKoZIzj0EAwIDSQAwRgIh
AMBUbmPWuJasJoGunNSLonZEnTf4rjCrlcIhYz4rFfi0AiEAouHFrnwQy3IolrU2
T+2D9Gmgqp1O4K1oVWhzdZCN7pc=
-----END CERTIFICATE-----
