Certificate:
    Data:
        Version: 3 (0x2)
        Serial Number: 37 (0x25)
        Signature Algorithm: ecdsa-with-SHA256
        Issuer: CN=Regione Sardegna, C=IT, ST=Italia, O=E-Voting system, OU=E-Voting system authority/emailAddress=Sardegna@evoting.it
        Validity
            Not Before: Aug 26 15:21:09 2022 GMT
            Not After : Aug 26 15:21:09 2023 GMT
        Subject: CN=Stacy, C=IT, ST=Italia, O=Regione Sardegna
        Subject Public Key Info:
            Public Key Algorithm: id-ecPublicKey
                Public-Key: (256 bit)
                pub:
                    04:41:30:4a:b7:7c:1b:b9:50:dd:eb:4d:97:ef:ad:
                    56:60:8d:13:b6:61:89:72:d2:79:f8:d7:8b:c6:43:
                    1a:5e:e6:6b:07:8f:56:a2:f4:c0:42:7a:f9:9c:43:
                    00:92:8a:c3:d2:37:83:c3:32:7f:e2:90:33:45:a8:
                    a5:11:9f:ab:f4
                ASN1 OID: secp256k1
        X509v3 extensions:
            X509v3 Key Usage: critical
                Digital Signature, Key Encipherment
            X509v3 Basic Constraints: critical
                CA:FALSE, pathlen:3
    Signature Algorithm: ecdsa-with-SHA256
         30:45:02:20:2a:6a:52:6e:c2:6e:82:ec:a8:e6:7d:d0:45:95:
         60:8d:e0:0a:2c:88:e2:86:ba:3f:33:55:96:d7:46:d7:a7:6b:
         02:21:00:d2:48:39:57:2d:49:76:7c:10:64:4c:f3:ad:dc:fc:
         87:43:a8:06:86:b2:10:ea:b1:b7:e5:c9:63:80:24:30:a7
-----BEGIN CERTIFICATE-----
MIIB9DCCAZqgAwIBAgIBJTAKBggqhkjOPQQDAjCBmzEZMBcGA1UEAwwQUmVnaW9u
ZSBTYXJkZWduYTELMAkGA1UEBhMCSVQxDzANBgNVBAgMBkl0YWxpYTEYMBYGA1UE
CgwPRS1Wb3Rpbmcgc3lzdGVtMSIwIAYDVQQLDBlFLVZvdGluZyBzeXN0ZW0gYXV0
aG9yaXR5MSIwIAYJKoZIhvcNAQkBFhNTYXJkZWduYUBldm90aW5nLml0MB4XDTIy
MDgyNjE1MjEwOVoXDTIzMDgyNjE1MjEwOVowSTEOMAwGA1UEAwwFU3RhY3kxCzAJ
BgNVBAYTAklUMQ8wDQYDVQQIDAZJdGFsaWExGTAXBgNVBAoMEFJlZ2lvbmUgU2Fy
ZGVnbmEwVjAQBgcqhkjOPQIBBgUrgQQACgNCAARBMEq3fBu5UN3rTZfvrVZgjRO2
YYly0nn414vGQxpe5msHj1ai9MBCevmcQwCSisPSN4PDMn/ikDNFqKURn6v0oyMw
ITAOBgNVHQ8BAf8EBAMCBaAwDwYDVR0TAQH/BAUwAwIBAzAKBggqhkjOPQQDAgNI
ADBFAiAqalJuwm6C7KjmfdBFlWCN4AosiOKGuj8zVZbXRtenawIhANJIOVctSXZ8
EGRM863c/IdDqAaGshDqsbflyWOAJDCn
-----END CERTIFICATE-----
