Certificate:
    Data:
        Version: 3 (0x2)
        Serial Number: 22 (0x16)
        Signature Algorithm: ecdsa-with-SHA256
        Issuer: CN=Regione Toscana, C=IT, ST=Italia, O=E-Voting system, OU=E-Voting system authority/emailAddress=Toscana@evoting.it
        Validity
            Not Before: Aug 26 15:20:03 2022 GMT
            Not After : Aug 26 15:20:03 2023 GMT
        Subject: CN=Stacey, C=IT, ST=Italia, O=Regione Toscana
        Subject Public Key Info:
            Public Key Algorithm: id-ecPublicKey
                Public-Key: (256 bit)
                pub:
                    04:31:10:a6:72:1f:de:9b:45:95:5b:50:0e:38:92:
                    ce:0f:f6:02:1b:3e:32:79:96:23:d0:66:28:a9:57:
                    7d:cb:df:8f:1d:95:95:49:0f:24:f4:f8:b1:de:40:
                    80:13:61:ef:2c:21:73:ac:ad:ca:58:0e:e2:e5:03:
                    ef:70:d6:04:4d
                ASN1 OID: secp256k1
        X509v3 extensions:
            X509v3 Key Usage: critical
                Digital Signature, Key Encipherment
            X509v3 Basic Constraints: critical
                CA:FALSE, pathlen:3
    Signature Algorithm: ecdsa-with-SHA256
         30:45:02:21:00:cb:24:80:73:b1:da:c0:bd:b2:b5:96:b0:93:
         c4:a9:3e:f0:ea:e6:33:49:6b:83:bd:3e:9e:92:8d:06:e5:3e:
         b6:02:20:09:39:62:d2:25:b5:71:80:26:72:31:c5:d7:81:39:
         f2:fc:2a:fc:8b:54:c8:60:e8:d4:a2:ac:4b:79:7f:9a:61
-----BEGIN CERTIFICATE-----
MIIB8jCCAZigAwIBAgIBFjAKBggqhkjOPQQDAjCBmTEYMBYGA1UEAwwPUmVnaW9u
ZSBUb3NjYW5hMQswCQYDVQQGEwJJVDEPMA0GA1UECAwGSXRhbGlhMRgwFgYDVQQK
DA9FLVZvdGluZyBzeXN0ZW0xIjAgBgNVBAsMGUUtVm90aW5nIHN5c3RlbSBhdXRo
b3JpdHkxITAfBgkqhkiG9w0BCQEWElRvc2NhbmFAZXZvdGluZy5pdDAeFw0yMjA4
MjYxNTIwMDNaFw0yMzA4MjYxNTIwMDNaMEkxDzANBgNVBAMMBlN0YWNleTELMAkG
A1UEBhMCSVQxDzANBgNVBAgMBkl0YWxpYTEYMBYGA1UECgwPUmVnaW9uZSBUb3Nj
YW5hMFYwEAYHKoZIzj0CAQYFK4EEAAoDQgAEMRCmch/em0WVW1AOOJLOD/YCGz4y
eZYj0GYoqVd9y9+PHZWVSQ8k9Pix3kCAE2HvLCFzrK3KWA7i5QPvcNYETaMjMCEw
DgYDVR0PAQH/BAQDAgWgMA8GA1UdEwEB/wQFMAMCAQMwCgYIKoZIzj0EAwIDSAAw
RQIhAMskgHOx2sC9srWWsJPEqT7w6uYzSWuDvT6eko0G5T62AiAJOWLSJbVxgCZy
McXXgTny/Cr8i1TIYOjUoqxLeX+aYQ==
-----END CERTIFICATE-----
