Certificate:
    Data:
        Version: 3 (0x2)
        Serial Number: 51 (0x33)
        Signature Algorithm: ecdsa-with-SHA256
        Issuer: CN=Regione Lombardia, C=IT, ST=Italia, O=E-Voting system, OU=E-Voting system authority/emailAddress=Lombardia@evoting.it
        Validity
            Not Before: Aug  3 13:28:39 2022 GMT
            Not After : Aug  3 13:28:39 2023 GMT
        Subject: CN=Stanley, C=IT, ST=Italia, O=Regione Lombardia
        Subject Public Key Info:
            Public Key Algorithm: id-ecPublicKey
                Public-Key: (256 bit)
                pub:
                    04:a8:53:2e:86:fa:95:e7:1f:d3:3e:30:6f:90:65:
                    f6:b6:53:24:d8:e6:fc:f5:c9:b9:4d:dc:1c:b0:cb:
                    5e:f3:1d:a7:2d:4f:e2:2e:97:8b:00:6d:c8:07:5e:
                    ed:a7:95:77:d5:65:28:7a:9e:5a:2f:74:d3:4d:c8:
                    62:81:36:cb:66
                ASN1 OID: prime256v1
                NIST CURVE: P-256
        X509v3 extensions:
            X509v3 Key Usage: critical
                Digital Signature, Key Encipherment
            X509v3 Basic Constraints: critical
                CA:FALSE, pathlen:3
    Signature Algorithm: ecdsa-with-SHA256
         30:45:02:20:2e:54:3e:5d:f8:0d:4e:ef:f5:35:b5:74:0e:47:
         b5:78:79:5c:ed:94:c6:48:77:2b:86:23:29:c8:a1:d3:19:1e:
         02:21:00:cd:ab:41:30:5d:13:0d:41:8e:2a:ce:b1:89:d8:89:
         09:8f:8a:bd:97:46:c7:65:a2:d4:13:6e:1e:cb:54:7a:b2
-----BEGIN CERTIFICATE-----
MIIB/DCCAaKgAwIBAgIBMzAKBggqhkjOPQQDAjCBnTEaMBgGA1UEAwwRUmVnaW9u
ZSBMb21iYXJkaWExCzAJBgNVBAYTAklUMQ8wDQYDVQQIDAZJdGFsaWExGDAWBgNV
BAoMD0UtVm90aW5nIHN5c3RlbTEiMCAGA1UECwwZRS1Wb3Rpbmcgc3lzdGVtIGF1
dGhvcml0eTEjMCEGCSqGSIb3DQEJARYUTG9tYmFyZGlhQGV2b3RpbmcuaXQwHhcN
MjIwODAzMTMyODM5WhcNMjMwODAzMTMyODM5WjBMMRAwDgYDVQQDDAdTdGFubGV5
MQswCQYDVQQGEwJJVDEPMA0GA1UECAwGSXRhbGlhMRowGAYDVQQKDBFSZWdpb25l
IExvbWJhcmRpYTBZMBMGByqGSM49AgEGCCqGSM49AwEHA0IABKhTLob6lecf0z4w
b5Bl9rZTJNjm/PXJuU3cHLDLXvMdpy1P4i6XiwBtyAde7aeVd9VlKHqeWi90003I
YoE2y2ajIzAhMA4GA1UdDwEB/wQEAwIFoDAPBgNVHRMBAf8EBTADAgEDMAoGCCqG
SM49BAMCA0gAMEUCIC5UPl34DU7v9TW1dA5HtXh5XO2Uxkh3K4YjKcih0xkeAiEA
zatBMF0TDUGOKs6xidiJCY+KvZdGx2Wi1BNuHstUerI=
-----END CERTIFICATE-----
