Certificate:
    Data:
        Version: 3 (0x2)
        Serial Number: 35 (0x23)
        Signature Algorithm: ecdsa-with-SHA256
        Issuer: CN=Regione Veneto, C=IT, ST=Italia, O=E-Voting system, OU=E-Voting system authority/emailAddress=Veneto@evoting.it
        Validity
            Not Before: Aug  3 13:27:47 2022 GMT
            Not After : Aug  3 13:27:47 2023 GMT
        Subject: CN=Stella, C=IT, ST=Italia, O=Regione Veneto
        Subject Public Key Info:
            Public Key Algorithm: id-ecPublicKey
                Public-Key: (256 bit)
                pub:
                    04:1f:95:f8:9f:68:1d:2e:22:ba:7d:1a:ae:7b:45:
                    50:f8:90:f7:4b:73:23:57:3c:64:83:9e:93:37:f3:
                    10:d4:be:71:74:14:b5:62:d4:62:1e:76:8e:4c:22:
                    11:c6:cd:a2:22:cc:e6:be:f5:e4:55:fa:f3:2f:b2:
                    b2:be:66:9f:9a
                ASN1 OID: prime256v1
                NIST CURVE: P-256
        X509v3 extensions:
            X509v3 Key Usage: critical
                Digital Signature, Key Encipherment
            X509v3 Basic Constraints: critical
                CA:FALSE, pathlen:3
    Signature Algorithm: ecdsa-with-SHA256
         30:45:02:20:4e:4e:87:29:53:cd:02:88:00:86:94:9a:94:ff:
         fd:bd:0b:ae:b5:30:22:81:35:40:08:49:23:43:a8:43:1c:30:
         02:21:00:f3:ce:0f:56:f4:69:68:b5:29:a8:f7:b6:16:ba:48:
         d5:50:0f:62:f7:d9:10:a6:5b:ce:9b:f2:82:85:76:58:9b
-----BEGIN CERTIFICATE-----
MIIB8jCCAZigAwIBAgIBIzAKBggqhkjOPQQDAjCBlzEXMBUGA1UEAwwOUmVnaW9u
ZSBWZW5ldG8xCzAJBgNVBAYTAklUMQ8wDQYDVQQIDAZJdGFsaWExGDAWBgNVBAoM
D0UtVm90aW5nIHN5c3RlbTEiMCAGA1UECwwZRS1Wb3Rpbmcgc3lzdGVtIGF1dGhv
cml0eTEgMB4GCSqGSIb3DQEJARYRVmVuZXRvQGV2b3RpbmcuaXQwHhcNMjIwODAz
MTMyNzQ3WhcNMjMwODAzMTMyNzQ3WjBIMQ8wDQYDVQQDDAZTdGVsbGExCzAJBgNV
BAYTAklUMQ8wDQYDVQQIDAZJdGFsaWExFzAVBgNVBAoMDlJlZ2lvbmUgVmVuZXRv
MFkwEwYHKoZIzj0CAQYIKoZIzj0DAQcDQgAEH5X4n2gdLiK6fRque0VQ+JD3S3Mj
Vzxkg56TN/MQ1L5xdBS1YtRiHnaOTCIRxs2iIszmvvXkVfrzL7KyvmafmqMjMCEw
DgYDVR0PAQH/BAQDAgWgMA8GA1UdEwEB/wQFMAMCAQMwCgYIKoZIzj0EAwIDSAAw
RQIgTk6HKVPNAogAhpSalP/9vQuutTAigTVACEkjQ6hDHDACIQDzzg9W9GlotSmo
97YWukjVUA9i99kQplvOm/KChXZYmw==
-----END CERTIFICATE-----
