Certificate:
    Data:
        Version: 3 (0x2)
        Serial Number: 55 (0x37)
        Signature Algorithm: ecdsa-with-SHA256
        Issuer: CN=Regione Calabria, C=IT, ST=Italia, O=E-Voting system, OU=E-Voting system authority/emailAddress=Calabria@evoting.it
        Validity
            Not Before: Aug  3 13:28:36 2022 GMT
            Not After : Aug  3 13:28:36 2023 GMT
        Subject: CN=Stephen, C=IT, ST=Italia, O=Regione Calabria
        Subject Public Key Info:
            Public Key Algorithm: id-ecPublicKey
                Public-Key: (256 bit)
                pub:
                    04:ee:b8:55:3a:02:9e:81:fc:38:b4:3f:1e:a6:7e:
                    16:88:61:9a:a9:95:df:d4:6f:85:4b:65:bc:e6:1a:
                    bd:10:b7:9e:73:6a:8a:35:c3:e8:5b:ce:b4:fe:bb:
                    24:4e:8a:9f:87:0c:03:11:63:6c:34:f4:ef:93:0f:
                    30:81:8f:24:64
                ASN1 OID: prime256v1
                NIST CURVE: P-256
        X509v3 extensions:
            X509v3 Key Usage: critical
                Digital Signature, Key Encipherment
            X509v3 Basic Constraints: critical
                CA:FALSE, pathlen:3
    Signature Algorithm: ecdsa-with-SHA256
         30:44:02:20:4e:da:94:db:c5:6a:79:16:2a:ec:99:50:70:8d:
         f7:44:85:55:7e:a1:d0:19:f5:76:52:b0:56:54:20:93:3d:43:
         02:20:2f:ad:71:6f:af:98:63:68:3c:a5:e5:cc:35:81:50:c4:
         9c:79:39:77:15:dd:19:38:f8:e5:ce:f1:49:78:c0:cc
-----BEGIN CERTIFICATE-----
MIIB+DCCAZ+gAwIBAgIBNzAKBggqhkjOPQQDAjCBmzEZMBcGA1UEAwwQUmVnaW9u
ZSBDYWxhYnJpYTELMAkGA1UEBhMCSVQxDzANBgNVBAgMBkl0YWxpYTEYMBYGA1UE
CgwPRS1Wb3Rpbmcgc3lzdGVtMSIwIAYDVQQLDBlFLVZvdGluZyBzeXN0ZW0gYXV0
aG9yaXR5MSIwIAYJKoZIhvcNAQkBFhNDYWxhYnJpYUBldm90aW5nLml0MB4XDTIy
MDgwMzEzMjgzNloXDTIzMDgwMzEzMjgzNlowSzEQMA4GA1UEAwwHU3RlcGhlbjEL
MAkGA1UEBhMCSVQxDzANBgNVBAgMBkl0YWxpYTEZMBcGA1UECgwQUmVnaW9uZSBD
YWxhYnJpYTBZMBMGByqGSM49AgEGCCqGSM49AwEHA0IABO64VToCnoH8OLQ/HqZ+
FohhmqmV39RvhUtlvOYavRC3nnNqijXD6FvOtP67JE6Kn4cMAxFjbDT075MPMIGP
JGSjIzAhMA4GA1UdDwEB/wQEAwIFoDAPBgNVHRMBAf8EBTADAgEDMAoGCCqGSM49
BAMCA0cAMEQCIE7alNvFankWKuyZUHCN90SFVX6h0Bn1dlKwVlQgkz1DAiAvrXFv
r5hjaDyl5cw1gVDEnHk5dxXdGTj45c7xSXjAzA==
-----END CERTIFICATE-----
