Certificate:
    Data:
        Version: 3 (0x2)
        Serial Number: 27 (0x1b)
        Signature Algorithm: ecdsa-with-SHA256
        Issuer: CN=Regione Campania, C=IT, ST=Italia, O=E-Voting system, OU=E-Voting system authority/emailAddress=Campania@evoting.it
        Validity
            Not Before: Aug 26 15:20:17 2022 GMT
            Not After : Aug 26 15:20:17 2023 GMT
        Subject: CN=Steve, C=IT, ST=Italia, O=Regione Campania
        Subject Public Key Info:
            Public Key Algorithm: id-ecPublicKey
                Public-Key: (256 bit)
                pub:
                    04:7c:04:fb:e9:8f:e3:b2:d0:0b:35:a6:88:a1:3f:
                    83:20:23:5b:e0:4b:a2:4d:10:a3:66:76:b9:b4:f5:
                    4f:e7:ca:e4:21:9d:b1:13:08:a7:a1:4a:8f:93:d5:
                    d7:fe:97:8b:e5:88:05:82:e1:b8:d0:9d:62:50:ab:
                    00:c9:c9:13:8c
                ASN1 OID: secp256k1
        X509v3 extensions:
            X509v3 Key Usage: critical
                Digital Signature, Key Encipherment
            X509v3 Basic Constraints: critical
                CA:FALSE, pathlen:3
    Signature Algorithm: ecdsa-with-SHA256
         30:45:02:21:00:ed:94:9d:79:fc:24:b8:68:d3:9d:0d:87:24:
         01:08:9c:b0:ca:fc:d1:63:30:1f:2f:88:fb:03:69:00:32:33:
         a3:02:20:30:26:b9:91:7d:a1:be:7a:00:ae:61:cf:e4:8b:24:
         f5:25:45:2b:66:70:44:a4:c7:6b:0e:93:59:c3:63:b0:65
-----BEGIN CERTIFICATE-----
MIIB9DCCAZqgAwIBAgIBGzAKBggqhkjOPQQDAjCBmzEZMBcGA1UEAwwQUmVnaW9u
ZSBDYW1wYW5pYTELMAkGA1UEBhMCSVQxDzANBgNVBAgMBkl0YWxpYTEYMBYGA1UE
CgwPRS1Wb3Rpbmcgc3lzdGVtMSIwIAYDVQQLDBlFLVZvdGluZyBzeXN0ZW0gYXV0
aG9yaXR5MSIwIAYJKoZIhvcNAQkBFhNDYW1wYW5pYUBldm90aW5nLml0MB4XDTIy
MDgyNjE1MjAxN1oXDTIzMDgyNjE1MjAxN1owSTEOMAwGA1UEAwwFU3RldmUxCzAJ
BgNVBAYTAklUMQ8wDQYDVQQIDAZJdGFsaWExGTAXBgNVBAoMEFJlZ2lvbmUgQ2Ft
cGFuaWEwVjAQBgcqhkjOPQIBBgUrgQQACgNCAAR8BPvpj+Oy0As1poihP4MgI1vg
S6JNEKNmdrm09U/nyuQhnbETCKehSo+T1df+l4vliAWC4bjQnWJQqwDJyROMoyMw
ITAOBgNVHQ8BAf8EBAMCBaAwDwYDVR0TAQH/BAUwAwIBAzAKBggqhkjOPQQDAgNI
ADBFAiEA7ZSdefwkuGjTnQ2HJAEInLDK/NFjMB8viPsDaQAyM6MCIDAmuZF9ob56
AK5hz+SLJPUlRStmcESkx2sOk1nDY7Bl
-----END CERTIFICATE-----
