Certificate:
    Data:
        Version: 3 (0x2)
        Serial Number: 14 (0xe)
        Signature Algorithm: ecdsa-with-SHA256
        Issuer: CN=Regione Calabria, C=IT, ST=Italia, O=E-Voting system, OU=E-Voting system authority/emailAddress=Calabria@evoting.it
        Validity
            Not Before: Aug 26 15:19:30 2022 GMT
            Not After : Aug 26 15:19:30 2023 GMT
        Subject: CN=Steven, C=IT, ST=Italia, O=Regione Calabria
        Subject Public Key Info:
            Public Key Algorithm: id-ecPublicKey
                Public-Key: (256 bit)
                pub:
                    04:df:a8:16:ff:87:1d:bb:f9:ca:24:38:d6:53:22:
                    ea:ab:5c:3a:1f:87:76:ea:28:08:45:2c:e8:23:a7:
                    b3:43:a9:ad:18:1b:c3:a1:e9:31:b8:a5:22:68:8d:
                    52:75:06:98:9a:ff:b9:45:64:83:9f:42:44:c9:d8:
                    13:5c:2f:3d:66
                ASN1 OID: secp256k1
        X509v3 extensions:
            X509v3 Key Usage: critical
                Digital Signature, Key Encipherment
            X509v3 Basic Constraints: critical
                CA:FALSE, pathlen:3
    Signature Algorithm: ecdsa-with-SHA256
         30:45:02:21:00:df:3c:8c:40:68:37:d4:5b:0a:98:2d:7b:fb:
         f2:b0:e9:cb:a1:bd:3f:c1:e3:68:ae:fa:7f:3d:92:b2:d1:33:
         f7:02:20:2a:75:0d:fe:4a:a2:74:ea:c5:43:e3:83:19:a2:89:
         11:90:14:f4:3a:16:76:4e:74:f3:fd:fc:1e:0d:7c:14:21
-----BEGIN CERTIFICATE-----
MIIB9TCCAZugAwIBAgIBDjAKBggqhkjOPQQDAjCBmzEZMBcGA1UEAwwQUmVnaW9u
ZSBDYWxhYnJpYTELMAkGA1UEBhMCSVQxDzANBgNVBAgMBkl0YWxpYTEYMBYGA1UE
CgwPRS1Wb3Rpbmcgc3lzdGVtMSIwIAYDVQQLDBlFLVZvdGluZyBzeXN0ZW0gYXV0
aG9yaXR5MSIwIAYJKoZIhvcNAQkBFhNDYWxhYnJpYUBldm90aW5nLml0MB4XDTIy
MDgyNjE1MTkzMFoXDTIzMDgyNjE1MTkzMFowSjEPMA0GA1UEAwwGU3RldmVuMQsw
CQYDVQQGEwJJVDEPMA0GA1UECAwGSXRhbGlhMRkwFwYDVQQKDBBSZWdpb25lIENh
bGFicmlhMFYwEAYHKoZIzj0CAQYFK4EEAAoDQgAE36gW/4cdu/nKJDjWUyLqq1w6
H4d26igIRSzoI6ezQ6mtGBvDoekxuKUiaI1SdQaYmv+5RWSDn0JEydgTXC89ZqMj
MCEwDgYDVR0PAQH/BAQDAgWgMA8GA1UdEwEB/wQFMAMCAQMwCgYIKoZIzj0EAwID
SAAwRQIhAN88jEBoN9RbCpgte/vysOnLob0/weNorvp/PZKy0TP3AiAqdQ3+SqJ0
6sVD44MZookRkBT0OhZ2TnTz/fweDXwUIQ==
-----END CERTIFICATE-----
