Certificate:
    Data:
        Version: 3 (0x2)
        Serial Number: 38 (0x26)
        Signature Algorithm: ecdsa-with-SHA256
        Issuer: CN=Regione Friuli_Venezia_Giulia, C=IT, ST=Italia, O=E-Voting system, OU=E-Voting system authority/emailAddress=Friuli_Venezia_Giulia@evoting.it
        Validity
            Not Before: Aug 26 15:21:16 2022 GMT
            Not After : Aug 26 15:21:16 2023 GMT
        Subject: CN=Stuart, C=IT, ST=Italia, O=Regione Friuli_Venezia_Giulia
        Subject Public Key Info:
            Public Key Algorithm: id-ecPublicKey
                Public-Key: (256 bit)
                pub:
                    04:86:57:8f:a8:3d:88:e6:0a:28:ec:6d:d1:46:db:
                    b6:af:42:fa:2a:5b:27:0d:f5:b3:9a:35:94:c0:98:
                    fc:2d:0d:c5:14:2c:96:a4:2f:d1:12:b0:d5:2b:dc:
                    8d:24:30:e0:0a:29:8e:51:32:4c:2c:7a:5e:d0:56:
                    02:9e:17:b9:92
                ASN1 OID: secp256k1
        X509v3 extensions:
            X509v3 Key Usage: critical
                Digital Signature, Key Encipherment
            X509v3 Basic Constraints: critical
                CA:FALSE, pathlen:3
    Signature Algorithm: ecdsa-with-SHA256
         30:45:02:20:6f:07:a4:ad:57:81:d4:cf:a7:e4:5d:c4:64:b6:
         17:04:3e:22:7a:6c:96:c7:3b:77:19:4b:6c:a8:31:64:1c:8a:
         02:21:00:cc:7f:b6:b9:f9:85:6f:1a:b2:c1:b5:cc:20:c7:03:
         49:f9:ab:43:94:fb:56:7b:89:91:33:b8:57:c0:46:a2:15
-----BEGIN CERTIFICATE-----
MIICHDCCAcKgAwIBAgIBJjAKBggqhkjOPQQDAjCBtTEmMCQGA1UEAwwdUmVnaW9u
ZSBGcml1bGlfVmVuZXppYV9HaXVsaWExCzAJBgNVBAYTAklUMQ8wDQYDVQQIDAZJ
dGFsaWExGDAWBgNVBAoMD0UtVm90aW5nIHN5c3RlbTEiMCAGA1UECwwZRS1Wb3Rp
bmcgc3lzdGVtIGF1dGhvcml0eTEvMC0GCSqGSIb3DQEJARYgRnJpdWxpX1ZlbmV6
aWFfR2l1bGlhQGV2b3RpbmcuaXQwHhcNMjIwODI2MTUyMTE2WhcNMjMwODI2MTUy
MTE2WjBXMQ8wDQYDVQQDDAZTdHVhcnQxCzAJBgNVBAYTAklUMQ8wDQYDVQQIDAZJ
dGFsaWExJjAkBgNVBAoMHVJlZ2lvbmUgRnJpdWxpX1ZlbmV6aWFfR2l1bGlhMFYw
EAYHKoZIzj0CAQYFK4EEAAoDQgAEhlePqD2I5goo7G3RRtu2r0L6KlsnDfWzmjWU
wJj8LQ3FFCyWpC/RErDVK9yNJDDgCimOUTJMLHpe0FYCnhe5kqMjMCEwDgYDVR0P
AQH/BAQDAgWgMA8GA1UdEwEB/wQFMAMCAQMwCgYIKoZIzj0EAwIDSAAwRQIgbwek
rVeB1M+n5F3EZLYXBD4iemyWxzt3GUtsqDFkHIoCIQDMf7a5+YVvGrLBtcwgxwNJ
+atDlPtWe4mRM7hXwEaiFQ==
-----END CERTIFICATE-----
