Certificate:
    Data:
        Version: 3 (0x2)
        Serial Number: 34 (0x22)
        Signature Algorithm: ecdsa-with-SHA256
        Issuer: CN=Regione Liguria, C=IT, ST=Italia, O=E-Voting system, OU=E-Voting system authority/emailAddress=Liguria@evoting.it
        Validity
            Not Before: Aug  3 13:27:22 2022 GMT
            Not After : Aug  3 13:27:22 2023 GMT
        Subject: CN=Su, C=IT, ST=Italia, O=Regione Liguria
        Subject Public Key Info:
            Public Key Algorithm: id-ecPublicKey
                Public-Key: (256 bit)
                pub:
                    04:e9:59:8a:e3:2b:ac:fb:0b:95:f8:9f:2a:86:62:
                    39:9d:47:83:f7:a5:1f:90:59:db:d8:dd:28:46:97:
                    8e:dd:ec:38:fb:35:03:57:86:d3:21:f4:db:1b:48:
                    87:2c:3d:b3:6b:2a:0a:e6:fd:00:50:31:a1:63:a3:
                    2d:1b:b6:1e:43
                ASN1 OID: prime256v1
                NIST CURVE: P-256
        X509v3 extensions:
            X509v3 Key Usage: critical
                Digital Signature, Key Encipherment
            X509v3 Basic Constraints: critical
                CA:FALSE, pathlen:3
    Signature Algorithm: ecdsa-with-SHA256
         30:45:02:21:00:9d:ff:3e:3c:7b:ed:8e:60:34:5b:23:b8:18:
         b7:3b:3a:04:76:df:15:d8:85:ea:00:69:1f:97:46:22:a9:bd:
         c4:02:20:37:5e:81:6c:5e:e3:20:b5:4f:a7:b3:e5:5b:1e:e9:
         a7:70:58:05:f0:fe:e0:73:fd:51:a9:58:3f:16:80:2a:65
-----BEGIN CERTIFICATE-----
MIIB8TCCAZegAwIBAgIBIjAKBggqhkjOPQQDAjCBmTEYMBYGA1UEAwwPUmVnaW9u
ZSBMaWd1cmlhMQswCQYDVQQGEwJJVDEPMA0GA1UECAwGSXRhbGlhMRgwFgYDVQQK
DA9FLVZvdGluZyBzeXN0ZW0xIjAgBgNVBAsMGUUtVm90aW5nIHN5c3RlbSBhdXRo
b3JpdHkxITAfBgkqhkiG9w0BCQEWEkxpZ3VyaWFAZXZvdGluZy5pdDAeFw0yMjA4
MDMxMzI3MjJaFw0yMzA4MDMxMzI3MjJaMEUxCzAJBgNVBAMMAlN1MQswCQYDVQQG
EwJJVDEPMA0GA1UECAwGSXRhbGlhMRgwFgYDVQQKDA9SZWdpb25lIExpZ3VyaWEw
WTATBgcqhkjOPQIBBggqhkjOPQMBBwNCAATpWYrjK6z7C5X4nyqGYjmdR4P3pR+Q
WdvY3ShGl47d7Dj7NQNXhtMh9NsbSIcsPbNrKgrm/QBQMaFjoy0bth5DoyMwITAO
BgNVHQ8BAf8EBAMCBaAwDwYDVR0TAQH/BAUwAwIBAzAKBggqhkjOPQQDAgNIADBF
AiEAnf8+PHvtjmA0WyO4GLc7OgR23xXYheoAaR+XRiKpvcQCIDdegWxe4yC1T6ez
5Vse6adwWAXw/uBz/VGpWD8WgCpl
-----END CERTIFICATE-----
