Certificate:
    Data:
        Version: 3 (0x2)
        Serial Number: 10 (0xa)
        Signature Algorithm: ecdsa-with-SHA256
        Issuer: CN=Regione Piemonte, C=IT, ST=Italia, O=E-Voting system, OU=E-Voting system authority/emailAddress=Piemonte@evoting.it
        Validity
            Not Before: Aug 26 15:18:59 2022 GMT
            Not After : Aug 26 15:18:59 2023 GMT
        Subject: CN=Susanna, C=IT, ST=Italia, O=Regione Piemonte
        Subject Public Key Info:
            Public Key Algorithm: id-ecPublicKey
                Public-Key: (256 bit)
                pub:
                    04:d9:0c:df:4b:4c:69:5b:b5:df:ba:cf:09:04:cd:
                    1e:b9:4b:62:81:17:b2:3c:79:48:1c:08:22:8c:b8:
                    b9:54:b8:d3:e6:bf:54:d7:a9:d4:71:40:e6:2a:67:
                    a5:20:ec:7d:02:83:62:d5:ab:c4:52:82:f4:a9:d6:
                    53:64:b8:a8:53
                ASN1 OID: secp256k1
        X509v3 extensions:
            X509v3 Key Usage: critical
                Digital Signature, Key Encipherment
            X509v3 Basic Constraints: critical
                CA:FALSE, pathlen:3
    Signature Algorithm: ecdsa-with-SHA256
         30:45:02:21:00:dd:f1:ce:a4:61:8f:24:d2:c2:fa:ca:a0:f1:
         18:a2:ab:78:a7:d9:89:42:3f:21:7d:ba:e3:36:c7:55:dc:9b:
         89:02:20:25:44:e7:c2:37:2e:e8:9b:ff:5b:f6:aa:41:08:5e:
         f7:49:76:09:47:cb:bf:e3:47:34:8e:1c:a6:d6:18:5d:c8
-----BEGIN CERTIFICATE-----
MIIB9jCCAZygAwIBAgIBCjAKBggqhkjOPQQDAjCBmzEZMBcGA1UEAwwQUmVnaW9u
ZSBQaWVtb250ZTELMAkGA1UEBhMCSVQxDzANBgNVBAgMBkl0YWxpYTEYMBYGA1UE
CgwPRS1Wb3Rpbmcgc3lzdGVtMSIwIAYDVQQLDBlFLVZvdGluZyBzeXN0ZW0gYXV0
aG9yaXR5MSIwIAYJKoZIhvcNAQkBFhNQaWVtb250ZUBldm90aW5nLml0MB4XDTIy
MDgyNjE1MTg1OVoXDTIzMDgyNjE1MTg1OVowSzEQMA4GA1UEAwwHU3VzYW5uYTEL
MAkGA1UEBhMCSVQxDzANBgNVBAgMBkl0YWxpYTEZMBcGA1UECgwQUmVnaW9uZSBQ
aWVtb250ZTBWMBAGByqGSM49AgEGBSuBBAAKA0IABNkM30tMaVu137rPCQTNHrlL
YoEXsjx5SBwIIoy4uVS40+a/VNep1HFA5ipnpSDsfQKDYtWrxFKC9KnWU2S4qFOj
IzAhMA4GA1UdDwEB/wQEAwIFoDAPBgNVHRMBAf8EBTADAgEDMAoGCCqGSM49BAMC
A0gAMEUCIQDd8c6kYY8k0sL6yqDxGKKreKfZiUI/IX264zbHVdybiQIgJUTnwjcu
6Jv/W/aqQQhe90l2CUfLv+NHNI4cptYYXcg=
-----END CERTIFICATE-----
