Certificate:
    Data:
        Version: 3 (0x2)
        Serial Number: 40 (0x28)
        Signature Algorithm: ecdsa-with-SHA256
        Issuer: CN=Regione Lombardia, C=IT, ST=Italia, O=E-Voting system, OU=E-Voting system authority/emailAddress=Lombardia@evoting.it
        Validity
            Not Before: Aug 26 15:20:49 2022 GMT
            Not After : Aug 26 15:20:49 2023 GMT
        Subject: CN=Susan, C=IT, ST=Italia, O=Regione Lombardia
        Subject Public Key Info:
            Public Key Algorithm: id-ecPublicKey
                Public-Key: (256 bit)
                pub:
                    04:12:1f:6a:01:cf:b1:b3:5f:2a:87:04:e8:89:e1:
                    51:d9:ee:cb:34:77:b3:ce:d3:e3:22:94:95:18:bf:
                    d7:e0:b8:bf:b2:04:b9:d8:54:95:87:4e:70:38:8a:
                    95:e7:7e:e0:04:a3:a8:85:94:ed:24:38:a1:f5:58:
                    a2:1f:34:df:9f
                ASN1 OID: secp256k1
        X509v3 extensions:
            X509v3 Key Usage: critical
                Digital Signature, Key Encipherment
            X509v3 Basic Constraints: critical
                CA:FALSE, pathlen:3
    Signature Algorithm: ecdsa-with-SHA256
         30:45:02:21:00:89:66:cf:88:c6:26:af:93:08:e1:b9:85:03:
         d3:13:09:06:03:2c:06:de:e4:31:a7:aa:3b:a8:a3:ae:70:95:
         d7:02:20:38:fe:fa:16:bb:f9:7c:be:b9:42:23:92:a8:ca:14:
         4a:22:15:d2:20:16:21:58:c5:ce:d4:bb:b2:ff:df:a5:17
-----BEGIN CERTIFICATE-----
MIIB9zCCAZ2gAwIBAgIBKDAKBggqhkjOPQQDAjCBnTEaMBgGA1UEAwwRUmVnaW9u
ZSBMb21iYXJkaWExCzAJBgNVBAYTAklUMQ8wDQYDVQQIDAZJdGFsaWExGDAWBgNV
BAoMD0UtVm90aW5nIHN5c3RlbTEiMCAGA1UECwwZRS1Wb3Rpbmcgc3lzdGVtIGF1
dGhvcml0eTEjMCEGCSqGSIb3DQEJARYUTG9tYmFyZGlhQGV2b3RpbmcuaXQwHhcN
MjIwODI2MTUyMDQ5WhcNMjMwODI2MTUyMDQ5WjBKMQ4wDAYDVQQDDAVTdXNhbjEL
MAkGA1UEBhMCSVQxDzANBgNVBAgMBkl0YWxpYTEaMBgGA1UECgwRUmVnaW9uZSBM
b21iYXJkaWEwVjAQBgcqhkjOPQIBBgUrgQQACgNCAAQSH2oBz7GzXyqHBOiJ4VHZ
7ss0d7PO0+MilJUYv9fguL+yBLnYVJWHTnA4ipXnfuAEo6iFlO0kOKH1WKIfNN+f
oyMwITAOBgNVHQ8BAf8EBAMCBaAwDwYDVR0TAQH/BAUwAwIBAzAKBggqhkjOPQQD
AgNIADBFAiEAiWbPiMYmr5MI4bmFA9MTCQYDLAbe5DGnqjuoo65wldcCIDj++ha7
+Xy+uUIjkqjKFEoiFdIgFiFYxc7Uu7L/36UX
-----END CERTIFICATE-----
