Certificate:
    Data:
        Version: 3 (0x2)
        Serial Number: 47 (0x2f)
        Signature Algorithm: ecdsa-with-SHA256
        Issuer: CN=Regione Marche, C=IT, ST=Italia, O=E-Voting system, OU=E-Voting system authority/emailAddress=Marche@evoting.it
        Validity
            Not Before: Aug  3 13:28:39 2022 GMT
            Not After : Aug  3 13:28:39 2023 GMT
        Subject: CN=Susann, C=IT, ST=Italia, O=Regione Marche
        Subject Public Key Info:
            Public Key Algorithm: id-ecPublicKey
                Public-Key: (256 bit)
                pub:
                    04:12:d8:89:33:62:9c:61:c9:ca:29:cc:c2:58:33:
                    1c:cc:ff:77:5e:22:e1:49:b6:37:d8:23:b0:23:69:
                    14:b2:c1:f6:52:8a:8a:79:2d:75:94:3f:a2:c2:22:
                    f6:82:eb:d1:56:8c:67:65:24:fb:50:1d:4b:65:f1:
                    72:75:a9:1f:4a
                ASN1 OID: prime256v1
                NIST CURVE: P-256
        X509v3 extensions:
            X509v3 Key Usage: critical
                Digital Signature, Key Encipherment
            X509v3 Basic Constraints: critical
                CA:FALSE, pathlen:3
    Signature Algorithm: ecdsa-with-SHA256
         30:45:02:20:4f:68:a4:1f:3b:8e:da:a2:ef:6a:30:0b:c5:d0:
         06:fa:3c:a6:e4:1f:b6:74:9a:c4:7f:e0:cc:b6:25:43:d2:58:
         02:21:00:a6:0b:54:38:10:1a:86:3b:76:80:32:b3:26:ed:00:
         29:1e:f5:b0:2a:17:0e:d1:ce:7b:d4:cb:cf:91:d4:61:e2
-----BEGIN CERTIFICATE-----
MIIB8jCCAZigAwIBAgIBLzAKBggqhkjOPQQDAjCBlzEXMBUGA1UEAwwOUmVnaW9u
ZSBNYXJjaGUxCzAJBgNVBAYTAklUMQ8wDQYDVQQIDAZJdGFsaWExGDAWBgNVBAoM
D0UtVm90aW5nIHN5c3RlbTEiMCAGA1UECwwZRS1Wb3Rpbmcgc3lzdGVtIGF1dGhv
cml0eTEgMB4GCSqGSIb3DQEJARYRTWFyY2hlQGV2b3RpbmcuaXQwHhcNMjIwODAz
MTMyODM5WhcNMjMwODAzMTMyODM5WjBIMQ8wDQYDVQQDDAZTdXNhbm4xCzAJBgNV
BAYTAklUMQ8wDQYDVQQIDAZJdGFsaWExFzAVBgNVBAoMDlJlZ2lvbmUgTWFyY2hl
MFkwEwYHKoZIzj0CAQYIKoZIzj0DAQcDQgAEEtiJM2KcYcnKKczCWDMczP93XiLh
SbY32COwI2kUssH2UoqKeS11lD+iwiL2guvRVoxnZST7UB1LZfFydakfSqMjMCEw
DgYDVR0PAQH/BAQDAgWgMA8GA1UdEwEB/wQFMAMCAQMwCgYIKoZIzj0EAwIDSAAw
RQIgT2ikHzuO2qLvajALxdAG+jym5B+2dJrEf+DMtiVD0lgCIQCmC1Q4EBqGO3aA
MrMm7QApHvWwKhcO0c571MvPkdRh4g==
-----END CERTIFICATE-----
