Certificate:
    Data:
        Version: 3 (0x2)
        Serial Number: 7 (0x7)
        Signature Algorithm: ecdsa-with-SHA256
        Issuer: CN=Regione Molise, C=IT, ST=Italia, O=E-Voting system, OU=E-Voting system authority/emailAddress=Molise@evoting.it
        Validity
            Not Before: Aug  3 13:25:58 2022 GMT
            Not After : Aug  3 13:25:58 2023 GMT
        Subject: CN=Susie, C=IT, ST=Italia, O=Regione Molise
        Subject Public Key Info:
            Public Key Algorithm: id-ecPublicKey
                Public-Key: (256 bit)
                pub:
                    04:4b:62:78:f5:bb:01:b5:23:09:56:9f:61:fd:5c:
                    37:87:e6:4b:db:8b:a1:86:e1:6e:a4:59:7e:6b:1e:
                    9c:92:25:ae:86:bc:64:99:fa:bf:7a:1e:70:20:a8:
                    4b:5f:a2:0f:a6:cd:d4:fc:99:4d:46:72:52:d7:26:
                    93:35:1b:1c:18
                ASN1 OID: prime256v1
                NIST CURVE: P-256
        X509v3 extensions:
            X509v3 Key Usage: critical
                Digital Signature, Key Encipherment
            X509v3 Basic Constraints: critical
                CA:FALSE, pathlen:3
    Signature Algorithm: ecdsa-with-SHA256
         30:46:02:21:00:ec:3f:d3:37:4f:e4:42:7a:a1:88:1a:50:9e:
         bb:95:70:dd:ef:d1:af:19:08:5f:62:7d:eb:6c:8b:11:39:3b:
         0c:02:21:00:94:bc:ed:a4:ab:4e:25:ad:a3:28:8a:0b:a7:f6:
         67:2f:b0:c9:67:55:44:a5:9c:ae:09:78:4e:c3:77:84:91:5c
-----BEGIN CERTIFICATE-----
MIIB8jCCAZegAwIBAgIBBzAKBggqhkjOPQQDAjCBlzEXMBUGA1UEAwwOUmVnaW9u
ZSBNb2xpc2UxCzAJBgNVBAYTAklUMQ8wDQYDVQQIDAZJdGFsaWExGDAWBgNVBAoM
D0UtVm90aW5nIHN5c3RlbTEiMCAGA1UECwwZRS1Wb3Rpbmcgc3lzdGVtIGF1dGhv
cml0eTEgMB4GCSqGSIb3DQEJARYRTW9saXNlQGV2b3RpbmcuaXQwHhcNMjIwODAz
MTMyNTU4WhcNMjMwODAzMTMyNTU4WjBHMQ4wDAYDVQQDDAVTdXNpZTELMAkGA1UE
BhMCSVQxDzANBgNVBAgMBkl0YWxpYTEXMBUGA1UECgwOUmVnaW9uZSBNb2xpc2Uw
WTATBgcqhkjOPQIBBggqhkjOPQMBBwNCAARLYnj1uwG1IwlWn2H9XDeH5kvbi6GG
4W6kWX5rHpySJa6GvGSZ+r96HnAgqEtfog+mzdT8mU1GclLXJpM1GxwYoyMwITAO
BgNVHQ8BAf8EBAMCBaAwDwYDVR0TAQH/BAUwAwIBAzAKBggqhkjOPQQDAgNJADBG
AiEA7D/TN0/kQnqhiBpQnruVcN3v0a8ZCF9ifetsixE5OwwCIQCUvO2kq04lraMo
igun9mcvsMlnVUSlnK4JeE7Dd4SRXA==
-----END CERTIFICATE-----
