Certificate:
    Data:
        Version: 3 (0x2)
        Serial Number: 4 (0x4)
        Signature Algorithm: ecdsa-with-SHA256
        Issuer: CN=Regione Basilicata, C=IT, ST=Italia, O=E-Voting system, OU=E-Voting system authority/emailAddress=Basilicata@evoting.it
        Validity
            Not Before: Aug 26 15:18:37 2022 GMT
            Not After : Aug 26 15:18:37 2023 GMT
        Subject: CN=Suzanne, C=IT, ST=Italia, O=Regione Basilicata
        Subject Public Key Info:
            Public Key Algorithm: id-ecPublicKey
                Public-Key: (256 bit)
                pub:
                    04:64:3e:1f:f5:30:13:90:fe:73:45:e3:e9:12:df:
                    bc:7f:cd:f9:8f:a7:c7:f6:7e:c3:82:bd:59:22:65:
                    03:c9:3d:79:62:e2:ca:e8:7d:e5:7a:52:72:4d:ef:
                    7e:4c:20:1e:9c:81:1e:72:2b:f2:43:20:95:f0:65:
                    ca:0d:21:3e:8d
                ASN1 OID: secp256k1
        X509v3 extensions:
            X509v3 Key Usage: critical
                Digital Signature, Key Encipherment
            X509v3 Basic Constraints: critical
                CA:FALSE, pathlen:3
    Signature Algorithm: ecdsa-with-SHA256
         30:45:02:20:67:0f:ec:83:ca:5e:d7:d6:ce:31:3b:5c:32:18:
         c9:61:11:63:2a:bd:3a:66:00:62:cf:c4:2c:08:c4:98:ac:85:
         02:21:00:a1:8f:c9:19:b9:bf:22:02:42:62:6d:03:79:bc:9b:
         c0:43:be:26:65:94:57:40:39:80:e3:30:88:7f:4c:a6:14
-----BEGIN CERTIFICATE-----
MIIB/DCCAaKgAwIBAgIBBDAKBggqhkjOPQQDAjCBnzEbMBkGA1UEAwwSUmVnaW9u
ZSBCYXNpbGljYXRhMQswCQYDVQQGEwJJVDEPMA0GA1UECAwGSXRhbGlhMRgwFgYD
VQQKDA9FLVZvdGluZyBzeXN0ZW0xIjAgBgNVBAsMGUUtVm90aW5nIHN5c3RlbSBh
dXRob3JpdHkxJDAiBgkqhkiG9w0BCQEWFUJhc2lsaWNhdGFAZXZvdGluZy5pdDAe
Fw0yMjA4MjYxNTE4MzdaFw0yMzA4MjYxNTE4MzdaME0xEDAOBgNVBAMMB1N1emFu
bmUxCzAJBgNVBAYTAklUMQ8wDQYDVQQIDAZJdGFsaWExGzAZBgNVBAoMElJlZ2lv
bmUgQmFzaWxpY2F0YTBWMBAGByqGSM49AgEGBSuBBAAKA0IABGQ+H/UwE5D+c0Xj
6RLfvH/N+Y+nx/Z+w4K9WSJlA8k9eWLiyuh95XpSck3vfkwgHpyBHnIr8kMglfBl
yg0hPo2jIzAhMA4GA1UdDwEB/wQEAwIFoDAPBgNVHRMBAf8EBTADAgEDMAoGCCqG
SM49BAMCA0gAMEUCIGcP7IPKXtfWzjE7XDIYyWERYyq9OmYAYs/ELAjEmKyFAiEA
oY/JGbm/IgJCYm0DebybwEO+JmWUV0A5gOMwiH9MphQ=
-----END CERTIFICATE-----
