Certificate:
    Data:
        Version: 3 (0x2)
        Serial Number: 29 (0x1d)
        Signature Algorithm: ecdsa-with-SHA256
        Issuer: CN=Regione Lazio, C=IT, ST=Italia, O=E-Voting system, OU=E-Voting system authority/emailAddress=Lazio@evoting.it
        Validity
            Not Before: Aug  3 13:27:06 2022 GMT
            Not After : Aug  3 13:27:06 2023 GMT
        Subject: CN=Sydney, C=IT, ST=Italia, O=Regione Lazio
        Subject Public Key Info:
            Public Key Algorithm: id-ecPublicKey
                Public-Key: (256 bit)
                pub:
                    04:89:fc:8c:6f:43:3f:45:7d:52:75:a7:ca:9b:d0:
                    93:c9:a8:c7:65:d2:b9:ab:c9:e4:83:e1:83:59:f5:
                    83:c5:60:e3:88:ad:95:86:82:91:21:b8:14:fe:d5:
                    6d:8f:a2:9b:5e:1a:c6:46:09:b7:1c:0e:07:92:47:
                    2a:84:1d:13:5d
                ASN1 OID: prime256v1
                NIST CURVE: P-256
        X509v3 extensions:
            X509v3 Key Usage: critical
                Digital Signature, Key Encipherment
            X509v3 Basic Constraints: critical
                CA:FALSE, pathlen:3
    Signature Algorithm: ecdsa-with-SHA256
         30:45:02:21:00:bb:b4:9c:58:ce:42:f3:9c:6a:6f:03:1b:eb:
         95:0f:ab:33:34:65:a7:2a:78:8e:18:ce:02:6e:7f:61:ef:13:
         5f:02:20:3b:7a:fd:7e:77:c0:0d:ce:e0:eb:8d:68:4e:8f:6b:
         4a:43:9a:bc:84:9f:59:59:87:d6:a8:a5:0d:cd:54:a3:ab
-----BEGIN CERTIFICATE-----
MIIB7zCCAZWgAwIBAgIBHTAKBggqhkjOPQQDAjCBlTEWMBQGA1UEAwwNUmVnaW9u
ZSBMYXppbzELMAkGA1UEBhMCSVQxDzANBgNVBAgMBkl0YWxpYTEYMBYGA1UECgwP
RS1Wb3Rpbmcgc3lzdGVtMSIwIAYDVQQLDBlFLVZvdGluZyBzeXN0ZW0gYXV0aG9y
aXR5MR8wHQYJKoZIhvcNAQkBFhBMYXppb0Bldm90aW5nLml0MB4XDTIyMDgwMzEz
MjcwNloXDTIzMDgwMzEzMjcwNlowRzEPMA0GA1UEAwwGU3lkbmV5MQswCQYDVQQG
EwJJVDEPMA0GA1UECAwGSXRhbGlhMRYwFAYDVQQKDA1SZWdpb25lIExhemlvMFkw
EwYHKoZIzj0CAQYIKoZIzj0DAQcDQgAEifyMb0M/RX1SdafKm9CTyajHZdK5q8nk
g+GDWfWDxWDjiK2VhoKRIbgU/tVtj6KbXhrGRgm3HA4HkkcqhB0TXaMjMCEwDgYD
VR0PAQH/BAQDAgWgMA8GA1UdEwEB/wQFMAMCAQMwCgYIKoZIzj0EAwIDSAAwRQIh
ALu0nFjOQvOcam8DG+uVD6szNGWnKniOGM4Cbn9h7xNfAiA7ev1+d8ANzuDrjWhO
j2tKQ5q8hJ9ZWYfWqKUNzVSjqw==
-----END CERTIFICATE-----
