Certificate:
    Data:
        Version: 3 (0x2)
        Serial Number: 43 (0x2b)
        Signature Algorithm: ecdsa-with-SHA256
        Issuer: CN=Regione Toscana, C=IT, ST=Italia, O=E-Voting system, OU=E-Voting system authority/emailAddress=Toscana@evoting.it
        Validity
            Not Before: Aug 26 15:21:29 2022 GMT
            Not After : Aug 26 15:21:29 2023 GMT
        Subject: CN=Sydney, C=IT, ST=Italia, O=Regione Toscana
        Subject Public Key Info:
            Public Key Algorithm: id-ecPublicKey
                Public-Key: (256 bit)
                pub:
                    04:54:e6:e8:6c:4d:38:ad:69:df:45:1a:8d:7d:08:
                    99:de:cb:27:3d:79:30:a9:33:76:4a:e6:2a:8c:82:
                    e2:99:21:4b:04:e2:0a:3f:0d:4b:15:13:5f:af:45:
                    fe:b2:fb:4e:ee:98:eb:72:1a:52:c8:6a:83:d8:3f:
                    87:f3:e0:46:c2
                ASN1 OID: secp256k1
        X509v3 extensions:
            X509v3 Key Usage: critical
                Digital Signature, Key Encipherment
            X509v3 Basic Constraints: critical
                CA:FALSE, pathlen:3
    Signature Algorithm: ecdsa-with-SHA256
         30:45:02:20:24:b3:84:fd:ef:c7:89:ae:16:bc:00:d8:fd:75:
         8d:f5:0a:43:bb:06:8c:cf:e9:f9:80:51:37:c7:82:ac:2a:16:
         02:21:00:e8:5e:52:f9:f0:dc:da:a4:31:53:38:a1:a1:f0:fc:
         a9:88:de:89:0b:90:cf:ea:c3:8a:66:0b:0f:25:f3:fc:36
-----BEGIN CERTIFICATE-----
MIIB8jCCAZigAwIBAgIBKzAKBggqhkjOPQQDAjCBmTEYMBYGA1UEAwwPUmVnaW9u
ZSBUb3NjYW5hMQswCQYDVQQGEwJJVDEPMA0GA1UECAwGSXRhbGlhMRgwFgYDVQQK
DA9FLVZvdGluZyBzeXN0ZW0xIjAgBgNVBAsMGUUtVm90aW5nIHN5c3RlbSBhdXRo
b3JpdHkxITAfBgkqhkiG9w0BCQEWElRvc2NhbmFAZXZvdGluZy5pdDAeFw0yMjA4
MjYxNTIxMjlaFw0yMzA4MjYxNTIxMjlaMEkxDzANBgNVBAMMBlN5ZG5leTELMAkG
A1UEBhMCSVQxDzANBgNVBAgMBkl0YWxpYTEYMBYGA1UECgwPUmVnaW9uZSBUb3Nj
YW5hMFYwEAYHKoZIzj0CAQYFK4EEAAoDQgAEVObobE04rWnfRRqNfQiZ3ssnPXkw
qTN2SuYqjILimSFLBOIKPw1LFRNfr0X+svtO7pjrchpSyGqD2D+H8+BGwqMjMCEw
DgYDVR0PAQH/BAQDAgWgMA8GA1UdEwEB/wQFMAMCAQMwCgYIKoZIzj0EAwIDSAAw
RQIgJLOE/e/Hia4WvADY/XWN9QpDuwaMz+n5gFE3x4KsKhYCIQDoXlL58NzapDFT
OKGh8PypiN6JC5DP6sOKZgsPJfP8Ng==
-----END CERTIFICATE-----
