Certificate:
    Data:
        Version: 3 (0x2)
        Serial Number: 29 (0x1d)
        Signature Algorithm: ecdsa-with-SHA256
        Issuer: CN=Regione Veneto, C=IT, ST=Italia, O=E-Voting system, OU=E-Voting system authority/emailAddress=Veneto@evoting.it
        Validity
            Not Before: Aug 26 15:21:26 2022 GMT
            Not After : Aug 26 15:21:26 2023 GMT
        Subject: CN=Sylvia, C=IT, ST=Italia, O=Regione Veneto
        Subject Public Key Info:
            Public Key Algorithm: id-ecPublicKey
                Public-Key: (256 bit)
                pub:
                    04:ca:3e:58:ff:60:9f:34:98:bb:54:d0:b5:09:12:
                    22:55:6c:e2:63:d9:46:6f:ad:b3:0e:f1:14:07:b2:
                    39:ef:cd:cd:e7:08:9f:60:df:3d:8f:1d:47:32:ad:
                    76:90:49:a1:5c:e6:cb:ff:e0:2e:87:00:f8:4d:0f:
                    e2:11:be:46:18
                ASN1 OID: secp256k1
        X509v3 extensions:
            X509v3 Key Usage: critical
                Digital Signature, Key Encipherment
            X509v3 Basic Constraints: critical
                CA:FALSE, pathlen:3
    Signature Algorithm: ecdsa-with-SHA256
         30:45:02:20:56:10:66:ed:82:e7:d7:cf:d4:89:4d:be:46:7c:
         ad:c9:8a:6e:1e:bb:b6:c2:91:e0:37:46:0a:8d:15:e8:da:96:
         02:21:00:f7:aa:fb:bf:3d:7e:c2:aa:c7:eb:76:44:c1:bc:52:
         3d:be:2b:16:b2:6e:fa:1e:25:f7:5c:6f:1c:1b:82:ba:a2
-----BEGIN CERTIFICATE-----
MIIB7zCCAZWgAwIBAgIBHTAKBggqhkjOPQQDAjCBlzEXMBUGA1UEAwwOUmVnaW9u
ZSBWZW5ldG8xCzAJBgNVBAYTAklUMQ8wDQYDVQQIDAZJdGFsaWExGDAWBgNVBAoM
D0UtVm90aW5nIHN5c3RlbTEiMCAGA1UECwwZRS1Wb3Rpbmcgc3lzdGVtIGF1dGhv
cml0eTEgMB4GCSqGSIb3DQEJARYRVmVuZXRvQGV2b3RpbmcuaXQwHhcNMjIwODI2
MTUyMTI2WhcNMjMwODI2MTUyMTI2WjBIMQ8wDQYDVQQDDAZTeWx2aWExCzAJBgNV
BAYTAklUMQ8wDQYDVQQIDAZJdGFsaWExFzAVBgNVBAoMDlJlZ2lvbmUgVmVuZXRv
MFYwEAYHKoZIzj0CAQYFK4EEAAoDQgAEyj5Y/2CfNJi7VNC1CRIiVWziY9lGb62z
DvEUB7I5783N5wifYN89jx1HMq12kEmhXObL/+AuhwD4TQ/iEb5GGKMjMCEwDgYD
VR0PAQH/BAQDAgWgMA8GA1UdEwEB/wQFMAMCAQMwCgYIKoZIzj0EAwIDSAAwRQIg
VhBm7YLn18/UiU2+RnytyYpuHru2wpHgN0YKjRXo2pYCIQD3qvu/PX7CqsfrdkTB
vFI9visWsm76HiX3XG8cG4K6og==
-----END CERTIFICATE-----
