Certificate:
    Data:
        Version: 3 (0x2)
        Serial Number: 19 (0x13)
        Signature Algorithm: ecdsa-with-SHA256
        Issuer: CN=Regione Liguria, C=IT, ST=Italia, O=E-Voting system, OU=E-Voting system authority/emailAddress=Liguria@evoting.it
        Validity
            Not Before: Aug  3 13:26:31 2022 GMT
            Not After : Aug  3 13:26:31 2023 GMT
        Subject: CN=Sylvia, C=IT, ST=Italia, O=Regione Liguria
        Subject Public Key Info:
            Public Key Algorithm: id-ecPublicKey
                Public-Key: (256 bit)
                pub:
                    04:51:b0:54:e0:68:a3:13:73:60:84:7a:51:b9:b2:
                    87:99:8a:3f:75:b9:80:0f:75:a9:6a:8d:ab:ae:7b:
                    71:4f:d6:4a:08:ec:a5:51:82:d0:ec:96:07:c9:57:
                    97:3d:a9:0c:9c:df:63:58:05:13:58:f8:5a:be:cb:
                    8c:9b:41:78:af
                ASN1 OID: prime256v1
                NIST CURVE: P-256
        X509v3 extensions:
            X509v3 Key Usage: critical
                Digital Signature, Key Encipherment
            X509v3 Basic Constraints: critical
                CA:FALSE, pathlen:3
    Signature Algorithm: ecdsa-with-SHA256
         30:46:02:21:00:c8:b5:f7:e2:c4:5e:81:ed:81:38:6e:7f:35:
         fa:65:76:7b:a5:ba:71:7c:90:90:d4:f4:ad:c0:f8:00:5e:e8:
         96:02:21:00:dd:99:d9:e3:bf:78:69:f6:6c:67:db:47:34:83:
         3c:aa:6b:ba:3b:c3:ab:cf:ca:01:05:de:98:f5:66:81:69:af
-----BEGIN CERTIFICATE-----
MIIB9jCCAZugAwIBAgIBEzAKBggqhkjOPQQDAjCBmTEYMBYGA1UEAwwPUmVnaW9u
ZSBMaWd1cmlhMQswCQYDVQQGEwJJVDEPMA0GA1UECAwGSXRhbGlhMRgwFgYDVQQK
DA9FLVZvdGluZyBzeXN0ZW0xIjAgBgNVBAsMGUUtVm90aW5nIHN5c3RlbSBhdXRo
b3JpdHkxITAfBgkqhkiG9w0BCQEWEkxpZ3VyaWFAZXZvdGluZy5pdDAeFw0yMjA4
MDMxMzI2MzFaFw0yMzA4MDMxMzI2MzFaMEkxDzANBgNVBAMMBlN5bHZpYTELMAkG
A1UEBhMCSVQxDzANBgNVBAgMBkl0YWxpYTEYMBYGA1UECgwPUmVnaW9uZSBMaWd1
cmlhMFkwEwYHKoZIzj0CAQYIKoZIzj0DAQcDQgAEUbBU4GijE3NghHpRubKHmYo/
dbmAD3Wpao2rrntxT9ZKCOylUYLQ7JYHyVeXPakMnN9jWAUTWPhavsuMm0F4r6Mj
MCEwDgYDVR0PAQH/BAQDAgWgMA8GA1UdEwEB/wQFMAMCAQMwCgYIKoZIzj0EAwID
SQAwRgIhAMi19+LEXoHtgThufzX6ZXZ7pbpxfJCQ1PStwPgAXuiWAiEA3ZnZ4794
afZsZ9tHNIM8qmu6O8Orz8oBBd6Y9WaBaa8=
-----END CERTIFICATE-----
