Certificate:
    Data:
        Version: 3 (0x2)
        Serial Number: 12 (0xc)
        Signature Algorithm: ecdsa-with-SHA256
        Issuer: CN=Regione Basilicata, C=IT, ST=Italia, O=E-Voting system, OU=E-Voting system authority/emailAddress=Basilicata@evoting.it
        Validity
            Not Before: Aug  3 13:26:12 2022 GMT
            Not After : Aug  3 13:26:12 2023 GMT
        Subject: CN=Ta, C=IT, ST=Italia, O=Regione Basilicata
        Subject Public Key Info:
            Public Key Algorithm: id-ecPublicKey
                Public-Key: (256 bit)
                pub:
                    04:0b:c9:36:67:57:56:92:6b:5c:28:1e:61:62:9d:
                    82:b9:b1:7a:19:b6:14:dc:61:bb:eb:c8:16:bb:a1:
                    69:f4:97:b5:56:e5:8d:c6:ce:e2:8b:7a:b5:b7:d4:
                    de:4c:37:3e:81:3f:66:a8:43:64:99:74:dd:0e:50:
                    5b:12:de:76:e3
                ASN1 OID: prime256v1
                NIST CURVE: P-256
        X509v3 extensions:
            X509v3 Key Usage: critical
                Digital Signature, Key Encipherment
            X509v3 Basic Constraints: critical
                CA:FALSE, pathlen:3
    Signature Algorithm: ecdsa-with-SHA256
         30:45:02:21:00:99:58:14:18:39:ca:8c:71:af:05:02:91:92:
         1c:b3:76:c9:c2:bd:96:63:cb:ec:53:62:c5:08:99:0c:24:98:
         e2:02:20:1c:3f:9f:18:a4:ef:d7:02:7d:af:61:29:2a:8a:f7:
         b3:9e:0b:12:08:5a:68:e8:be:78:66:df:bb:14:ac:f3:7e
-----BEGIN CERTIFICATE-----
MIIB+jCCAaCgAwIBAgIBDDAKBggqhkjOPQQDAjCBnzEbMBkGA1UEAwwSUmVnaW9u
ZSBCYXNpbGljYXRhMQswCQYDVQQGEwJJVDEPMA0GA1UECAwGSXRhbGlhMRgwFgYD
VQQKDA9FLVZvdGluZyBzeXN0ZW0xIjAgBgNVBAsMGUUtVm90aW5nIHN5c3RlbSBh
dXRob3JpdHkxJDAiBgkqhkiG9w0BCQEWFUJhc2lsaWNhdGFAZXZvdGluZy5pdDAe
Fw0yMjA4MDMxMzI2MTJaFw0yMzA4MDMxMzI2MTJaMEgxCzAJBgNVBAMMAlRhMQsw
CQYDVQQGEwJJVDEPMA0GA1UECAwGSXRhbGlhMRswGQYDVQQKDBJSZWdpb25lIEJh
c2lsaWNhdGEwWTATBgcqhkjOPQIBBggqhkjOPQMBBwNCAAQLyTZnV1aSa1woHmFi
nYK5sXoZthTcYbvryBa7oWn0l7VW5Y3GzuKLerW31N5MNz6BP2aoQ2SZdN0OUFsS
3nbjoyMwITAOBgNVHQ8BAf8EBAMCBaAwDwYDVR0TAQH/BAUwAwIBAzAKBggqhkjO
PQQDAgNIADBFAiEAmVgUGDnKjHGvBQKRkhyzdsnCvZZjy+xTYsUImQwkmOICIBw/
nxik79cCfa9hKSqK97OeCxIIWmjovnhm37sUrPN+
-----END CERTIFICATE-----
