Certificate:
    Data:
        Version: 3 (0x2)
        Serial Number: 18 (0x12)
        Signature Algorithm: ecdsa-with-SHA256
        Issuer: CN=Regione Campania, C=IT, ST=Italia, O=E-Voting system, OU=E-Voting system authority/emailAddress=Campania@evoting.it
        Validity
            Not Before: Aug  3 13:26:27 2022 GMT
            Not After : Aug  3 13:26:27 2023 GMT
        Subject: CN=Tabatha, C=IT, ST=Italia, O=Regione Campania
        Subject Public Key Info:
            Public Key Algorithm: id-ecPublicKey
                Public-Key: (256 bit)
                pub:
                    04:6a:52:3f:7c:24:c8:7b:67:82:cb:2e:63:3a:20:
                    53:14:bf:4b:6d:ba:2c:c3:25:74:35:7a:99:de:9b:
                    66:39:13:97:de:82:f3:af:6f:99:63:92:a2:96:3c:
                    9b:2c:a7:41:ce:c7:cb:65:2c:22:c8:f6:b8:31:23:
                    11:d8:8e:58:b0
                ASN1 OID: prime256v1
                NIST CURVE: P-256
        X509v3 extensions:
            X509v3 Key Usage: critical
                Digital Signature, Key Encipherment
            X509v3 Basic Constraints: critical
                CA:FALSE, pathlen:3
    Signature Algorithm: ecdsa-with-SHA256
         30:45:02:20:7c:b6:a8:91:97:25:b0:8b:8a:85:ae:f3:37:e8:
         93:3e:00:e6:18:52:e8:f7:fc:61:b6:b7:f7:a8:a9:f1:16:02:
         02:21:00:ea:ec:49:c6:af:90:bf:68:72:32:32:96:02:e1:98:
         dd:11:3a:b3:41:e6:d5:ea:26:94:f1:06:37:b5:83:50:c7
-----BEGIN CERTIFICATE-----
MIIB+TCCAZ+gAwIBAgIBEjAKBggqhkjOPQQDAjCBmzEZMBcGA1UEAwwQUmVnaW9u
ZSBDYW1wYW5pYTELMAkGA1UEBhMCSVQxDzANBgNVBAgMBkl0YWxpYTEYMBYGA1UE
CgwPRS1Wb3Rpbmcgc3lzdGVtMSIwIAYDVQQLDBlFLVZvdGluZyBzeXN0ZW0gYXV0
aG9yaXR5MSIwIAYJKoZIhvcNAQkBFhNDYW1wYW5pYUBldm90aW5nLml0MB4XDTIy
MDgwMzEzMjYyN1oXDTIzMDgwMzEzMjYyN1owSzEQMA4GA1UEAwwHVGFiYXRoYTEL
MAkGA1UEBhMCSVQxDzANBgNVBAgMBkl0YWxpYTEZMBcGA1UECgwQUmVnaW9uZSBD
YW1wYW5pYTBZMBMGByqGSM49AgEGCCqGSM49AwEHA0IABGpSP3wkyHtngssuYzog
UxS/S226LMMldDV6md6bZjkTl96C869vmWOSopY8myynQc7Hy2UsIsj2uDEjEdiO
WLCjIzAhMA4GA1UdDwEB/wQEAwIFoDAPBgNVHRMBAf8EBTADAgEDMAoGCCqGSM49
BAMCA0gAMEUCIHy2qJGXJbCLioWu8zfokz4A5hhS6Pf8Yba396ip8RYCAiEA6uxJ
xq+Qv2hyMjKWAuGY3RE6s0Hm1eomlPEGN7WDUMc=
-----END CERTIFICATE-----
