Certificate:
    Data:
        Version: 3 (0x2)
        Serial Number: 16 (0x10)
        Signature Algorithm: ecdsa-with-SHA256
        Issuer: CN=Regione Sardegna, C=IT, ST=Italia, O=E-Voting system, OU=E-Voting system authority/emailAddress=Sardegna@evoting.it
        Validity
            Not Before: Aug  3 13:27:02 2022 GMT
            Not After : Aug  3 13:27:02 2023 GMT
        Subject: CN=Talia, C=IT, ST=Italia, O=Regione Sardegna
        Subject Public Key Info:
            Public Key Algorithm: id-ecPublicKey
                Public-Key: (256 bit)
                pub:
                    04:a6:de:ba:5f:3a:3f:ef:b0:a7:de:26:90:68:df:
                    ad:27:ef:8a:9f:4c:91:22:24:cd:c9:c1:66:c2:2c:
                    aa:48:59:54:05:9e:3e:c4:8e:1d:bb:7e:ff:00:18:
                    af:fd:8c:80:36:55:6e:1f:1b:7b:32:c1:d1:cf:a6:
                    c2:2a:af:90:64
                ASN1 OID: prime256v1
                NIST CURVE: P-256
        X509v3 extensions:
            X509v3 Key Usage: critical
                Digital Signature, Key Encipherment
            X509v3 Basic Constraints: critical
                CA:FALSE, pathlen:3
    Signature Algorithm: ecdsa-with-SHA256
         30:45:02:21:00:f2:10:ce:25:e2:79:e3:21:72:53:09:85:6b:
         ee:93:03:40:4a:67:9f:56:54:88:3b:2f:57:c5:6a:1b:45:bb:
         97:02:20:49:9c:e0:a9:af:02:56:8e:2d:9d:98:fc:1a:76:6d:
         e0:21:62:34:c2:5b:30:9c:0f:0a:b3:f4:84:b5:45:46:56
-----BEGIN CERTIFICATE-----
MIIB9zCCAZ2gAwIBAgIBEDAKBggqhkjOPQQDAjCBmzEZMBcGA1UEAwwQUmVnaW9u
ZSBTYXJkZWduYTELMAkGA1UEBhMCSVQxDzANBgNVBAgMBkl0YWxpYTEYMBYGA1UE
CgwPRS1Wb3Rpbmcgc3lzdGVtMSIwIAYDVQQLDBlFLVZvdGluZyBzeXN0ZW0gYXV0
aG9yaXR5MSIwIAYJKoZIhvcNAQkBFhNTYXJkZWduYUBldm90aW5nLml0MB4XDTIy
MDgwMzEzMjcwMloXDTIzMDgwMzEzMjcwMlowSTEOMAwGA1UEAwwFVGFsaWExCzAJ
BgNVBAYTAklUMQ8wDQYDVQQIDAZJdGFsaWExGTAXBgNVBAoMEFJlZ2lvbmUgU2Fy
ZGVnbmEwWTATBgcqhkjOPQIBBggqhkjOPQMBBwNCAASm3rpfOj/vsKfeJpBo360n
74qfTJEiJM3JwWbCLKpIWVQFnj7Ejh27fv8AGK/9jIA2VW4fG3sywdHPpsIqr5Bk
oyMwITAOBgNVHQ8BAf8EBAMCBaAwDwYDVR0TAQH/BAUwAwIBAzAKBggqhkjOPQQD
AgNIADBFAiEA8hDOJeJ54yFyUwmFa+6TA0BKZ59WVIg7L1fFahtFu5cCIEmc4Kmv
AlaOLZ2Y/Bp2beAhYjTCWzCcDwqz9IS1RUZW
-----END CERTIFICATE-----
