Certificate:
    Data:
        Version: 3 (0x2)
        Serial Number: 12 (0xc)
        Signature Algorithm: ecdsa-with-SHA256
        Issuer: CN=Regione Abruzzo, C=IT, ST=Italia, O=E-Voting system, OU=E-Voting system authority/emailAddress=Abruzzo@evoting.it
        Validity
            Not Before: Aug 26 15:19:35 2022 GMT
            Not After : Aug 26 15:19:35 2023 GMT
        Subject: CN=Tamara, C=IT, ST=Italia, O=Regione Abruzzo
        Subject Public Key Info:
            Public Key Algorithm: id-ecPublicKey
                Public-Key: (256 bit)
                pub:
                    04:65:32:91:9a:fa:f8:d5:8a:c1:d6:40:7b:33:2b:
                    54:57:a3:24:d7:d2:d4:19:c2:f1:e2:4a:e5:4b:d5:
                    34:21:18:79:a9:74:ca:e0:d3:ec:b8:e3:85:d1:82:
                    ae:42:22:83:a7:9d:9f:1e:a1:f4:b2:27:b3:bd:2f:
                    cb:c2:ae:29:95
                ASN1 OID: secp256k1
        X509v3 extensions:
            X509v3 Key Usage: critical
                Digital Signature, Key Encipherment
            X509v3 Basic Constraints: critical
                CA:FALSE, pathlen:3
    Signature Algorithm: ecdsa-with-SHA256
         30:46:02:21:00:94:24:05:b5:53:ff:76:05:8f:b7:15:a5:a1:
         a1:3f:9b:8e:4f:a8:85:84:12:3c:c7:3d:13:6c:ab:81:5a:c3:
         b0:02:21:00:f3:a8:94:83:9b:dd:a7:ee:ca:61:e5:a8:bd:fd:
         82:ac:07:ad:03:8c:ab:75:17:8e:31:c2:04:34:fc:48:7f:6f
-----BEGIN CERTIFICATE-----
MIIB8zCCAZigAwIBAgIBDDAKBggqhkjOPQQDAjCBmTEYMBYGA1UEAwwPUmVnaW9u
ZSBBYnJ1enpvMQswCQYDVQQGEwJJVDEPMA0GA1UECAwGSXRhbGlhMRgwFgYDVQQK
DA9FLVZvdGluZyBzeXN0ZW0xIjAgBgNVBAsMGUUtVm90aW5nIHN5c3RlbSBhdXRo
b3JpdHkxITAfBgkqhkiG9w0BCQEWEkFicnV6em9AZXZvdGluZy5pdDAeFw0yMjA4
MjYxNTE5MzVaFw0yMzA4MjYxNTE5MzVaMEkxDzANBgNVBAMMBlRhbWFyYTELMAkG
A1UEBhMCSVQxDzANBgNVBAgMBkl0YWxpYTEYMBYGA1UECgwPUmVnaW9uZSBBYnJ1
enpvMFYwEAYHKoZIzj0CAQYFK4EEAAoDQgAEZTKRmvr41YrB1kB7MytUV6Mk19LU
GcLx4krlS9U0IRh5qXTK4NPsuOOF0YKuQiKDp52fHqH0siezvS/Lwq4plaMjMCEw
DgYDVR0PAQH/BAQDAgWgMA8GA1UdEwEB/wQFMAMCAQMwCgYIKoZIzj0EAwIDSQAw
RgIhAJQkBbVT/3YFj7cVpaGhP5uOT6iFhBI8xz0TbKuBWsOwAiEA86iUg5vdp+7K
YeWovf2CrAetA4yrdReOMcIENPxIf28=
-----END CERTIFICATE-----
