Certificate:
    Data:
        Version: 3 (0x2)
        Serial Number: 9 (0x9)
        Signature Algorithm: ecdsa-with-SHA256
        Issuer: CN=Regione Lombardia, C=IT, ST=Italia, O=E-Voting system, OU=E-Voting system authority/emailAddress=Lombardia@evoting.it
        Validity
            Not Before: Aug  3 13:26:04 2022 GMT
            Not After : Aug  3 13:26:04 2023 GMT
        Subject: CN=Tamar, C=IT, ST=Italia, O=Regione Lombardia
        Subject Public Key Info:
            Public Key Algorithm: id-ecPublicKey
                Public-Key: (256 bit)
                pub:
                    04:2d:6d:6e:f4:f9:b0:15:47:e7:d7:bd:e4:79:b1:
                    dd:b5:40:63:68:c7:64:78:1f:a0:09:b0:b4:15:a5:
                    29:5d:1e:13:df:d9:18:1a:78:0e:09:43:4d:b5:72:
                    74:62:29:4e:ee:e3:ae:92:b6:81:4e:19:13:22:15:
                    ca:59:e5:e6:46
                ASN1 OID: prime256v1
                NIST CURVE: P-256
        X509v3 extensions:
            X509v3 Key Usage: critical
                Digital Signature, Key Encipherment
            X509v3 Basic Constraints: critical
                CA:FALSE, pathlen:3
    Signature Algorithm: ecdsa-with-SHA256
         30:45:02:21:00:c7:7e:26:b1:59:dc:d3:4b:f4:ac:b9:3a:f0:
         0e:bc:78:3b:7e:47:1d:f4:01:78:ad:e8:fe:6d:ab:bf:79:29:
         2c:02:20:56:b6:07:37:4c:60:40:6d:e2:2e:05:2b:92:21:9c:
         30:6f:a7:27:12:a4:3f:50:bc:7c:01:1f:ee:b2:f4:66:7b
-----BEGIN CERTIFICATE-----
MIIB+jCCAaCgAwIBAgIBCTAKBggqhkjOPQQDAjCBnTEaMBgGA1UEAwwRUmVnaW9u
ZSBMb21iYXJkaWExCzAJBgNVBAYTAklUMQ8wDQYDVQQIDAZJdGFsaWExGDAWBgNV
BAoMD0UtVm90aW5nIHN5c3RlbTEiMCAGA1UECwwZRS1Wb3Rpbmcgc3lzdGVtIGF1
dGhvcml0eTEjMCEGCSqGSIb3DQEJARYUTG9tYmFyZGlhQGV2b3RpbmcuaXQwHhcN
MjIwODAzMTMyNjA0WhcNMjMwODAzMTMyNjA0WjBKMQ4wDAYDVQQDDAVUYW1hcjEL
MAkGA1UEBhMCSVQxDzANBgNVBAgMBkl0YWxpYTEaMBgGA1UECgwRUmVnaW9uZSBM
b21iYXJkaWEwWTATBgcqhkjOPQIBBggqhkjOPQMBBwNCAAQtbW70+bAVR+fXveR5
sd21QGNox2R4H6AJsLQVpSldHhPf2RgaeA4JQ021cnRiKU7u466StoFOGRMiFcpZ
5eZGoyMwITAOBgNVHQ8BAf8EBAMCBaAwDwYDVR0TAQH/BAUwAwIBAzAKBggqhkjO
PQQDAgNIADBFAiEAx34msVnc00v0rLk68A68eDt+Rx30AXit6P5tq795KSwCIFa2
BzdMYEBt4i4FK5IhnDBvpycSpD9QvHwBH+6y9GZ7
-----END CERTIFICATE-----
