Certificate:
    Data:
        Version: 3 (0x2)
        Serial Number: 11 (0xb)
        Signature Algorithm: ecdsa-with-SHA256
        Issuer: CN=Regione Umbria, C=IT, ST=Italia, O=E-Voting system, OU=E-Voting system authority/emailAddress=Umbria@evoting.it
        Validity
            Not Before: Aug  3 13:26:21 2022 GMT
            Not After : Aug  3 13:26:21 2023 GMT
        Subject: CN=Tamara, C=IT, ST=Italia, O=Regione Umbria
        Subject Public Key Info:
            Public Key Algorithm: id-ecPublicKey
                Public-Key: (256 bit)
                pub:
                    04:13:90:56:fa:b5:17:b6:6e:e2:5c:b9:b5:5b:fc:
                    7b:7e:a6:8f:f6:99:09:e2:e3:9a:7a:7f:9d:91:45:
                    93:61:a2:d2:34:34:05:db:ed:48:6e:65:eb:8d:a4:
                    cc:f1:6c:00:7a:28:fb:c9:cf:c9:a5:09:4b:04:e7:
                    50:68:a5:7d:52
                ASN1 OID: prime256v1
                NIST CURVE: P-256
        X509v3 extensions:
            X509v3 Key Usage: critical
                Digital Signature, Key Encipherment
            X509v3 Basic Constraints: critical
                CA:FALSE, pathlen:3
    Signature Algorithm: ecdsa-with-SHA256
         30:45:02:20:65:29:0a:1e:47:ca:a1:69:d2:38:98:16:d1:be:
         84:0d:37:d1:56:40:7d:7f:35:95:2b:9d:f2:07:67:6f:e3:4a:
         02:21:00:b7:fe:05:5d:c6:22:3c:d1:34:32:49:89:9b:c0:72:
         73:ff:5d:b3:41:e0:d3:3b:4f:bf:48:c5:60:38:6e:57:c5
-----BEGIN CERTIFICATE-----
MIIB8jCCAZigAwIBAgIBCzAKBggqhkjOPQQDAjCBlzEXMBUGA1UEAwwOUmVnaW9u
ZSBVbWJyaWExCzAJBgNVBAYTAklUMQ8wDQYDVQQIDAZJdGFsaWExGDAWBgNVBAoM
D0UtVm90aW5nIHN5c3RlbTEiMCAGA1UECwwZRS1Wb3Rpbmcgc3lzdGVtIGF1dGhv
cml0eTEgMB4GCSqGSIb3DQEJARYRVW1icmlhQGV2b3RpbmcuaXQwHhcNMjIwODAz
MTMyNjIxWhcNMjMwODAzMTMyNjIxWjBIMQ8wDQYDVQQDDAZUYW1hcmExCzAJBgNV
BAYTAklUMQ8wDQYDVQQIDAZJdGFsaWExFzAVBgNVBAoMDlJlZ2lvbmUgVW1icmlh
MFkwEwYHKoZIzj0CAQYIKoZIzj0DAQcDQgAEE5BW+rUXtm7iXLm1W/x7fqaP9pkJ
4uOaen+dkUWTYaLSNDQF2+1IbmXrjaTM8WwAeij7yc/JpQlLBOdQaKV9UqMjMCEw
DgYDVR0PAQH/BAQDAgWgMA8GA1UdEwEB/wQFMAMCAQMwCgYIKoZIzj0EAwIDSAAw
RQIgZSkKHkfKoWnSOJgW0b6EDTfRVkB9fzWVK53yB2dv40oCIQC3/gVdxiI80TQy
SYmbwHJz/12zQeDTO0+/SMVgOG5XxQ==
-----END CERTIFICATE-----
