Certificate:
    Data:
        Version: 3 (0x2)
        Serial Number: 11 (0xb)
        Signature Algorithm: ecdsa-with-SHA256
        Issuer: CN=Regione Abruzzo, C=IT, ST=Italia, O=E-Voting system, OU=E-Voting system authority/emailAddress=Abruzzo@evoting.it
        Validity
            Not Before: Aug  3 13:26:12 2022 GMT
            Not After : Aug  3 13:26:12 2023 GMT
        Subject: CN=Tammie, C=IT, ST=Italia, O=Regione Abruzzo
        Subject Public Key Info:
            Public Key Algorithm: id-ecPublicKey
                Public-Key: (256 bit)
                pub:
                    04:9a:d6:a2:57:de:ca:00:86:28:5f:5b:30:4b:2f:
                    1c:1b:37:f5:b6:fb:35:2c:55:d6:7e:f7:bc:82:b0:
                    5e:03:dc:0d:ad:40:6c:ff:46:2e:0c:ca:13:0e:57:
                    22:ea:dc:00:96:ed:6b:20:c9:b3:06:63:b6:f1:d4:
                    72:4c:44:60:98
                ASN1 OID: prime256v1
                NIST CURVE: P-256
        X509v3 extensions:
            X509v3 Key Usage: critical
                Digital Signature, Key Encipherment
            X509v3 Basic Constraints: critical
                CA:FALSE, pathlen:3
    Signature Algorithm: ecdsa-with-SHA256
         30:45:02:20:17:18:84:ac:bd:2d:fb:72:8d:fd:32:9d:16:c2:
         fb:a8:03:8a:99:11:50:8d:bd:cf:fb:fb:29:ef:8c:96:be:c0:
         02:21:00:8f:55:3d:5f:a6:bf:7c:d3:9f:75:dc:ee:8a:22:7e:
         6d:f3:b0:a1:25:e1:8e:f5:e8:e7:3b:66:7b:32:8d:5a:e4
-----BEGIN CERTIFICATE-----
MIIB9TCCAZugAwIBAgIBCzAKBggqhkjOPQQDAjCBmTEYMBYGA1UEAwwPUmVnaW9u
ZSBBYnJ1enpvMQswCQYDVQQGEwJJVDEPMA0GA1UECAwGSXRhbGlhMRgwFgYDVQQK
DA9FLVZvdGluZyBzeXN0ZW0xIjAgBgNVBAsMGUUtVm90aW5nIHN5c3RlbSBhdXRo
b3JpdHkxITAfBgkqhkiG9w0BCQEWEkFicnV6em9AZXZvdGluZy5pdDAeFw0yMjA4
MDMxMzI2MTJaFw0yMzA4MDMxMzI2MTJaMEkxDzANBgNVBAMMBlRhbW1pZTELMAkG
A1UEBhMCSVQxDzANBgNVBAgMBkl0YWxpYTEYMBYGA1UECgwPUmVnaW9uZSBBYnJ1
enpvMFkwEwYHKoZIzj0CAQYIKoZIzj0DAQcDQgAEmtaiV97KAIYoX1swSy8cGzf1
tvs1LFXWfve8grBeA9wNrUBs/0YuDMoTDlci6twAlu1rIMmzBmO28dRyTERgmKMj
MCEwDgYDVR0PAQH/BAQDAgWgMA8GA1UdEwEB/wQFMAMCAQMwCgYIKoZIzj0EAwID
SAAwRQIgFxiErL0t+3KN/TKdFsL7qAOKmRFQjb3P+/sp74yWvsACIQCPVT1fpr98
05913O6KIn5t87ChJeGO9ejnO2Z7Mo1a5A==
-----END CERTIFICATE-----
