Certificate:
    Data:
        Version: 3 (0x2)
        Serial Number: 47 (0x2f)
        Signature Algorithm: ecdsa-with-SHA256
        Issuer: CN=Regione Basilicata, C=IT, ST=Italia, O=E-Voting system, OU=E-Voting system authority/emailAddress=Basilicata@evoting.it
        Validity
            Not Before: Aug  3 13:28:14 2022 GMT
            Not After : Aug  3 13:28:14 2023 GMT
        Subject: CN=Tammy, C=IT, ST=Italia, O=Regione Basilicata
        Subject Public Key Info:
            Public Key Algorithm: id-ecPublicKey
                Public-Key: (256 bit)
                pub:
                    04:b3:01:4f:48:a2:4f:fc:da:95:5a:e5:ac:2b:9d:
                    37:5c:74:14:3f:67:eb:6b:9b:8d:87:e8:df:a2:d9:
                    e6:d3:6d:7e:a3:4a:4d:91:e2:89:c7:72:91:28:09:
                    5f:14:21:8a:cf:79:df:91:ab:0d:05:19:6b:f2:a8:
                    1f:7a:3a:17:fe
                ASN1 OID: prime256v1
                NIST CURVE: P-256
        X509v3 extensions:
            X509v3 Key Usage: critical
                Digital Signature, Key Encipherment
            X509v3 Basic Constraints: critical
                CA:FALSE, pathlen:3
    Signature Algorithm: ecdsa-with-SHA256
         30:45:02:20:66:b9:6c:8c:d5:f1:aa:2a:e7:f7:75:e5:3f:02:
         c7:64:77:60:ef:20:97:5c:3c:7d:6f:54:5f:7f:8f:9f:2c:04:
         02:21:00:fe:99:98:69:b9:c5:c9:0f:fb:92:ea:54:63:30:11:
         bc:78:f2:c6:8e:b0:33:33:65:d8:ef:2e:38:b2:61:f2:c1
-----BEGIN CERTIFICATE-----
MIIB/TCCAaOgAwIBAgIBLzAKBggqhkjOPQQDAjCBnzEbMBkGA1UEAwwSUmVnaW9u
ZSBCYXNpbGljYXRhMQswCQYDVQQGEwJJVDEPMA0GA1UECAwGSXRhbGlhMRgwFgYD
VQQKDA9FLVZvdGluZyBzeXN0ZW0xIjAgBgNVBAsMGUUtVm90aW5nIHN5c3RlbSBh
dXRob3JpdHkxJDAiBgkqhkiG9w0BCQEWFUJhc2lsaWNhdGFAZXZvdGluZy5pdDAe
Fw0yMjA4MDMxMzI4MTRaFw0yMzA4MDMxMzI4MTRaMEsxDjAMBgNVBAMMBVRhbW15
MQswCQYDVQQGEwJJVDEPMA0GA1UECAwGSXRhbGlhMRswGQYDVQQKDBJSZWdpb25l
IEJhc2lsaWNhdGEwWTATBgcqhkjOPQIBBggqhkjOPQMBBwNCAASzAU9Iok/82pVa
5awrnTdcdBQ/Z+trm42H6N+i2ebTbX6jSk2R4onHcpEoCV8UIYrPed+Rqw0FGWvy
qB96Ohf+oyMwITAOBgNVHQ8BAf8EBAMCBaAwDwYDVR0TAQH/BAUwAwIBAzAKBggq
hkjOPQQDAgNIADBFAiBmuWyM1fGqKuf3deU/Asdkd2DvIJdcPH1vVF9/j58sBAIh
AP6ZmGm5xckP+5LqVGMwEbx48saOsDMzZdjvLjiyYfLB
-----END CERTIFICATE-----
