Certificate:
    Data:
        Version: 3 (0x2)
        Serial Number: 23 (0x17)
        Signature Algorithm: ecdsa-with-SHA256
        Issuer: CN=Regione Trentino_Alto_Adige, C=IT, ST=Italia, O=E-Voting system, OU=E-Voting system authority/emailAddress=Trentino_Alto_Adige@evoting.it
        Validity
            Not Before: Aug 26 15:19:57 2022 GMT
            Not After : Aug 26 15:19:57 2023 GMT
        Subject: CN=Tammy, C=IT, ST=Italia, O=Regione Trentino_Alto_Adige
        Subject Public Key Info:
            Public Key Algorithm: id-ecPublicKey
                Public-Key: (256 bit)
                pub:
                    04:cb:bc:0e:05:80:cd:dd:7e:a3:b1:71:44:51:7a:
                    83:f9:fc:02:5e:10:84:e9:29:03:21:1e:ed:69:ab:
                    0d:cc:b3:1e:de:32:0f:6b:c7:5a:b9:5d:91:56:bf:
                    2c:97:63:14:9e:2b:1e:1d:7b:ad:37:4b:7d:5c:4f:
                    ea:8a:94:99:eb
                ASN1 OID: secp256k1
        X509v3 extensions:
            X509v3 Key Usage: critical
                Digital Signature, Key Encipherment
            X509v3 Basic Constraints: critical
                CA:FALSE, pathlen:3
    Signature Algorithm: ecdsa-with-SHA256
         30:45:02:21:00:9d:de:6d:8a:e4:29:b3:ca:a4:09:7a:8d:46:
         05:89:b3:3c:01:4d:da:f8:15:d8:0b:79:33:1e:d4:44:32:83:
         e8:02:20:33:df:e5:ad:2a:6c:e4:43:9e:a2:1e:35:5e:0a:89:
         cd:d6:26:d4:71:cc:8b:e2:de:50:44:99:be:38:3c:2f:bc
-----BEGIN CERTIFICATE-----
MIICFTCCAbugAwIBAgIBFzAKBggqhkjOPQQDAjCBsTEkMCIGA1UEAwwbUmVnaW9u
ZSBUcmVudGlub19BbHRvX0FkaWdlMQswCQYDVQQGEwJJVDEPMA0GA1UECAwGSXRh
bGlhMRgwFgYDVQQKDA9FLVZvdGluZyBzeXN0ZW0xIjAgBgNVBAsMGUUtVm90aW5n
IHN5c3RlbSBhdXRob3JpdHkxLTArBgkqhkiG9w0BCQEWHlRyZW50aW5vX0FsdG9f
QWRpZ2VAZXZvdGluZy5pdDAeFw0yMjA4MjYxNTE5NTdaFw0yMzA4MjYxNTE5NTda
MFQxDjAMBgNVBAMMBVRhbW15MQswCQYDVQQGEwJJVDEPMA0GA1UECAwGSXRhbGlh
MSQwIgYDVQQKDBtSZWdpb25lIFRyZW50aW5vX0FsdG9fQWRpZ2UwVjAQBgcqhkjO
PQIBBgUrgQQACgNCAATLvA4FgM3dfqOxcURReoP5/AJeEITpKQMhHu1pqw3Msx7e
Mg9rx1q5XZFWvyyXYxSeKx4de603S31cT+qKlJnroyMwITAOBgNVHQ8BAf8EBAMC
BaAwDwYDVR0TAQH/BAUwAwIBAzAKBggqhkjOPQQDAgNIADBFAiEAnd5tiuQps8qk
CXqNRgWJszwBTdr4FdgLeTMe1EQyg+gCIDPf5a0qbORDnqIeNV4Kic3WJtRxzIvi
3lBEmb44PC+8
-----END CERTIFICATE-----
