Certificate:
    Data:
        Version: 3 (0x2)
        Serial Number: 16 (0x10)
        Signature Algorithm: ecdsa-with-SHA256
        Issuer: CN=Regione Sicilia, C=IT, ST=Italia, O=E-Voting system, OU=E-Voting system authority/emailAddress=Sicilia@evoting.it
        Validity
            Not Before: Aug  3 13:27:07 2022 GMT
            Not After : Aug  3 13:27:07 2023 GMT
        Subject: CN=Tandy, C=IT, ST=Italia, O=Regione Sicilia
        Subject Public Key Info:
            Public Key Algorithm: id-ecPublicKey
                Public-Key: (256 bit)
                pub:
                    04:74:52:e2:32:d5:4e:28:f9:1e:7c:0a:c7:4d:17:
                    ab:8d:98:25:f6:e2:bc:bd:99:d5:8a:05:0e:31:a1:
                    c7:05:bf:a3:e3:64:bf:11:aa:3f:e0:71:7b:1d:1f:
                    32:8f:dc:a9:f1:3e:b9:75:40:59:ca:69:8e:2e:8c:
                    7f:c2:5c:79:9f
                ASN1 OID: prime256v1
                NIST CURVE: P-256
        X509v3 extensions:
            X509v3 Key Usage: critical
                Digital Signature, Key Encipherment
            X509v3 Basic Constraints: critical
                CA:FALSE, pathlen:3
    Signature Algorithm: ecdsa-with-SHA256
         30:45:02:21:00:87:a0:65:e0:7f:e5:6f:30:e3:57:e4:75:9d:
         6d:99:0a:ee:63:23:15:f9:e5:b7:77:37:1d:15:3e:ed:39:63:
         27:02:20:7c:ef:55:35:e8:fc:24:12:b6:ce:29:4e:10:5d:45:
         d0:0b:d5:48:5b:60:bc:4f:18:52:fc:d1:fc:50:a5:4e:49
-----BEGIN CERTIFICATE-----
MIIB9DCCAZqgAwIBAgIBEDAKBggqhkjOPQQDAjCBmTEYMBYGA1UEAwwPUmVnaW9u
ZSBTaWNpbGlhMQswCQYDVQQGEwJJVDEPMA0GA1UECAwGSXRhbGlhMRgwFgYDVQQK
DA9FLVZvdGluZyBzeXN0ZW0xIjAgBgNVBAsMGUUtVm90aW5nIHN5c3RlbSBhdXRo
b3JpdHkxITAfBgkqhkiG9w0BCQEWElNpY2lsaWFAZXZvdGluZy5pdDAeFw0yMjA4
MDMxMzI3MDdaFw0yMzA4MDMxMzI3MDdaMEgxDjAMBgNVBAMMBVRhbmR5MQswCQYD
VQQGEwJJVDEPMA0GA1UECAwGSXRhbGlhMRgwFgYDVQQKDA9SZWdpb25lIFNpY2ls
aWEwWTATBgcqhkjOPQIBBggqhkjOPQMBBwNCAAR0UuIy1U4o+R58CsdNF6uNmCX2
4ry9mdWKBQ4xoccFv6PjZL8Rqj/gcXsdHzKP3KnxPrl1QFnKaY4ujH/CXHmfoyMw
ITAOBgNVHQ8BAf8EBAMCBaAwDwYDVR0TAQH/BAUwAwIBAzAKBggqhkjOPQQDAgNI
ADBFAiEAh6Bl4H/lbzDjV+R1nW2ZCu5jIxX55bd3Nx0VPu05YycCIHzvVTXo/CQS
ts4pThBdRdAL1UhbYLxPGFL80fxQpU5J
-----END CERTIFICATE-----
