Certificate:
    Data:
        Version: 3 (0x2)
        Serial Number: 49 (0x31)
        Signature Algorithm: ecdsa-with-SHA256
        Issuer: CN=Regione Molise, C=IT, ST=Italia, O=E-Voting system, OU=E-Voting system authority/emailAddress=Molise@evoting.it
        Validity
            Not Before: Aug  3 13:28:35 2022 GMT
            Not After : Aug  3 13:28:35 2023 GMT
        Subject: CN=Tanya, C=IT, ST=Italia, O=Regione Molise
        Subject Public Key Info:
            Public Key Algorithm: id-ecPublicKey
                Public-Key: (256 bit)
                pub:
                    04:b9:a9:01:39:23:ca:f2:44:ad:1a:e5:0b:21:97:
                    59:10:95:dd:bd:d7:87:5d:0d:fa:53:4b:53:bd:62:
                    c1:cd:05:15:30:33:1d:25:50:11:66:a9:df:ef:3f:
                    1a:49:fc:75:a2:21:29:bc:c5:d9:59:9c:6c:ba:5c:
                    6a:17:36:88:ae
                ASN1 OID: prime256v1
                NIST CURVE: P-256
        X509v3 extensions:
            X509v3 Key Usage: critical
                Digital Signature, Key Encipherment
            X509v3 Basic Constraints: critical
                CA:FALSE, pathlen:3
    Signature Algorithm: ecdsa-with-SHA256
         30:45:02:20:48:49:59:07:80:b7:58:79:fd:a7:9c:0f:89:3b:
         fe:fd:d3:e7:d3:fa:c4:8b:ee:22:3a:ee:04:3c:8d:e8:50:42:
         02:21:00:c0:19:6d:4b:30:fe:bb:80:f4:b9:8f:23:20:4d:2f:
         91:d2:39:bd:7a:5a:d1:a2:46:96:47:03:b4:08:a5:c2:ec
-----BEGIN CERTIFICATE-----
MIIB8TCCAZegAwIBAgIBMTAKBggqhkjOPQQDAjCBlzEXMBUGA1UEAwwOUmVnaW9u
ZSBNb2xpc2UxCzAJBgNVBAYTAklUMQ8wDQYDVQQIDAZJdGFsaWExGDAWBgNVBAoM
D0UtVm90aW5nIHN5c3RlbTEiMCAGA1UECwwZRS1Wb3Rpbmcgc3lzdGVtIGF1dGhv
cml0eTEgMB4GCSqGSIb3DQEJARYRTW9saXNlQGV2b3RpbmcuaXQwHhcNMjIwODAz
MTMyODM1WhcNMjMwODAzMTMyODM1WjBHMQ4wDAYDVQQDDAVUYW55YTELMAkGA1UE
BhMCSVQxDzANBgNVBAgMBkl0YWxpYTEXMBUGA1UECgwOUmVnaW9uZSBNb2xpc2Uw
WTATBgcqhkjOPQIBBggqhkjOPQMBBwNCAAS5qQE5I8ryRK0a5Qshl1kQld2914dd
DfpTS1O9YsHNBRUwMx0lUBFmqd/vPxpJ/HWiISm8xdlZnGy6XGoXNoiuoyMwITAO
BgNVHQ8BAf8EBAMCBaAwDwYDVR0TAQH/BAUwAwIBAzAKBggqhkjOPQQDAgNIADBF
AiBISVkHgLdYef2nnA+JO/790+fT+sSL7iI67gQ8jehQQgIhAMAZbUsw/ruA9LmP
IyBNL5HSOb16WtGiRpZHA7QIpcLs
-----END CERTIFICATE-----
