Certificate:
    Data:
        Version: 3 (0x2)
        Serial Number: 6 (0x6)
        Signature Algorithm: ecdsa-with-SHA256
        Issuer: CN=Regione Trentino_Alto_Adige, C=IT, ST=Italia, O=E-Voting system, OU=E-Voting system authority/emailAddress=Trentino_Alto_Adige@evoting.it
        Validity
            Not Before: Aug 26 15:18:41 2022 GMT
            Not After : Aug 26 15:18:41 2023 GMT
        Subject: CN=Tanya, C=IT, ST=Italia, O=Regione Trentino_Alto_Adige
        Subject Public Key Info:
            Public Key Algorithm: id-ecPublicKey
                Public-Key: (256 bit)
                pub:
                    04:31:21:a7:f3:6f:9a:c1:db:f1:10:da:00:4f:cb:
                    78:cb:06:16:5c:50:94:bd:1c:8a:21:da:31:73:33:
                    3e:07:9f:e4:60:14:f2:47:ea:da:72:a7:08:33:8b:
                    f8:70:67:ca:1f:c0:27:79:d7:7e:59:82:24:bd:c3:
                    cc:3b:77:45:ff
                ASN1 OID: secp256k1
        X509v3 extensions:
            X509v3 Key Usage: critical
                Digital Signature, Key Encipherment
            X509v3 Basic Constraints: critical
                CA:FALSE, pathlen:3
    Signature Algorithm: ecdsa-with-SHA256
         30:46:02:21:00:de:ed:63:d3:76:ec:23:18:7c:ae:15:e7:94:
         bf:fc:e5:d4:37:7e:e9:fd:4f:c9:aa:59:bd:97:3d:6f:c4:72:
         b2:02:21:00:c2:11:3b:94:4e:45:e9:27:5c:d0:ff:fe:6f:9f:
         9a:a1:da:da:dc:e5:4e:76:fe:6b:7d:0f:b9:06:2a:31:d0:6e
-----BEGIN CERTIFICATE-----
MIICFjCCAbugAwIBAgIBBjAKBggqhkjOPQQDAjCBsTEkMCIGA1UEAwwbUmVnaW9u
ZSBUcmVudGlub19BbHRvX0FkaWdlMQswCQYDVQQGEwJJVDEPMA0GA1UECAwGSXRh
bGlhMRgwFgYDVQQKDA9FLVZvdGluZyBzeXN0ZW0xIjAgBgNVBAsMGUUtVm90aW5n
IHN5c3RlbSBhdXRob3JpdHkxLTArBgkqhkiG9w0BCQEWHlRyZW50aW5vX0FsdG9f
QWRpZ2VAZXZvdGluZy5pdDAeFw0yMjA4MjYxNTE4NDFaFw0yMzA4MjYxNTE4NDFa
MFQxDjAMBgNVBAMMBVRhbnlhMQswCQYDVQQGEwJJVDEPMA0GA1UECAwGSXRhbGlh
MSQwIgYDVQQKDBtSZWdpb25lIFRyZW50aW5vX0FsdG9fQWRpZ2UwVjAQBgcqhkjO
PQIBBgUrgQQACgNCAAQxIafzb5rB2/EQ2gBPy3jLBhZcUJS9HIoh2jFzMz4Hn+Rg
FPJH6tpypwgzi/hwZ8ofwCd5135ZgiS9w8w7d0X/oyMwITAOBgNVHQ8BAf8EBAMC
BaAwDwYDVR0TAQH/BAUwAwIBAzAKBggqhkjOPQQDAgNJADBGAiEA3u1j03bsIxh8
rhXnlL/85dQ3fun9T8mqWb2XPW/EcrICIQDCETuUTkXpJ1zQ//5vn5qh2trc5U52
/mt9D7kGKjHQbg==
-----END CERTIFICATE-----
