Certificate:
    Data:
        Version: 3 (0x2)
        Serial Number: 15 (0xf)
        Signature Algorithm: ecdsa-with-SHA256
        Issuer: CN=Regione Marche, C=IT, ST=Italia, O=E-Voting system, OU=E-Voting system authority/emailAddress=Marche@evoting.it
        Validity
            Not Before: Aug 26 15:19:48 2022 GMT
            Not After : Aug 26 15:19:48 2023 GMT
        Subject: CN=Tara, C=IT, ST=Italia, O=Regione Marche
        Subject Public Key Info:
            Public Key Algorithm: id-ecPublicKey
                Public-Key: (256 bit)
                pub:
                    04:69:41:7e:66:5e:c1:8d:2e:32:18:ca:f5:fa:fd:
                    64:b6:a3:47:c8:ee:ba:44:a2:76:da:22:7f:b9:1b:
                    78:93:b2:5f:f3:a7:19:b9:9b:6a:e3:05:84:32:de:
                    a9:8a:b3:0f:3a:9e:96:b0:3a:c4:00:af:91:5a:28:
                    4a:05:20:bf:a7
                ASN1 OID: secp256k1
        X509v3 extensions:
            X509v3 Key Usage: critical
                Digital Signature, Key Encipherment
            X509v3 Basic Constraints: critical
                CA:FALSE, pathlen:3
    Signature Algorithm: ecdsa-with-SHA256
         30:45:02:21:00:b5:72:3b:1c:10:4d:01:fd:9d:67:19:79:2d:
         33:ce:18:39:40:4d:8a:da:ad:31:b5:36:1f:28:55:b7:ef:37:
         36:02:20:6d:a9:fd:c3:52:af:58:b2:9f:dc:f6:b1:65:93:18:
         55:55:77:88:9c:de:e7:ab:1f:71:70:ed:96:b9:34:7f:71
-----BEGIN CERTIFICATE-----
MIIB7TCCAZOgAwIBAgIBDzAKBggqhkjOPQQDAjCBlzEXMBUGA1UEAwwOUmVnaW9u
ZSBNYXJjaGUxCzAJBgNVBAYTAklUMQ8wDQYDVQQIDAZJdGFsaWExGDAWBgNVBAoM
D0UtVm90aW5nIHN5c3RlbTEiMCAGA1UECwwZRS1Wb3Rpbmcgc3lzdGVtIGF1dGhv
cml0eTEgMB4GCSqGSIb3DQEJARYRTWFyY2hlQGV2b3RpbmcuaXQwHhcNMjIwODI2
MTUxOTQ4WhcNMjMwODI2MTUxOTQ4WjBGMQ0wCwYDVQQDDARUYXJhMQswCQYDVQQG
EwJJVDEPMA0GA1UECAwGSXRhbGlhMRcwFQYDVQQKDA5SZWdpb25lIE1hcmNoZTBW
MBAGByqGSM49AgEGBSuBBAAKA0IABGlBfmZewY0uMhjK9fr9ZLajR8juukSidtoi
f7kbeJOyX/OnGbmbauMFhDLeqYqzDzqelrA6xACvkVooSgUgv6ejIzAhMA4GA1Ud
DwEB/wQEAwIFoDAPBgNVHRMBAf8EBTADAgEDMAoGCCqGSM49BAMCA0gAMEUCIQC1
cjscEE0B/Z1nGXktM84YOUBNitqtMbU2HyhVt+83NgIgban9w1KvWLKf3PaxZZMY
VVV3iJze56sfcXDtlrk0f3E=
-----END CERTIFICATE-----
