Certificate:
    Data:
        Version: 3 (0x2)
        Serial Number: 42 (0x2a)
        Signature Algorithm: ecdsa-with-SHA256
        Issuer: CN=Regione Toscana, C=IT, ST=Italia, O=E-Voting system, OU=E-Voting system authority/emailAddress=Toscana@evoting.it
        Validity
            Not Before: Aug  3 13:28:23 2022 GMT
            Not After : Aug  3 13:28:23 2023 GMT
        Subject: CN=Tera, C=IT, ST=Italia, O=Regione Toscana
        Subject Public Key Info:
            Public Key Algorithm: id-ecPublicKey
                Public-Key: (256 bit)
                pub:
                    04:3d:74:9e:b7:28:ca:bd:d4:30:8f:f0:c2:b7:b6:
                    8f:34:96:aa:59:82:86:e8:48:d0:07:48:89:86:86:
                    fd:e6:a5:82:0f:8c:1f:0c:16:b2:9e:ce:ef:31:c6:
                    ec:df:44:f1:61:46:01:4b:64:ff:73:1d:ee:24:f8:
                    2e:25:ea:c1:4c
                ASN1 OID: prime256v1
                NIST CURVE: P-256
        X509v3 extensions:
            X509v3 Key Usage: critical
                Digital Signature, Key Encipherment
            X509v3 Basic Constraints: critical
                CA:FALSE, pathlen:3
    Signature Algorithm: ecdsa-with-SHA256
         30:45:02:20:3f:79:2e:c5:3e:73:a0:6f:f7:d8:eb:72:04:71:
         a6:55:43:ec:66:2d:ec:ea:16:d6:d9:fe:3d:23:0b:f5:34:7d:
         02:21:00:d1:52:2a:1e:46:a6:e3:48:01:dd:90:5e:0b:d2:cd:
         5d:83:f1:0d:26:c4:b5:37:d7:18:ec:16:45:10:43:ad:fe
-----BEGIN CERTIFICATE-----
MIIB8zCCAZmgAwIBAgIBKjAKBggqhkjOPQQDAjCBmTEYMBYGA1UEAwwPUmVnaW9u
ZSBUb3NjYW5hMQswCQYDVQQGEwJJVDEPMA0GA1UECAwGSXRhbGlhMRgwFgYDVQQK
DA9FLVZvdGluZyBzeXN0ZW0xIjAgBgNVBAsMGUUtVm90aW5nIHN5c3RlbSBhdXRo
b3JpdHkxITAfBgkqhkiG9w0BCQEWElRvc2NhbmFAZXZvdGluZy5pdDAeFw0yMjA4
MDMxMzI4MjNaFw0yMzA4MDMxMzI4MjNaMEcxDTALBgNVBAMMBFRlcmExCzAJBgNV
BAYTAklUMQ8wDQYDVQQIDAZJdGFsaWExGDAWBgNVBAoMD1JlZ2lvbmUgVG9zY2Fu
YTBZMBMGByqGSM49AgEGCCqGSM49AwEHA0IABD10nrcoyr3UMI/wwre2jzSWqlmC
huhI0AdIiYaG/ealgg+MHwwWsp7O7zHG7N9E8WFGAUtk/3Md7iT4LiXqwUyjIzAh
MA4GA1UdDwEB/wQEAwIFoDAPBgNVHRMBAf8EBTADAgEDMAoGCCqGSM49BAMCA0gA
MEUCID95LsU+c6Bv99jrcgRxplVD7GYt7OoW1tn+PSML9TR9AiEA0VIqHkam40gB
3ZBeC9LNXYPxDSbEtTfXGOwWRRBDrf4=
-----END CERTIFICATE-----
