Certificate:
    Data:
        Version: 3 (0x2)
        Serial Number: 55 (0x37)
        Signature Algorithm: ecdsa-with-SHA256
        Issuer: CN=Regione Lombardia, C=IT, ST=Italia, O=E-Voting system, OU=E-Voting system authority/emailAddress=Lombardia@evoting.it
        Validity
            Not Before: Aug 26 15:21:43 2022 GMT
            Not After : Aug 26 15:21:43 2023 GMT
        Subject: CN=Teresa, C=IT, ST=Italia, O=Regione Lombardia
        Subject Public Key Info:
            Public Key Algorithm: id-ecPublicKey
                Public-Key: (256 bit)
                pub:
                    04:06:d9:cf:c2:a1:78:b5:a4:9b:7b:3b:81:c5:a7:
                    6f:b7:1b:51:ff:1b:7c:88:60:36:26:77:a1:c5:80:
                    14:63:ad:f9:41:2a:e5:21:23:2d:76:2f:22:84:c4:
                    35:06:8b:e2:bc:e6:74:dd:6c:6a:db:7a:05:1e:e6:
                    cf:58:31:fd:51
                ASN1 OID: secp256k1
        X509v3 extensions:
            X509v3 Key Usage: critical
                Digital Signature, Key Encipherment
            X509v3 Basic Constraints: critical
                CA:FALSE, pathlen:3
    Signature Algorithm: ecdsa-with-SHA256
         30:45:02:20:6f:94:bc:d2:b5:93:b9:5d:fc:e2:fd:4e:22:d2:
         c3:a7:9f:37:26:2a:db:2c:74:e9:8f:24:b0:2e:fe:e8:d1:43:
         02:21:00:bf:fb:76:b7:77:36:61:c5:ed:f4:85:5e:c5:6c:e4:
         5f:1d:4d:27:65:52:8d:4b:12:2d:6e:f1:f2:7e:4d:bd:67
-----BEGIN CERTIFICATE-----
MIIB+DCCAZ6gAwIBAgIBNzAKBggqhkjOPQQDAjCBnTEaMBgGA1UEAwwRUmVnaW9u
ZSBMb21iYXJkaWExCzAJBgNVBAYTAklUMQ8wDQYDVQQIDAZJdGFsaWExGDAWBgNV
BAoMD0UtVm90aW5nIHN5c3RlbTEiMCAGA1UECwwZRS1Wb3Rpbmcgc3lzdGVtIGF1
dGhvcml0eTEjMCEGCSqGSIb3DQEJARYUTG9tYmFyZGlhQGV2b3RpbmcuaXQwHhcN
MjIwODI2MTUyMTQzWhcNMjMwODI2MTUyMTQzWjBLMQ8wDQYDVQQDDAZUZXJlc2Ex
CzAJBgNVBAYTAklUMQ8wDQYDVQQIDAZJdGFsaWExGjAYBgNVBAoMEVJlZ2lvbmUg
TG9tYmFyZGlhMFYwEAYHKoZIzj0CAQYFK4EEAAoDQgAEBtnPwqF4taSbezuBxadv
txtR/xt8iGA2JnehxYAUY635QSrlISMtdi8ihMQ1BovivOZ03Wxq23oFHubPWDH9
UaMjMCEwDgYDVR0PAQH/BAQDAgWgMA8GA1UdEwEB/wQFMAMCAQMwCgYIKoZIzj0E
AwIDSAAwRQIgb5S80rWTuV384v1OItLDp583JirbLHTpjySwLv7o0UMCIQC/+3a3
dzZhxe30hV7FbORfHU0nZVKNSxItbvHyfk29Zw==
-----END CERTIFICATE-----
