Certificate:
    Data:
        Version: 3 (0x2)
        Serial Number: 35 (0x23)
        Signature Algorithm: ecdsa-with-SHA256
        Issuer: CN=Regione Liguria, C=IT, ST=Italia, O=E-Voting system, OU=E-Voting system authority/emailAddress=Liguria@evoting.it
        Validity
            Not Before: Aug  3 13:27:31 2022 GMT
            Not After : Aug  3 13:27:31 2023 GMT
        Subject: CN=Terry, C=IT, ST=Italia, O=Regione Liguria
        Subject Public Key Info:
            Public Key Algorithm: id-ecPublicKey
                Public-Key: (256 bit)
                pub:
                    04:04:46:82:d5:8d:c2:26:d6:a4:97:c9:23:b1:64:
                    e3:7c:9a:ce:32:d1:f0:e3:c3:03:4e:d7:b1:f1:a6:
                    c5:fb:6b:7a:f0:8b:75:0e:22:cc:e4:a5:c0:b2:7a:
                    2f:94:94:02:9c:40:87:83:fd:63:2b:78:c4:aa:e1:
                    94:1f:d1:51:48
                ASN1 OID: prime256v1
                NIST CURVE: P-256
        X509v3 extensions:
            X509v3 Key Usage: critical
                Digital Signature, Key Encipherment
            X509v3 Basic Constraints: critical
                CA:FALSE, pathlen:3
    Signature Algorithm: ecdsa-with-SHA256
         30:45:02:20:08:19:bc:90:0c:da:08:9c:0e:bb:4d:6c:b1:e7:
         2d:9d:99:a7:d3:36:cf:66:cd:db:e9:24:b4:56:26:b9:de:11:
         02:21:00:ae:15:e1:85:ef:ff:5a:11:c8:1c:43:d6:77:47:2d:
         7f:7a:b9:c6:39:9f:89:e2:51:4d:f6:a8:01:42:51:34:99
-----BEGIN CERTIFICATE-----
MIIB9DCCAZqgAwIBAgIBIzAKBggqhkjOPQQDAjCBmTEYMBYGA1UEAwwPUmVnaW9u
ZSBMaWd1cmlhMQswCQYDVQQGEwJJVDEPMA0GA1UECAwGSXRhbGlhMRgwFgYDVQQK
DA9FLVZvdGluZyBzeXN0ZW0xIjAgBgNVBAsMGUUtVm90aW5nIHN5c3RlbSBhdXRo
b3JpdHkxITAfBgkqhkiG9w0BCQEWEkxpZ3VyaWFAZXZvdGluZy5pdDAeFw0yMjA4
MDMxMzI3MzFaFw0yMzA4MDMxMzI3MzFaMEgxDjAMBgNVBAMMBVRlcnJ5MQswCQYD
VQQGEwJJVDEPMA0GA1UECAwGSXRhbGlhMRgwFgYDVQQKDA9SZWdpb25lIExpZ3Vy
aWEwWTATBgcqhkjOPQIBBggqhkjOPQMBBwNCAAQERoLVjcIm1qSXySOxZON8ms4y
0fDjwwNO17HxpsX7a3rwi3UOIszkpcCyei+UlAKcQIeD/WMreMSq4ZQf0VFIoyMw
ITAOBgNVHQ8BAf8EBAMCBaAwDwYDVR0TAQH/BAUwAwIBAzAKBggqhkjOPQQDAgNI
ADBFAiAIGbyQDNoInA67TWyx5y2dmafTNs9mzdvpJLRWJrneEQIhAK4V4YXv/1oR
yBxD1ndHLX96ucY5n4niUU32qAFCUTSZ
-----END CERTIFICATE-----
