Certificate:
    Data:
        Version: 3 (0x2)
        Serial Number: 4 (0x4)
        Signature Algorithm: ecdsa-with-SHA256
        Issuer: CN=Regione Emilia_Romagna, C=IT, ST=Italia, O=E-Voting system, OU=E-Voting system authority/emailAddress=Emilia_Romagna@evoting.it
        Validity
            Not Before: Aug 26 15:18:30 2022 GMT
            Not After : Aug 26 15:18:30 2023 GMT
        Subject: CN=Terry, C=IT, ST=Italia, O=Regione Emilia_Romagna
        Subject Public Key Info:
            Public Key Algorithm: id-ecPublicKey
                Public-Key: (256 bit)
                pub:
                    04:d3:a3:96:6f:5d:b7:d9:4f:46:da:39:14:36:72:
                    c9:82:46:e3:b0:e6:cb:ed:54:84:c7:f8:88:3a:f4:
                    b3:b1:46:e1:e8:42:45:8b:93:df:b7:20:22:08:5d:
                    df:c3:0c:2a:12:6f:3f:a1:b7:36:08:84:b6:d9:82:
                    17:b6:00:f5:de
                ASN1 OID: secp256k1
        X509v3 extensions:
            X509v3 Key Usage: critical
                Digital Signature, Key Encipherment
            X509v3 Basic Constraints: critical
                CA:FALSE, pathlen:3
    Signature Algorithm: ecdsa-with-SHA256
         30:44:02:20:5b:00:fb:5c:b9:0f:05:da:88:2b:c5:3f:c4:79:
         84:fe:5d:8b:03:27:e0:5a:d0:e5:92:71:72:30:23:19:21:d9:
         02:20:56:7b:e9:66:6a:12:58:16:2a:ad:5d:96:ac:5e:4d:b7:
         99:44:80:4a:90:08:bc:9e:f8:67:01:86:bb:78:21:47
-----BEGIN CERTIFICATE-----
MIICBTCCAaygAwIBAgIBBDAKBggqhkjOPQQDAjCBpzEfMB0GA1UEAwwWUmVnaW9u
ZSBFbWlsaWFfUm9tYWduYTELMAkGA1UEBhMCSVQxDzANBgNVBAgMBkl0YWxpYTEY
MBYGA1UECgwPRS1Wb3Rpbmcgc3lzdGVtMSIwIAYDVQQLDBlFLVZvdGluZyBzeXN0
ZW0gYXV0aG9yaXR5MSgwJgYJKoZIhvcNAQkBFhlFbWlsaWFfUm9tYWduYUBldm90
aW5nLml0MB4XDTIyMDgyNjE1MTgzMFoXDTIzMDgyNjE1MTgzMFowTzEOMAwGA1UE
AwwFVGVycnkxCzAJBgNVBAYTAklUMQ8wDQYDVQQIDAZJdGFsaWExHzAdBgNVBAoM
FlJlZ2lvbmUgRW1pbGlhX1JvbWFnbmEwVjAQBgcqhkjOPQIBBgUrgQQACgNCAATT
o5ZvXbfZT0baORQ2csmCRuOw5svtVITH+Ig69LOxRuHoQkWLk9+3ICIIXd/DDCoS
bz+htzYIhLbZghe2APXeoyMwITAOBgNVHQ8BAf8EBAMCBaAwDwYDVR0TAQH/BAUw
AwIBAzAKBggqhkjOPQQDAgNHADBEAiBbAPtcuQ8F2ogrxT/EeYT+XYsDJ+Ba0OWS
cXIwIxkh2QIgVnvpZmoSWBYqrV2WrF5Nt5lEgEqQCLye+GcBhrt4IUc=
-----END CERTIFICATE-----
