Certificate:
    Data:
        Version: 3 (0x2)
        Serial Number: 21 (0x15)
        Signature Algorithm: ecdsa-with-SHA256
        Issuer: CN=Regione Campania, C=IT, ST=Italia, O=E-Voting system, OU=E-Voting system authority/emailAddress=Campania@evoting.it
        Validity
            Not Before: Aug  3 13:26:36 2022 GMT
            Not After : Aug  3 13:26:36 2023 GMT
        Subject: CN=Terrie, C=IT, ST=Italia, O=Regione Campania
        Subject Public Key Info:
            Public Key Algorithm: id-ecPublicKey
                Public-Key: (256 bit)
                pub:
                    04:c7:9c:41:20:42:9b:4c:25:9c:61:99:8f:48:bc:
                    5f:d1:33:de:f8:40:3c:e6:df:7d:e3:c8:b5:cd:77:
                    28:cc:44:bf:bb:82:03:84:a5:2a:42:60:a7:db:fc:
                    81:60:7d:46:4a:6d:b1:0d:a9:bf:b8:57:39:d4:6a:
                    e4:40:43:21:40
                ASN1 OID: prime256v1
                NIST CURVE: P-256
        X509v3 extensions:
            X509v3 Key Usage: critical
                Digital Signature, Key Encipherment
            X509v3 Basic Constraints: critical
                CA:FALSE, pathlen:3
    Signature Algorithm: ecdsa-with-SHA256
         30:45:02:20:31:79:db:e1:3a:18:88:a9:19:5c:0f:40:18:23:
         66:4a:81:4a:ce:80:e9:7e:fc:07:97:ed:4d:77:23:26:17:f4:
         02:21:00:91:d8:6b:c7:05:a0:62:83:7d:de:80:d5:e3:57:17:
         7b:63:9f:a0:0a:88:8f:27:c6:e7:5a:a5:c9:9d:cd:64:6d
-----BEGIN CERTIFICATE-----
MIIB+DCCAZ6gAwIBAgIBFTAKBggqhkjOPQQDAjCBmzEZMBcGA1UEAwwQUmVnaW9u
ZSBDYW1wYW5pYTELMAkGA1UEBhMCSVQxDzANBgNVBAgMBkl0YWxpYTEYMBYGA1UE
CgwPRS1Wb3Rpbmcgc3lzdGVtMSIwIAYDVQQLDBlFLVZvdGluZyBzeXN0ZW0gYXV0
aG9yaXR5MSIwIAYJKoZIhvcNAQkBFhNDYW1wYW5pYUBldm90aW5nLml0MB4XDTIy
MDgwMzEzMjYzNloXDTIzMDgwMzEzMjYzNlowSjEPMA0GA1UEAwwGVGVycmllMQsw
CQYDVQQGEwJJVDEPMA0GA1UECAwGSXRhbGlhMRkwFwYDVQQKDBBSZWdpb25lIENh
bXBhbmlhMFkwEwYHKoZIzj0CAQYIKoZIzj0DAQcDQgAEx5xBIEKbTCWcYZmPSLxf
0TPe+EA85t9948i1zXcozES/u4IDhKUqQmCn2/yBYH1GSm2xDam/uFc51GrkQEMh
QKMjMCEwDgYDVR0PAQH/BAQDAgWgMA8GA1UdEwEB/wQFMAMCAQMwCgYIKoZIzj0E
AwIDSAAwRQIgMXnb4ToYiKkZXA9AGCNmSoFKzoDpfvwHl+1NdyMmF/QCIQCR2GvH
BaBig33egNXjVxd7Y5+gCoiPJ8bnWqXJnc1kbQ==
-----END CERTIFICATE-----
