Certificate:
    Data:
        Version: 3 (0x2)
        Serial Number: 49 (0x31)
        Signature Algorithm: ecdsa-with-SHA256
        Issuer: CN=Regione Liguria, C=IT, ST=Italia, O=E-Voting system, OU=E-Voting system authority/emailAddress=Liguria@evoting.it
        Validity
            Not Before: Aug 26 15:20:57 2022 GMT
            Not After : Aug 26 15:20:57 2023 GMT
        Subject: CN=Terrence, C=IT, ST=Italia, O=Regione Liguria
        Subject Public Key Info:
            Public Key Algorithm: id-ecPublicKey
                Public-Key: (256 bit)
                pub:
                    04:be:65:d1:f8:dc:89:47:2b:a6:ce:0c:fe:39:cc:
                    a1:cb:57:2a:0c:1a:5d:60:9e:91:06:21:82:43:02:
                    32:2d:74:33:02:6a:7f:fd:91:3c:74:c5:09:43:15:
                    e6:b0:12:91:03:4c:ce:74:f2:42:79:6e:5c:8c:06:
                    10:a0:ba:0d:7f
                ASN1 OID: secp256k1
        X509v3 extensions:
            X509v3 Key Usage: critical
                Digital Signature, Key Encipherment
            X509v3 Basic Constraints: critical
                CA:FALSE, pathlen:3
    Signature Algorithm: ecdsa-with-SHA256
         30:45:02:20:0c:4a:0f:3d:00:73:4a:6f:04:98:d4:b8:3b:c0:
         49:6b:bc:e5:42:8b:2c:24:7c:81:e3:cc:21:0d:82:78:b7:26:
         02:21:00:eb:53:87:38:f4:87:10:e6:b1:5f:8b:7e:ba:82:65:
         57:f7:33:27:77:89:91:4d:5e:69:8c:36:37:84:b2:3f:34
-----BEGIN CERTIFICATE-----
MIIB9DCCAZqgAwIBAgIBMTAKBggqhkjOPQQDAjCBmTEYMBYGA1UEAwwPUmVnaW9u
ZSBMaWd1cmlhMQswCQYDVQQGEwJJVDEPMA0GA1UECAwGSXRhbGlhMRgwFgYDVQQK
DA9FLVZvdGluZyBzeXN0ZW0xIjAgBgNVBAsMGUUtVm90aW5nIHN5c3RlbSBhdXRo
b3JpdHkxITAfBgkqhkiG9w0BCQEWEkxpZ3VyaWFAZXZvdGluZy5pdDAeFw0yMjA4
MjYxNTIwNTdaFw0yMzA4MjYxNTIwNTdaMEsxETAPBgNVBAMMCFRlcnJlbmNlMQsw
CQYDVQQGEwJJVDEPMA0GA1UECAwGSXRhbGlhMRgwFgYDVQQKDA9SZWdpb25lIExp
Z3VyaWEwVjAQBgcqhkjOPQIBBgUrgQQACgNCAAS+ZdH43IlHK6bODP45zKHLVyoM
Gl1gnpEGIYJDAjItdDMCan/9kTx0xQlDFeawEpEDTM508kJ5blyMBhCgug1/oyMw
ITAOBgNVHQ8BAf8EBAMCBaAwDwYDVR0TAQH/BAUwAwIBAzAKBggqhkjOPQQDAgNI
ADBFAiAMSg89AHNKbwSY1Lg7wElrvOVCiywkfIHjzCENgni3JgIhAOtThzj0hxDm
sV+LfrqCZVf3Myd3iZFNXmmMNjeEsj80
-----END CERTIFICATE-----
