Certificate:
    Data:
        Version: 3 (0x2)
        Serial Number: 16 (0x10)
        Signature Algorithm: ecdsa-with-SHA256
        Issuer: CN=Regione Abruzzo, C=IT, ST=Italia, O=E-Voting system, OU=E-Voting system authority/emailAddress=Abruzzo@evoting.it
        Validity
            Not Before: Aug  3 13:26:29 2022 GMT
            Not After : Aug  3 13:26:29 2023 GMT
        Subject: CN=Tessie, C=IT, ST=Italia, O=Regione Abruzzo
        Subject Public Key Info:
            Public Key Algorithm: id-ecPublicKey
                Public-Key: (256 bit)
                pub:
                    04:8e:96:61:56:d1:d3:88:ba:e5:b9:24:b3:47:50:
                    7b:83:f3:52:76:59:14:8b:60:b8:d1:90:d8:46:ff:
                    79:60:88:04:29:48:78:13:da:de:38:dc:68:5d:16:
                    89:38:52:d1:05:9c:42:2a:34:bb:bd:f2:4e:8d:d0:
                    b9:cc:00:7c:d2
                ASN1 OID: prime256v1
                NIST CURVE: P-256
        X509v3 extensions:
            X509v3 Key Usage: critical
                Digital Signature, Key Encipherment
            X509v3 Basic Constraints: critical
                CA:FALSE, pathlen:3
    Signature Algorithm: ecdsa-with-SHA256
         30:45:02:20:4d:b3:99:6c:62:a2:f3:bf:bb:e3:b1:19:62:37:
         e1:1a:33:6d:4a:76:f0:45:dd:c0:6b:33:5e:9b:83:db:5f:d9:
         02:21:00:b6:f8:7b:e5:b2:aa:f9:72:0f:64:4e:4c:1b:42:90:
         75:66:86:e6:e6:b8:a6:7d:a6:6f:ab:e0:49:c6:37:c6:aa
-----BEGIN CERTIFICATE-----
MIIB9TCCAZugAwIBAgIBEDAKBggqhkjOPQQDAjCBmTEYMBYGA1UEAwwPUmVnaW9u
ZSBBYnJ1enpvMQswCQYDVQQGEwJJVDEPMA0GA1UECAwGSXRhbGlhMRgwFgYDVQQK
DA9FLVZvdGluZyBzeXN0ZW0xIjAgBgNVBAsMGUUtVm90aW5nIHN5c3RlbSBhdXRo
b3JpdHkxITAfBgkqhkiG9w0BCQEWEkFicnV6em9AZXZvdGluZy5pdDAeFw0yMjA4
MDMxMzI2MjlaFw0yMzA4MDMxMzI2MjlaMEkxDzANBgNVBAMMBlRlc3NpZTELMAkG
A1UEBhMCSVQxDzANBgNVBAgMBkl0YWxpYTEYMBYGA1UECgwPUmVnaW9uZSBBYnJ1
enpvMFkwEwYHKoZIzj0CAQYIKoZIzj0DAQcDQgAEjpZhVtHTiLrluSSzR1B7g/NS
dlkUi2C40ZDYRv95YIgEKUh4E9reONxoXRaJOFLRBZxCKjS7vfJOjdC5zAB80qMj
MCEwDgYDVR0PAQH/BAQDAgWgMA8GA1UdEwEB/wQFMAMCAQMwCgYIKoZIzj0EAwID
SAAwRQIgTbOZbGKi87+747EZYjfhGjNtSnbwRd3AazNem4PbX9kCIQC2+Hvlsqr5
cg9kTkwbQpB1Zobm5rimfaZvq+BJxjfGqg==
-----END CERTIFICATE-----
