Certificate:
    Data:
        Version: 3 (0x2)
        Serial Number: 20 (0x14)
        Signature Algorithm: ecdsa-with-SHA256
        Issuer: CN=Regione Basilicata, C=IT, ST=Italia, O=E-Voting system, OU=E-Voting system authority/emailAddress=Basilicata@evoting.it
        Validity
            Not Before: Aug  3 13:26:28 2022 GMT
            Not After : Aug  3 13:26:28 2023 GMT
        Subject: CN=Thaddeus, C=IT, ST=Italia, O=Regione Basilicata
        Subject Public Key Info:
            Public Key Algorithm: id-ecPublicKey
                Public-Key: (256 bit)
                pub:
                    04:21:19:bc:a4:78:fe:2b:25:45:91:29:ca:11:1f:
                    ef:b7:c2:a3:a5:99:38:39:fa:6b:a4:bf:f4:97:37:
                    c9:99:bf:f5:ff:f5:4b:e7:d6:47:74:69:ca:54:f1:
                    a4:03:73:ca:c8:bd:52:ff:d9:12:4e:ba:31:f9:44:
                    b8:e1:27:9c:90
                ASN1 OID: prime256v1
                NIST CURVE: P-256
        X509v3 extensions:
            X509v3 Key Usage: critical
                Digital Signature, Key Encipherment
            X509v3 Basic Constraints: critical
                CA:FALSE, pathlen:3
    Signature Algorithm: ecdsa-with-SHA256
         30:45:02:21:00:c9:78:3a:25:0e:e2:ae:e0:d3:cd:09:8f:08:
         53:5c:6f:82:f7:1c:26:5c:54:94:ad:60:9d:0c:f5:33:f8:89:
         5a:02:20:45:f6:f9:57:b9:e9:93:65:1d:13:5e:80:d4:03:35:
         71:9a:fe:e3:fb:10:1b:89:69:bc:a5:28:5d:3f:9b:d4:41
-----BEGIN CERTIFICATE-----
MIICADCCAaagAwIBAgIBFDAKBggqhkjOPQQDAjCBnzEbMBkGA1UEAwwSUmVnaW9u
ZSBCYXNpbGljYXRhMQswCQYDVQQGEwJJVDEPMA0GA1UECAwGSXRhbGlhMRgwFgYD
VQQKDA9FLVZvdGluZyBzeXN0ZW0xIjAgBgNVBAsMGUUtVm90aW5nIHN5c3RlbSBh
dXRob3JpdHkxJDAiBgkqhkiG9w0BCQEWFUJhc2lsaWNhdGFAZXZvdGluZy5pdDAe
Fw0yMjA4MDMxMzI2MjhaFw0yMzA4MDMxMzI2MjhaME4xETAPBgNVBAMMCFRoYWRk
ZXVzMQswCQYDVQQGEwJJVDEPMA0GA1UECAwGSXRhbGlhMRswGQYDVQQKDBJSZWdp
b25lIEJhc2lsaWNhdGEwWTATBgcqhkjOPQIBBggqhkjOPQMBBwNCAAQhGbykeP4r
JUWRKcoRH++3wqOlmTg5+mukv/SXN8mZv/X/9Uvn1kd0acpU8aQDc8rIvVL/2RJO
ujH5RLjhJ5yQoyMwITAOBgNVHQ8BAf8EBAMCBaAwDwYDVR0TAQH/BAUwAwIBAzAK
BggqhkjOPQQDAgNIADBFAiEAyXg6JQ7iruDTzQmPCFNcb4L3HCZcVJStYJ0M9TP4
iVoCIEX2+Ve56ZNlHRNegNQDNXGa/uP7EBuJabylKF0/m9RB
-----END CERTIFICATE-----
