Certificate:
    Data:
        Version: 3 (0x2)
        Serial Number: 26 (0x1a)
        Signature Algorithm: ecdsa-with-SHA256
        Issuer: CN=Regione Campania, C=IT, ST=Italia, O=E-Voting system, OU=E-Voting system authority/emailAddress=Campania@evoting.it
        Validity
            Not Before: Aug  3 13:26:51 2022 GMT
            Not After : Aug  3 13:26:51 2023 GMT
        Subject: CN=Thelma, C=IT, ST=Italia, O=Regione Campania
        Subject Public Key Info:
            Public Key Algorithm: id-ecPublicKey
                Public-Key: (256 bit)
                pub:
                    04:72:bf:5c:d9:ec:ff:66:b1:9e:ee:67:d5:38:89:
                    10:c8:a0:a3:18:83:ce:d2:ce:89:39:71:da:bc:8f:
                    cc:9c:97:77:8b:14:a3:4e:6e:3a:b5:f4:f5:91:83:
                    e0:6b:7c:4e:60:13:1d:73:ae:e4:f3:df:f0:41:e9:
                    3a:ce:19:45:8d
                ASN1 OID: prime256v1
                NIST CURVE: P-256
        X509v3 extensions:
            X509v3 Key Usage: critical
                Digital Signature, Key Encipherment
            X509v3 Basic Constraints: critical
                CA:FALSE, pathlen:3
    Signature Algorithm: ecdsa-with-SHA256
         30:46:02:21:00:bf:68:33:93:36:de:34:bc:9c:64:7c:f7:eb:
         6f:ac:61:41:9c:5d:22:77:9b:4c:f1:72:14:dc:48:61:42:c4:
         61:02:21:00:a8:e6:aa:aa:15:a8:14:95:a1:aa:c5:66:1e:38:
         60:51:46:5e:74:fb:3f:fe:d5:92:b7:b1:04:d1:ab:b6:bb:39
-----BEGIN CERTIFICATE-----
MIIB+TCCAZ6gAwIBAgIBGjAKBggqhkjOPQQDAjCBmzEZMBcGA1UEAwwQUmVnaW9u
ZSBDYW1wYW5pYTELMAkGA1UEBhMCSVQxDzANBgNVBAgMBkl0YWxpYTEYMBYGA1UE
CgwPRS1Wb3Rpbmcgc3lzdGVtMSIwIAYDVQQLDBlFLVZvdGluZyBzeXN0ZW0gYXV0
aG9yaXR5MSIwIAYJKoZIhvcNAQkBFhNDYW1wYW5pYUBldm90aW5nLml0MB4XDTIy
MDgwMzEzMjY1MVoXDTIzMDgwMzEzMjY1MVowSjEPMA0GA1UEAwwGVGhlbG1hMQsw
CQYDVQQGEwJJVDEPMA0GA1UECAwGSXRhbGlhMRkwFwYDVQQKDBBSZWdpb25lIENh
bXBhbmlhMFkwEwYHKoZIzj0CAQYIKoZIzj0DAQcDQgAEcr9c2ez/ZrGe7mfVOIkQ
yKCjGIPO0s6JOXHavI/MnJd3ixSjTm46tfT1kYPga3xOYBMdc67k89/wQek6zhlF
jaMjMCEwDgYDVR0PAQH/BAQDAgWgMA8GA1UdEwEB/wQFMAMCAQMwCgYIKoZIzj0E
AwIDSQAwRgIhAL9oM5M23jS8nGR89+tvrGFBnF0id5tM8XIU3EhhQsRhAiEAqOaq
qhWoFJWhqsVmHjhgUUZedPs//tWSt7EE0au2uzk=
-----END CERTIFICATE-----
