Certificate:
    Data:
        Version: 3 (0x2)
        Serial Number: 24 (0x18)
        Signature Algorithm: ecdsa-with-SHA256
        Issuer: CN=Regione Molise, C=IT, ST=Italia, O=E-Voting system, OU=E-Voting system authority/emailAddress=Molise@evoting.it
        Validity
            Not Before: Aug 26 15:20:21 2022 GMT
            Not After : Aug 26 15:20:21 2023 GMT
        Subject: CN=Thelma, C=IT, ST=Italia, O=Regione Molise
        Subject Public Key Info:
            Public Key Algorithm: id-ecPublicKey
                Public-Key: (256 bit)
                pub:
                    04:18:78:9f:81:48:7c:1d:77:dc:95:a4:41:15:44:
                    57:ef:f7:a2:a6:90:d7:ae:c3:3d:ee:aa:59:3b:81:
                    88:c8:93:9d:31:00:1d:ab:eb:98:86:ee:46:ae:85:
                    5d:77:b5:8a:1e:8d:8e:d8:2a:9f:ad:02:78:54:b5:
                    75:0e:8c:33:79
                ASN1 OID: secp256k1
        X509v3 extensions:
            X509v3 Key Usage: critical
                Digital Signature, Key Encipherment
            X509v3 Basic Constraints: critical
                CA:FALSE, pathlen:3
    Signature Algorithm: ecdsa-with-SHA256
         30:44:02:20:73:2a:f9:17:1c:42:d1:68:05:48:39:a4:61:a0:
         ab:fb:ea:cb:a6:92:3b:dc:2b:f1:9e:ab:e6:4d:09:97:04:b0:
         02:20:6e:b1:5e:82:78:54:3f:80:cb:18:74:ae:38:46:a1:82:
         f1:c0:c2:fc:e8:8f:d2:78:26:db:14:1a:7a:e1:4e:30
-----BEGIN CERTIFICATE-----
MIIB7jCCAZWgAwIBAgIBGDAKBggqhkjOPQQDAjCBlzEXMBUGA1UEAwwOUmVnaW9u
ZSBNb2xpc2UxCzAJBgNVBAYTAklUMQ8wDQYDVQQIDAZJdGFsaWExGDAWBgNVBAoM
D0UtVm90aW5nIHN5c3RlbTEiMCAGA1UECwwZRS1Wb3Rpbmcgc3lzdGVtIGF1dGhv
cml0eTEgMB4GCSqGSIb3DQEJARYRTW9saXNlQGV2b3RpbmcuaXQwHhcNMjIwODI2
MTUyMDIxWhcNMjMwODI2MTUyMDIxWjBIMQ8wDQYDVQQDDAZUaGVsbWExCzAJBgNV
BAYTAklUMQ8wDQYDVQQIDAZJdGFsaWExFzAVBgNVBAoMDlJlZ2lvbmUgTW9saXNl
MFYwEAYHKoZIzj0CAQYFK4EEAAoDQgAEGHifgUh8HXfclaRBFURX7/eippDXrsM9
7qpZO4GIyJOdMQAdq+uYhu5GroVdd7WKHo2O2CqfrQJ4VLV1DowzeaMjMCEwDgYD
VR0PAQH/BAQDAgWgMA8GA1UdEwEB/wQFMAMCAQMwCgYIKoZIzj0EAwIDRwAwRAIg
cyr5FxxC0WgFSDmkYaCr++rLppI73CvxnqvmTQmXBLACIG6xXoJ4VD+Ayxh0rjhG
oYLxwML86I/SeCbbFBp64U4w
-----END CERTIFICATE-----
