Certificate:
    Data:
        Version: 3 (0x2)
        Serial Number: 18 (0x12)
        Signature Algorithm: ecdsa-with-SHA256
        Issuer: CN=Regione Abruzzo, C=IT, ST=Italia, O=E-Voting system, OU=E-Voting system authority/emailAddress=Abruzzo@evoting.it
        Validity
            Not Before: Aug  3 13:26:30 2022 GMT
            Not After : Aug  3 13:26:30 2023 GMT
        Subject: CN=Theodora, C=IT, ST=Italia, O=Regione Abruzzo
        Subject Public Key Info:
            Public Key Algorithm: id-ecPublicKey
                Public-Key: (256 bit)
                pub:
                    04:91:6a:58:47:80:be:69:41:ae:fd:1b:9b:eb:b7:
                    fe:a2:1f:7c:5b:02:c1:c8:64:29:8c:db:93:7b:5f:
                    61:b2:75:da:eb:01:4b:82:3f:a8:ac:11:79:c2:5f:
                    8b:61:dc:29:15:9f:30:8a:80:5a:eb:87:29:0a:81:
                    48:1a:f8:71:1a
                ASN1 OID: prime256v1
                NIST CURVE: P-256
        X509v3 extensions:
            X509v3 Key Usage: critical
                Digital Signature, Key Encipherment
            X509v3 Basic Constraints: critical
                CA:FALSE, pathlen:3
    Signature Algorithm: ecdsa-with-SHA256
         30:45:02:21:00:8c:7a:0a:d9:54:4a:de:33:a7:c4:aa:ba:cc:
         93:16:df:e6:a6:fb:62:46:1e:b5:3f:e5:91:6c:b2:6d:48:39:
         7a:02:20:33:ca:0b:e5:e3:23:8c:f4:ac:e4:70:0e:46:c1:57:
         7d:f9:0c:c3:04:87:ae:35:70:a1:1f:9d:65:b4:73:08:f9
-----BEGIN CERTIFICATE-----
MIIB9zCCAZ2gAwIBAgIBEjAKBggqhkjOPQQDAjCBmTEYMBYGA1UEAwwPUmVnaW9u
ZSBBYnJ1enpvMQswCQYDVQQGEwJJVDEPMA0GA1UECAwGSXRhbGlhMRgwFgYDVQQK
DA9FLVZvdGluZyBzeXN0ZW0xIjAgBgNVBAsMGUUtVm90aW5nIHN5c3RlbSBhdXRo
b3JpdHkxITAfBgkqhkiG9w0BCQEWEkFicnV6em9AZXZvdGluZy5pdDAeFw0yMjA4
MDMxMzI2MzBaFw0yMzA4MDMxMzI2MzBaMEsxETAPBgNVBAMMCFRoZW9kb3JhMQsw
CQYDVQQGEwJJVDEPMA0GA1UECAwGSXRhbGlhMRgwFgYDVQQKDA9SZWdpb25lIEFi
cnV6em8wWTATBgcqhkjOPQIBBggqhkjOPQMBBwNCAASRalhHgL5pQa79G5vrt/6i
H3xbAsHIZCmM25N7X2GyddrrAUuCP6isEXnCX4th3CkVnzCKgFrrhykKgUga+HEa
oyMwITAOBgNVHQ8BAf8EBAMCBaAwDwYDVR0TAQH/BAUwAwIBAzAKBggqhkjOPQQD
AgNIADBFAiEAjHoK2VRK3jOnxKq6zJMW3+am+2JGHrU/5ZFssm1IOXoCIDPKC+Xj
I4z0rORwDkbBV335DMMEh641cKEfnWW0cwj5
-----END CERTIFICATE-----
