Certificate:
    Data:
        Version: 3 (0x2)
        Serial Number: 3 (0x3)
        Signature Algorithm: ecdsa-with-SHA256
        Issuer: CN=Regione Sicilia, C=IT, ST=Italia, O=E-Voting system, OU=E-Voting system authority/emailAddress=Sicilia@evoting.it
        Validity
            Not Before: Aug 26 15:18:29 2022 GMT
            Not After : Aug 26 15:18:29 2023 GMT
        Subject: CN=Therese, C=IT, ST=Italia, O=Regione Sicilia
        Subject Public Key Info:
            Public Key Algorithm: id-ecPublicKey
                Public-Key: (256 bit)
                pub:
                    04:9d:8f:7e:16:e2:3f:ac:d5:62:9f:00:a8:95:8d:
                    78:7d:98:a2:c5:cc:87:08:74:45:cb:82:71:4f:3d:
                    1d:d6:82:e9:89:43:23:f1:e4:0e:d6:9a:00:6e:1a:
                    39:79:ed:70:e8:23:22:36:8c:9b:6b:a5:67:fe:0d:
                    55:b9:eb:97:4c
                ASN1 OID: secp256k1
        X509v3 extensions:
            X509v3 Key Usage: critical
                Digital Signature, Key Encipherment
            X509v3 Basic Constraints: critical
                CA:FALSE, pathlen:3
    Signature Algorithm: ecdsa-with-SHA256
         30:44:02:20:5c:f5:07:ef:7e:15:59:c6:ba:9a:19:32:62:08:
         73:c4:d7:81:db:0d:8b:3f:19:d1:bc:a3:05:c8:af:70:9c:f9:
         02:20:6c:55:74:a7:9b:78:52:2b:b1:6f:f0:19:14:8f:53:5b:
         9c:5f:40:65:8d:ae:2f:42:49:59:e2:ab:79:30:a9:6b
-----BEGIN CERTIFICATE-----
MIIB8jCCAZmgAwIBAgIBAzAKBggqhkjOPQQDAjCBmTEYMBYGA1UEAwwPUmVnaW9u
ZSBTaWNpbGlhMQswCQYDVQQGEwJJVDEPMA0GA1UECAwGSXRhbGlhMRgwFgYDVQQK
DA9FLVZvdGluZyBzeXN0ZW0xIjAgBgNVBAsMGUUtVm90aW5nIHN5c3RlbSBhdXRo
b3JpdHkxITAfBgkqhkiG9w0BCQEWElNpY2lsaWFAZXZvdGluZy5pdDAeFw0yMjA4
MjYxNTE4MjlaFw0yMzA4MjYxNTE4MjlaMEoxEDAOBgNVBAMMB1RoZXJlc2UxCzAJ
BgNVBAYTAklUMQ8wDQYDVQQIDAZJdGFsaWExGDAWBgNVBAoMD1JlZ2lvbmUgU2lj
aWxpYTBWMBAGByqGSM49AgEGBSuBBAAKA0IABJ2PfhbiP6zVYp8AqJWNeH2YosXM
hwh0RcuCcU89HdaC6YlDI/HkDtaaAG4aOXntcOgjIjaMm2ulZ/4NVbnrl0yjIzAh
MA4GA1UdDwEB/wQEAwIFoDAPBgNVHRMBAf8EBTADAgEDMAoGCCqGSM49BAMCA0cA
MEQCIFz1B+9+FVnGupoZMmIIc8TXgdsNiz8Z0byjBcivcJz5AiBsVXSnm3hSK7Fv
8BkUj1NbnF9AZY2uL0JJWeKreTCpaw==
-----END CERTIFICATE-----
