Certificate:
    Data:
        Version: 3 (0x2)
        Serial Number: 42 (0x2a)
        Signature Algorithm: ecdsa-with-SHA256
        Issuer: CN=Regione Piemonte, C=IT, ST=Italia, O=E-Voting system, OU=E-Voting system authority/emailAddress=Piemonte@evoting.it
        Validity
            Not Before: Aug  3 13:27:24 2022 GMT
            Not After : Aug  3 13:27:24 2023 GMT
        Subject: CN=Therese, C=IT, ST=Italia, O=Regione Piemonte
        Subject Public Key Info:
            Public Key Algorithm: id-ecPublicKey
                Public-Key: (256 bit)
                pub:
                    04:97:d7:7b:e6:32:99:9a:1d:df:55:a0:f2:13:05:
                    d2:7f:1c:69:5c:05:f3:16:b7:23:ef:88:96:4c:a2:
                    4f:61:93:5d:82:6b:ed:f7:44:e3:69:e7:87:a1:a9:
                    0e:3d:d1:f1:5e:99:53:9a:f0:d0:73:0c:ea:26:21:
                    e2:e8:3b:7b:11
                ASN1 OID: prime256v1
                NIST CURVE: P-256
        X509v3 extensions:
            X509v3 Key Usage: critical
                Digital Signature, Key Encipherment
            X509v3 Basic Constraints: critical
                CA:FALSE, pathlen:3
    Signature Algorithm: ecdsa-with-SHA256
         30:45:02:20:57:1d:0c:bf:ae:d5:dc:11:1d:f8:7c:cb:e5:26:
         3c:41:35:8d:74:de:ac:f0:e9:9c:37:50:90:db:49:cc:2b:02:
         02:21:00:f3:a6:7f:73:d1:9a:9d:19:a5:d1:53:fa:38:b6:5a:
         04:aa:53:38:be:d9:05:3a:85:3f:42:5c:fc:0e:8b:4a:80
-----BEGIN CERTIFICATE-----
MIIB+TCCAZ+gAwIBAgIBKjAKBggqhkjOPQQDAjCBmzEZMBcGA1UEAwwQUmVnaW9u
ZSBQaWVtb250ZTELMAkGA1UEBhMCSVQxDzANBgNVBAgMBkl0YWxpYTEYMBYGA1UE
CgwPRS1Wb3Rpbmcgc3lzdGVtMSIwIAYDVQQLDBlFLVZvdGluZyBzeXN0ZW0gYXV0
aG9yaXR5MSIwIAYJKoZIhvcNAQkBFhNQaWVtb250ZUBldm90aW5nLml0MB4XDTIy
MDgwMzEzMjcyNFoXDTIzMDgwMzEzMjcyNFowSzEQMA4GA1UEAwwHVGhlcmVzZTEL
MAkGA1UEBhMCSVQxDzANBgNVBAgMBkl0YWxpYTEZMBcGA1UECgwQUmVnaW9uZSBQ
aWVtb250ZTBZMBMGByqGSM49AgEGCCqGSM49AwEHA0IABJfXe+YymZod31Wg8hMF
0n8caVwF8xa3I++IlkyiT2GTXYJr7fdE42nnh6GpDj3R8V6ZU5rw0HMM6iYh4ug7
exGjIzAhMA4GA1UdDwEB/wQEAwIFoDAPBgNVHRMBAf8EBTADAgEDMAoGCCqGSM49
BAMCA0gAMEUCIFcdDL+u1dwRHfh8y+UmPEE1jXTerPDpnDdQkNtJzCsCAiEA86Z/
c9GanRml0VP6OLZaBKpTOL7ZBTqFP0Jc/A6LSoA=
-----END CERTIFICATE-----
