Certificate:
    Data:
        Version: 3 (0x2)
        Serial Number: 40 (0x28)
        Signature Algorithm: ecdsa-with-SHA256
        Issuer: CN=Regione Lazio, C=IT, ST=Italia, O=E-Voting system, OU=E-Voting system authority/emailAddress=Lazio@evoting.it
        Validity
            Not Before: Aug 26 15:21:19 2022 GMT
            Not After : Aug 26 15:21:19 2023 GMT
        Subject: CN=Theresa, C=IT, ST=Italia, O=Regione Lazio
        Subject Public Key Info:
            Public Key Algorithm: id-ecPublicKey
                Public-Key: (256 bit)
                pub:
                    04:f6:f1:8d:f4:91:2f:25:52:0d:5d:8b:ae:e5:9d:
                    6e:08:68:f4:3c:b5:de:24:f8:45:ae:98:4c:78:9b:
                    e3:20:15:58:bd:fe:bc:35:8f:7f:d9:91:63:d6:9b:
                    ca:5e:45:70:c5:cb:a4:05:79:56:20:f0:66:20:02:
                    e7:99:9a:00:d3
                ASN1 OID: secp256k1
        X509v3 extensions:
            X509v3 Key Usage: critical
                Digital Signature, Key Encipherment
            X509v3 Basic Constraints: critical
                CA:FALSE, pathlen:3
    Signature Algorithm: ecdsa-with-SHA256
         30:46:02:21:00:95:2e:9d:ff:58:0b:d0:9f:46:e1:cd:ac:6d:
         20:1a:8e:50:08:a6:e5:34:8f:8f:0c:83:e2:95:ab:b4:b7:2d:
         ae:02:21:00:98:26:fb:f5:15:f9:a9:ca:80:97:b2:6a:e8:2a:
         42:9d:35:17:e8:fc:97:ab:b4:a2:76:61:b2:38:c6:bd:ac:15
-----BEGIN CERTIFICATE-----
MIIB7jCCAZOgAwIBAgIBKDAKBggqhkjOPQQDAjCBlTEWMBQGA1UEAwwNUmVnaW9u
ZSBMYXppbzELMAkGA1UEBhMCSVQxDzANBgNVBAgMBkl0YWxpYTEYMBYGA1UECgwP
RS1Wb3Rpbmcgc3lzdGVtMSIwIAYDVQQLDBlFLVZvdGluZyBzeXN0ZW0gYXV0aG9y
aXR5MR8wHQYJKoZIhvcNAQkBFhBMYXppb0Bldm90aW5nLml0MB4XDTIyMDgyNjE1
MjExOVoXDTIzMDgyNjE1MjExOVowSDEQMA4GA1UEAwwHVGhlcmVzYTELMAkGA1UE
BhMCSVQxDzANBgNVBAgMBkl0YWxpYTEWMBQGA1UECgwNUmVnaW9uZSBMYXppbzBW
MBAGByqGSM49AgEGBSuBBAAKA0IABPbxjfSRLyVSDV2LruWdbgho9Dy13iT4Ra6Y
THib4yAVWL3+vDWPf9mRY9abyl5FcMXLpAV5ViDwZiAC55maANOjIzAhMA4GA1Ud
DwEB/wQEAwIFoDAPBgNVHRMBAf8EBTADAgEDMAoGCCqGSM49BAMCA0kAMEYCIQCV
Lp3/WAvQn0bhzaxtIBqOUAim5TSPjwyD4pWrtLctrgIhAJgm+/UV+anKgJeyaugq
Qp01F+j8l6u0onZhsjjGvawV
-----END CERTIFICATE-----
