Certificate:
    Data:
        Version: 3 (0x2)
        Serial Number: 15 (0xf)
        Signature Algorithm: ecdsa-with-SHA256
        Issuer: CN=Regione Lombardia, C=IT, ST=Italia, O=E-Voting system, OU=E-Voting system authority/emailAddress=Lombardia@evoting.it
        Validity
            Not Before: Aug 26 15:19:27 2022 GMT
            Not After : Aug 26 15:19:27 2023 GMT
        Subject: CN=Thomas, C=IT, ST=Italia, O=Regione Lombardia
        Subject Public Key Info:
            Public Key Algorithm: id-ecPublicKey
                Public-Key: (256 bit)
                pub:
                    04:28:aa:55:65:c0:ca:bb:35:17:cc:b1:08:0d:bb:
                    6e:9c:2a:05:8b:c0:0b:90:46:7c:04:ae:89:16:f8:
                    6c:12:33:0e:c2:ca:ae:9d:21:e0:c4:3c:37:ef:a9:
                    f2:bf:fc:fc:a6:e5:75:6d:32:cc:78:b9:88:09:37:
                    a1:e1:97:9d:d2
                ASN1 OID: secp256k1
        X509v3 extensions:
            X509v3 Key Usage: critical
                Digital Signature, Key Encipherment
            X509v3 Basic Constraints: critical
                CA:FALSE, pathlen:3
    Signature Algorithm: ecdsa-with-SHA256
         30:44:02:20:02:37:ec:31:56:b7:4b:4f:bb:bc:39:1c:c0:25:
         f2:69:28:8b:82:31:d6:f4:52:49:77:66:69:f4:ee:0f:52:69:
         02:20:08:ed:ca:7a:d4:24:c2:37:e2:02:76:0d:9b:16:a3:6a:
         c9:22:18:a2:bf:3a:60:42:45:51:84:35:aa:38:2e:d1
-----BEGIN CERTIFICATE-----
MIIB9zCCAZ6gAwIBAgIBDzAKBggqhkjOPQQDAjCBnTEaMBgGA1UEAwwRUmVnaW9u
ZSBMb21iYXJkaWExCzAJBgNVBAYTAklUMQ8wDQYDVQQIDAZJdGFsaWExGDAWBgNV
BAoMD0UtVm90aW5nIHN5c3RlbTEiMCAGA1UECwwZRS1Wb3Rpbmcgc3lzdGVtIGF1
dGhvcml0eTEjMCEGCSqGSIb3DQEJARYUTG9tYmFyZGlhQGV2b3RpbmcuaXQwHhcN
MjIwODI2MTUxOTI3WhcNMjMwODI2MTUxOTI3WjBLMQ8wDQYDVQQDDAZUaG9tYXMx
CzAJBgNVBAYTAklUMQ8wDQYDVQQIDAZJdGFsaWExGjAYBgNVBAoMEVJlZ2lvbmUg
TG9tYmFyZGlhMFYwEAYHKoZIzj0CAQYFK4EEAAoDQgAEKKpVZcDKuzUXzLEIDbtu
nCoFi8ALkEZ8BK6JFvhsEjMOwsqunSHgxDw376nyv/z8puV1bTLMeLmICTeh4Zed
0qMjMCEwDgYDVR0PAQH/BAQDAgWgMA8GA1UdEwEB/wQFMAMCAQMwCgYIKoZIzj0E
AwIDRwAwRAIgAjfsMVa3S0+7vDkcwCXyaSiLgjHW9FJJd2Zp9O4PUmkCIAjtynrU
JMI34gJ2DZsWo2rJIhiivzpgQkVRhDWqOC7R
-----END CERTIFICATE-----
