Certificate:
    Data:
        Version: 3 (0x2)
        Serial Number: 2 (0x2)
        Signature Algorithm: ecdsa-with-SHA256
        Issuer: CN=Regione Veneto, C=IT, ST=Italia, O=E-Voting system, OU=E-Voting system authority/emailAddress=Veneto@evoting.it
        Validity
            Not Before: Aug  3 13:25:44 2022 GMT
            Not After : Aug  3 13:25:44 2023 GMT
        Subject: CN=Tia, C=IT, ST=Italia, O=Regione Veneto
        Subject Public Key Info:
            Public Key Algorithm: id-ecPublicKey
                Public-Key: (256 bit)
                pub:
                    04:21:a7:3e:0e:c8:98:1e:59:0d:56:56:2c:2d:12:
                    84:70:ff:69:f5:bd:fb:ab:8c:54:b3:2d:72:d4:c1:
                    c9:42:a3:8a:53:1b:e8:6a:20:88:6d:05:be:1f:87:
                    a5:20:20:c5:77:eb:36:a9:50:d5:f6:07:b6:9e:1e:
                    8c:6a:93:cc:6a
                ASN1 OID: prime256v1
                NIST CURVE: P-256
        X509v3 extensions:
            X509v3 Key Usage: critical
                Digital Signature, Key Encipherment
            X509v3 Basic Constraints: critical
                CA:FALSE, pathlen:3
    Signature Algorithm: ecdsa-with-SHA256
         30:44:02:20:2c:fa:f6:d1:4b:90:c8:bc:38:c0:0e:9c:d6:13:
         bc:5c:86:de:e7:2f:11:11:dd:94:6c:72:ba:23:07:5b:58:90:
         02:20:1b:d1:63:35:8a:7c:20:18:ec:5d:6e:b7:d9:d8:38:0f:
         70:b8:be:1a:79:62:12:9f:55:ed:0e:13:81:3a:fd:76
-----BEGIN CERTIFICATE-----
MIIB7jCCAZWgAwIBAgIBAjAKBggqhkjOPQQDAjCBlzEXMBUGA1UEAwwOUmVnaW9u
ZSBWZW5ldG8xCzAJBgNVBAYTAklUMQ8wDQYDVQQIDAZJdGFsaWExGDAWBgNVBAoM
D0UtVm90aW5nIHN5c3RlbTEiMCAGA1UECwwZRS1Wb3Rpbmcgc3lzdGVtIGF1dGhv
cml0eTEgMB4GCSqGSIb3DQEJARYRVmVuZXRvQGV2b3RpbmcuaXQwHhcNMjIwODAz
MTMyNTQ0WhcNMjMwODAzMTMyNTQ0WjBFMQwwCgYDVQQDDANUaWExCzAJBgNVBAYT
AklUMQ8wDQYDVQQIDAZJdGFsaWExFzAVBgNVBAoMDlJlZ2lvbmUgVmVuZXRvMFkw
EwYHKoZIzj0CAQYIKoZIzj0DAQcDQgAEIac+DsiYHlkNVlYsLRKEcP9p9b37q4xU
sy1y1MHJQqOKUxvoaiCIbQW+H4elICDFd+s2qVDV9ge2nh6MapPMaqMjMCEwDgYD
VR0PAQH/BAQDAgWgMA8GA1UdEwEB/wQFMAMCAQMwCgYIKoZIzj0EAwIDRwAwRAIg
LPr20UuQyLw4wA6c1hO8XIbe5y8REd2UbHK6IwdbWJACIBvRYzWKfCAY7F1ut9nY
OA9wuL4aeWISn1XtDhOBOv12
-----END CERTIFICATE-----
