Certificate:
    Data:
        Version: 3 (0x2)
        Serial Number: 46 (0x2e)
        Signature Algorithm: ecdsa-with-SHA256
        Issuer: CN=Regione Liguria, C=IT, ST=Italia, O=E-Voting system, OU=E-Voting system authority/emailAddress=Liguria@evoting.it
        Validity
            Not Before: Aug 26 15:20:50 2022 GMT
            Not After : Aug 26 15:20:50 2023 GMT
        Subject: CN=Timothy, C=IT, ST=Italia, O=Regione Liguria
        Subject Public Key Info:
            Public Key Algorithm: id-ecPublicKey
                Public-Key: (256 bit)
                pub:
                    04:77:f5:eb:12:92:ae:27:a0:6a:e6:6a:3d:5a:b0:
                    7a:d4:b0:f6:b0:7a:40:37:02:97:dd:1f:96:4a:1f:
                    b5:0d:c0:6d:9a:b6:7d:06:6f:7e:63:3c:73:6c:53:
                    a1:41:4e:04:be:7b:dc:bf:ee:3e:c3:64:71:4a:2a:
                    20:92:94:47:b2
                ASN1 OID: secp256k1
        X509v3 extensions:
            X509v3 Key Usage: critical
                Digital Signature, Key Encipherment
            X509v3 Basic Constraints: critical
                CA:FALSE, pathlen:3
    Signature Algorithm: ecdsa-with-SHA256
         30:46:02:21:00:bd:3e:1f:81:0a:52:fe:8b:96:05:25:88:46:
         c8:0c:e9:f3:c3:59:1b:9e:b9:df:97:e4:da:2e:f8:67:bd:a4:
         d2:02:21:00:95:b5:00:c7:8d:55:3e:b0:f7:b2:bd:e3:6c:51:
         f3:0c:b1:89:65:c2:e6:1e:b2:bb:8d:59:31:14:3d:e7:20:d5
-----BEGIN CERTIFICATE-----
MIIB9DCCAZmgAwIBAgIBLjAKBggqhkjOPQQDAjCBmTEYMBYGA1UEAwwPUmVnaW9u
ZSBMaWd1cmlhMQswCQYDVQQGEwJJVDEPMA0GA1UECAwGSXRhbGlhMRgwFgYDVQQK
DA9FLVZvdGluZyBzeXN0ZW0xIjAgBgNVBAsMGUUtVm90aW5nIHN5c3RlbSBhdXRo
b3JpdHkxITAfBgkqhkiG9w0BCQEWEkxpZ3VyaWFAZXZvdGluZy5pdDAeFw0yMjA4
MjYxNTIwNTBaFw0yMzA4MjYxNTIwNTBaMEoxEDAOBgNVBAMMB1RpbW90aHkxCzAJ
BgNVBAYTAklUMQ8wDQYDVQQIDAZJdGFsaWExGDAWBgNVBAoMD1JlZ2lvbmUgTGln
dXJpYTBWMBAGByqGSM49AgEGBSuBBAAKA0IABHf16xKSriegauZqPVqwetSw9rB6
QDcCl90flkoftQ3AbZq2fQZvfmM8c2xToUFOBL573L/uPsNkcUoqIJKUR7KjIzAh
MA4GA1UdDwEB/wQEAwIFoDAPBgNVHRMBAf8EBTADAgEDMAoGCCqGSM49BAMCA0kA
MEYCIQC9Ph+BClL+i5YFJYhGyAzp88NZG56535fk2i74Z72k0gIhAJW1AMeNVT6w
97K942xR8wyxiWXC5h6yu41ZMRQ95yDV
-----END CERTIFICATE-----
