Certificate:
    Data:
        Version: 3 (0x2)
        Serial Number: 30 (0x1e)
        Signature Algorithm: ecdsa-with-SHA256
        Issuer: CN=Regione Trentino_Alto_Adige, C=IT, ST=Italia, O=E-Voting system, OU=E-Voting system authority/emailAddress=Trentino_Alto_Adige@evoting.it
        Validity
            Not Before: Aug 26 15:20:35 2022 GMT
            Not After : Aug 26 15:20:35 2023 GMT
        Subject: CN=Tina, C=IT, ST=Italia, O=Regione Trentino_Alto_Adige
        Subject Public Key Info:
            Public Key Algorithm: id-ecPublicKey
                Public-Key: (256 bit)
                pub:
                    04:77:c8:a0:06:3b:37:1f:6d:00:82:b4:14:8b:18:
                    ac:f7:a4:3e:57:9f:6a:31:dc:a3:33:c2:eb:2e:bc:
                    ff:28:27:96:9f:13:e8:1a:57:1e:08:5f:20:e6:5b:
                    3d:00:8c:ac:60:f3:31:94:7b:1b:0c:5d:47:7f:ff:
                    ce:ad:85:79:a2
                ASN1 OID: secp256k1
        X509v3 extensions:
            X509v3 Key Usage: critical
                Digital Signature, Key Encipherment
            X509v3 Basic Constraints: critical
                CA:FALSE, pathlen:3
    Signature Algorithm: ecdsa-with-SHA256
         30:44:02:20:0d:32:f8:58:23:24:32:1f:eb:05:f8:95:b7:05:
         56:07:81:16:8f:17:7a:f9:39:0d:57:04:b1:63:49:ff:54:8e:
         02:20:35:de:2f:5d:fa:e5:c0:7c:fb:b6:ea:d6:a3:74:e9:e1:
         00:b1:94:f6:66:95:5e:ad:aa:7c:76:d2:f3:06:48:dd
-----BEGIN CERTIFICATE-----
MIICEzCCAbqgAwIBAgIBHjAKBggqhkjOPQQDAjCBsTEkMCIGA1UEAwwbUmVnaW9u
ZSBUcmVudGlub19BbHRvX0FkaWdlMQswCQYDVQQGEwJJVDEPMA0GA1UECAwGSXRh
bGlhMRgwFgYDVQQKDA9FLVZvdGluZyBzeXN0ZW0xIjAgBgNVBAsMGUUtVm90aW5n
IHN5c3RlbSBhdXRob3JpdHkxLTArBgkqhkiG9w0BCQEWHlRyZW50aW5vX0FsdG9f
QWRpZ2VAZXZvdGluZy5pdDAeFw0yMjA4MjYxNTIwMzVaFw0yMzA4MjYxNTIwMzVa
MFMxDTALBgNVBAMMBFRpbmExCzAJBgNVBAYTAklUMQ8wDQYDVQQIDAZJdGFsaWEx
JDAiBgNVBAoMG1JlZ2lvbmUgVHJlbnRpbm9fQWx0b19BZGlnZTBWMBAGByqGSM49
AgEGBSuBBAAKA0IABHfIoAY7Nx9tAIK0FIsYrPekPlefajHcozPC6y68/ygnlp8T
6BpXHghfIOZbPQCMrGDzMZR7GwxdR3//zq2FeaKjIzAhMA4GA1UdDwEB/wQEAwIF
oDAPBgNVHRMBAf8EBTADAgEDMAoGCCqGSM49BAMCA0cAMEQCIA0y+FgjJDIf6wX4
lbcFVgeBFo8Xevk5DVcEsWNJ/1SOAiA13i9d+uXAfPu26tajdOnhALGU9maVXq2q
fHbS8wZI3Q==
-----END CERTIFICATE-----
