Certificate:
    Data:
        Version: 3 (0x2)
        Serial Number: 27 (0x1b)
        Signature Algorithm: ecdsa-with-SHA256
        Issuer: CN=Regione Sicilia, C=IT, ST=Italia, O=E-Voting system, OU=E-Voting system authority/emailAddress=Sicilia@evoting.it
        Validity
            Not Before: Aug 26 15:20:02 2022 GMT
            Not After : Aug 26 15:20:02 2023 GMT
        Subject: CN=Todd, C=IT, ST=Italia, O=Regione Sicilia
        Subject Public Key Info:
            Public Key Algorithm: id-ecPublicKey
                Public-Key: (256 bit)
                pub:
                    04:f5:fa:c8:1f:b1:2d:72:03:17:70:84:46:c6:df:
                    9a:e5:c9:d3:f6:e6:97:55:bc:31:04:8a:c8:10:34:
                    0c:39:a5:d7:8f:e7:91:31:09:6a:f2:15:ec:71:c8:
                    06:1c:2c:bd:fd:28:c1:bd:ab:a6:98:69:64:a6:dc:
                    16:30:18:97:46
                ASN1 OID: secp256k1
        X509v3 extensions:
            X509v3 Key Usage: critical
                Digital Signature, Key Encipherment
            X509v3 Basic Constraints: critical
                CA:FALSE, pathlen:3
    Signature Algorithm: ecdsa-with-SHA256
         30:44:02:20:12:8a:d4:cb:d7:20:8d:4a:de:9e:f1:ae:c8:97:
         be:71:2c:ad:4d:61:c8:70:65:4e:7d:16:62:34:2d:b0:ec:2f:
         02:20:00:8f:ef:0d:11:ee:80:bc:c7:81:21:9d:47:d2:45:32:
         7c:9e:4e:f8:36:00:3b:62:24:76:b7:a6:42:18:01:14
-----BEGIN CERTIFICATE-----
MIIB7zCCAZagAwIBAgIBGzAKBggqhkjOPQQDAjCBmTEYMBYGA1UEAwwPUmVnaW9u
ZSBTaWNpbGlhMQswCQYDVQQGEwJJVDEPMA0GA1UECAwGSXRhbGlhMRgwFgYDVQQK
DA9FLVZvdGluZyBzeXN0ZW0xIjAgBgNVBAsMGUUtVm90aW5nIHN5c3RlbSBhdXRo
b3JpdHkxITAfBgkqhkiG9w0BCQEWElNpY2lsaWFAZXZvdGluZy5pdDAeFw0yMjA4
MjYxNTIwMDJaFw0yMzA4MjYxNTIwMDJaMEcxDTALBgNVBAMMBFRvZGQxCzAJBgNV
BAYTAklUMQ8wDQYDVQQIDAZJdGFsaWExGDAWBgNVBAoMD1JlZ2lvbmUgU2ljaWxp
YTBWMBAGByqGSM49AgEGBSuBBAAKA0IABPX6yB+xLXIDF3CERsbfmuXJ0/bml1W8
MQSKyBA0DDml14/nkTEJavIV7HHIBhwsvf0owb2rpphpZKbcFjAYl0ajIzAhMA4G
A1UdDwEB/wQEAwIFoDAPBgNVHRMBAf8EBTADAgEDMAoGCCqGSM49BAMCA0cAMEQC
IBKK1MvXII1K3p7xrsiXvnEsrU1hyHBlTn0WYjQtsOwvAiAAj+8NEe6AvMeBIZ1H
0kUyfJ5O+DYAO2IkdremQhgBFA==
-----END CERTIFICATE-----
