Certificate:
    Data:
        Version: 3 (0x2)
        Serial Number: 7 (0x7)
        Signature Algorithm: ecdsa-with-SHA256
        Issuer: CN=Regione Lombardia, C=IT, ST=Italia, O=E-Voting system, OU=E-Voting system authority/emailAddress=Lombardia@evoting.it
        Validity
            Not Before: Aug  3 13:25:54 2022 GMT
            Not After : Aug  3 13:25:54 2023 GMT
        Subject: CN=Todd, C=IT, ST=Italia, O=Regione Lombardia
        Subject Public Key Info:
            Public Key Algorithm: id-ecPublicKey
                Public-Key: (256 bit)
                pub:
                    04:f7:12:49:ab:96:89:90:d9:9e:1e:d4:85:5a:b1:
                    98:28:bc:05:08:25:64:b9:12:0d:80:ae:e1:27:b2:
                    c4:03:1f:13:15:b0:35:49:21:ad:dc:6d:9c:a8:cb:
                    5e:07:6f:ff:90:80:92:c2:04:da:e2:b7:98:5c:0a:
                    aa:e4:23:b2:7d
                ASN1 OID: prime256v1
                NIST CURVE: P-256
        X509v3 extensions:
            X509v3 Key Usage: critical
                Digital Signature, Key Encipherment
            X509v3 Basic Constraints: critical
                CA:FALSE, pathlen:3
    Signature Algorithm: ecdsa-with-SHA256
         30:46:02:21:00:b1:93:db:2f:9d:f6:7d:29:76:8d:bd:82:41:
         78:96:8d:17:50:de:9a:0b:a9:95:94:2f:5d:f4:03:a9:12:ec:
         30:02:21:00:d3:ef:b3:43:db:0f:18:95:df:e0:b3:b1:16:73:
         51:64:23:eb:5d:2e:47:db:c6:6c:b2:af:74:19:91:62:7a:1f
-----BEGIN CERTIFICATE-----
MIIB+jCCAZ+gAwIBAgIBBzAKBggqhkjOPQQDAjCBnTEaMBgGA1UEAwwRUmVnaW9u
ZSBMb21iYXJkaWExCzAJBgNVBAYTAklUMQ8wDQYDVQQIDAZJdGFsaWExGDAWBgNV
BAoMD0UtVm90aW5nIHN5c3RlbTEiMCAGA1UECwwZRS1Wb3Rpbmcgc3lzdGVtIGF1
dGhvcml0eTEjMCEGCSqGSIb3DQEJARYUTG9tYmFyZGlhQGV2b3RpbmcuaXQwHhcN
MjIwODAzMTMyNTU0WhcNMjMwODAzMTMyNTU0WjBJMQ0wCwYDVQQDDARUb2RkMQsw
CQYDVQQGEwJJVDEPMA0GA1UECAwGSXRhbGlhMRowGAYDVQQKDBFSZWdpb25lIExv
bWJhcmRpYTBZMBMGByqGSM49AgEGCCqGSM49AwEHA0IABPcSSauWiZDZnh7UhVqx
mCi8BQglZLkSDYCu4SeyxAMfExWwNUkhrdxtnKjLXgdv/5CAksIE2uK3mFwKquQj
sn2jIzAhMA4GA1UdDwEB/wQEAwIFoDAPBgNVHRMBAf8EBTADAgEDMAoGCCqGSM49
BAMCA0kAMEYCIQCxk9svnfZ9KXaNvYJBeJaNF1DemguplZQvXfQDqRLsMAIhANPv
s0PbDxiV3+CzsRZzUWQj610uR9vGbLKvdBmRYnof
-----END CERTIFICATE-----
