Certificate:
    Data:
        Version: 3 (0x2)
        Serial Number: 37 (0x25)
        Signature Algorithm: ecdsa-with-SHA256
        Issuer: CN=Regione Lombardia, C=IT, ST=Italia, O=E-Voting system, OU=E-Voting system authority/emailAddress=Lombardia@evoting.it
        Validity
            Not Before: Aug 26 15:20:44 2022 GMT
            Not After : Aug 26 15:20:44 2023 GMT
        Subject: CN=Tommy, C=IT, ST=Italia, O=Regione Lombardia
        Subject Public Key Info:
            Public Key Algorithm: id-ecPublicKey
                Public-Key: (256 bit)
                pub:
                    04:f6:d8:f5:e7:7c:c0:39:ef:1d:1d:05:ee:92:3d:
                    50:c6:f5:26:bf:25:f3:29:36:77:88:9e:c6:c0:4e:
                    b1:15:23:4f:41:93:92:57:4d:f4:c0:8a:06:23:48:
                    00:96:e4:56:e1:39:21:b9:2d:13:53:e2:0b:96:c2:
                    b3:32:97:f1:df
                ASN1 OID: secp256k1
        X509v3 extensions:
            X509v3 Key Usage: critical
                Digital Signature, Key Encipherment
            X509v3 Basic Constraints: critical
                CA:FALSE, pathlen:3
    Signature Algorithm: ecdsa-with-SHA256
         30:45:02:20:3c:41:c2:e2:a3:86:1e:5c:ed:eb:c0:60:6f:ac:
         1f:83:a7:8c:8c:3e:1f:b3:47:c0:95:99:88:c5:06:dd:f3:4d:
         02:21:00:e1:28:1b:44:18:8b:76:bc:e2:3a:08:96:c9:cb:29:
         a8:b1:c9:75:ef:13:bc:35:50:a4:e3:0e:71:e7:bc:10:09
-----BEGIN CERTIFICATE-----
MIIB9zCCAZ2gAwIBAgIBJTAKBggqhkjOPQQDAjCBnTEaMBgGA1UEAwwRUmVnaW9u
ZSBMb21iYXJkaWExCzAJBgNVBAYTAklUMQ8wDQYDVQQIDAZJdGFsaWExGDAWBgNV
BAoMD0UtVm90aW5nIHN5c3RlbTEiMCAGA1UECwwZRS1Wb3Rpbmcgc3lzdGVtIGF1
dGhvcml0eTEjMCEGCSqGSIb3DQEJARYUTG9tYmFyZGlhQGV2b3RpbmcuaXQwHhcN
MjIwODI2MTUyMDQ0WhcNMjMwODI2MTUyMDQ0WjBKMQ4wDAYDVQQDDAVUb21teTEL
MAkGA1UEBhMCSVQxDzANBgNVBAgMBkl0YWxpYTEaMBgGA1UECgwRUmVnaW9uZSBM
b21iYXJkaWEwVjAQBgcqhkjOPQIBBgUrgQQACgNCAAT22PXnfMA57x0dBe6SPVDG
9Sa/JfMpNneInsbATrEVI09Bk5JXTfTAigYjSACW5FbhOSG5LRNT4guWwrMyl/Hf
oyMwITAOBgNVHQ8BAf8EBAMCBaAwDwYDVR0TAQH/BAUwAwIBAzAKBggqhkjOPQQD
AgNIADBFAiA8QcLio4YeXO3rwGBvrB+Dp4yMPh+zR8CVmYjFBt3zTQIhAOEoG0QY
i3a84joIlsnLKaixyXXvE7w1UKTjDnHnvBAJ
-----END CERTIFICATE-----
