Certificate:
    Data:
        Version: 3 (0x2)
        Serial Number: 42 (0x2a)
        Signature Algorithm: ecdsa-with-SHA256
        Issuer: CN=Regione Trentino_Alto_Adige, C=IT, ST=Italia, O=E-Voting system, OU=E-Voting system authority/emailAddress=Trentino_Alto_Adige@evoting.it
        Validity
            Not Before: Aug 26 15:21:01 2022 GMT
            Not After : Aug 26 15:21:01 2023 GMT
        Subject: CN=Toni, C=IT, ST=Italia, O=Regione Trentino_Alto_Adige
        Subject Public Key Info:
            Public Key Algorithm: id-ecPublicKey
                Public-Key: (256 bit)
                pub:
                    04:69:29:a6:f5:50:9e:7b:ae:60:b1:b6:3e:2d:d3:
                    96:22:61:50:25:ac:f3:3c:73:23:b2:8b:99:b0:dd:
                    c6:c4:93:7d:35:24:1f:88:70:0f:ba:6d:47:85:15:
                    c6:0b:57:ff:74:38:40:3a:c6:4e:e8:c0:33:35:4e:
                    20:16:76:76:47
                ASN1 OID: secp256k1
        X509v3 extensions:
            X509v3 Key Usage: critical
                Digital Signature, Key Encipherment
            X509v3 Basic Constraints: critical
                CA:FALSE, pathlen:3
    Signature Algorithm: ecdsa-with-SHA256
         30:45:02:21:00:d6:4e:75:98:88:7a:cd:fc:c7:35:ac:3a:9f:
         5b:4d:ce:74:45:dc:8f:cf:88:9e:db:1c:3b:ef:10:3f:17:b0:
         c0:02:20:1c:f6:ce:28:ae:36:cc:53:ae:17:ea:bc:37:91:e9:
         7d:fe:0f:4d:07:d2:22:2a:d2:7c:1f:a4:7e:d7:15:db:3a
-----BEGIN CERTIFICATE-----
MIICFDCCAbqgAwIBAgIBKjAKBggqhkjOPQQDAjCBsTEkMCIGA1UEAwwbUmVnaW9u
ZSBUcmVudGlub19BbHRvX0FkaWdlMQswCQYDVQQGEwJJVDEPMA0GA1UECAwGSXRh
bGlhMRgwFgYDVQQKDA9FLVZvdGluZyBzeXN0ZW0xIjAgBgNVBAsMGUUtVm90aW5n
IHN5c3RlbSBhdXRob3JpdHkxLTArBgkqhkiG9w0BCQEWHlRyZW50aW5vX0FsdG9f
QWRpZ2VAZXZvdGluZy5pdDAeFw0yMjA4MjYxNTIxMDFaFw0yMzA4MjYxNTIxMDFa
MFMxDTALBgNVBAMMBFRvbmkxCzAJBgNVBAYTAklUMQ8wDQYDVQQIDAZJdGFsaWEx
JDAiBgNVBAoMG1JlZ2lvbmUgVHJlbnRpbm9fQWx0b19BZGlnZTBWMBAGByqGSM49
AgEGBSuBBAAKA0IABGkppvVQnnuuYLG2Pi3TliJhUCWs8zxzI7KLmbDdxsSTfTUk
H4hwD7ptR4UVxgtX/3Q4QDrGTujAMzVOIBZ2dkejIzAhMA4GA1UdDwEB/wQEAwIF
oDAPBgNVHRMBAf8EBTADAgEDMAoGCCqGSM49BAMCA0gAMEUCIQDWTnWYiHrN/Mc1
rDqfW03OdEXcj8+IntscO+8QPxewwAIgHPbOKK42zFOuF+q8N5Hpff4PTQfSIirS
fB+kftcV2zo=
-----END CERTIFICATE-----
