Certificate:
    Data:
        Version: 3 (0x2)
        Serial Number: 36 (0x24)
        Signature Algorithm: ecdsa-with-SHA256
        Issuer: CN=Regione Sardegna, C=IT, ST=Italia, O=E-Voting system, OU=E-Voting system authority/emailAddress=Sardegna@evoting.it
        Validity
            Not Before: Aug  3 13:28:07 2022 GMT
            Not After : Aug  3 13:28:07 2023 GMT
        Subject: CN=Tonia, C=IT, ST=Italia, O=Regione Sardegna
        Subject Public Key Info:
            Public Key Algorithm: id-ecPublicKey
                Public-Key: (256 bit)
                pub:
                    04:e8:94:a5:73:cf:21:0d:75:82:42:aa:bf:98:41:
                    2f:7a:62:21:76:1a:e6:70:08:a5:87:93:cc:c6:e3:
                    b2:2c:4c:0c:a9:b4:97:a2:37:5d:6a:df:82:cf:57:
                    58:dd:cb:e7:87:26:78:c5:18:41:04:07:38:79:5e:
                    5a:8e:25:f1:03
                ASN1 OID: prime256v1
                NIST CURVE: P-256
        X509v3 extensions:
            X509v3 Key Usage: critical
                Digital Signature, Key Encipherment
            X509v3 Basic Constraints: critical
                CA:FALSE, pathlen:3
    Signature Algorithm: ecdsa-with-SHA256
         30:46:02:21:00:b5:3e:99:b4:91:20:88:e9:d1:e9:d2:a5:45:
         2d:87:f9:0d:53:32:82:c7:d1:8f:03:30:37:c8:61:0e:a0:ec:
         a5:02:21:00:fd:0b:1f:b4:ee:01:4f:c0:88:00:13:79:82:dd:
         0f:f0:e0:d9:23:c4:7c:4c:12:34:2d:25:9b:06:d5:d6:70:e6
-----BEGIN CERTIFICATE-----
MIIB+DCCAZ2gAwIBAgIBJDAKBggqhkjOPQQDAjCBmzEZMBcGA1UEAwwQUmVnaW9u
ZSBTYXJkZWduYTELMAkGA1UEBhMCSVQxDzANBgNVBAgMBkl0YWxpYTEYMBYGA1UE
CgwPRS1Wb3Rpbmcgc3lzdGVtMSIwIAYDVQQLDBlFLVZvdGluZyBzeXN0ZW0gYXV0
aG9yaXR5MSIwIAYJKoZIhvcNAQkBFhNTYXJkZWduYUBldm90aW5nLml0MB4XDTIy
MDgwMzEzMjgwN1oXDTIzMDgwMzEzMjgwN1owSTEOMAwGA1UEAwwFVG9uaWExCzAJ
BgNVBAYTAklUMQ8wDQYDVQQIDAZJdGFsaWExGTAXBgNVBAoMEFJlZ2lvbmUgU2Fy
ZGVnbmEwWTATBgcqhkjOPQIBBggqhkjOPQMBBwNCAATolKVzzyENdYJCqr+YQS96
YiF2GuZwCKWHk8zG47IsTAyptJeiN11q34LPV1jdy+eHJnjFGEEEBzh5XlqOJfED
oyMwITAOBgNVHQ8BAf8EBAMCBaAwDwYDVR0TAQH/BAUwAwIBAzAKBggqhkjOPQQD
AgNJADBGAiEAtT6ZtJEgiOnR6dKlRS2H+Q1TMoLH0Y8DMDfIYQ6g7KUCIQD9Cx+0
7gFPwIgAE3mC3Q/w4NkjxHxMEjQtJZsG1dZw5g==
-----END CERTIFICATE-----
