Certificate:
    Data:
        Version: 3 (0x2)
        Serial Number: 47 (0x2f)
        Signature Algorithm: ecdsa-with-SHA256
        Issuer: CN=Regione Campania, C=IT, ST=Italia, O=E-Voting system, OU=E-Voting system authority/emailAddress=Campania@evoting.it
        Validity
            Not Before: Aug  3 13:28:09 2022 GMT
            Not After : Aug  3 13:28:09 2023 GMT
        Subject: CN=Toni, C=IT, ST=Italia, O=Regione Campania
        Subject Public Key Info:
            Public Key Algorithm: id-ecPublicKey
                Public-Key: (256 bit)
                pub:
                    04:55:90:07:aa:07:9d:d9:5c:9f:50:f6:c5:c5:9a:
                    3e:f7:01:1e:0b:3d:65:81:cc:03:e7:b8:da:50:4b:
                    c7:7b:a7:7e:0c:b1:da:9a:27:76:6d:56:14:b9:c6:
                    0b:fb:c1:3e:18:5a:30:7f:fb:2c:b4:aa:3b:78:25:
                    df:ce:22:7f:86
                ASN1 OID: prime256v1
                NIST CURVE: P-256
        X509v3 extensions:
            X509v3 Key Usage: critical
                Digital Signature, Key Encipherment
            X509v3 Basic Constraints: critical
                CA:FALSE, pathlen:3
    Signature Algorithm: ecdsa-with-SHA256
         30:46:02:21:00:98:8f:c5:2b:cc:bd:ed:ed:c0:83:3f:31:a1:
         ea:c0:50:fb:a5:de:ca:eb:fc:fd:b1:3b:63:ca:63:91:86:15:
         63:02:21:00:c1:35:d7:0f:86:91:4f:20:41:f3:9e:92:06:89:
         d8:b8:fe:e2:89:f5:68:9f:87:e7:79:06:03:af:ae:b4:86:9a
-----BEGIN CERTIFICATE-----
MIIB9zCCAZygAwIBAgIBLzAKBggqhkjOPQQDAjCBmzEZMBcGA1UEAwwQUmVnaW9u
ZSBDYW1wYW5pYTELMAkGA1UEBhMCSVQxDzANBgNVBAgMBkl0YWxpYTEYMBYGA1UE
CgwPRS1Wb3Rpbmcgc3lzdGVtMSIwIAYDVQQLDBlFLVZvdGluZyBzeXN0ZW0gYXV0
aG9yaXR5MSIwIAYJKoZIhvcNAQkBFhNDYW1wYW5pYUBldm90aW5nLml0MB4XDTIy
MDgwMzEzMjgwOVoXDTIzMDgwMzEzMjgwOVowSDENMAsGA1UEAwwEVG9uaTELMAkG
A1UEBhMCSVQxDzANBgNVBAgMBkl0YWxpYTEZMBcGA1UECgwQUmVnaW9uZSBDYW1w
YW5pYTBZMBMGByqGSM49AgEGCCqGSM49AwEHA0IABFWQB6oHndlcn1D2xcWaPvcB
Hgs9ZYHMA+e42lBLx3unfgyx2pondm1WFLnGC/vBPhhaMH/7LLSqO3gl384if4aj
IzAhMA4GA1UdDwEB/wQEAwIFoDAPBgNVHRMBAf8EBTADAgEDMAoGCCqGSM49BAMC
A0kAMEYCIQCYj8UrzL3t7cCDPzGh6sBQ+6Xeyuv8/bE7Y8pjkYYVYwIhAME11w+G
kU8gQfOekgaJ2Lj+4on1aJ+H53kGA6+utIaa
-----END CERTIFICATE-----
