Certificate:
    Data:
        Version: 3 (0x2)
        Serial Number: 2 (0x2)
        Signature Algorithm: ecdsa-with-SHA256
        Issuer: CN=Regione Veneto, C=IT, ST=Italia, O=E-Voting system, OU=E-Voting system authority/emailAddress=Veneto@evoting.it
        Validity
            Not Before: Aug 26 15:18:39 2022 GMT
            Not After : Aug 26 15:18:39 2023 GMT
        Subject: CN=Tony, C=IT, ST=Italia, O=Regione Veneto
        Subject Public Key Info:
            Public Key Algorithm: id-ecPublicKey
                Public-Key: (256 bit)
                pub:
                    04:9a:e6:e5:01:2e:69:fa:93:76:96:b3:45:c1:ba:
                    e1:af:65:6b:70:9b:24:ca:09:33:d8:98:b2:0c:41:
                    27:7f:63:cc:58:5e:a2:5f:1f:a2:9d:07:65:b9:73:
                    bf:6d:30:d1:07:ec:01:05:e9:1c:44:9f:38:3e:b6:
                    26:68:d6:e4:8f
                ASN1 OID: secp256k1
        X509v3 extensions:
            X509v3 Key Usage: critical
                Digital Signature, Key Encipherment
            X509v3 Basic Constraints: critical
                CA:FALSE, pathlen:3
    Signature Algorithm: ecdsa-with-SHA256
         30:45:02:20:7d:72:56:b3:66:d8:24:87:f8:d0:44:2f:fc:4b:
         52:54:0b:cb:91:b4:9c:e6:65:4d:44:ae:d8:f4:ff:cd:6a:39:
         02:21:00:b9:4c:f0:01:be:c3:d9:4f:ed:34:93:33:df:e3:db:
         ca:b9:45:8a:ef:59:2d:05:48:46:d7:77:0f:ab:a4:86:9a
-----BEGIN CERTIFICATE-----
MIIB7TCCAZOgAwIBAgIBAjAKBggqhkjOPQQDAjCBlzEXMBUGA1UEAwwOUmVnaW9u
ZSBWZW5ldG8xCzAJBgNVBAYTAklUMQ8wDQYDVQQIDAZJdGFsaWExGDAWBgNVBAoM
D0UtVm90aW5nIHN5c3RlbTEiMCAGA1UECwwZRS1Wb3Rpbmcgc3lzdGVtIGF1dGhv
cml0eTEgMB4GCSqGSIb3DQEJARYRVmVuZXRvQGV2b3RpbmcuaXQwHhcNMjIwODI2
MTUxODM5WhcNMjMwODI2MTUxODM5WjBGMQ0wCwYDVQQDDARUb255MQswCQYDVQQG
EwJJVDEPMA0GA1UECAwGSXRhbGlhMRcwFQYDVQQKDA5SZWdpb25lIFZlbmV0bzBW
MBAGByqGSM49AgEGBSuBBAAKA0IABJrm5QEuafqTdpazRcG64a9la3CbJMoJM9iY
sgxBJ39jzFheol8fop0HZblzv20w0QfsAQXpHESfOD62JmjW5I+jIzAhMA4GA1Ud
DwEB/wQEAwIFoDAPBgNVHRMBAf8EBTADAgEDMAoGCCqGSM49BAMCA0gAMEUCIH1y
VrNm2CSH+NBEL/xLUlQLy5G0nOZlTUSu2PT/zWo5AiEAuUzwAb7D2U/tNJMz3+Pb
yrlFiu9ZLQVIRtd3D6ukhpo=
-----END CERTIFICATE-----
