Certificate:
    Data:
        Version: 3 (0x2)
        Serial Number: 3 (0x3)
        Signature Algorithm: ecdsa-with-SHA256
        Issuer: CN=Regione Lazio, C=IT, ST=Italia, O=E-Voting system, OU=E-Voting system authority/emailAddress=Lazio@evoting.it
        Validity
            Not Before: Aug  3 13:25:46 2022 GMT
            Not After : Aug  3 13:25:46 2023 GMT
        Subject: CN=Tony, C=IT, ST=Italia, O=Regione Lazio
        Subject Public Key Info:
            Public Key Algorithm: id-ecPublicKey
                Public-Key: (256 bit)
                pub:
                    04:94:1a:b9:ba:af:14:a4:42:24:a5:98:1d:e4:a1:
                    90:05:f4:e8:08:db:26:c0:f6:0f:d8:ae:a9:1f:24:
                    bb:c3:c8:5c:0d:69:65:9b:79:fb:08:87:91:68:83:
                    57:d1:70:40:fe:15:36:9e:c4:55:de:13:ee:32:70:
                    2a:1a:43:64:a1
                ASN1 OID: prime256v1
                NIST CURVE: P-256
        X509v3 extensions:
            X509v3 Key Usage: critical
                Digital Signature, Key Encipherment
            X509v3 Basic Constraints: critical
                CA:FALSE, pathlen:3
    Signature Algorithm: ecdsa-with-SHA256
         30:45:02:20:19:21:f1:99:e5:1a:a0:6f:34:a1:ee:98:7d:2e:
         52:3d:9e:a1:fb:fa:89:2d:44:f8:ea:56:41:20:68:eb:d0:f7:
         02:21:00:9e:6a:36:23:3f:04:a5:2a:cf:da:3f:95:77:4c:3f:
         77:a5:80:f7:cc:3b:62:8e:3e:f2:13:00:f0:50:92:38:cb
-----BEGIN CERTIFICATE-----
MIIB7TCCAZOgAwIBAgIBAzAKBggqhkjOPQQDAjCBlTEWMBQGA1UEAwwNUmVnaW9u
ZSBMYXppbzELMAkGA1UEBhMCSVQxDzANBgNVBAgMBkl0YWxpYTEYMBYGA1UECgwP
RS1Wb3Rpbmcgc3lzdGVtMSIwIAYDVQQLDBlFLVZvdGluZyBzeXN0ZW0gYXV0aG9y
aXR5MR8wHQYJKoZIhvcNAQkBFhBMYXppb0Bldm90aW5nLml0MB4XDTIyMDgwMzEz
MjU0NloXDTIzMDgwMzEzMjU0NlowRTENMAsGA1UEAwwEVG9ueTELMAkGA1UEBhMC
SVQxDzANBgNVBAgMBkl0YWxpYTEWMBQGA1UECgwNUmVnaW9uZSBMYXppbzBZMBMG
ByqGSM49AgEGCCqGSM49AwEHA0IABJQaubqvFKRCJKWYHeShkAX06AjbJsD2D9iu
qR8ku8PIXA1pZZt5+wiHkWiDV9FwQP4VNp7EVd4T7jJwKhpDZKGjIzAhMA4GA1Ud
DwEB/wQEAwIFoDAPBgNVHRMBAf8EBTADAgEDMAoGCCqGSM49BAMCA0gAMEUCIBkh
8ZnlGqBvNKHumH0uUj2eofv6iS1E+OpWQSBo69D3AiEAnmo2Iz8EpSrP2j+Vd0w/
d6WA98w7Yo4+8hMA8FCSOMs=
-----END CERTIFICATE-----
