Certificate:
    Data:
        Version: 3 (0x2)
        Serial Number: 5 (0x5)
        Signature Algorithm: ecdsa-with-SHA256
        Issuer: CN=Regione Sicilia, C=IT, ST=Italia, O=E-Voting system, OU=E-Voting system authority/emailAddress=Sicilia@evoting.it
        Validity
            Not Before: Aug 26 15:18:32 2022 GMT
            Not After : Aug 26 15:18:32 2023 GMT
        Subject: CN=Tonya, C=IT, ST=Italia, O=Regione Sicilia
        Subject Public Key Info:
            Public Key Algorithm: id-ecPublicKey
                Public-Key: (256 bit)
                pub:
                    04:82:f2:bb:67:e0:d5:68:6c:6e:20:b8:62:5a:8a:
                    0b:e6:9a:12:01:4b:aa:b9:47:5f:01:68:3c:b7:f6:
                    7a:b2:37:fa:f1:0e:30:28:84:ec:87:fe:f5:b4:a2:
                    cd:ae:8f:50:23:e5:c1:2b:c5:5a:a8:ee:e9:41:22:
                    f0:4c:2a:3f:35
                ASN1 OID: secp256k1
        X509v3 extensions:
            X509v3 Key Usage: critical
                Digital Signature, Key Encipherment
            X509v3 Basic Constraints: critical
                CA:FALSE, pathlen:3
    Signature Algorithm: ecdsa-with-SHA256
         30:44:02:20:0e:93:8a:d5:25:09:c0:a6:05:a4:35:82:f3:ea:
         c7:54:8c:31:d8:14:46:01:f5:2d:36:66:ef:b2:85:27:99:5a:
         02:20:40:bd:99:9b:61:54:7c:c8:a7:0c:43:ff:ac:72:98:57:
         65:6a:b1:42:6e:e3:48:a7:a2:13:58:fe:18:7c:93:92
-----BEGIN CERTIFICATE-----
MIIB8DCCAZegAwIBAgIBBTAKBggqhkjOPQQDAjCBmTEYMBYGA1UEAwwPUmVnaW9u
ZSBTaWNpbGlhMQswCQYDVQQGEwJJVDEPMA0GA1UECAwGSXRhbGlhMRgwFgYDVQQK
DA9FLVZvdGluZyBzeXN0ZW0xIjAgBgNVBAsMGUUtVm90aW5nIHN5c3RlbSBhdXRo
b3JpdHkxITAfBgkqhkiG9w0BCQEWElNpY2lsaWFAZXZvdGluZy5pdDAeFw0yMjA4
MjYxNTE4MzJaFw0yMzA4MjYxNTE4MzJaMEgxDjAMBgNVBAMMBVRvbnlhMQswCQYD
VQQGEwJJVDEPMA0GA1UECAwGSXRhbGlhMRgwFgYDVQQKDA9SZWdpb25lIFNpY2ls
aWEwVjAQBgcqhkjOPQIBBgUrgQQACgNCAASC8rtn4NVobG4guGJaigvmmhIBS6q5
R18BaDy39nqyN/rxDjAohOyH/vW0os2uj1Aj5cErxVqo7ulBIvBMKj81oyMwITAO
BgNVHQ8BAf8EBAMCBaAwDwYDVR0TAQH/BAUwAwIBAzAKBggqhkjOPQQDAgNHADBE
AiAOk4rVJQnApgWkNYLz6sdUjDHYFEYB9S02Zu+yhSeZWgIgQL2Zm2FUfMinDEP/
rHKYV2VqsUJu40inohNY/hh8k5I=
-----END CERTIFICATE-----
