Certificate:
    Data:
        Version: 3 (0x2)
        Serial Number: 13 (0xd)
        Signature Algorithm: ecdsa-with-SHA256
        Issuer: CN=Regione Toscana, C=IT, ST=Italia, O=E-Voting system, OU=E-Voting system authority/emailAddress=Toscana@evoting.it
        Validity
            Not Before: Aug  3 13:26:11 2022 GMT
            Not After : Aug  3 13:26:11 2023 GMT
        Subject: CN=Tracy, C=IT, ST=Italia, O=Regione Toscana
        Subject Public Key Info:
            Public Key Algorithm: id-ecPublicKey
                Public-Key: (256 bit)
                pub:
                    04:77:d0:a3:6c:db:58:aa:00:d9:41:bc:48:3c:59:
                    ca:bf:d6:37:34:bc:e2:48:a5:4b:93:55:91:32:47:
                    b6:f5:6f:fa:89:5b:ff:16:06:22:1b:86:00:d4:8a:
                    a7:c2:06:fb:97:1b:73:e6:c0:18:46:8e:5f:d6:b4:
                    5c:9d:2a:04:53
                ASN1 OID: prime256v1
                NIST CURVE: P-256
        X509v3 extensions:
            X509v3 Key Usage: critical
                Digital Signature, Key Encipherment
            X509v3 Basic Constraints: critical
                CA:FALSE, pathlen:3
    Signature Algorithm: ecdsa-with-SHA256
         30:46:02:21:00:d3:ad:ca:fd:4c:a0:64:6c:e8:01:ba:0e:6a:
         94:55:44:28:64:f3:de:eb:af:cd:1e:42:05:0c:e5:50:87:ab:
         9e:02:21:00:c5:cf:45:61:bb:6a:15:2d:37:c7:e3:4d:57:39:
         46:9a:9e:e3:27:d6:1e:06:8d:e5:52:db:1e:3b:8d:1c:8e:0e
-----BEGIN CERTIFICATE-----
MIIB9TCCAZqgAwIBAgIBDTAKBggqhkjOPQQDAjCBmTEYMBYGA1UEAwwPUmVnaW9u
ZSBUb3NjYW5hMQswCQYDVQQGEwJJVDEPMA0GA1UECAwGSXRhbGlhMRgwFgYDVQQK
DA9FLVZvdGluZyBzeXN0ZW0xIjAgBgNVBAsMGUUtVm90aW5nIHN5c3RlbSBhdXRo
b3JpdHkxITAfBgkqhkiG9w0BCQEWElRvc2NhbmFAZXZvdGluZy5pdDAeFw0yMjA4
MDMxMzI2MTFaFw0yMzA4MDMxMzI2MTFaMEgxDjAMBgNVBAMMBVRyYWN5MQswCQYD
VQQGEwJJVDEPMA0GA1UECAwGSXRhbGlhMRgwFgYDVQQKDA9SZWdpb25lIFRvc2Nh
bmEwWTATBgcqhkjOPQIBBggqhkjOPQMBBwNCAAR30KNs21iqANlBvEg8Wcq/1jc0
vOJIpUuTVZEyR7b1b/qJW/8WBiIbhgDUiqfCBvuXG3PmwBhGjl/WtFydKgRToyMw
ITAOBgNVHQ8BAf8EBAMCBaAwDwYDVR0TAQH/BAUwAwIBAzAKBggqhkjOPQQDAgNJ
ADBGAiEA063K/UygZGzoAboOapRVRChk897rr80eQgUM5VCHq54CIQDFz0Vhu2oV
LTfH401XOUaanuMn1h4GjeVS2x47jRyODg==
-----END CERTIFICATE-----
