Certificate:
    Data:
        Version: 3 (0x2)
        Serial Number: 21 (0x15)
        Signature Algorithm: ecdsa-with-SHA256
        Issuer: CN=Regione Veneto, C=IT, ST=Italia, O=E-Voting system, OU=E-Voting system authority/emailAddress=Veneto@evoting.it
        Validity
            Not Before: Aug 26 15:20:47 2022 GMT
            Not After : Aug 26 15:20:47 2023 GMT
        Subject: CN=Tracy, C=IT, ST=Italia, O=Regione Veneto
        Subject Public Key Info:
            Public Key Algorithm: id-ecPublicKey
                Public-Key: (256 bit)
                pub:
                    04:a4:bd:0b:9b:28:88:e8:56:fe:c4:c0:04:11:81:
                    44:70:79:3d:90:98:eb:21:39:84:a4:3d:5b:c5:a0:
                    d2:45:1c:4e:95:a0:be:43:8f:1e:89:24:dc:83:4e:
                    17:c6:36:a1:79:53:77:de:05:f9:a9:54:b3:d3:eb:
                    82:99:88:34:33
                ASN1 OID: secp256k1
        X509v3 extensions:
            X509v3 Key Usage: critical
                Digital Signature, Key Encipherment
            X509v3 Basic Constraints: critical
                CA:FALSE, pathlen:3
    Signature Algorithm: ecdsa-with-SHA256
         30:46:02:21:00:a3:20:16:dd:ac:21:bd:b0:86:97:e0:d3:65:
         56:a2:37:ec:06:d5:85:50:6c:fe:45:53:bb:d7:5a:9e:9d:1f:
         03:02:21:00:f5:60:ee:93:84:62:9a:60:d1:2b:9c:bc:eb:0c:
         57:1b:9d:c6:c6:94:25:05:8a:15:df:fe:48:b2:7b:f8:62:ae
-----BEGIN CERTIFICATE-----
MIIB7zCCAZSgAwIBAgIBFTAKBggqhkjOPQQDAjCBlzEXMBUGA1UEAwwOUmVnaW9u
ZSBWZW5ldG8xCzAJBgNVBAYTAklUMQ8wDQYDVQQIDAZJdGFsaWExGDAWBgNVBAoM
D0UtVm90aW5nIHN5c3RlbTEiMCAGA1UECwwZRS1Wb3Rpbmcgc3lzdGVtIGF1dGhv
cml0eTEgMB4GCSqGSIb3DQEJARYRVmVuZXRvQGV2b3RpbmcuaXQwHhcNMjIwODI2
MTUyMDQ3WhcNMjMwODI2MTUyMDQ3WjBHMQ4wDAYDVQQDDAVUcmFjeTELMAkGA1UE
BhMCSVQxDzANBgNVBAgMBkl0YWxpYTEXMBUGA1UECgwOUmVnaW9uZSBWZW5ldG8w
VjAQBgcqhkjOPQIBBgUrgQQACgNCAASkvQubKIjoVv7EwAQRgURweT2QmOshOYSk
PVvFoNJFHE6VoL5Djx6JJNyDThfGNqF5U3feBfmpVLPT64KZiDQzoyMwITAOBgNV
HQ8BAf8EBAMCBaAwDwYDVR0TAQH/BAUwAwIBAzAKBggqhkjOPQQDAgNJADBGAiEA
oyAW3awhvbCGl+DTZVaiN+wG1YVQbP5FU7vXWp6dHwMCIQD1YO6ThGKaYNErnLzr
DFcbncbGlCUFihXf/kiye/hirg==
-----END CERTIFICATE-----
