Certificate:
    Data:
        Version: 3 (0x2)
        Serial Number: 26 (0x1a)
        Signature Algorithm: ecdsa-with-SHA256
        Issuer: CN=Regione Molise, C=IT, ST=Italia, O=E-Voting system, OU=E-Voting system authority/emailAddress=Molise@evoting.it
        Validity
            Not Before: Aug 26 15:20:24 2022 GMT
            Not After : Aug 26 15:20:24 2023 GMT
        Subject: CN=Tracey, C=IT, ST=Italia, O=Regione Molise
        Subject Public Key Info:
            Public Key Algorithm: id-ecPublicKey
                Public-Key: (256 bit)
                pub:
                    04:de:bc:c0:00:a9:55:f3:16:69:ec:e3:1a:a0:50:
                    8d:d6:f5:ce:7f:7f:b6:f3:66:54:6f:ab:2a:d6:df:
                    3c:2e:7a:7e:be:5e:5e:cb:0d:f7:63:39:64:ae:6e:
                    f8:01:da:58:09:2b:60:32:d5:14:da:5d:14:e3:46:
                    50:a1:ed:71:cb
                ASN1 OID: secp256k1
        X509v3 extensions:
            X509v3 Key Usage: critical
                Digital Signature, Key Encipherment
            X509v3 Basic Constraints: critical
                CA:FALSE, pathlen:3
    Signature Algorithm: ecdsa-with-SHA256
         30:46:02:21:00:d4:96:db:da:f8:41:c5:27:ad:0f:ac:9b:23:
         79:49:0b:5e:db:10:52:c6:18:26:4d:cd:e6:1a:30:3e:26:10:
         4d:02:21:00:ad:a6:ca:97:98:7e:dd:5e:fd:30:b0:84:c1:cb:
         e6:26:69:48:e9:be:4f:85:8f:e0:e8:d8:88:8d:d3:e0:4f:d8
-----BEGIN CERTIFICATE-----
MIIB8DCCAZWgAwIBAgIBGjAKBggqhkjOPQQDAjCBlzEXMBUGA1UEAwwOUmVnaW9u
ZSBNb2xpc2UxCzAJBgNVBAYTAklUMQ8wDQYDVQQIDAZJdGFsaWExGDAWBgNVBAoM
D0UtVm90aW5nIHN5c3RlbTEiMCAGA1UECwwZRS1Wb3Rpbmcgc3lzdGVtIGF1dGhv
cml0eTEgMB4GCSqGSIb3DQEJARYRTW9saXNlQGV2b3RpbmcuaXQwHhcNMjIwODI2
MTUyMDI0WhcNMjMwODI2MTUyMDI0WjBIMQ8wDQYDVQQDDAZUcmFjZXkxCzAJBgNV
BAYTAklUMQ8wDQYDVQQIDAZJdGFsaWExFzAVBgNVBAoMDlJlZ2lvbmUgTW9saXNl
MFYwEAYHKoZIzj0CAQYFK4EEAAoDQgAE3rzAAKlV8xZp7OMaoFCN1vXOf3+282ZU
b6sq1t88Lnp+vl5eyw33Yzlkrm74AdpYCStgMtUU2l0U40ZQoe1xy6MjMCEwDgYD
VR0PAQH/BAQDAgWgMA8GA1UdEwEB/wQFMAMCAQMwCgYIKoZIzj0EAwIDSQAwRgIh
ANSW29r4QcUnrQ+smyN5SQte2xBSxhgmTc3mGjA+JhBNAiEArabKl5h+3V79MLCE
wcvmJmlI6b5PhY/g6NiIjdPgT9g=
-----END CERTIFICATE-----
