Certificate:
    Data:
        Version: 3 (0x2)
        Serial Number: 41 (0x29)
        Signature Algorithm: ecdsa-with-SHA256
        Issuer: CN=Regione Puglia, C=IT, ST=Italia, O=E-Voting system, OU=E-Voting system authority/emailAddress=Puglia@evoting.it
        Validity
            Not Before: Aug 26 15:21:08 2022 GMT
            Not After : Aug 26 15:21:08 2023 GMT
        Subject: CN=Tracie, C=IT, ST=Italia, O=Regione Puglia
        Subject Public Key Info:
            Public Key Algorithm: id-ecPublicKey
                Public-Key: (256 bit)
                pub:
                    04:60:b3:fb:d6:a0:d3:ce:d3:27:6e:3d:e6:c0:a3:
                    22:ea:8e:0d:1a:b7:e1:f1:b9:a1:57:b7:21:fd:40:
                    b5:88:c4:c5:3f:a6:91:78:f8:62:48:07:91:d7:8f:
                    8d:c5:90:02:33:79:3a:17:8a:37:84:a3:b2:53:31:
                    9f:f1:2c:40:c1
                ASN1 OID: secp256k1
        X509v3 extensions:
            X509v3 Key Usage: critical
                Digital Signature, Key Encipherment
            X509v3 Basic Constraints: critical
                CA:FALSE, pathlen:3
    Signature Algorithm: ecdsa-with-SHA256
         30:46:02:21:00:9d:93:ce:2a:87:15:d4:34:a0:9f:3f:00:75:
         fe:f4:7c:9b:70:8a:7f:73:67:7d:88:90:9b:dd:38:25:2b:a0:
         26:02:21:00:d3:53:dd:70:ca:c3:59:0b:5d:39:28:b2:72:cf:
         25:43:98:e6:c4:9c:73:56:33:40:4f:18:cc:02:65:93:f9:68
-----BEGIN CERTIFICATE-----
MIIB8DCCAZWgAwIBAgIBKTAKBggqhkjOPQQDAjCBlzEXMBUGA1UEAwwOUmVnaW9u
ZSBQdWdsaWExCzAJBgNVBAYTAklUMQ8wDQYDVQQIDAZJdGFsaWExGDAWBgNVBAoM
D0UtVm90aW5nIHN5c3RlbTEiMCAGA1UECwwZRS1Wb3Rpbmcgc3lzdGVtIGF1dGhv
cml0eTEgMB4GCSqGSIb3DQEJARYRUHVnbGlhQGV2b3RpbmcuaXQwHhcNMjIwODI2
MTUyMTA4WhcNMjMwODI2MTUyMTA4WjBIMQ8wDQYDVQQDDAZUcmFjaWUxCzAJBgNV
BAYTAklUMQ8wDQYDVQQIDAZJdGFsaWExFzAVBgNVBAoMDlJlZ2lvbmUgUHVnbGlh
MFYwEAYHKoZIzj0CAQYFK4EEAAoDQgAEYLP71qDTztMnbj3mwKMi6o4NGrfh8bmh
V7ch/UC1iMTFP6aRePhiSAeR14+NxZACM3k6F4o3hKOyUzGf8SxAwaMjMCEwDgYD
VR0PAQH/BAQDAgWgMA8GA1UdEwEB/wQFMAMCAQMwCgYIKoZIzj0EAwIDSQAwRgIh
AJ2TziqHFdQ0oJ8/AHX+9HybcIp/c2d9iJCb3TglK6AmAiEA01PdcMrDWQtdOSiy
cs8lQ5jmxJxzVjNATxjMAmWT+Wg=
-----END CERTIFICATE-----
