Certificate:
    Data:
        Version: 3 (0x2)
        Serial Number: 51 (0x33)
        Signature Algorithm: ecdsa-with-SHA256
        Issuer: CN=Regione Liguria, C=IT, ST=Italia, O=E-Voting system, OU=E-Voting system authority/emailAddress=Liguria@evoting.it
        Validity
            Not Before: Aug 26 15:21:17 2022 GMT
            Not After : Aug 26 15:21:17 2023 GMT
        Subject: CN=Trevor, C=IT, ST=Italia, O=Regione Liguria
        Subject Public Key Info:
            Public Key Algorithm: id-ecPublicKey
                Public-Key: (256 bit)
                pub:
                    04:0d:0e:41:2d:ce:07:f5:57:9d:7d:d6:eb:be:dd:
                    79:7c:d7:23:0b:d1:23:e5:34:d5:7d:4a:24:21:2b:
                    4e:f1:64:de:3d:d2:93:7e:84:0e:94:85:61:9f:86:
                    47:b2:9c:ed:dc:5b:77:95:4f:a0:e0:4b:a4:a4:89:
                    c1:b8:9f:b8:51
                ASN1 OID: secp256k1
        X509v3 extensions:
            X509v3 Key Usage: critical
                Digital Signature, Key Encipherment
            X509v3 Basic Constraints: critical
                CA:FALSE, pathlen:3
    Signature Algorithm: ecdsa-with-SHA256
         30:45:02:20:2b:f5:ae:e4:2e:78:f5:87:12:a4:71:cd:83:86:
         43:6d:27:ba:52:bf:ee:47:37:23:4f:6f:e8:11:32:f3:2c:44:
         02:21:00:8b:b0:bd:95:5d:cf:27:fd:5f:a7:d1:33:b3:05:81:
         0e:e4:0e:bb:db:2d:74:74:c3:27:db:fe:fa:9a:49:bd:de
-----BEGIN CERTIFICATE-----
MIIB8jCCAZigAwIBAgIBMzAKBggqhkjOPQQDAjCBmTEYMBYGA1UEAwwPUmVnaW9u
ZSBMaWd1cmlhMQswCQYDVQQGEwJJVDEPMA0GA1UECAwGSXRhbGlhMRgwFgYDVQQK
DA9FLVZvdGluZyBzeXN0ZW0xIjAgBgNVBAsMGUUtVm90aW5nIHN5c3RlbSBhdXRo
b3JpdHkxITAfBgkqhkiG9w0BCQEWEkxpZ3VyaWFAZXZvdGluZy5pdDAeFw0yMjA4
MjYxNTIxMTdaFw0yMzA4MjYxNTIxMTdaMEkxDzANBgNVBAMMBlRyZXZvcjELMAkG
A1UEBhMCSVQxDzANBgNVBAgMBkl0YWxpYTEYMBYGA1UECgwPUmVnaW9uZSBMaWd1
cmlhMFYwEAYHKoZIzj0CAQYFK4EEAAoDQgAEDQ5BLc4H9Vedfdbrvt15fNcjC9Ej
5TTVfUokIStO8WTePdKTfoQOlIVhn4ZHspzt3Ft3lU+g4EukpInBuJ+4UaMjMCEw
DgYDVR0PAQH/BAQDAgWgMA8GA1UdEwEB/wQFMAMCAQMwCgYIKoZIzj0EAwIDSAAw
RQIgK/Wu5C549YcSpHHNg4ZDbSe6Ur/uRzcjT2/oETLzLEQCIQCLsL2VXc8n/V+n
0TOzBYEO5A672y10dMMn2/76mkm93g==
-----END CERTIFICATE-----
