Certificate:
    Data:
        Version: 3 (0x2)
        Serial Number: 12 (0xc)
        Signature Algorithm: ecdsa-with-SHA256
        Issuer: CN=Regione Valle_d_Aosta, C=IT, ST=Italia, O=E-Voting system, OU=E-Voting system authority/emailAddress=Valle_d_Aosta@evoting.it
        Validity
            Not Before: Aug 26 15:19:04 2022 GMT
            Not After : Aug 26 15:19:04 2023 GMT
        Subject: CN=Troy, C=IT, ST=Italia, O=Regione Valle_d_Aosta
        Subject Public Key Info:
            Public Key Algorithm: id-ecPublicKey
                Public-Key: (256 bit)
                pub:
                    04:b9:ca:79:58:37:bf:84:3e:b7:20:37:21:9d:c9:
                    51:e9:c2:93:85:c9:e2:f7:72:c5:f9:6f:f8:41:a0:
                    3d:d8:31:2e:4c:87:95:e6:9d:bb:11:ee:61:4d:6b:
                    54:bf:36:cb:b9:1d:33:3e:4d:4e:52:5c:ac:81:45:
                    0d:57:02:55:c9
                ASN1 OID: secp256k1
        X509v3 extensions:
            X509v3 Key Usage: critical
                Digital Signature, Key Encipherment
            X509v3 Basic Constraints: critical
                CA:FALSE, pathlen:3
    Signature Algorithm: ecdsa-with-SHA256
         30:44:02:20:28:6c:91:1e:88:c5:f9:c5:b7:31:08:29:5a:ee:
         7e:50:a7:5a:8f:8c:26:55:aa:0f:25:62:ce:53:ce:01:13:15:
         02:20:22:0f:91:01:8e:6c:00:86:83:6f:0f:aa:c2:e5:e5:9c:
         ec:50:96:42:41:d0:a1:99:28:b3:79:f7:b0:23:7f:5f
-----BEGIN CERTIFICATE-----
MIICATCCAaigAwIBAgIBDDAKBggqhkjOPQQDAjCBpTEeMBwGA1UEAwwVUmVnaW9u
ZSBWYWxsZV9kX0Fvc3RhMQswCQYDVQQGEwJJVDEPMA0GA1UECAwGSXRhbGlhMRgw
FgYDVQQKDA9FLVZvdGluZyBzeXN0ZW0xIjAgBgNVBAsMGUUtVm90aW5nIHN5c3Rl
bSBhdXRob3JpdHkxJzAlBgkqhkiG9w0BCQEWGFZhbGxlX2RfQW9zdGFAZXZvdGlu
Zy5pdDAeFw0yMjA4MjYxNTE5MDRaFw0yMzA4MjYxNTE5MDRaME0xDTALBgNVBAMM
BFRyb3kxCzAJBgNVBAYTAklUMQ8wDQYDVQQIDAZJdGFsaWExHjAcBgNVBAoMFVJl
Z2lvbmUgVmFsbGVfZF9Bb3N0YTBWMBAGByqGSM49AgEGBSuBBAAKA0IABLnKeVg3
v4Q+tyA3IZ3JUenCk4XJ4vdyxflv+EGgPdgxLkyHleaduxHuYU1rVL82y7kdMz5N
TlJcrIFFDVcCVcmjIzAhMA4GA1UdDwEB/wQEAwIFoDAPBgNVHRMBAf8EBTADAgED
MAoGCCqGSM49BAMCA0cAMEQCIChskR6IxfnFtzEIKVruflCnWo+MJlWqDyVizlPO
ARMVAiAiD5EBjmwAhoNvD6rC5eWc7FCWQkHQoZkos3n3sCN/Xw==
-----END CERTIFICATE-----
