Certificate:
    Data:
        Version: 3 (0x2)
        Serial Number: 44 (0x2c)
        Signature Algorithm: ecdsa-with-SHA256
        Issuer: CN=Regione Friuli_Venezia_Giulia, C=IT, ST=Italia, O=E-Voting system, OU=E-Voting system authority/emailAddress=Friuli_Venezia_Giulia@evoting.it
        Validity
            Not Before: Aug  3 13:28:17 2022 GMT
            Not After : Aug  3 13:28:17 2023 GMT
        Subject: CN=Truman, C=IT, ST=Italia, O=Regione Friuli_Venezia_Giulia
        Subject Public Key Info:
            Public Key Algorithm: id-ecPublicKey
                Public-Key: (256 bit)
                pub:
                    04:5f:5a:29:b6:dc:81:5f:84:62:48:cc:ae:b4:3f:
                    85:c3:ad:15:d4:cc:6b:e9:d8:b5:60:c3:0d:0a:ba:
                    f6:f4:63:58:97:fe:80:60:b0:9f:b9:8b:f3:71:4e:
                    bd:7d:0c:ec:1d:00:97:fc:03:75:3b:09:f8:e3:a7:
                    a1:fd:d7:01:34
                ASN1 OID: prime256v1
                NIST CURVE: P-256
        X509v3 extensions:
            X509v3 Key Usage: critical
                Digital Signature, Key Encipherment
            X509v3 Basic Constraints: critical
                CA:FALSE, pathlen:3
    Signature Algorithm: ecdsa-with-SHA256
         30:45:02:21:00:e9:f6:0e:f8:68:61:14:de:cd:78:8a:e8:63:
         cb:44:b2:c6:b0:02:3e:d4:26:0a:37:95:c5:ca:97:ef:10:9d:
         d1:02:20:49:a7:a5:9e:7b:90:a3:42:8a:1c:9a:72:d7:51:28:
         85:b9:fd:e7:8d:cf:e1:1c:6e:4f:07:9d:76:d7:af:f4:5e
-----BEGIN CERTIFICATE-----
MIICHzCCAcWgAwIBAgIBLDAKBggqhkjOPQQDAjCBtTEmMCQGA1UEAwwdUmVnaW9u
ZSBGcml1bGlfVmVuZXppYV9HaXVsaWExCzAJBgNVBAYTAklUMQ8wDQYDVQQIDAZJ
dGFsaWExGDAWBgNVBAoMD0UtVm90aW5nIHN5c3RlbTEiMCAGA1UECwwZRS1Wb3Rp
bmcgc3lzdGVtIGF1dGhvcml0eTEvMC0GCSqGSIb3DQEJARYgRnJpdWxpX1ZlbmV6
aWFfR2l1bGlhQGV2b3RpbmcuaXQwHhcNMjIwODAzMTMyODE3WhcNMjMwODAzMTMy
ODE3WjBXMQ8wDQYDVQQDDAZUcnVtYW4xCzAJBgNVBAYTAklUMQ8wDQYDVQQIDAZJ
dGFsaWExJjAkBgNVBAoMHVJlZ2lvbmUgRnJpdWxpX1ZlbmV6aWFfR2l1bGlhMFkw
EwYHKoZIzj0CAQYIKoZIzj0DAQcDQgAEX1opttyBX4RiSMyutD+Fw60V1Mxr6di1
YMMNCrr29GNYl/6AYLCfuYvzcU69fQzsHQCX/AN1Own446eh/dcBNKMjMCEwDgYD
VR0PAQH/BAQDAgWgMA8GA1UdEwEB/wQFMAMCAQMwCgYIKoZIzj0EAwIDSAAwRQIh
AOn2DvhoYRTezXiK6GPLRLLGsAI+1CYKN5XFypfvEJ3RAiBJp6Wee5CjQoocmnLX
USiFuf3njc/hHG5PB51216/0Xg==
-----END CERTIFICATE-----
