Certificate:
    Data:
        Version: 3 (0x2)
        Serial Number: 14 (0xe)
        Signature Algorithm: ecdsa-with-SHA256
        Issuer: CN=Regione Molise, C=IT, ST=Italia, O=E-Voting system, OU=E-Voting system authority/emailAddress=Molise@evoting.it
        Validity
            Not Before: Aug  3 13:26:20 2022 GMT
            Not After : Aug  3 13:26:20 2023 GMT
        Subject: CN=Twila, C=IT, ST=Italia, O=Regione Molise
        Subject Public Key Info:
            Public Key Algorithm: id-ecPublicKey
                Public-Key: (256 bit)
                pub:
                    04:ad:d6:d0:f0:5f:32:1f:9a:d1:53:6e:31:c7:48:
                    0d:94:88:a4:8c:a0:e2:08:99:cd:96:74:76:dd:8c:
                    22:cd:d7:f6:c7:0b:c1:32:cf:6a:f5:ae:e4:fc:4c:
                    14:ac:c7:cd:95:18:e7:e1:83:73:8d:3b:7f:b4:65:
                    ce:c4:22:b1:ae
                ASN1 OID: prime256v1
                NIST CURVE: P-256
        X509v3 extensions:
            X509v3 Key Usage: critical
                Digital Signature, Key Encipherment
            X509v3 Basic Constraints: critical
                CA:FALSE, pathlen:3
    Signature Algorithm: ecdsa-with-SHA256
         30:45:02:21:00:90:3e:73:77:8e:c0:96:5e:10:89:35:07:60:
         56:87:49:50:11:80:4c:8e:3d:7f:d8:6c:56:27:21:f2:0b:a4:
         46:02:20:64:07:e8:2f:01:0c:66:1e:6e:53:d3:99:19:a6:a7:
         69:b9:af:53:b7:98:a3:f5:00:be:eb:a3:18:d1:9a:2a:a4
-----BEGIN CERTIFICATE-----
MIIB8TCCAZegAwIBAgIBDjAKBggqhkjOPQQDAjCBlzEXMBUGA1UEAwwOUmVnaW9u
ZSBNb2xpc2UxCzAJBgNVBAYTAklUMQ8wDQYDVQQIDAZJdGFsaWExGDAWBgNVBAoM
D0UtVm90aW5nIHN5c3RlbTEiMCAGA1UECwwZRS1Wb3Rpbmcgc3lzdGVtIGF1dGhv
cml0eTEgMB4GCSqGSIb3DQEJARYRTW9saXNlQGV2b3RpbmcuaXQwHhcNMjIwODAz
MTMyNjIwWhcNMjMwODAzMTMyNjIwWjBHMQ4wDAYDVQQDDAVUd2lsYTELMAkGA1UE
BhMCSVQxDzANBgNVBAgMBkl0YWxpYTEXMBUGA1UECgwOUmVnaW9uZSBNb2xpc2Uw
WTATBgcqhkjOPQIBBggqhkjOPQMBBwNCAASt1tDwXzIfmtFTbjHHSA2UiKSMoOII
mc2WdHbdjCLN1/bHC8Eyz2r1ruT8TBSsx82VGOfhg3ONO3+0Zc7EIrGuoyMwITAO
BgNVHQ8BAf8EBAMCBaAwDwYDVR0TAQH/BAUwAwIBAzAKBggqhkjOPQQDAgNIADBF
AiEAkD5zd47All4QiTUHYFaHSVARgEyOPX/YbFYnIfILpEYCIGQH6C8BDGYeblPT
mRmmp2m5r1O3mKP1AL7roxjRmiqk
-----END CERTIFICATE-----
