Certificate:
    Data:
        Version: 3 (0x2)
        Serial Number: 45 (0x2d)
        Signature Algorithm: ecdsa-with-SHA256
        Issuer: CN=Regione Umbria, C=IT, ST=Italia, O=E-Voting system, OU=E-Voting system authority/emailAddress=Umbria@evoting.it
        Validity
            Not Before: Aug 26 15:21:15 2022 GMT
            Not After : Aug 26 15:21:15 2023 GMT
        Subject: CN=Tyler, C=IT, ST=Italia, O=Regione Umbria
        Subject Public Key Info:
            Public Key Algorithm: id-ecPublicKey
                Public-Key: (256 bit)
                pub:
                    04:67:5c:49:84:c5:7d:42:9f:d2:dc:2c:4c:f7:4f:
                    68:67:f7:1c:fd:24:24:f9:47:3a:d9:71:0b:ee:7e:
                    08:aa:1e:8f:a1:46:21:b1:ec:a5:5d:ee:5a:2a:fa:
                    b3:52:96:1f:85:21:37:d9:e7:e6:f1:f4:3c:c8:e2:
                    2b:af:29:b3:ea
                ASN1 OID: secp256k1
        X509v3 extensions:
            X509v3 Key Usage: critical
                Digital Signature, Key Encipherment
            X509v3 Basic Constraints: critical
                CA:FALSE, pathlen:3
    Signature Algorithm: ecdsa-with-SHA256
         30:46:02:21:00:b1:90:8b:df:ce:4b:22:72:d3:08:27:94:ed:
         b4:31:07:6c:95:46:e9:23:f1:5d:51:4b:64:24:d6:17:ab:ab:
         2b:02:21:00:e7:26:6c:df:8c:9a:82:5a:49:e1:d1:94:59:a1:
         b7:b2:77:4f:1b:c0:8c:80:f0:2e:eb:a4:95:0b:d0:e6:3c:5c
-----BEGIN CERTIFICATE-----
MIIB7zCCAZSgAwIBAgIBLTAKBggqhkjOPQQDAjCBlzEXMBUGA1UEAwwOUmVnaW9u
ZSBVbWJyaWExCzAJBgNVBAYTAklUMQ8wDQYDVQQIDAZJdGFsaWExGDAWBgNVBAoM
D0UtVm90aW5nIHN5c3RlbTEiMCAGA1UECwwZRS1Wb3Rpbmcgc3lzdGVtIGF1dGhv
cml0eTEgMB4GCSqGSIb3DQEJARYRVW1icmlhQGV2b3RpbmcuaXQwHhcNMjIwODI2
MTUyMTE1WhcNMjMwODI2MTUyMTE1WjBHMQ4wDAYDVQQDDAVUeWxlcjELMAkGA1UE
BhMCSVQxDzANBgNVBAgMBkl0YWxpYTEXMBUGA1UECgwOUmVnaW9uZSBVbWJyaWEw
VjAQBgcqhkjOPQIBBgUrgQQACgNCAARnXEmExX1Cn9LcLEz3T2hn9xz9JCT5RzrZ
cQvufgiqHo+hRiGx7KVd7loq+rNSlh+FITfZ5+bx9DzI4iuvKbPqoyMwITAOBgNV
HQ8BAf8EBAMCBaAwDwYDVR0TAQH/BAUwAwIBAzAKBggqhkjOPQQDAgNJADBGAiEA
sZCL385LInLTCCeU7bQxB2yVRukj8V1RS2Qk1herqysCIQDnJmzfjJqCWknh0ZRZ
obeyd08bwIyA8C7rpJUL0OY8XA==
-----END CERTIFICATE-----
