Certificate:
    Data:
        Version: 3 (0x2)
        Serial Number: 57 (0x39)
        Signature Algorithm: ecdsa-with-SHA256
        Issuer: CN=Regione Basilicata, C=IT, ST=Italia, O=E-Voting system, OU=E-Voting system authority/emailAddress=Basilicata@evoting.it
        Validity
            Not Before: Aug  3 13:28:44 2022 GMT
            Not After : Aug  3 13:28:44 2023 GMT
        Subject: CN=Ursula, C=IT, ST=Italia, O=Regione Basilicata
        Subject Public Key Info:
            Public Key Algorithm: id-ecPublicKey
                Public-Key: (256 bit)
                pub:
                    04:5d:d6:f6:6e:da:d5:08:83:5f:9e:d8:ec:0f:f6:
                    8f:1c:7a:0e:45:af:ab:69:28:7e:3e:93:07:9e:4b:
                    3d:c5:6b:8b:89:ab:1f:d1:01:63:2d:6a:e1:c8:f5:
                    cc:5e:a2:d6:46:96:34:e2:b6:75:71:e1:36:91:c5:
                    46:67:5a:a6:68
                ASN1 OID: prime256v1
                NIST CURVE: P-256
        X509v3 extensions:
            X509v3 Key Usage: critical
                Digital Signature, Key Encipherment
            X509v3 Basic Constraints: critical
                CA:FALSE, pathlen:3
    Signature Algorithm: ecdsa-with-SHA256
         30:45:02:21:00:92:cd:8c:d5:6a:6d:77:37:e0:0a:c8:14:b3:
         2b:cb:ec:cd:80:d7:a1:e4:77:a8:0b:b1:3f:a8:f0:b7:1a:aa:
         46:02:20:0d:3e:c6:83:b3:e9:f5:fe:a5:45:35:c1:93:c2:82:
         da:3f:da:38:a2:a4:7f:5b:36:2b:18:68:fb:79:cb:d6:9c
-----BEGIN CERTIFICATE-----
MIIB/jCCAaSgAwIBAgIBOTAKBggqhkjOPQQDAjCBnzEbMBkGA1UEAwwSUmVnaW9u
ZSBCYXNpbGljYXRhMQswCQYDVQQGEwJJVDEPMA0GA1UECAwGSXRhbGlhMRgwFgYD
VQQKDA9FLVZvdGluZyBzeXN0ZW0xIjAgBgNVBAsMGUUtVm90aW5nIHN5c3RlbSBh
dXRob3JpdHkxJDAiBgkqhkiG9w0BCQEWFUJhc2lsaWNhdGFAZXZvdGluZy5pdDAe
Fw0yMjA4MDMxMzI4NDRaFw0yMzA4MDMxMzI4NDRaMEwxDzANBgNVBAMMBlVyc3Vs
YTELMAkGA1UEBhMCSVQxDzANBgNVBAgMBkl0YWxpYTEbMBkGA1UECgwSUmVnaW9u
ZSBCYXNpbGljYXRhMFkwEwYHKoZIzj0CAQYIKoZIzj0DAQcDQgAEXdb2btrVCINf
ntjsD/aPHHoORa+raSh+PpMHnks9xWuLiasf0QFjLWrhyPXMXqLWRpY04rZ1ceE2
kcVGZ1qmaKMjMCEwDgYDVR0PAQH/BAQDAgWgMA8GA1UdEwEB/wQFMAMCAQMwCgYI
KoZIzj0EAwIDSAAwRQIhAJLNjNVqbXc34ArIFLMry+zNgNeh5HeoC7E/qPC3GqpG
AiANPsaDs+n1/qVFNcGTwoLaP9o4oqR/WzYrGGj7ecvWnA==
-----END CERTIFICATE-----
