Certificate:
    Data:
        Version: 3 (0x2)
        Serial Number: 31 (0x1f)
        Signature Algorithm: ecdsa-with-SHA256
        Issuer: CN=Regione Umbria, C=IT, ST=Italia, O=E-Voting system, OU=E-Voting system authority/emailAddress=Umbria@evoting.it
        Validity
            Not Before: Aug 26 15:20:35 2022 GMT
            Not After : Aug 26 15:20:35 2023 GMT
        Subject: CN=Valerie, C=IT, ST=Italia, O=Regione Umbria
        Subject Public Key Info:
            Public Key Algorithm: id-ecPublicKey
                Public-Key: (256 bit)
                pub:
                    04:f1:4b:4e:f7:1b:23:1a:07:2b:ca:5e:9c:97:b8:
                    f6:21:75:70:31:2a:27:84:e7:67:fe:48:2a:23:e6:
                    ae:50:a4:15:24:43:75:bb:0f:4a:cf:c1:d0:cb:57:
                    04:a5:6b:e3:8d:4a:56:e7:21:b7:5c:0a:15:5d:f3:
                    e5:e5:2b:1d:c2
                ASN1 OID: secp256k1
        X509v3 extensions:
            X509v3 Key Usage: critical
                Digital Signature, Key Encipherment
            X509v3 Basic Constraints: critical
                CA:FALSE, pathlen:3
    Signature Algorithm: ecdsa-with-SHA256
         30:46:02:21:00:e5:e0:1d:4e:6b:5c:b6:8f:2c:d4:09:d7:ed:
         07:1c:b7:3c:95:0e:b7:2b:a0:a9:fe:b9:64:27:c2:cf:1b:2d:
         24:02:21:00:a0:6b:95:b0:50:12:cc:2c:8f:7d:3a:48:35:2c:
         d0:56:e8:04:48:d0:85:8a:2c:7b:4b:dc:fc:3c:04:ba:bd:ab
-----BEGIN CERTIFICATE-----
MIIB8TCCAZagAwIBAgIBHzAKBggqhkjOPQQDAjCBlzEXMBUGA1UEAwwOUmVnaW9u
ZSBVbWJyaWExCzAJBgNVBAYTAklUMQ8wDQYDVQQIDAZJdGFsaWExGDAWBgNVBAoM
D0UtVm90aW5nIHN5c3RlbTEiMCAGA1UECwwZRS1Wb3Rpbmcgc3lzdGVtIGF1dGhv
cml0eTEgMB4GCSqGSIb3DQEJARYRVW1icmlhQGV2b3RpbmcuaXQwHhcNMjIwODI2
MTUyMDM1WhcNMjMwODI2MTUyMDM1WjBJMRAwDgYDVQQDDAdWYWxlcmllMQswCQYD
VQQGEwJJVDEPMA0GA1UECAwGSXRhbGlhMRcwFQYDVQQKDA5SZWdpb25lIFVtYnJp
YTBWMBAGByqGSM49AgEGBSuBBAAKA0IABPFLTvcbIxoHK8penJe49iF1cDEqJ4Tn
Z/5IKiPmrlCkFSRDdbsPSs/B0MtXBKVr441KVucht1wKFV3z5eUrHcKjIzAhMA4G
A1UdDwEB/wQEAwIFoDAPBgNVHRMBAf8EBTADAgEDMAoGCCqGSM49BAMCA0kAMEYC
IQDl4B1Oa1y2jyzUCdftBxy3PJUOtyugqf65ZCfCzxstJAIhAKBrlbBQEswsj306
SDUs0FboBEjQhYose0vc/DwEur2r
-----END CERTIFICATE-----
