Certificate:
    Data:
        Version: 3 (0x2)
        Serial Number: 36 (0x24)
        Signature Algorithm: ecdsa-with-SHA256
        Issuer: CN=Regione Trentino_Alto_Adige, C=IT, ST=Italia, O=E-Voting system, OU=E-Voting system authority/emailAddress=Trentino_Alto_Adige@evoting.it
        Validity
            Not Before: Aug 26 15:20:51 2022 GMT
            Not After : Aug 26 15:20:51 2023 GMT
        Subject: CN=Vanessa, C=IT, ST=Italia, O=Regione Trentino_Alto_Adige
        Subject Public Key Info:
            Public Key Algorithm: id-ecPublicKey
                Public-Key: (256 bit)
                pub:
                    04:ff:5d:a3:e8:8e:ca:67:45:11:57:d9:ef:05:5c:
                    39:c4:4c:71:54:a1:2d:30:e6:a5:51:6c:63:f5:c1:
                    07:6a:dc:3c:aa:e8:9e:a8:13:34:bd:80:71:87:2d:
                    f5:b8:0c:a9:98:52:53:a5:b1:ea:25:6c:fc:02:9b:
                    46:4c:57:be:6d
                ASN1 OID: secp256k1
        X509v3 extensions:
            X509v3 Key Usage: critical
                Digital Signature, Key Encipherment
            X509v3 Basic Constraints: critical
                CA:FALSE, pathlen:3
    Signature Algorithm: ecdsa-with-SHA256
         30:45:02:21:00:cf:f1:48:50:59:3d:a7:3f:46:19:40:b6:3a:
         00:bf:b3:21:cc:59:89:17:58:06:58:47:ec:28:76:2c:aa:24:
         bf:02:20:0f:6b:14:ca:29:4b:11:76:a8:6a:b4:ee:9a:e2:ca:
         67:61:f0:23:18:79:7e:73:5a:5a:27:eb:7d:de:0b:ce:41
-----BEGIN CERTIFICATE-----
MIICFzCCAb2gAwIBAgIBJDAKBggqhkjOPQQDAjCBsTEkMCIGA1UEAwwbUmVnaW9u
ZSBUcmVudGlub19BbHRvX0FkaWdlMQswCQYDVQQGEwJJVDEPMA0GA1UECAwGSXRh
bGlhMRgwFgYDVQQKDA9FLVZvdGluZyBzeXN0ZW0xIjAgBgNVBAsMGUUtVm90aW5n
IHN5c3RlbSBhdXRob3JpdHkxLTArBgkqhkiG9w0BCQEWHlRyZW50aW5vX0FsdG9f
QWRpZ2VAZXZvdGluZy5pdDAeFw0yMjA4MjYxNTIwNTFaFw0yMzA4MjYxNTIwNTFa
MFYxEDAOBgNVBAMMB1ZhbmVzc2ExCzAJBgNVBAYTAklUMQ8wDQYDVQQIDAZJdGFs
aWExJDAiBgNVBAoMG1JlZ2lvbmUgVHJlbnRpbm9fQWx0b19BZGlnZTBWMBAGByqG
SM49AgEGBSuBBAAKA0IABP9do+iOymdFEVfZ7wVcOcRMcVShLTDmpVFsY/XBB2rc
PKronqgTNL2AcYct9bgMqZhSU6Wx6iVs/AKbRkxXvm2jIzAhMA4GA1UdDwEB/wQE
AwIFoDAPBgNVHRMBAf8EBTADAgEDMAoGCCqGSM49BAMCA0gAMEUCIQDP8UhQWT2n
P0YZQLY6AL+zIcxZiRdYBlhH7Ch2LKokvwIgD2sUyilLEXaoarTumuLKZ2HwIxh5
fnNaWifrfd4LzkE=
-----END CERTIFICATE-----
