Certificate:
    Data:
        Version: 3 (0x2)
        Serial Number: 31 (0x1f)
        Signature Algorithm: ecdsa-with-SHA256
        Issuer: CN=Regione Lazio, C=IT, ST=Italia, O=E-Voting system, OU=E-Voting system authority/emailAddress=Lazio@evoting.it
        Validity
            Not Before: Aug 26 15:20:44 2022 GMT
            Not After : Aug 26 15:20:44 2023 GMT
        Subject: CN=Velma, C=IT, ST=Italia, O=Regione Lazio
        Subject Public Key Info:
            Public Key Algorithm: id-ecPublicKey
                Public-Key: (256 bit)
                pub:
                    04:6d:e5:05:83:12:98:cb:b9:4c:5a:bd:f3:d7:80:
                    b2:5a:4a:0d:fe:7e:22:52:d9:dd:00:82:1b:c6:c5:
                    19:0f:4b:64:03:d3:e8:07:a5:f6:81:52:ca:cf:80:
                    74:1d:75:18:77:a5:d1:31:4c:63:c2:a8:58:0b:9e:
                    cb:8f:8f:0d:7f
                ASN1 OID: secp256k1
        X509v3 extensions:
            X509v3 Key Usage: critical
                Digital Signature, Key Encipherment
            X509v3 Basic Constraints: critical
                CA:FALSE, pathlen:3
    Signature Algorithm: ecdsa-with-SHA256
         30:45:02:20:01:01:76:16:be:1a:0f:1b:36:fe:68:41:58:a2:
         0a:27:93:61:cc:52:96:29:a6:49:3e:04:be:1b:6c:f5:2d:a7:
         02:21:00:9a:40:b2:d2:bc:23:e5:69:bf:60:47:8b:77:c9:e1:
         0f:40:8f:6f:69:8f:99:38:8e:90:91:28:bd:61:a8:53:6e
-----BEGIN CERTIFICATE-----
MIIB6zCCAZGgAwIBAgIBHzAKBggqhkjOPQQDAjCBlTEWMBQGA1UEAwwNUmVnaW9u
ZSBMYXppbzELMAkGA1UEBhMCSVQxDzANBgNVBAgMBkl0YWxpYTEYMBYGA1UECgwP
RS1Wb3Rpbmcgc3lzdGVtMSIwIAYDVQQLDBlFLVZvdGluZyBzeXN0ZW0gYXV0aG9y
aXR5MR8wHQYJKoZIhvcNAQkBFhBMYXppb0Bldm90aW5nLml0MB4XDTIyMDgyNjE1
MjA0NFoXDTIzMDgyNjE1MjA0NFowRjEOMAwGA1UEAwwFVmVsbWExCzAJBgNVBAYT
AklUMQ8wDQYDVQQIDAZJdGFsaWExFjAUBgNVBAoMDVJlZ2lvbmUgTGF6aW8wVjAQ
BgcqhkjOPQIBBgUrgQQACgNCAARt5QWDEpjLuUxavfPXgLJaSg3+fiJS2d0AghvG
xRkPS2QD0+gHpfaBUsrPgHQddRh3pdExTGPCqFgLnsuPjw1/oyMwITAOBgNVHQ8B
Af8EBAMCBaAwDwYDVR0TAQH/BAUwAwIBAzAKBggqhkjOPQQDAgNIADBFAiABAXYW
vhoPGzb+aEFYogonk2HMUpYppkk+BL4bbPUtpwIhAJpAstK8I+Vpv2BHi3fJ4Q9A
j29pj5k4jpCRKL1hqFNu
-----END CERTIFICATE-----
