Certificate:
    Data:
        Version: 3 (0x2)
        Serial Number: 34 (0x22)
        Signature Algorithm: ecdsa-with-SHA256
        Issuer: CN=Regione Lazio, C=IT, ST=Italia, O=E-Voting system, OU=E-Voting system authority/emailAddress=Lazio@evoting.it
        Validity
            Not Before: Aug 26 15:20:58 2022 GMT
            Not After : Aug 26 15:20:58 2023 GMT
        Subject: CN=Veronica, C=IT, ST=Italia, O=Regione Lazio
        Subject Public Key Info:
            Public Key Algorithm: id-ecPublicKey
                Public-Key: (256 bit)
                pub:
                    04:13:1a:3f:ca:8f:d4:a5:73:ca:63:48:06:de:64:
                    04:ad:c2:72:07:f7:95:df:85:2f:a4:ba:a8:2a:97:
                    72:7a:ba:15:06:c0:2a:4b:fe:aa:50:7a:dc:74:f4:
                    e5:61:3d:e0:14:85:a2:57:01:a6:75:2b:9a:78:52:
                    de:77:bb:69:2d
                ASN1 OID: secp256k1
        X509v3 extensions:
            X509v3 Key Usage: critical
                Digital Signature, Key Encipherment
            X509v3 Basic Constraints: critical
                CA:FALSE, pathlen:3
    Signature Algorithm: ecdsa-with-SHA256
         30:44:02:20:4d:b4:c8:b0:79:4d:dd:69:93:21:13:45:51:d0:
         c6:76:45:33:71:66:12:84:53:2b:53:01:01:56:13:71:3a:ea:
         02:20:6d:96:d6:5a:ee:2d:51:ee:9e:67:db:83:de:be:d3:50:
         88:aa:d8:a0:92:bb:9e:32:c4:27:6c:29:e1:db:dc:8f
-----BEGIN CERTIFICATE-----
MIIB7TCCAZSgAwIBAgIBIjAKBggqhkjOPQQDAjCBlTEWMBQGA1UEAwwNUmVnaW9u
ZSBMYXppbzELMAkGA1UEBhMCSVQxDzANBgNVBAgMBkl0YWxpYTEYMBYGA1UECgwP
RS1Wb3Rpbmcgc3lzdGVtMSIwIAYDVQQLDBlFLVZvdGluZyBzeXN0ZW0gYXV0aG9y
aXR5MR8wHQYJKoZIhvcNAQkBFhBMYXppb0Bldm90aW5nLml0MB4XDTIyMDgyNjE1
MjA1OFoXDTIzMDgyNjE1MjA1OFowSTERMA8GA1UEAwwIVmVyb25pY2ExCzAJBgNV
BAYTAklUMQ8wDQYDVQQIDAZJdGFsaWExFjAUBgNVBAoMDVJlZ2lvbmUgTGF6aW8w
VjAQBgcqhkjOPQIBBgUrgQQACgNCAAQTGj/Kj9Slc8pjSAbeZAStwnIH95XfhS+k
uqgql3J6uhUGwCpL/qpQetx09OVhPeAUhaJXAaZ1K5p4Ut53u2ktoyMwITAOBgNV
HQ8BAf8EBAMCBaAwDwYDVR0TAQH/BAUwAwIBAzAKBggqhkjOPQQDAgNHADBEAiBN
tMiweU3daZMhE0VR0MZ2RTNxZhKEUytTAQFWE3E66gIgbZbWWu4tUe6eZ9uD3r7T
UIiq2KCSu54yxCdsKeHb3I8=
-----END CERTIFICATE-----
