Certificate:
    Data:
        Version: 3 (0x2)
        Serial Number: 15 (0xf)
        Signature Algorithm: ecdsa-with-SHA256
        Issuer: CN=Regione Molise, C=IT, ST=Italia, O=E-Voting system, OU=E-Voting system authority/emailAddress=Molise@evoting.it
        Validity
            Not Before: Aug  3 13:26:21 2022 GMT
            Not After : Aug  3 13:26:21 2023 GMT
        Subject: CN=Vickie, C=IT, ST=Italia, O=Regione Molise
        Subject Public Key Info:
            Public Key Algorithm: id-ecPublicKey
                Public-Key: (256 bit)
                pub:
                    04:19:ae:bd:11:7f:36:ee:9b:a2:26:13:f6:54:0b:
                    a8:b7:7a:19:b6:98:45:04:74:95:e3:d4:2f:87:5c:
                    6a:e7:34:e9:97:fa:22:0a:a6:39:88:ac:be:c3:41:
                    1d:2c:fd:71:2f:98:20:ed:b9:3c:d2:a6:b7:b0:70:
                    50:a6:82:4d:6a
                ASN1 OID: prime256v1
                NIST CURVE: P-256
        X509v3 extensions:
            X509v3 Key Usage: critical
                Digital Signature, Key Encipherment
            X509v3 Basic Constraints: critical
                CA:FALSE, pathlen:3
    Signature Algorithm: ecdsa-with-SHA256
         30:46:02:21:00:93:ed:b6:c4:06:e0:87:1b:d5:15:f1:81:61:
         a1:63:a5:9f:30:f2:af:fb:b6:0a:37:e2:11:c2:cb:fd:47:2a:
         7b:02:21:00:8c:21:f1:a1:c5:1b:c0:20:73:e7:2d:65:4e:5a:
         89:ec:b3:59:77:7c:f3:fc:b9:ea:11:63:e5:a6:78:0e:c5:6b
-----BEGIN CERTIFICATE-----
MIIB8zCCAZigAwIBAgIBDzAKBggqhkjOPQQDAjCBlzEXMBUGA1UEAwwOUmVnaW9u
ZSBNb2xpc2UxCzAJBgNVBAYTAklUMQ8wDQYDVQQIDAZJdGFsaWExGDAWBgNVBAoM
D0UtVm90aW5nIHN5c3RlbTEiMCAGA1UECwwZRS1Wb3Rpbmcgc3lzdGVtIGF1dGhv
cml0eTEgMB4GCSqGSIb3DQEJARYRTW9saXNlQGV2b3RpbmcuaXQwHhcNMjIwODAz
MTMyNjIxWhcNMjMwODAzMTMyNjIxWjBIMQ8wDQYDVQQDDAZWaWNraWUxCzAJBgNV
BAYTAklUMQ8wDQYDVQQIDAZJdGFsaWExFzAVBgNVBAoMDlJlZ2lvbmUgTW9saXNl
MFkwEwYHKoZIzj0CAQYIKoZIzj0DAQcDQgAEGa69EX827puiJhP2VAuot3oZtphF
BHSV49Qvh1xq5zTpl/oiCqY5iKy+w0EdLP1xL5gg7bk80qa3sHBQpoJNaqMjMCEw
DgYDVR0PAQH/BAQDAgWgMA8GA1UdEwEB/wQFMAMCAQMwCgYIKoZIzj0EAwIDSQAw
RgIhAJPttsQG4Icb1RXxgWGhY6WfMPKv+7YKN+IRwsv9Ryp7AiEAjCHxocUbwCBz
5y1lTlqJ7LNZd3zz/LnqEWPlpngOxWs=
-----END CERTIFICATE-----
