Certificate:
    Data:
        Version: 3 (0x2)
        Serial Number: 36 (0x24)
        Signature Algorithm: ecdsa-with-SHA256
        Issuer: CN=Regione Valle_d_Aosta, C=IT, ST=Italia, O=E-Voting system, OU=E-Voting system authority/emailAddress=Valle_d_Aosta@evoting.it
        Validity
            Not Before: Aug  3 13:27:33 2022 GMT
            Not After : Aug  3 13:27:33 2023 GMT
        Subject: CN=Vicky, C=IT, ST=Italia, O=Regione Valle_d_Aosta
        Subject Public Key Info:
            Public Key Algorithm: id-ecPublicKey
                Public-Key: (256 bit)
                pub:
                    04:de:d6:9a:97:19:92:93:ca:7d:64:f9:dd:4d:d7:
                    9c:6e:5a:29:02:1a:58:f0:8d:6f:e5:20:b1:e9:15:
                    0d:dc:cd:bd:2f:4a:c7:e6:94:bc:b5:b3:d3:e4:21:
                    a1:cd:75:fe:26:96:50:19:1c:08:00:e4:08:df:73:
                    9d:c2:53:24:49
                ASN1 OID: prime256v1
                NIST CURVE: P-256
        X509v3 extensions:
            X509v3 Key Usage: critical
                Digital Signature, Key Encipherment
            X509v3 Basic Constraints: critical
                CA:FALSE, pathlen:3
    Signature Algorithm: ecdsa-with-SHA256
         30:45:02:21:00:cc:e5:d1:96:4b:52:5e:1c:d2:c4:00:0a:93:
         73:15:39:4d:c0:81:7b:85:27:79:9d:c3:d7:91:64:b3:ae:30:
         d8:02:20:03:f0:fb:ba:f7:c2:20:0d:55:94:8a:c0:9f:4a:d7:
         e1:75:4e:93:ed:a7:07:4e:6e:b2:d7:f4:f4:09:b7:28:f9
-----BEGIN CERTIFICATE-----
MIICBjCCAaygAwIBAgIBJDAKBggqhkjOPQQDAjCBpTEeMBwGA1UEAwwVUmVnaW9u
ZSBWYWxsZV9kX0Fvc3RhMQswCQYDVQQGEwJJVDEPMA0GA1UECAwGSXRhbGlhMRgw
FgYDVQQKDA9FLVZvdGluZyBzeXN0ZW0xIjAgBgNVBAsMGUUtVm90aW5nIHN5c3Rl
bSBhdXRob3JpdHkxJzAlBgkqhkiG9w0BCQEWGFZhbGxlX2RfQW9zdGFAZXZvdGlu
Zy5pdDAeFw0yMjA4MDMxMzI3MzNaFw0yMzA4MDMxMzI3MzNaME4xDjAMBgNVBAMM
BVZpY2t5MQswCQYDVQQGEwJJVDEPMA0GA1UECAwGSXRhbGlhMR4wHAYDVQQKDBVS
ZWdpb25lIFZhbGxlX2RfQW9zdGEwWTATBgcqhkjOPQIBBggqhkjOPQMBBwNCAATe
1pqXGZKTyn1k+d1N15xuWikCGljwjW/lILHpFQ3czb0vSsfmlLy1s9PkIaHNdf4m
llAZHAgA5Ajfc53CUyRJoyMwITAOBgNVHQ8BAf8EBAMCBaAwDwYDVR0TAQH/BAUw
AwIBAzAKBggqhkjOPQQDAgNIADBFAiEAzOXRlktSXhzSxAAKk3MVOU3AgXuFJ3md
w9eRZLOuMNgCIAPw+7r3wiANVZSKwJ9K1+F1TpPtpwdObrLX9PQJtyj5
-----END CERTIFICATE-----
