Certificate:
    Data:
        Version: 3 (0x2)
        Serial Number: 25 (0x19)
        Signature Algorithm: ecdsa-with-SHA256
        Issuer: CN=Regione Lombardia, C=IT, ST=Italia, O=E-Voting system, OU=E-Voting system authority/emailAddress=Lombardia@evoting.it
        Validity
            Not Before: Aug 26 15:20:27 2022 GMT
            Not After : Aug 26 15:20:27 2023 GMT
        Subject: CN=Vicki, C=IT, ST=Italia, O=Regione Lombardia
        Subject Public Key Info:
            Public Key Algorithm: id-ecPublicKey
                Public-Key: (256 bit)
                pub:
                    04:3e:66:87:9b:a9:ab:09:3b:fd:01:5a:7b:da:14:
                    8c:1d:d4:17:a2:dc:c3:bf:7f:bc:3e:2c:71:91:07:
                    39:22:4a:8e:b9:20:52:8f:1f:43:02:37:47:b5:0d:
                    44:1a:2b:15:aa:ec:a1:89:11:22:cf:45:8f:9d:23:
                    99:71:85:1b:4c
                ASN1 OID: secp256k1
        X509v3 extensions:
            X509v3 Key Usage: critical
                Digital Signature, Key Encipherment
            X509v3 Basic Constraints: critical
                CA:FALSE, pathlen:3
    Signature Algorithm: ecdsa-with-SHA256
         30:46:02:21:00:9b:c2:e8:47:e1:3b:d5:17:1f:9c:43:0f:74:
         5d:ce:92:a4:a7:a6:09:21:95:46:82:f7:f3:e0:07:66:d1:56:
         55:02:21:00:af:ee:a0:f0:74:80:2e:39:3a:e9:f9:41:d8:73:
         72:cc:ea:95:c8:45:69:97:b1:a3:a1:7e:d6:ca:c4:f5:aa:28
-----BEGIN CERTIFICATE-----
MIIB+DCCAZ2gAwIBAgIBGTAKBggqhkjOPQQDAjCBnTEaMBgGA1UEAwwRUmVnaW9u
ZSBMb21iYXJkaWExCzAJBgNVBAYTAklUMQ8wDQYDVQQIDAZJdGFsaWExGDAWBgNV
BAoMD0UtVm90aW5nIHN5c3RlbTEiMCAGA1UECwwZRS1Wb3Rpbmcgc3lzdGVtIGF1
dGhvcml0eTEjMCEGCSqGSIb3DQEJARYUTG9tYmFyZGlhQGV2b3RpbmcuaXQwHhcN
MjIwODI2MTUyMDI3WhcNMjMwODI2MTUyMDI3WjBKMQ4wDAYDVQQDDAVWaWNraTEL
MAkGA1UEBhMCSVQxDzANBgNVBAgMBkl0YWxpYTEaMBgGA1UECgwRUmVnaW9uZSBM
b21iYXJkaWEwVjAQBgcqhkjOPQIBBgUrgQQACgNCAAQ+ZoebqasJO/0BWnvaFIwd
1Bei3MO/f7w+LHGRBzkiSo65IFKPH0MCN0e1DUQaKxWq7KGJESLPRY+dI5lxhRtM
oyMwITAOBgNVHQ8BAf8EBAMCBaAwDwYDVR0TAQH/BAUwAwIBAzAKBggqhkjOPQQD
AgNJADBGAiEAm8LoR+E71RcfnEMPdF3OkqSnpgkhlUaC9/PgB2bRVlUCIQCv7qDw
dIAuOTrp+UHYc3LM6pXIRWmXsaOhftbKxPWqKA==
-----END CERTIFICATE-----
