Certificate:
    Data:
        Version: 3 (0x2)
        Serial Number: 25 (0x19)
        Signature Algorithm: ecdsa-with-SHA256
        Issuer: CN=Regione Sardegna, C=IT, ST=Italia, O=E-Voting system, OU=E-Voting system authority/emailAddress=Sardegna@evoting.it
        Validity
            Not Before: Aug 26 15:20:38 2022 GMT
            Not After : Aug 26 15:20:38 2023 GMT
        Subject: CN=Vickie, C=IT, ST=Italia, O=Regione Sardegna
        Subject Public Key Info:
            Public Key Algorithm: id-ecPublicKey
                Public-Key: (256 bit)
                pub:
                    04:58:4c:a3:ff:26:d4:9a:e6:8a:bf:56:95:97:b6:
                    56:28:dc:68:32:26:50:e6:9c:74:b6:35:d7:3a:5f:
                    ed:02:a0:06:78:c5:2c:88:f7:ec:73:0d:9c:72:f3:
                    90:ee:0c:3e:ae:2e:82:f5:15:58:22:29:c6:7a:21:
                    7f:f3:04:8a:77
                ASN1 OID: secp256k1
        X509v3 extensions:
            X509v3 Key Usage: critical
                Digital Signature, Key Encipherment
            X509v3 Basic Constraints: critical
                CA:FALSE, pathlen:3
    Signature Algorithm: ecdsa-with-SHA256
         30:44:02:20:7a:e3:5a:64:55:2c:f6:9d:48:b3:98:c1:c8:44:
         45:50:4e:f8:8b:3c:7c:a5:4d:f9:55:63:1a:28:67:a7:be:0c:
         02:20:71:c0:ad:e2:49:8a:1b:96:5d:c1:3e:12:f6:d3:29:c4:
         a0:ab:d7:d1:e8:41:c9:7b:d0:27:f7:a7:17:6e:b2:0d
-----BEGIN CERTIFICATE-----
MIIB9DCCAZugAwIBAgIBGTAKBggqhkjOPQQDAjCBmzEZMBcGA1UEAwwQUmVnaW9u
ZSBTYXJkZWduYTELMAkGA1UEBhMCSVQxDzANBgNVBAgMBkl0YWxpYTEYMBYGA1UE
CgwPRS1Wb3Rpbmcgc3lzdGVtMSIwIAYDVQQLDBlFLVZvdGluZyBzeXN0ZW0gYXV0
aG9yaXR5MSIwIAYJKoZIhvcNAQkBFhNTYXJkZWduYUBldm90aW5nLml0MB4XDTIy
MDgyNjE1MjAzOFoXDTIzMDgyNjE1MjAzOFowSjEPMA0GA1UEAwwGVmlja2llMQsw
CQYDVQQGEwJJVDEPMA0GA1UECAwGSXRhbGlhMRkwFwYDVQQKDBBSZWdpb25lIFNh
cmRlZ25hMFYwEAYHKoZIzj0CAQYFK4EEAAoDQgAEWEyj/ybUmuaKv1aVl7ZWKNxo
MiZQ5px0tjXXOl/tAqAGeMUsiPfscw2ccvOQ7gw+ri6C9RVYIinGeiF/8wSKd6Mj
MCEwDgYDVR0PAQH/BAQDAgWgMA8GA1UdEwEB/wQFMAMCAQMwCgYIKoZIzj0EAwID
RwAwRAIgeuNaZFUs9p1Is5jByERFUE74izx8pU35VWMaKGenvgwCIHHAreJJihuW
XcE+EvbTKcSgq9fR6EHJe9An96cXbrIN
-----END CERTIFICATE-----
