Certificate:
    Data:
        Version: 3 (0x2)
        Serial Number: 58 (0x3a)
        Signature Algorithm: ecdsa-with-SHA256
        Issuer: CN=Regione Piemonte, C=IT, ST=Italia, O=E-Voting system, OU=E-Voting system authority/emailAddress=Piemonte@evoting.it
        Validity
            Not Before: Aug  3 13:28:10 2022 GMT
            Not After : Aug  3 13:28:10 2023 GMT
        Subject: CN=Vicki, C=IT, ST=Italia, O=Regione Piemonte
        Subject Public Key Info:
            Public Key Algorithm: id-ecPublicKey
                Public-Key: (256 bit)
                pub:
                    04:02:78:d8:66:3f:75:da:89:90:5b:2d:c2:be:c7:
                    a3:b9:7f:b0:fe:30:b4:06:f6:f6:66:06:9c:6f:83:
                    99:eb:71:06:ab:fb:5f:31:06:7b:f7:9f:86:0f:fd:
                    bd:19:26:38:55:9d:87:76:32:b5:c3:3c:8e:7d:3a:
                    d6:94:9f:cc:b0
                ASN1 OID: prime256v1
                NIST CURVE: P-256
        X509v3 extensions:
            X509v3 Key Usage: critical
                Digital Signature, Key Encipherment
            X509v3 Basic Constraints: critical
                CA:FALSE, pathlen:3
    Signature Algorithm: ecdsa-with-SHA256
         30:45:02:21:00:d8:67:ca:44:46:98:19:76:46:66:55:0b:53:
         90:cb:c3:79:c5:ff:a8:70:af:8d:5d:ed:d6:99:0d:77:0f:7e:
         26:02:20:44:31:e9:04:57:87:fe:28:48:c3:72:20:0b:c5:38:
         5f:1e:b2:56:db:e2:e8:b3:a2:3a:e6:80:1a:46:86:5d:8e
-----BEGIN CERTIFICATE-----
MIIB9zCCAZ2gAwIBAgIBOjAKBggqhkjOPQQDAjCBmzEZMBcGA1UEAwwQUmVnaW9u
ZSBQaWVtb250ZTELMAkGA1UEBhMCSVQxDzANBgNVBAgMBkl0YWxpYTEYMBYGA1UE
CgwPRS1Wb3Rpbmcgc3lzdGVtMSIwIAYDVQQLDBlFLVZvdGluZyBzeXN0ZW0gYXV0
aG9yaXR5MSIwIAYJKoZIhvcNAQkBFhNQaWVtb250ZUBldm90aW5nLml0MB4XDTIy
MDgwMzEzMjgxMFoXDTIzMDgwMzEzMjgxMFowSTEOMAwGA1UEAwwFVmlja2kxCzAJ
BgNVBAYTAklUMQ8wDQYDVQQIDAZJdGFsaWExGTAXBgNVBAoMEFJlZ2lvbmUgUGll
bW9udGUwWTATBgcqhkjOPQIBBggqhkjOPQMBBwNCAAQCeNhmP3XaiZBbLcK+x6O5
f7D+MLQG9vZmBpxvg5nrcQar+18xBnv3n4YP/b0ZJjhVnYd2MrXDPI59OtaUn8yw
oyMwITAOBgNVHQ8BAf8EBAMCBaAwDwYDVR0TAQH/BAUwAwIBAzAKBggqhkjOPQQD
AgNIADBFAiEA2GfKREaYGXZGZlULU5DLw3nF/6hwr41d7daZDXcPfiYCIEQx6QRX
h/4oSMNyIAvFOF8eslbb4uizojrmgBpGhl2O
-----END CERTIFICATE-----
