Certificate:
    Data:
        Version: 3 (0x2)
        Serial Number: 47 (0x2f)
        Signature Algorithm: ecdsa-with-SHA256
        Issuer: CN=Regione Umbria, C=IT, ST=Italia, O=E-Voting system, OU=E-Voting system authority/emailAddress=Umbria@evoting.it
        Validity
            Not Before: Aug 26 15:21:18 2022 GMT
            Not After : Aug 26 15:21:18 2023 GMT
        Subject: CN=Victor, C=IT, ST=Italia, O=Regione Umbria
        Subject Public Key Info:
            Public Key Algorithm: id-ecPublicKey
                Public-Key: (256 bit)
                pub:
                    04:44:d0:ff:68:33:ca:c6:18:1b:f9:b2:53:91:32:
                    f8:7d:bb:4f:6a:23:51:4f:b6:96:a2:17:53:39:d2:
                    d7:79:58:9f:88:f3:9e:b8:08:ea:c4:3c:64:06:9d:
                    2d:b1:1c:5e:5e:94:dd:0d:07:b0:a5:24:11:f7:70:
                    98:45:89:a4:ed
                ASN1 OID: secp256k1
        X509v3 extensions:
            X509v3 Key Usage: critical
                Digital Signature, Key Encipherment
            X509v3 Basic Constraints: critical
                CA:FALSE, pathlen:3
    Signature Algorithm: ecdsa-with-SHA256
         30:45:02:21:00:a4:9a:6f:ec:4c:1d:dd:74:be:aa:3f:16:7d:
         a7:b6:dc:55:6a:9f:5d:b2:ea:e5:c8:11:b6:5d:9a:00:d0:33:
         60:02:20:00:db:01:8b:ae:22:54:a2:b0:9c:10:a5:0b:b5:5a:
         ad:d2:eb:4e:1b:98:cb:83:64:50:bd:12:b9:ea:76:49:dd
-----BEGIN CERTIFICATE-----
MIIB7zCCAZWgAwIBAgIBLzAKBggqhkjOPQQDAjCBlzEXMBUGA1UEAwwOUmVnaW9u
ZSBVbWJyaWExCzAJBgNVBAYTAklUMQ8wDQYDVQQIDAZJdGFsaWExGDAWBgNVBAoM
D0UtVm90aW5nIHN5c3RlbTEiMCAGA1UECwwZRS1Wb3Rpbmcgc3lzdGVtIGF1dGhv
cml0eTEgMB4GCSqGSIb3DQEJARYRVW1icmlhQGV2b3RpbmcuaXQwHhcNMjIwODI2
MTUyMTE4WhcNMjMwODI2MTUyMTE4WjBIMQ8wDQYDVQQDDAZWaWN0b3IxCzAJBgNV
BAYTAklUMQ8wDQYDVQQIDAZJdGFsaWExFzAVBgNVBAoMDlJlZ2lvbmUgVW1icmlh
MFYwEAYHKoZIzj0CAQYFK4EEAAoDQgAERND/aDPKxhgb+bJTkTL4fbtPaiNRT7aW
ohdTOdLXeVifiPOeuAjqxDxkBp0tsRxeXpTdDQewpSQR93CYRYmk7aMjMCEwDgYD
VR0PAQH/BAQDAgWgMA8GA1UdEwEB/wQFMAMCAQMwCgYIKoZIzj0EAwIDSAAwRQIh
AKSab+xMHd10vqo/Fn2nttxVap9dsurlyBG2XZoA0DNgAiAA2wGLriJUorCcEKUL
tVqt0utOG5jLg2RQvRK56nZJ3Q==
-----END CERTIFICATE-----
