Certificate:
    Data:
        Version: 3 (0x2)
        Serial Number: 9 (0x9)
        Signature Algorithm: ecdsa-with-SHA256
        Issuer: CN=Regione Lazio, C=IT, ST=Italia, O=E-Voting system, OU=E-Voting system authority/emailAddress=Lazio@evoting.it
        Validity
            Not Before: Aug  3 13:25:58 2022 GMT
            Not After : Aug  3 13:25:58 2023 GMT
        Subject: CN=Victoria, C=IT, ST=Italia, O=Regione Lazio
        Subject Public Key Info:
            Public Key Algorithm: id-ecPublicKey
                Public-Key: (256 bit)
                pub:
                    04:d4:08:14:17:2b:82:34:de:9e:91:fc:59:b5:03:
                    10:e4:5d:1c:d2:d6:27:96:17:54:c8:21:32:c4:bb:
                    31:26:d7:b1:92:e8:31:cd:05:d0:3d:0b:83:66:41:
                    49:a4:4b:f7:92:a6:59:aa:34:97:f1:db:ad:6b:a6:
                    f8:eb:0d:c7:f2
                ASN1 OID: prime256v1
                NIST CURVE: P-256
        X509v3 extensions:
            X509v3 Key Usage: critical
                Digital Signature, Key Encipherment
            X509v3 Basic Constraints: critical
                CA:FALSE, pathlen:3
    Signature Algorithm: ecdsa-with-SHA256
         30:45:02:20:28:30:a1:b9:03:26:4a:0a:6d:cf:4c:7d:a8:94:
         d6:f3:72:bc:16:64:84:50:cb:3e:bb:0a:24:de:01:1d:29:90:
         02:21:00:a4:19:4a:4a:7d:e5:3b:37:51:ce:7d:9a:b9:72:fd:
         10:17:7d:02:cb:80:a8:c0:6c:b5:34:f6:90:f7:7a:6d:f0
-----BEGIN CERTIFICATE-----
MIIB8TCCAZegAwIBAgIBCTAKBggqhkjOPQQDAjCBlTEWMBQGA1UEAwwNUmVnaW9u
ZSBMYXppbzELMAkGA1UEBhMCSVQxDzANBgNVBAgMBkl0YWxpYTEYMBYGA1UECgwP
RS1Wb3Rpbmcgc3lzdGVtMSIwIAYDVQQLDBlFLVZvdGluZyBzeXN0ZW0gYXV0aG9y
aXR5MR8wHQYJKoZIhvcNAQkBFhBMYXppb0Bldm90aW5nLml0MB4XDTIyMDgwMzEz
MjU1OFoXDTIzMDgwMzEzMjU1OFowSTERMA8GA1UEAwwIVmljdG9yaWExCzAJBgNV
BAYTAklUMQ8wDQYDVQQIDAZJdGFsaWExFjAUBgNVBAoMDVJlZ2lvbmUgTGF6aW8w
WTATBgcqhkjOPQIBBggqhkjOPQMBBwNCAATUCBQXK4I03p6R/Fm1AxDkXRzS1ieW
F1TIITLEuzEm17GS6DHNBdA9C4NmQUmkS/eSplmqNJfx261rpvjrDcfyoyMwITAO
BgNVHQ8BAf8EBAMCBaAwDwYDVR0TAQH/BAUwAwIBAzAKBggqhkjOPQQDAgNIADBF
AiAoMKG5AyZKCm3PTH2olNbzcrwWZIRQyz67CiTeAR0pkAIhAKQZSkp95Ts3Uc59
mrly/RAXfQLLgKjAbLU09pD3em3w
-----END CERTIFICATE-----
