Certificate:
    Data:
        Version: 3 (0x2)
        Serial Number: 55 (0x37)
        Signature Algorithm: ecdsa-with-SHA256
        Issuer: CN=Regione Puglia, C=IT, ST=Italia, O=E-Voting system, OU=E-Voting system authority/emailAddress=Puglia@evoting.it
        Validity
            Not Before: Aug 26 15:21:38 2022 GMT
            Not After : Aug 26 15:21:38 2023 GMT
        Subject: CN=Victoria, C=IT, ST=Italia, O=Regione Puglia
        Subject Public Key Info:
            Public Key Algorithm: id-ecPublicKey
                Public-Key: (256 bit)
                pub:
                    04:1a:bb:78:f3:6d:28:2d:d6:b7:3e:69:03:84:d6:
                    89:cf:f1:c7:0d:4b:a7:67:44:41:41:14:33:ee:ad:
                    e4:49:a5:df:60:67:96:a1:fb:58:d1:39:51:9d:40:
                    52:33:ed:f8:36:10:73:91:e6:eb:5a:db:c5:2d:ba:
                    6e:2c:df:84:56
                ASN1 OID: secp256k1
        X509v3 extensions:
            X509v3 Key Usage: critical
                Digital Signature, Key Encipherment
            X509v3 Basic Constraints: critical
                CA:FALSE, pathlen:3
    Signature Algorithm: ecdsa-with-SHA256
         30:45:02:21:00:8b:16:53:22:fc:6d:8d:11:cc:76:69:93:9f:
         13:1e:62:2a:d0:77:ac:d7:b0:72:1f:f1:f9:d6:05:1c:97:4e:
         10:02:20:4e:c5:c5:b9:b6:66:c6:e7:ad:9b:28:16:70:c2:09:
         03:0b:85:d6:64:45:cd:da:f4:1e:a2:b7:6a:f7:2a:44:76
-----BEGIN CERTIFICATE-----
MIIB8TCCAZegAwIBAgIBNzAKBggqhkjOPQQDAjCBlzEXMBUGA1UEAwwOUmVnaW9u
ZSBQdWdsaWExCzAJBgNVBAYTAklUMQ8wDQYDVQQIDAZJdGFsaWExGDAWBgNVBAoM
D0UtVm90aW5nIHN5c3RlbTEiMCAGA1UECwwZRS1Wb3Rpbmcgc3lzdGVtIGF1dGhv
cml0eTEgMB4GCSqGSIb3DQEJARYRUHVnbGlhQGV2b3RpbmcuaXQwHhcNMjIwODI2
MTUyMTM4WhcNMjMwODI2MTUyMTM4WjBKMREwDwYDVQQDDAhWaWN0b3JpYTELMAkG
A1UEBhMCSVQxDzANBgNVBAgMBkl0YWxpYTEXMBUGA1UECgwOUmVnaW9uZSBQdWds
aWEwVjAQBgcqhkjOPQIBBgUrgQQACgNCAAQau3jzbSgt1rc+aQOE1onP8ccNS6dn
REFBFDPureRJpd9gZ5ah+1jROVGdQFIz7fg2EHOR5uta28Utum4s34RWoyMwITAO
BgNVHQ8BAf8EBAMCBaAwDwYDVR0TAQH/BAUwAwIBAzAKBggqhkjOPQQDAgNIADBF
AiEAixZTIvxtjRHMdmmTnxMeYirQd6zXsHIf8fnWBRyXThACIE7Fxbm2ZsbnrZso
FnDCCQMLhdZkRc3a9B6it2r3KkR2
-----END CERTIFICATE-----
