Certificate:
    Data:
        Version: 3 (0x2)
        Serial Number: 7 (0x7)
        Signature Algorithm: ecdsa-with-SHA256
        Issuer: CN=Regione Sicilia, C=IT, ST=Italia, O=E-Voting system, OU=E-Voting system authority/emailAddress=Sicilia@evoting.it
        Validity
            Not Before: Aug  3 13:26:22 2022 GMT
            Not After : Aug  3 13:26:22 2023 GMT
        Subject: CN=Vikki, C=IT, ST=Italia, O=Regione Sicilia
        Subject Public Key Info:
            Public Key Algorithm: id-ecPublicKey
                Public-Key: (256 bit)
                pub:
                    04:42:d0:23:e6:e6:38:44:c5:60:37:aa:43:22:79:
                    90:a2:96:49:07:3f:c7:a0:56:3b:31:73:42:dd:3e:
                    e4:f0:b1:86:b6:2c:94:61:02:0c:90:ff:ef:83:46:
                    83:db:cc:c7:89:8a:d4:4b:11:bf:53:ac:05:4b:e4:
                    af:87:2f:58:5b
                ASN1 OID: prime256v1
                NIST CURVE: P-256
        X509v3 extensions:
            X509v3 Key Usage: critical
                Digital Signature, Key Encipherment
            X509v3 Basic Constraints: critical
                CA:FALSE, pathlen:3
    Signature Algorithm: ecdsa-with-SHA256
         30:44:02:20:6b:c0:9f:2c:6e:fa:99:4a:ca:4f:61:b1:b6:1b:
         fb:76:fd:e6:fd:85:40:80:17:2e:5f:c6:81:e8:77:67:a8:2d:
         02:20:25:96:7d:47:79:4c:de:55:56:5b:77:52:72:2d:90:7f:
         bc:fb:e3:f2:42:94:4b:ab:ff:df:4d:23:39:2a:e3:00
-----BEGIN CERTIFICATE-----
MIIB8zCCAZqgAwIBAgIBBzAKBggqhkjOPQQDAjCBmTEYMBYGA1UEAwwPUmVnaW9u
ZSBTaWNpbGlhMQswCQYDVQQGEwJJVDEPMA0GA1UECAwGSXRhbGlhMRgwFgYDVQQK
DA9FLVZvdGluZyBzeXN0ZW0xIjAgBgNVBAsMGUUtVm90aW5nIHN5c3RlbSBhdXRo
b3JpdHkxITAfBgkqhkiG9w0BCQEWElNpY2lsaWFAZXZvdGluZy5pdDAeFw0yMjA4
MDMxMzI2MjJaFw0yMzA4MDMxMzI2MjJaMEgxDjAMBgNVBAMMBVZpa2tpMQswCQYD
VQQGEwJJVDEPMA0GA1UECAwGSXRhbGlhMRgwFgYDVQQKDA9SZWdpb25lIFNpY2ls
aWEwWTATBgcqhkjOPQIBBggqhkjOPQMBBwNCAARC0CPm5jhExWA3qkMieZCilkkH
P8egVjsxc0LdPuTwsYa2LJRhAgyQ/++DRoPbzMeJitRLEb9TrAVL5K+HL1hboyMw
ITAOBgNVHQ8BAf8EBAMCBaAwDwYDVR0TAQH/BAUwAwIBAzAKBggqhkjOPQQDAgNH
ADBEAiBrwJ8sbvqZSspPYbG2G/t2/eb9hUCAFy5fxoHod2eoLQIgJZZ9R3lM3lVW
W3dSci2Qf7z74/JClEur/99NIzkq4wA=
-----END CERTIFICATE-----
