Certificate:
    Data:
        Version: 3 (0x2)
        Serial Number: 7 (0x7)
        Signature Algorithm: ecdsa-with-SHA256
        Issuer: CN=Regione Basilicata, C=IT, ST=Italia, O=E-Voting system, OU=E-Voting system authority/emailAddress=Basilicata@evoting.it
        Validity
            Not Before: Aug 26 15:18:59 2022 GMT
            Not After : Aug 26 15:18:59 2023 GMT
        Subject: CN=Vincent, C=IT, ST=Italia, O=Regione Basilicata
        Subject Public Key Info:
            Public Key Algorithm: id-ecPublicKey
                Public-Key: (256 bit)
                pub:
                    04:60:09:1a:f3:e4:9a:e6:f7:4c:ed:91:f7:1c:c9:
                    74:1d:86:04:f4:43:05:50:d9:55:4e:be:a7:79:53:
                    51:15:91:11:fb:6e:62:de:3d:ea:8a:1e:f4:2f:c5:
                    a7:71:1c:69:c3:6b:88:f1:ec:30:10:3d:3a:f8:49:
                    b2:24:34:d1:4e
                ASN1 OID: secp256k1
        X509v3 extensions:
            X509v3 Key Usage: critical
                Digital Signature, Key Encipherment
            X509v3 Basic Constraints: critical
                CA:FALSE, pathlen:3
    Signature Algorithm: ecdsa-with-SHA256
         30:45:02:21:00:b8:35:bd:21:90:6e:f2:0a:73:bd:c1:fa:e3:
         d5:34:06:f3:02:91:f4:30:fe:5f:51:87:55:52:ee:97:e3:b3:
         f5:02:20:4a:fd:f0:f7:03:7c:bb:1e:9b:30:98:ed:37:fa:57:
         ea:fa:ab:65:aa:15:2e:fd:a7:8f:40:46:fa:8c:5c:76:7d
-----BEGIN CERTIFICATE-----
MIIB/DCCAaKgAwIBAgIBBzAKBggqhkjOPQQDAjCBnzEbMBkGA1UEAwwSUmVnaW9u
ZSBCYXNpbGljYXRhMQswCQYDVQQGEwJJVDEPMA0GA1UECAwGSXRhbGlhMRgwFgYD
VQQKDA9FLVZvdGluZyBzeXN0ZW0xIjAgBgNVBAsMGUUtVm90aW5nIHN5c3RlbSBh
dXRob3JpdHkxJDAiBgkqhkiG9w0BCQEWFUJhc2lsaWNhdGFAZXZvdGluZy5pdDAe
Fw0yMjA4MjYxNTE4NTlaFw0yMzA4MjYxNTE4NTlaME0xEDAOBgNVBAMMB1ZpbmNl
bnQxCzAJBgNVBAYTAklUMQ8wDQYDVQQIDAZJdGFsaWExGzAZBgNVBAoMElJlZ2lv
bmUgQmFzaWxpY2F0YTBWMBAGByqGSM49AgEGBSuBBAAKA0IABGAJGvPkmub3TO2R
9xzJdB2GBPRDBVDZVU6+p3lTURWREftuYt496ooe9C/Fp3EcacNriPHsMBA9OvhJ
siQ00U6jIzAhMA4GA1UdDwEB/wQEAwIFoDAPBgNVHRMBAf8EBTADAgEDMAoGCCqG
SM49BAMCA0gAMEUCIQC4Nb0hkG7yCnO9wfrj1TQG8wKR9DD+X1GHVVLul+Oz9QIg
Sv3w9wN8ux6bMJjtN/pX6vqrZaoVLv2nj0BG+oxcdn0=
-----END CERTIFICATE-----
