Certificate:
    Data:
        Version: 3 (0x2)
        Serial Number: 5 (0x5)
        Signature Algorithm: ecdsa-with-SHA256
        Issuer: CN=Regione Sardegna, C=IT, ST=Italia, O=E-Voting system, OU=E-Voting system authority/emailAddress=Sardegna@evoting.it
        Validity
            Not Before: Aug  3 13:26:12 2022 GMT
            Not After : Aug  3 13:26:12 2023 GMT
        Subject: CN=Vincenzo, C=IT, ST=Italia, O=Regione Sardegna
        Subject Public Key Info:
            Public Key Algorithm: id-ecPublicKey
                Public-Key: (256 bit)
                pub:
                    04:06:f0:e6:d0:4c:e7:4c:35:94:e4:01:7e:11:37:
                    95:6c:3d:80:04:86:1c:2d:a8:80:29:a2:1f:cd:20:
                    7e:69:d5:df:db:0e:5d:11:7d:30:18:2c:66:d9:2b:
                    a1:2b:28:5c:ab:1a:69:6f:8d:df:80:a9:46:b2:b8:
                    3a:fb:ac:3d:d9
                ASN1 OID: prime256v1
                NIST CURVE: P-256
        X509v3 extensions:
            X509v3 Key Usage: critical
                Digital Signature, Key Encipherment
            X509v3 Basic Constraints: critical
                CA:FALSE, pathlen:3
    Signature Algorithm: ecdsa-with-SHA256
         30:44:02:20:5b:9d:16:73:89:34:08:52:c6:05:cb:83:7e:9f:
         b1:fe:40:cb:ff:ed:c8:20:64:92:77:84:ae:73:53:14:f6:4e:
         02:20:7c:f6:e6:d6:17:00:c4:2e:6d:3d:c6:7a:27:3c:df:be:
         cf:55:b8:ab:e0:1f:8d:e6:2b:52:6e:17:f6:6c:d5:67
-----BEGIN CERTIFICATE-----
MIIB+TCCAaCgAwIBAgIBBTAKBggqhkjOPQQDAjCBmzEZMBcGA1UEAwwQUmVnaW9u
ZSBTYXJkZWduYTELMAkGA1UEBhMCSVQxDzANBgNVBAgMBkl0YWxpYTEYMBYGA1UE
CgwPRS1Wb3Rpbmcgc3lzdGVtMSIwIAYDVQQLDBlFLVZvdGluZyBzeXN0ZW0gYXV0
aG9yaXR5MSIwIAYJKoZIhvcNAQkBFhNTYXJkZWduYUBldm90aW5nLml0MB4XDTIy
MDgwMzEzMjYxMloXDTIzMDgwMzEzMjYxMlowTDERMA8GA1UEAwwIVmluY2Vuem8x
CzAJBgNVBAYTAklUMQ8wDQYDVQQIDAZJdGFsaWExGTAXBgNVBAoMEFJlZ2lvbmUg
U2FyZGVnbmEwWTATBgcqhkjOPQIBBggqhkjOPQMBBwNCAAQG8ObQTOdMNZTkAX4R
N5VsPYAEhhwtqIApoh/NIH5p1d/bDl0RfTAYLGbZK6ErKFyrGmlvjd+AqUayuDr7
rD3ZoyMwITAOBgNVHQ8BAf8EBAMCBaAwDwYDVR0TAQH/BAUwAwIBAzAKBggqhkjO
PQQDAgNHADBEAiBbnRZziTQIUsYFy4N+n7H+QMv/7cggZJJ3hK5zUxT2TgIgfPbm
1hcAxC5tPcZ6Jzzfvs9VuKvgH43mK1JuF/Zs1Wc=
-----END CERTIFICATE-----
