Certificate:
    Data:
        Version: 3 (0x2)
        Serial Number: 41 (0x29)
        Signature Algorithm: ecdsa-with-SHA256
        Issuer: CN=Regione Lombardia, C=IT, ST=Italia, O=E-Voting system, OU=E-Voting system authority/emailAddress=Lombardia@evoting.it
        Validity
            Not Before: Aug 26 15:20:58 2022 GMT
            Not After : Aug 26 15:20:58 2023 GMT
        Subject: CN=Viola, C=IT, ST=Italia, O=Regione Lombardia
        Subject Public Key Info:
            Public Key Algorithm: id-ecPublicKey
                Public-Key: (256 bit)
                pub:
                    04:a4:a6:72:dc:8f:30:1f:90:f2:ab:1d:36:78:75:
                    35:d7:04:ec:1b:78:ac:fe:3c:64:c7:1a:c9:83:4f:
                    9d:9c:ec:3d:6c:2b:ce:21:5f:64:d3:42:7e:b1:5e:
                    9d:47:4c:72:ef:36:cd:c7:4c:b0:3a:be:56:b4:cb:
                    e3:ab:8b:ec:1c
                ASN1 OID: secp256k1
        X509v3 extensions:
            X509v3 Key Usage: critical
                Digital Signature, Key Encipherment
            X509v3 Basic Constraints: critical
                CA:FALSE, pathlen:3
    Signature Algorithm: ecdsa-with-SHA256
         30:44:02:20:12:81:61:e8:59:f8:9b:f9:5c:79:e3:94:5e:74:
         fa:38:9c:89:b3:41:31:70:c1:f4:83:23:d3:fb:f2:91:75:5e:
         02:20:74:4b:b9:13:1b:0a:76:1e:f3:ab:0a:d4:fd:69:d9:bc:
         52:f7:ad:0d:82:2b:5e:12:0f:63:df:2c:ec:bc:66:8c
-----BEGIN CERTIFICATE-----
MIIB9jCCAZ2gAwIBAgIBKTAKBggqhkjOPQQDAjCBnTEaMBgGA1UEAwwRUmVnaW9u
ZSBMb21iYXJkaWExCzAJBgNVBAYTAklUMQ8wDQYDVQQIDAZJdGFsaWExGDAWBgNV
BAoMD0UtVm90aW5nIHN5c3RlbTEiMCAGA1UECwwZRS1Wb3Rpbmcgc3lzdGVtIGF1
dGhvcml0eTEjMCEGCSqGSIb3DQEJARYUTG9tYmFyZGlhQGV2b3RpbmcuaXQwHhcN
MjIwODI2MTUyMDU4WhcNMjMwODI2MTUyMDU4WjBKMQ4wDAYDVQQDDAVWaW9sYTEL
MAkGA1UEBhMCSVQxDzANBgNVBAgMBkl0YWxpYTEaMBgGA1UECgwRUmVnaW9uZSBM
b21iYXJkaWEwVjAQBgcqhkjOPQIBBgUrgQQACgNCAASkpnLcjzAfkPKrHTZ4dTXX
BOwbeKz+PGTHGsmDT52c7D1sK84hX2TTQn6xXp1HTHLvNs3HTLA6vla0y+Ori+wc
oyMwITAOBgNVHQ8BAf8EBAMCBaAwDwYDVR0TAQH/BAUwAwIBAzAKBggqhkjOPQQD
AgNHADBEAiASgWHoWfib+Vx545RedPo4nImzQTFwwfSDI9P78pF1XgIgdEu5ExsK
dh7zqwrU/WnZvFL3rQ2CK14SD2PfLOy8Zow=
-----END CERTIFICATE-----
