Certificate:
    Data:
        Version: 3 (0x2)
        Serial Number: 26 (0x1a)
        Signature Algorithm: ecdsa-with-SHA256
        Issuer: CN=Regione Friuli_Venezia_Giulia, C=IT, ST=Italia, O=E-Voting system, OU=E-Voting system authority/emailAddress=Friuli_Venezia_Giulia@evoting.it
        Validity
            Not Before: Aug  3 13:27:09 2022 GMT
            Not After : Aug  3 13:27:09 2023 GMT
        Subject: CN=Violet, C=IT, ST=Italia, O=Regione Friuli_Venezia_Giulia
        Subject Public Key Info:
            Public Key Algorithm: id-ecPublicKey
                Public-Key: (256 bit)
                pub:
                    04:19:24:cf:ff:23:16:2b:45:9b:c3:5e:c6:d5:ed:
                    66:39:be:16:84:15:0d:07:03:b8:e2:bd:69:0e:66:
                    55:da:82:86:7d:1f:62:39:5c:6b:89:5e:57:63:3a:
                    d5:d1:62:46:0b:b8:40:9a:1a:af:f1:41:55:37:d9:
                    12:ff:ba:a2:a0
                ASN1 OID: prime256v1
                NIST CURVE: P-256
        X509v3 extensions:
            X509v3 Key Usage: critical
                Digital Signature, Key Encipherment
            X509v3 Basic Constraints: critical
                CA:FALSE, pathlen:3
    Signature Algorithm: ecdsa-with-SHA256
         30:45:02:20:6f:73:5d:35:55:8e:e5:10:b4:a7:b6:64:62:80:
         c7:cc:16:21:1e:cd:f9:be:44:e1:41:7f:41:ba:17:bf:65:60:
         02:21:00:da:0f:1f:31:7a:54:41:56:41:8e:4c:a6:d6:85:4d:
         82:76:96:2b:6a:2e:a6:81:91:57:c8:c8:92:68:e4:b8:e1
-----BEGIN CERTIFICATE-----
MIICHzCCAcWgAwIBAgIBGjAKBggqhkjOPQQDAjCBtTEmMCQGA1UEAwwdUmVnaW9u
ZSBGcml1bGlfVmVuZXppYV9HaXVsaWExCzAJBgNVBAYTAklUMQ8wDQYDVQQIDAZJ
dGFsaWExGDAWBgNVBAoMD0UtVm90aW5nIHN5c3RlbTEiMCAGA1UECwwZRS1Wb3Rp
bmcgc3lzdGVtIGF1dGhvcml0eTEvMC0GCSqGSIb3DQEJARYgRnJpdWxpX1ZlbmV6
aWFfR2l1bGlhQGV2b3RpbmcuaXQwHhcNMjIwODAzMTMyNzA5WhcNMjMwODAzMTMy
NzA5WjBXMQ8wDQYDVQQDDAZWaW9sZXQxCzAJBgNVBAYTAklUMQ8wDQYDVQQIDAZJ
dGFsaWExJjAkBgNVBAoMHVJlZ2lvbmUgRnJpdWxpX1ZlbmV6aWFfR2l1bGlhMFkw
EwYHKoZIzj0CAQYIKoZIzj0DAQcDQgAEGSTP/yMWK0Wbw17G1e1mOb4WhBUNBwO4
4r1pDmZV2oKGfR9iOVxriV5XYzrV0WJGC7hAmhqv8UFVN9kS/7qioKMjMCEwDgYD
VR0PAQH/BAQDAgWgMA8GA1UdEwEB/wQFMAMCAQMwCgYIKoZIzj0EAwIDSAAwRQIg
b3NdNVWO5RC0p7ZkYoDHzBYhHs35vkThQX9Buhe/ZWACIQDaDx8xelRBVkGOTKbW
hU2CdpYrai6mgZFXyMiSaOS44Q==
-----END CERTIFICATE-----
