Certificate:
    Data:
        Version: 3 (0x2)
        Serial Number: 17 (0x11)
        Signature Algorithm: ecdsa-with-SHA256
        Issuer: CN=Regione Friuli_Venezia_Giulia, C=IT, ST=Italia, O=E-Voting system, OU=E-Voting system authority/emailAddress=Friuli_Venezia_Giulia@evoting.it
        Validity
            Not Before: Aug  3 13:26:36 2022 GMT
            Not After : Aug  3 13:26:36 2023 GMT
        Subject: CN=Viola, C=IT, ST=Italia, O=Regione Friuli_Venezia_Giulia
        Subject Public Key Info:
            Public Key Algorithm: id-ecPublicKey
                Public-Key: (256 bit)
                pub:
                    04:50:3d:50:32:6f:b8:11:60:69:18:f5:b6:47:3b:
                    aa:4f:a7:6e:42:86:40:cd:02:6d:4b:55:9f:95:78:
                    4e:b0:e7:d3:c3:3b:13:7d:bb:95:5f:5a:bc:ba:84:
                    f5:a4:4a:bf:f3:43:3f:70:d5:35:97:f0:12:17:39:
                    b2:54:31:30:9e
                ASN1 OID: prime256v1
                NIST CURVE: P-256
        X509v3 extensions:
            X509v3 Key Usage: critical
                Digital Signature, Key Encipherment
            X509v3 Basic Constraints: critical
                CA:FALSE, pathlen:3
    Signature Algorithm: ecdsa-with-SHA256
         30:44:02:20:29:5a:e0:6f:11:78:79:5e:7a:52:ad:5a:c5:ac:
         9f:6a:32:41:3c:2a:b2:97:9c:65:e3:e9:c3:a3:e6:8d:23:e3:
         02:20:08:cc:9b:a8:38:68:45:4f:a9:a3:9e:1d:8f:96:06:e5:
         d9:02:09:70:13:d2:a1:4c:4c:96:c9:09:57:52:e0:8f
-----BEGIN CERTIFICATE-----
MIICHTCCAcSgAwIBAgIBETAKBggqhkjOPQQDAjCBtTEmMCQGA1UEAwwdUmVnaW9u
ZSBGcml1bGlfVmVuZXppYV9HaXVsaWExCzAJBgNVBAYTAklUMQ8wDQYDVQQIDAZJ
dGFsaWExGDAWBgNVBAoMD0UtVm90aW5nIHN5c3RlbTEiMCAGA1UECwwZRS1Wb3Rp
bmcgc3lzdGVtIGF1dGhvcml0eTEvMC0GCSqGSIb3DQEJARYgRnJpdWxpX1ZlbmV6
aWFfR2l1bGlhQGV2b3RpbmcuaXQwHhcNMjIwODAzMTMyNjM2WhcNMjMwODAzMTMy
NjM2WjBWMQ4wDAYDVQQDDAVWaW9sYTELMAkGA1UEBhMCSVQxDzANBgNVBAgMBkl0
YWxpYTEmMCQGA1UECgwdUmVnaW9uZSBGcml1bGlfVmVuZXppYV9HaXVsaWEwWTAT
BgcqhkjOPQIBBggqhkjOPQMBBwNCAARQPVAyb7gRYGkY9bZHO6pPp25ChkDNAm1L
VZ+VeE6w59PDOxN9u5VfWry6hPWkSr/zQz9w1TWX8BIXObJUMTCeoyMwITAOBgNV
HQ8BAf8EBAMCBaAwDwYDVR0TAQH/BAUwAwIBAzAKBggqhkjOPQQDAgNHADBEAiAp
WuBvEXh5XnpSrVrFrJ9qMkE8KrKXnGXj6cOj5o0j4wIgCMybqDhoRU+po54dj5YG
5dkCCXAT0qFMTJbJCVdS4I8=
-----END CERTIFICATE-----
