Certificate:
    Data:
        Version: 3 (0x2)
        Serial Number: 50 (0x32)
        Signature Algorithm: ecdsa-with-SHA256
        Issuer: CN=Regione Piemonte, C=IT, ST=Italia, O=E-Voting system, OU=E-Voting system authority/emailAddress=Piemonte@evoting.it
        Validity
            Not Before: Aug 26 15:21:39 2022 GMT
            Not After : Aug 26 15:21:39 2023 GMT
        Subject: CN=Vivian, C=IT, ST=Italia, O=Regione Piemonte
        Subject Public Key Info:
            Public Key Algorithm: id-ecPublicKey
                Public-Key: (256 bit)
                pub:
                    04:31:9f:35:37:4d:b8:f7:b0:40:26:67:19:0f:7a:
                    4c:81:12:b6:10:8f:ec:38:41:bb:23:8e:49:26:3d:
                    ef:a7:ea:36:eb:2c:0f:12:af:94:b1:e8:d9:e2:bf:
                    5d:12:8b:4e:69:55:73:e7:49:03:ae:33:b2:3a:1b:
                    08:8a:f8:cc:9f
                ASN1 OID: secp256k1
        X509v3 extensions:
            X509v3 Key Usage: critical
                Digital Signature, Key Encipherment
            X509v3 Basic Constraints: critical
                CA:FALSE, pathlen:3
    Signature Algorithm: ecdsa-with-SHA256
         30:46:02:21:00:eb:a6:52:e5:dd:f7:57:3d:ef:70:05:23:55:
         4d:13:50:7b:5e:b1:8a:67:13:e8:86:b2:35:92:41:eb:fa:62:
         ae:02:21:00:e0:b2:6f:d6:7e:83:c3:0c:09:e6:79:4a:1b:91:
         8a:fc:ff:7c:cc:d6:c4:31:20:ef:88:01:2b:ec:6e:91:d7:d9
-----BEGIN CERTIFICATE-----
MIIB9jCCAZugAwIBAgIBMjAKBggqhkjOPQQDAjCBmzEZMBcGA1UEAwwQUmVnaW9u
ZSBQaWVtb250ZTELMAkGA1UEBhMCSVQxDzANBgNVBAgMBkl0YWxpYTEYMBYGA1UE
CgwPRS1Wb3Rpbmcgc3lzdGVtMSIwIAYDVQQLDBlFLVZvdGluZyBzeXN0ZW0gYXV0
aG9yaXR5MSIwIAYJKoZIhvcNAQkBFhNQaWVtb250ZUBldm90aW5nLml0MB4XDTIy
MDgyNjE1MjEzOVoXDTIzMDgyNjE1MjEzOVowSjEPMA0GA1UEAwwGVml2aWFuMQsw
CQYDVQQGEwJJVDEPMA0GA1UECAwGSXRhbGlhMRkwFwYDVQQKDBBSZWdpb25lIFBp
ZW1vbnRlMFYwEAYHKoZIzj0CAQYFK4EEAAoDQgAEMZ81N02497BAJmcZD3pMgRK2
EI/sOEG7I45JJj3vp+o26ywPEq+UsejZ4r9dEotOaVVz50kDrjOyOhsIivjMn6Mj
MCEwDgYDVR0PAQH/BAQDAgWgMA8GA1UdEwEB/wQFMAMCAQMwCgYIKoZIzj0EAwID
SQAwRgIhAOumUuXd91c973AFI1VNE1B7XrGKZxPohrI1kkHr+mKuAiEA4LJv1n6D
wwwJ5nlKG5GK/P98zNbEMSDviAEr7G6R19k=
-----END CERTIFICATE-----
