Certificate:
    Data:
        Version: 3 (0x2)
        Serial Number: 32 (0x20)
        Signature Algorithm: ecdsa-with-SHA256
        Issuer: CN=Regione Veneto, C=IT, ST=Italia, O=E-Voting system, OU=E-Voting system authority/emailAddress=Veneto@evoting.it
        Validity
            Not Before: Aug 26 15:21:49 2022 GMT
            Not After : Aug 26 15:21:49 2023 GMT
        Subject: CN=Wade, C=IT, ST=Italia, O=Regione Veneto
        Subject Public Key Info:
            Public Key Algorithm: id-ecPublicKey
                Public-Key: (256 bit)
                pub:
                    04:63:6c:f0:30:9f:48:45:08:ae:14:8a:71:f3:f1:
                    ce:e4:6f:e7:0d:59:a4:37:4e:19:95:c5:e0:7d:ab:
                    67:e8:bd:cf:ea:e0:0b:b0:91:a2:db:32:fe:84:25:
                    c0:58:96:f8:d9:79:97:f2:e6:73:91:ff:7b:54:a4:
                    2d:04:1a:9a:45
                ASN1 OID: secp256k1
        X509v3 extensions:
            X509v3 Key Usage: critical
                Digital Signature, Key Encipherment
            X509v3 Basic Constraints: critical
                CA:FALSE, pathlen:3
    Signature Algorithm: ecdsa-with-SHA256
         30:44:02:20:5b:c8:a5:d8:f8:2a:d1:62:f0:cb:66:b8:db:56:
         af:ae:77:bf:4b:77:de:53:ea:df:c8:37:ff:0d:10:d0:aa:26:
         02:20:04:4b:2d:37:2c:08:a1:78:09:66:2a:84:23:09:54:c2:
         10:12:c5:ba:b0:cf:1c:72:ae:71:d0:57:8a:4a:e3:ab
-----BEGIN CERTIFICATE-----
MIIB7DCCAZOgAwIBAgIBIDAKBggqhkjOPQQDAjCBlzEXMBUGA1UEAwwOUmVnaW9u
ZSBWZW5ldG8xCzAJBgNVBAYTAklUMQ8wDQYDVQQIDAZJdGFsaWExGDAWBgNVBAoM
D0UtVm90aW5nIHN5c3RlbTEiMCAGA1UECwwZRS1Wb3Rpbmcgc3lzdGVtIGF1dGhv
cml0eTEgMB4GCSqGSIb3DQEJARYRVmVuZXRvQGV2b3RpbmcuaXQwHhcNMjIwODI2
MTUyMTQ5WhcNMjMwODI2MTUyMTQ5WjBGMQ0wCwYDVQQDDARXYWRlMQswCQYDVQQG
EwJJVDEPMA0GA1UECAwGSXRhbGlhMRcwFQYDVQQKDA5SZWdpb25lIFZlbmV0bzBW
MBAGByqGSM49AgEGBSuBBAAKA0IABGNs8DCfSEUIrhSKcfPxzuRv5w1ZpDdOGZXF
4H2rZ+i9z+rgC7CRotsy/oQlwFiW+Nl5l/Lmc5H/e1SkLQQamkWjIzAhMA4GA1Ud
DwEB/wQEAwIFoDAPBgNVHRMBAf8EBTADAgEDMAoGCCqGSM49BAMCA0cAMEQCIFvI
pdj4KtFi8MtmuNtWr653v0t33lPq38g3/w0Q0KomAiAESy03LAiheAlmKoQjCVTC
EBLFurDPHHKucdBXikrjqw==
-----END CERTIFICATE-----
