Certificate:
    Data:
        Version: 3 (0x2)
        Serial Number: 26 (0x1a)
        Signature Algorithm: ecdsa-with-SHA256
        Issuer: CN=Regione Umbria, C=IT, ST=Italia, O=E-Voting system, OU=E-Voting system authority/emailAddress=Umbria@evoting.it
        Validity
            Not Before: Aug 26 15:20:26 2022 GMT
            Not After : Aug 26 15:20:26 2023 GMT
        Subject: CN=Walker, C=IT, ST=Italia, O=Regione Umbria
        Subject Public Key Info:
            Public Key Algorithm: id-ecPublicKey
                Public-Key: (256 bit)
                pub:
                    04:7b:3c:35:c7:01:9a:c6:ae:34:df:2d:5c:4a:1a:
                    0a:a3:7f:e8:ff:b8:4d:b0:84:7d:09:96:04:f2:18:
                    5d:39:03:ac:02:79:1a:2b:6d:4f:13:db:e4:5d:b1:
                    28:69:6e:be:ba:66:07:e2:84:50:cb:31:ac:b8:8a:
                    0e:a6:24:d3:20
                ASN1 OID: secp256k1
        X509v3 extensions:
            X509v3 Key Usage: critical
                Digital Signature, Key Encipherment
            X509v3 Basic Constraints: critical
                CA:FALSE, pathlen:3
    Signature Algorithm: ecdsa-with-SHA256
         30:45:02:20:42:79:ff:86:fc:fa:c4:2b:c9:dc:07:d3:20:d3:
         48:d2:00:00:4c:ea:3d:84:7b:7b:f3:70:c7:9e:ed:be:43:23:
         02:21:00:c1:f8:bf:d5:df:d7:e5:6a:df:41:52:f0:36:ed:7a:
         f7:80:cd:cb:56:96:2c:21:06:be:e9:a7:8c:48:bb:2a:ca
-----BEGIN CERTIFICATE-----
MIIB7zCCAZWgAwIBAgIBGjAKBggqhkjOPQQDAjCBlzEXMBUGA1UEAwwOUmVnaW9u
ZSBVbWJyaWExCzAJBgNVBAYTAklUMQ8wDQYDVQQIDAZJdGFsaWExGDAWBgNVBAoM
D0UtVm90aW5nIHN5c3RlbTEiMCAGA1UECwwZRS1Wb3Rpbmcgc3lzdGVtIGF1dGhv
cml0eTEgMB4GCSqGSIb3DQEJARYRVW1icmlhQGV2b3RpbmcuaXQwHhcNMjIwODI2
MTUyMDI2WhcNMjMwODI2MTUyMDI2WjBIMQ8wDQYDVQQDDAZXYWxrZXIxCzAJBgNV
BAYTAklUMQ8wDQYDVQQIDAZJdGFsaWExFzAVBgNVBAoMDlJlZ2lvbmUgVW1icmlh
MFYwEAYHKoZIzj0CAQYFK4EEAAoDQgAEezw1xwGaxq403y1cShoKo3/o/7hNsIR9
CZYE8hhdOQOsAnkaK21PE9vkXbEoaW6+umYH4oRQyzGsuIoOpiTTIKMjMCEwDgYD
VR0PAQH/BAQDAgWgMA8GA1UdEwEB/wQFMAMCAQMwCgYIKoZIzj0EAwIDSAAwRQIg
Qnn/hvz6xCvJ3AfTINNI0gAATOo9hHt783DHnu2+QyMCIQDB+L/V39flat9BUvA2
7Xr3gM3LVpYsIQa+6aeMSLsqyg==
-----END CERTIFICATE-----
