Certificate:
    Data:
        Version: 3 (0x2)
        Serial Number: 58 (0x3a)
        Signature Algorithm: ecdsa-with-SHA256
        Issuer: CN=Regione Liguria, C=IT, ST=Italia, O=E-Voting system, OU=E-Voting system authority/emailAddress=Liguria@evoting.it
        Validity
            Not Before: Aug 26 15:21:40 2022 GMT
            Not After : Aug 26 15:21:40 2023 GMT
        Subject: CN=Wallace, C=IT, ST=Italia, O=Regione Liguria
        Subject Public Key Info:
            Public Key Algorithm: id-ecPublicKey
                Public-Key: (256 bit)
                pub:
                    04:1c:fd:7a:b3:c3:b6:b1:65:31:d1:ef:46:73:be:
                    da:de:ca:6a:49:0d:23:02:0c:df:4c:14:46:46:0b:
                    1a:db:31:c9:cd:a0:61:8c:da:3d:ea:2d:67:63:df:
                    a9:a7:26:fc:b8:27:8c:20:19:36:b0:40:e8:d8:d2:
                    cf:ae:62:48:a6
                ASN1 OID: secp256k1
        X509v3 extensions:
            X509v3 Key Usage: critical
                Digital Signature, Key Encipherment
            X509v3 Basic Constraints: critical
                CA:FALSE, pathlen:3
    Signature Algorithm: ecdsa-with-SHA256
         30:45:02:21:00:e4:f3:b4:07:33:8d:28:a7:79:4b:94:7c:1c:
         97:63:8d:17:e2:1b:c4:9d:c3:89:20:5c:7f:8f:88:48:73:fc:
         98:02:20:26:15:5f:6d:9c:0a:0a:96:f6:9b:93:23:4b:67:17:
         9c:c1:a7:f6:4d:69:94:69:76:0d:e5:56:b3:97:2b:f6:93
-----BEGIN CERTIFICATE-----
MIIB8zCCAZmgAwIBAgIBOjAKBggqhkjOPQQDAjCBmTEYMBYGA1UEAwwPUmVnaW9u
ZSBMaWd1cmlhMQswCQYDVQQGEwJJVDEPMA0GA1UECAwGSXRhbGlhMRgwFgYDVQQK
DA9FLVZvdGluZyBzeXN0ZW0xIjAgBgNVBAsMGUUtVm90aW5nIHN5c3RlbSBhdXRo
b3JpdHkxITAfBgkqhkiG9w0BCQEWEkxpZ3VyaWFAZXZvdGluZy5pdDAeFw0yMjA4
MjYxNTIxNDBaFw0yMzA4MjYxNTIxNDBaMEoxEDAOBgNVBAMMB1dhbGxhY2UxCzAJ
BgNVBAYTAklUMQ8wDQYDVQQIDAZJdGFsaWExGDAWBgNVBAoMD1JlZ2lvbmUgTGln
dXJpYTBWMBAGByqGSM49AgEGBSuBBAAKA0IABBz9erPDtrFlMdHvRnO+2t7KakkN
IwIM30wURkYLGtsxyc2gYYzaPeotZ2Pfqacm/LgnjCAZNrBA6NjSz65iSKajIzAh
MA4GA1UdDwEB/wQEAwIFoDAPBgNVHRMBAf8EBTADAgEDMAoGCCqGSM49BAMCA0gA
MEUCIQDk87QHM40op3lLlHwcl2ONF+IbxJ3DiSBcf4+ISHP8mAIgJhVfbZwKCpb2
m5MjS2cXnMGn9k1plGl2DeVWs5cr9pM=
-----END CERTIFICATE-----
