Certificate:
    Data:
        Version: 3 (0x2)
        Serial Number: 18 (0x12)
        Signature Algorithm: ecdsa-with-SHA256
        Issuer: CN=Regione Basilicata, C=IT, ST=Italia, O=E-Voting system, OU=E-Voting system authority/emailAddress=Basilicata@evoting.it
        Validity
            Not Before: Aug 26 15:19:35 2022 GMT
            Not After : Aug 26 15:19:35 2023 GMT
        Subject: CN=Walter, C=IT, ST=Italia, O=Regione Basilicata
        Subject Public Key Info:
            Public Key Algorithm: id-ecPublicKey
                Public-Key: (256 bit)
                pub:
                    04:77:c9:5e:27:5b:e9:aa:23:63:61:90:bb:e9:80:
                    4c:78:73:18:f4:00:eb:4c:38:5a:fc:37:11:16:1c:
                    73:b1:84:78:f0:a9:9d:ac:36:62:5c:4f:d1:28:53:
                    dc:50:5e:16:36:3d:83:0f:f1:60:44:52:90:e8:09:
                    e4:c1:00:1b:89
                ASN1 OID: secp256k1
        X509v3 extensions:
            X509v3 Key Usage: critical
                Digital Signature, Key Encipherment
            X509v3 Basic Constraints: critical
                CA:FALSE, pathlen:3
    Signature Algorithm: ecdsa-with-SHA256
         30:44:02:20:4c:d3:f4:73:fc:cf:56:c6:45:1f:4c:38:9c:01:
         bd:a2:2c:93:b9:f1:96:c0:34:13:29:50:f3:af:af:bd:a7:f3:
         02:20:3a:af:50:b1:f7:f0:4e:14:32:8a:48:b0:42:e9:50:f4:
         3e:24:9b:74:b5:1f:6e:9c:ec:ba:c0:c4:ca:61:33:3d
-----BEGIN CERTIFICATE-----
MIIB+jCCAaGgAwIBAgIBEjAKBggqhkjOPQQDAjCBnzEbMBkGA1UEAwwSUmVnaW9u
ZSBCYXNpbGljYXRhMQswCQYDVQQGEwJJVDEPMA0GA1UECAwGSXRhbGlhMRgwFgYD
VQQKDA9FLVZvdGluZyBzeXN0ZW0xIjAgBgNVBAsMGUUtVm90aW5nIHN5c3RlbSBh
dXRob3JpdHkxJDAiBgkqhkiG9w0BCQEWFUJhc2lsaWNhdGFAZXZvdGluZy5pdDAe
Fw0yMjA4MjYxNTE5MzVaFw0yMzA4MjYxNTE5MzVaMEwxDzANBgNVBAMMBldhbHRl
cjELMAkGA1UEBhMCSVQxDzANBgNVBAgMBkl0YWxpYTEbMBkGA1UECgwSUmVnaW9u
ZSBCYXNpbGljYXRhMFYwEAYHKoZIzj0CAQYFK4EEAAoDQgAEd8leJ1vpqiNjYZC7
6YBMeHMY9ADrTDha/DcRFhxzsYR48KmdrDZiXE/RKFPcUF4WNj2DD/FgRFKQ6Ank
wQAbiaMjMCEwDgYDVR0PAQH/BAQDAgWgMA8GA1UdEwEB/wQFMAMCAQMwCgYIKoZI
zj0EAwIDRwAwRAIgTNP0c/zPVsZFH0w4nAG9oiyTufGWwDQTKVDzr6+9p/MCIDqv
ULH38E4UMopIsELpUPQ+JJt0tR9unOy6wMTKYTM9
-----END CERTIFICATE-----
