Certificate:
    Data:
        Version: 3 (0x2)
        Serial Number: 15 (0xf)
        Signature Algorithm: ecdsa-with-SHA256
        Issuer: CN=Regione Lombardia, C=IT, ST=Italia, O=E-Voting system, OU=E-Voting system authority/emailAddress=Lombardia@evoting.it
        Validity
            Not Before: Aug  3 13:26:35 2022 GMT
            Not After : Aug  3 13:26:35 2023 GMT
        Subject: CN=Walter, C=IT, ST=Italia, O=Regione Lombardia
        Subject Public Key Info:
            Public Key Algorithm: id-ecPublicKey
                Public-Key: (256 bit)
                pub:
                    04:5a:4c:89:5d:00:10:52:77:07:49:86:20:65:84:
                    86:13:35:2d:fd:de:7b:20:2d:68:73:a6:5e:31:e3:
                    a2:db:5a:ef:2f:4b:1a:e3:87:ea:74:f2:57:38:c3:
                    0a:4b:1b:14:48:31:53:7c:6c:7f:93:37:cd:cf:9f:
                    7f:e5:4e:06:68
                ASN1 OID: prime256v1
                NIST CURVE: P-256
        X509v3 extensions:
            X509v3 Key Usage: critical
                Digital Signature, Key Encipherment
            X509v3 Basic Constraints: critical
                CA:FALSE, pathlen:3
    Signature Algorithm: ecdsa-with-SHA256
         30:44:02:20:5f:3f:5a:40:f9:2a:65:c5:bd:da:f7:b9:77:5a:
         a5:0a:bd:2a:56:c6:ec:a5:16:50:40:e6:55:0b:b7:83:9b:c4:
         02:20:1e:70:f8:f1:bf:6c:64:e7:20:28:33:ee:5f:ab:ee:c9:
         c2:42:ea:3b:28:b5:f7:dc:b2:f1:a2:c6:a0:d9:6c:b0
-----BEGIN CERTIFICATE-----
MIIB+jCCAaGgAwIBAgIBDzAKBggqhkjOPQQDAjCBnTEaMBgGA1UEAwwRUmVnaW9u
ZSBMb21iYXJkaWExCzAJBgNVBAYTAklUMQ8wDQYDVQQIDAZJdGFsaWExGDAWBgNV
BAoMD0UtVm90aW5nIHN5c3RlbTEiMCAGA1UECwwZRS1Wb3Rpbmcgc3lzdGVtIGF1
dGhvcml0eTEjMCEGCSqGSIb3DQEJARYUTG9tYmFyZGlhQGV2b3RpbmcuaXQwHhcN
MjIwODAzMTMyNjM1WhcNMjMwODAzMTMyNjM1WjBLMQ8wDQYDVQQDDAZXYWx0ZXIx
CzAJBgNVBAYTAklUMQ8wDQYDVQQIDAZJdGFsaWExGjAYBgNVBAoMEVJlZ2lvbmUg
TG9tYmFyZGlhMFkwEwYHKoZIzj0CAQYIKoZIzj0DAQcDQgAEWkyJXQAQUncHSYYg
ZYSGEzUt/d57IC1oc6ZeMeOi21rvL0sa44fqdPJXOMMKSxsUSDFTfGx/kzfNz59/
5U4GaKMjMCEwDgYDVR0PAQH/BAQDAgWgMA8GA1UdEwEB/wQFMAMCAQMwCgYIKoZI
zj0EAwIDRwAwRAIgXz9aQPkqZcW92ve5d1qlCr0qVsbspRZQQOZVC7eDm8QCIB5w
+PG/bGTnICgz7l+r7snCQuo7KLX33LLxosag2Wyw
-----END CERTIFICATE-----
