Certificate:
    Data:
        Version: 3 (0x2)
        Serial Number: 29 (0x1d)
        Signature Algorithm: ecdsa-with-SHA256
        Issuer: CN=Regione Liguria, C=IT, ST=Italia, O=E-Voting system, OU=E-Voting system authority/emailAddress=Liguria@evoting.it
        Validity
            Not Before: Aug 26 15:19:34 2022 GMT
            Not After : Aug 26 15:19:34 2023 GMT
        Subject: CN=Wanda, C=IT, ST=Italia, O=Regione Liguria
        Subject Public Key Info:
            Public Key Algorithm: id-ecPublicKey
                Public-Key: (256 bit)
                pub:
                    04:86:aa:79:4b:b3:93:f8:a8:9c:5d:9a:63:64:53:
                    ba:7d:91:53:d8:44:57:7c:73:a5:4a:b2:24:df:c8:
                    69:12:dc:4d:5d:c1:ab:ba:dc:bb:94:27:4f:e4:ae:
                    16:fb:70:16:35:8d:74:09:23:9f:c5:45:56:6a:63:
                    75:17:6d:35:7d
                ASN1 OID: secp256k1
        X509v3 extensions:
            X509v3 Key Usage: critical
                Digital Signature, Key Encipherment
            X509v3 Basic Constraints: critical
                CA:FALSE, pathlen:3
    Signature Algorithm: ecdsa-with-SHA256
         30:45:02:20:50:c4:74:68:7b:39:66:8b:8f:a4:fb:b2:ec:cb:
         de:dd:d2:89:a1:39:4c:37:41:77:31:70:19:8f:3c:2d:51:d4:
         02:21:00:fe:aa:a2:88:b2:e0:24:86:c3:ea:22:41:84:5c:0e:
         23:df:cd:ed:96:b4:60:89:ec:80:0b:be:d2:84:79:6f:a9
-----BEGIN CERTIFICATE-----
MIIB8TCCAZegAwIBAgIBHTAKBggqhkjOPQQDAjCBmTEYMBYGA1UEAwwPUmVnaW9u
ZSBMaWd1cmlhMQswCQYDVQQGEwJJVDEPMA0GA1UECAwGSXRhbGlhMRgwFgYDVQQK
DA9FLVZvdGluZyBzeXN0ZW0xIjAgBgNVBAsMGUUtVm90aW5nIHN5c3RlbSBhdXRo
b3JpdHkxITAfBgkqhkiG9w0BCQEWEkxpZ3VyaWFAZXZvdGluZy5pdDAeFw0yMjA4
MjYxNTE5MzRaFw0yMzA4MjYxNTE5MzRaMEgxDjAMBgNVBAMMBVdhbmRhMQswCQYD
VQQGEwJJVDEPMA0GA1UECAwGSXRhbGlhMRgwFgYDVQQKDA9SZWdpb25lIExpZ3Vy
aWEwVjAQBgcqhkjOPQIBBgUrgQQACgNCAASGqnlLs5P4qJxdmmNkU7p9kVPYRFd8
c6VKsiTfyGkS3E1dwau63LuUJ0/krhb7cBY1jXQJI5/FRVZqY3UXbTV9oyMwITAO
BgNVHQ8BAf8EBAMCBaAwDwYDVR0TAQH/BAUwAwIBAzAKBggqhkjOPQQDAgNIADBF
AiBQxHRoezlmi4+k+7Lsy97d0omhOUw3QXcxcBmPPC1R1AIhAP6qooiy4CSGw+oi
QYRcDiPfze2WtGCJ7IALvtKEeW+p
-----END CERTIFICATE-----
