Certificate:
    Data:
        Version: 3 (0x2)
        Serial Number: 35 (0x23)
        Signature Algorithm: ecdsa-with-SHA256
        Issuer: CN=Regione Puglia, C=IT, ST=Italia, O=E-Voting system, OU=E-Voting system authority/emailAddress=Puglia@evoting.it
        Validity
            Not Before: Aug  3 13:28:22 2022 GMT
            Not After : Aug  3 13:28:22 2023 GMT
        Subject: CN=Wanda, C=IT, ST=Italia, O=Regione Puglia
        Subject Public Key Info:
            Public Key Algorithm: id-ecPublicKey
                Public-Key: (256 bit)
                pub:
                    04:92:02:4b:ee:24:58:66:6a:42:9a:62:de:8a:52:
                    b0:e8:6d:25:65:21:1f:e4:4d:04:52:e7:61:82:21:
                    38:20:fb:cb:41:32:14:52:cc:e9:f4:41:91:07:02:
                    12:ba:c2:05:84:ab:15:38:10:d7:f2:70:ee:1f:7d:
                    e6:e4:ab:b0:4d
                ASN1 OID: prime256v1
                NIST CURVE: P-256
        X509v3 extensions:
            X509v3 Key Usage: critical
                Digital Signature, Key Encipherment
            X509v3 Basic Constraints: critical
                CA:FALSE, pathlen:3
    Signature Algorithm: ecdsa-with-SHA256
         30:45:02:20:09:d2:75:e1:22:2d:1b:5d:3d:9e:50:6f:ce:fd:
         4b:8f:8c:b9:78:bf:3e:c0:c6:2d:3f:1a:c1:98:0e:86:cb:78:
         02:21:00:a4:55:b7:36:94:ed:49:c9:9a:bf:d8:e3:65:d2:e8:
         70:a7:3d:61:4f:29:e0:84:e9:3a:96:c0:f4:8b:f6:fd:10
-----BEGIN CERTIFICATE-----
MIIB8TCCAZegAwIBAgIBIzAKBggqhkjOPQQDAjCBlzEXMBUGA1UEAwwOUmVnaW9u
ZSBQdWdsaWExCzAJBgNVBAYTAklUMQ8wDQYDVQQIDAZJdGFsaWExGDAWBgNVBAoM
D0UtVm90aW5nIHN5c3RlbTEiMCAGA1UECwwZRS1Wb3Rpbmcgc3lzdGVtIGF1dGhv
cml0eTEgMB4GCSqGSIb3DQEJARYRUHVnbGlhQGV2b3RpbmcuaXQwHhcNMjIwODAz
MTMyODIyWhcNMjMwODAzMTMyODIyWjBHMQ4wDAYDVQQDDAVXYW5kYTELMAkGA1UE
BhMCSVQxDzANBgNVBAgMBkl0YWxpYTEXMBUGA1UECgwOUmVnaW9uZSBQdWdsaWEw
WTATBgcqhkjOPQIBBggqhkjOPQMBBwNCAASSAkvuJFhmakKaYt6KUrDobSVlIR/k
TQRS52GCITgg+8tBMhRSzOn0QZEHAhK6wgWEqxU4ENfycO4ffebkq7BNoyMwITAO
BgNVHQ8BAf8EBAMCBaAwDwYDVR0TAQH/BAUwAwIBAzAKBggqhkjOPQQDAgNIADBF
AiAJ0nXhIi0bXT2eUG/O/UuPjLl4vz7Axi0/GsGYDobLeAIhAKRVtzaU7UnJmr/Y
42XS6HCnPWFPKeCE6TqWwPSL9v0Q
-----END CERTIFICATE-----
