Certificate:
    Data:
        Version: 3 (0x2)
        Serial Number: 43 (0x2b)
        Signature Algorithm: ecdsa-with-SHA256
        Issuer: CN=Regione Toscana, C=IT, ST=Italia, O=E-Voting system, OU=E-Voting system authority/emailAddress=Toscana@evoting.it
        Validity
            Not Before: Aug  3 13:28:25 2022 GMT
            Not After : Aug  3 13:28:25 2023 GMT
        Subject: CN=Warren, C=IT, ST=Italia, O=Regione Toscana
        Subject Public Key Info:
            Public Key Algorithm: id-ecPublicKey
                Public-Key: (256 bit)
                pub:
                    04:fc:51:a7:0a:6c:53:cc:65:9b:b3:69:c2:bc:c5:
                    94:35:22:ac:a2:7a:8c:0e:56:9a:c2:3d:d6:bc:09:
                    bb:1c:be:fe:bc:3c:d4:a0:c8:36:2f:31:59:3e:c1:
                    da:b2:96:6c:f0:f9:91:ce:04:ab:81:5f:f5:85:41:
                    ec:7c:b7:f2:e7
                ASN1 OID: prime256v1
                NIST CURVE: P-256
        X509v3 extensions:
            X509v3 Key Usage: critical
                Digital Signature, Key Encipherment
            X509v3 Basic Constraints: critical
                CA:FALSE, pathlen:3
    Signature Algorithm: ecdsa-with-SHA256
         30:45:02:21:00:f5:1f:3b:ac:d1:45:7f:a6:b6:10:44:79:c2:
         e8:c7:d6:fe:85:b4:f3:00:8d:ac:52:68:22:be:d0:20:50:2a:
         44:02:20:51:01:87:29:fe:13:87:2d:1d:cb:24:33:9a:0a:35:
         4d:45:aa:1c:44:77:09:c0:d5:2e:83:2f:44:16:d1:5b:4a
-----BEGIN CERTIFICATE-----
MIIB9TCCAZugAwIBAgIBKzAKBggqhkjOPQQDAjCBmTEYMBYGA1UEAwwPUmVnaW9u
ZSBUb3NjYW5hMQswCQYDVQQGEwJJVDEPMA0GA1UECAwGSXRhbGlhMRgwFgYDVQQK
DA9FLVZvdGluZyBzeXN0ZW0xIjAgBgNVBAsMGUUtVm90aW5nIHN5c3RlbSBhdXRo
b3JpdHkxITAfBgkqhkiG9w0BCQEWElRvc2NhbmFAZXZvdGluZy5pdDAeFw0yMjA4
MDMxMzI4MjVaFw0yMzA4MDMxMzI4MjVaMEkxDzANBgNVBAMMBldhcnJlbjELMAkG
A1UEBhMCSVQxDzANBgNVBAgMBkl0YWxpYTEYMBYGA1UECgwPUmVnaW9uZSBUb3Nj
YW5hMFkwEwYHKoZIzj0CAQYIKoZIzj0DAQcDQgAE/FGnCmxTzGWbs2nCvMWUNSKs
onqMDlaawj3WvAm7HL7+vDzUoMg2LzFZPsHaspZs8PmRzgSrgV/1hUHsfLfy56Mj
MCEwDgYDVR0PAQH/BAQDAgWgMA8GA1UdEwEB/wQFMAMCAQMwCgYIKoZIzj0EAwID
SAAwRQIhAPUfO6zRRX+mthBEecLox9b+hbTzAI2sUmgivtAgUCpEAiBRAYcp/hOH
LR3LJDOaCjVNRaocRHcJwNUugy9EFtFbSg==
-----END CERTIFICATE-----
