Certificate:
    Data:
        Version: 3 (0x2)
        Serial Number: 1 (0x1)
        Signature Algorithm: ecdsa-with-SHA256
        Issuer: CN=Regione Campania, C=IT, ST=Italia, O=E-Voting system, OU=E-Voting system authority/emailAddress=Campania@evoting.it
        Validity
            Not Before: Aug 26 15:18:24 2022 GMT
            Not After : Aug 26 15:18:24 2023 GMT
        Subject: CN=Warren, C=IT, ST=Italia, O=Regione Campania
        Subject Public Key Info:
            Public Key Algorithm: id-ecPublicKey
                Public-Key: (256 bit)
                pub:
                    04:c0:47:ca:8c:ad:b6:be:06:01:40:0d:3d:6f:49:
                    bc:64:fe:fb:bb:e5:40:b8:66:b8:8d:46:d2:94:91:
                    b3:f3:14:06:ab:75:bb:a3:6b:1d:d5:04:20:bc:3a:
                    42:e8:81:4b:4d:84:56:14:50:b7:04:a5:7d:7e:9a:
                    e9:ca:23:b2:fc
                ASN1 OID: secp256k1
        X509v3 extensions:
            X509v3 Key Usage: critical
                Digital Signature, Key Encipherment
            X509v3 Basic Constraints: critical
                CA:FALSE, pathlen:3
    Signature Algorithm: ecdsa-with-SHA256
         30:46:02:21:00:b3:2f:ad:0e:97:51:ea:c5:5a:ba:e2:a3:08:
         79:fe:99:99:5f:66:c8:1f:0a:55:57:77:63:4c:60:77:ed:47:
         83:02:21:00:88:32:7b:53:ef:e0:ca:86:d6:0f:27:f7:a1:ac:
         ce:cb:15:e6:e7:26:15:ee:8b:81:ef:2c:b1:7d:cf:16:ed:b4
-----BEGIN CERTIFICATE-----
MIIB9jCCAZugAwIBAgIBATAKBggqhkjOPQQDAjCBmzEZMBcGA1UEAwwQUmVnaW9u
ZSBDYW1wYW5pYTELMAkGA1UEBhMCSVQxDzANBgNVBAgMBkl0YWxpYTEYMBYGA1UE
CgwPRS1Wb3Rpbmcgc3lzdGVtMSIwIAYDVQQLDBlFLVZvdGluZyBzeXN0ZW0gYXV0
aG9yaXR5MSIwIAYJKoZIhvcNAQkBFhNDYW1wYW5pYUBldm90aW5nLml0MB4XDTIy
MDgyNjE1MTgyNFoXDTIzMDgyNjE1MTgyNFowSjEPMA0GA1UEAwwGV2FycmVuMQsw
CQYDVQQGEwJJVDEPMA0GA1UECAwGSXRhbGlhMRkwFwYDVQQKDBBSZWdpb25lIENh
bXBhbmlhMFYwEAYHKoZIzj0CAQYFK4EEAAoDQgAEwEfKjK22vgYBQA09b0m8ZP77
u+VAuGa4jUbSlJGz8xQGq3W7o2sd1QQgvDpC6IFLTYRWFFC3BKV9fprpyiOy/KMj
MCEwDgYDVR0PAQH/BAQDAgWgMA8GA1UdEwEB/wQFMAMCAQMwCgYIKoZIzj0EAwID
SQAwRgIhALMvrQ6XUerFWrriowh5/pmZX2bIHwpVV3djTGB37UeDAiEAiDJ7U+/g
yobWDyf3oazOyxXm5yYV7ouB7yyxfc8W7bQ=
-----END CERTIFICATE-----
