Certificate:
    Data:
        Version: 3 (0x2)
        Serial Number: 38 (0x26)
        Signature Algorithm: ecdsa-with-SHA256
        Issuer: CN=Regione Piemonte, C=IT, ST=Italia, O=E-Voting system, OU=E-Voting system authority/emailAddress=Piemonte@evoting.it
        Validity
            Not Before: Aug  3 13:27:10 2022 GMT
            Not After : Aug  3 13:27:10 2023 GMT
        Subject: CN=Wayne, C=IT, ST=Italia, O=Regione Piemonte
        Subject Public Key Info:
            Public Key Algorithm: id-ecPublicKey
                Public-Key: (256 bit)
                pub:
                    04:ba:31:c3:09:d8:7b:3f:56:f6:5e:7d:17:b1:39:
                    63:97:ef:c4:84:20:40:6a:53:e4:bd:76:f0:8b:12:
                    e4:e3:22:9f:58:1a:00:97:b4:f7:9f:21:5c:17:43:
                    14:e8:34:fe:67:82:51:1c:53:85:1c:76:b6:57:c9:
                    be:91:bf:cb:3a
                ASN1 OID: prime256v1
                NIST CURVE: P-256
        X509v3 extensions:
            X509v3 Key Usage: critical
                Digital Signature, Key Encipherment
            X509v3 Basic Constraints: critical
                CA:FALSE, pathlen:3
    Signature Algorithm: ecdsa-with-SHA256
         30:45:02:20:39:cd:50:ba:37:2b:aa:9d:9d:6b:ac:5f:ac:3b:
         09:f9:05:85:08:c4:70:e6:93:35:37:48:dd:e3:c1:d4:bf:20:
         02:21:00:a2:0d:af:08:db:7b:fd:01:b9:0f:14:4a:a3:93:6c:
         8e:9b:f0:cd:70:6f:a0:9c:e4:02:cf:c2:fb:8f:bb:0d:42
-----BEGIN CERTIFICATE-----
MIIB9zCCAZ2gAwIBAgIBJjAKBggqhkjOPQQDAjCBmzEZMBcGA1UEAwwQUmVnaW9u
ZSBQaWVtb250ZTELMAkGA1UEBhMCSVQxDzANBgNVBAgMBkl0YWxpYTEYMBYGA1UE
CgwPRS1Wb3Rpbmcgc3lzdGVtMSIwIAYDVQQLDBlFLVZvdGluZyBzeXN0ZW0gYXV0
aG9yaXR5MSIwIAYJKoZIhvcNAQkBFhNQaWVtb250ZUBldm90aW5nLml0MB4XDTIy
MDgwMzEzMjcxMFoXDTIzMDgwMzEzMjcxMFowSTEOMAwGA1UEAwwFV2F5bmUxCzAJ
BgNVBAYTAklUMQ8wDQYDVQQIDAZJdGFsaWExGTAXBgNVBAoMEFJlZ2lvbmUgUGll
bW9udGUwWTATBgcqhkjOPQIBBggqhkjOPQMBBwNCAAS6McMJ2Hs/VvZefRexOWOX
78SEIEBqU+S9dvCLEuTjIp9YGgCXtPefIVwXQxToNP5nglEcU4UcdrZXyb6Rv8s6
oyMwITAOBgNVHQ8BAf8EBAMCBaAwDwYDVR0TAQH/BAUwAwIBAzAKBggqhkjOPQQD
AgNIADBFAiA5zVC6NyuqnZ1rrF+sOwn5BYUIxHDmkzU3SN3jwdS/IAIhAKINrwjb
e/0BuQ8USqOTbI6b8M1wb6Cc5ALPwvuPuw1C
-----END CERTIFICATE-----
