Certificate:
    Data:
        Version: 3 (0x2)
        Serial Number: 41 (0x29)
        Signature Algorithm: ecdsa-with-SHA256
        Issuer: CN=Regione Trentino_Alto_Adige, C=IT, ST=Italia, O=E-Voting system, OU=E-Voting system authority/emailAddress=Trentino_Alto_Adige@evoting.it
        Validity
            Not Before: Aug 26 15:20:58 2022 GMT
            Not After : Aug 26 15:20:58 2023 GMT
        Subject: CN=Wayne, C=IT, ST=Italia, O=Regione Trentino_Alto_Adige
        Subject Public Key Info:
            Public Key Algorithm: id-ecPublicKey
                Public-Key: (256 bit)
                pub:
                    04:41:24:15:38:36:8a:fe:f6:fd:5e:43:49:a1:c7:
                    db:61:1c:08:45:4e:98:92:a8:2e:82:1b:e7:d4:1c:
                    ab:63:51:a2:d8:bf:e1:f9:c2:18:23:1c:0c:86:9f:
                    73:2e:74:9a:7f:41:99:95:a6:4a:d1:7b:35:90:70:
                    07:73:bc:b9:6e
                ASN1 OID: secp256k1
        X509v3 extensions:
            X509v3 Key Usage: critical
                Digital Signature, Key Encipherment
            X509v3 Basic Constraints: critical
                CA:FALSE, pathlen:3
    Signature Algorithm: ecdsa-with-SHA256
         30:45:02:20:2d:96:89:7e:41:8e:f3:62:f1:92:c1:6a:b2:ae:
         8d:14:c0:de:c1:a3:3f:ae:60:6e:c0:60:11:00:f1:3d:34:0b:
         02:21:00:98:a2:e4:4a:c7:a0:d3:9a:5f:34:f5:99:10:10:23:
         b3:38:5e:a6:f8:c3:46:38:f9:2f:21:d6:e0:e8:37:7a:3e
-----BEGIN CERTIFICATE-----
MIICFTCCAbugAwIBAgIBKTAKBggqhkjOPQQDAjCBsTEkMCIGA1UEAwwbUmVnaW9u
ZSBUcmVudGlub19BbHRvX0FkaWdlMQswCQYDVQQGEwJJVDEPMA0GA1UECAwGSXRh
bGlhMRgwFgYDVQQKDA9FLVZvdGluZyBzeXN0ZW0xIjAgBgNVBAsMGUUtVm90aW5n
IHN5c3RlbSBhdXRob3JpdHkxLTArBgkqhkiG9w0BCQEWHlRyZW50aW5vX0FsdG9f
QWRpZ2VAZXZvdGluZy5pdDAeFw0yMjA4MjYxNTIwNThaFw0yMzA4MjYxNTIwNTha
MFQxDjAMBgNVBAMMBVdheW5lMQswCQYDVQQGEwJJVDEPMA0GA1UECAwGSXRhbGlh
MSQwIgYDVQQKDBtSZWdpb25lIFRyZW50aW5vX0FsdG9fQWRpZ2UwVjAQBgcqhkjO
PQIBBgUrgQQACgNCAARBJBU4Nor+9v1eQ0mhx9thHAhFTpiSqC6CG+fUHKtjUaLY
v+H5whgjHAyGn3MudJp/QZmVpkrRezWQcAdzvLluoyMwITAOBgNVHQ8BAf8EBAMC
BaAwDwYDVR0TAQH/BAUwAwIBAzAKBggqhkjOPQQDAgNIADBFAiAtlol+QY7zYvGS
wWqyro0UwN7Boz+uYG7AYBEA8T00CwIhAJii5ErHoNOaXzT1mRAQI7M4Xqb4w0Y4
+S8h1uDoN3o+
-----END CERTIFICATE-----
