Certificate:
    Data:
        Version: 3 (0x2)
        Serial Number: 29 (0x1d)
        Signature Algorithm: ecdsa-with-SHA256
        Issuer: CN=Regione Lombardia, C=IT, ST=Italia, O=E-Voting system, OU=E-Voting system authority/emailAddress=Lombardia@evoting.it
        Validity
            Not Before: Aug 26 15:20:36 2022 GMT
            Not After : Aug 26 15:20:36 2023 GMT
        Subject: CN=Wendy, C=IT, ST=Italia, O=Regione Lombardia
        Subject Public Key Info:
            Public Key Algorithm: id-ecPublicKey
                Public-Key: (256 bit)
                pub:
                    04:85:11:f7:e9:ed:34:bb:6f:a4:cc:fa:32:2d:4b:
                    3b:94:93:31:17:c1:98:7e:cd:84:4b:b0:50:16:d1:
                    37:49:ce:91:90:0e:22:c4:a6:27:51:9b:c9:38:ca:
                    d1:23:1e:21:91:0d:ec:26:a2:19:4d:2b:83:24:7b:
                    90:c1:31:cd:59
                ASN1 OID: secp256k1
        X509v3 extensions:
            X509v3 Key Usage: critical
                Digital Signature, Key Encipherment
            X509v3 Basic Constraints: critical
                CA:FALSE, pathlen:3
    Signature Algorithm: ecdsa-with-SHA256
         30:45:02:20:54:22:45:9b:f1:b8:22:23:90:47:20:58:df:81:
         10:d5:fa:51:7e:e2:32:db:52:78:69:cb:43:b2:e8:2a:1b:7c:
         02:21:00:9e:53:44:2a:10:45:ef:78:b3:65:24:35:e9:f4:5e:
         cb:d7:24:87:d0:f4:22:ab:bb:fb:b1:c6:71:a7:f5:ad:dd
-----BEGIN CERTIFICATE-----
MIIB9zCCAZ2gAwIBAgIBHTAKBggqhkjOPQQDAjCBnTEaMBgGA1UEAwwRUmVnaW9u
ZSBMb21iYXJkaWExCzAJBgNVBAYTAklUMQ8wDQYDVQQIDAZJdGFsaWExGDAWBgNV
BAoMD0UtVm90aW5nIHN5c3RlbTEiMCAGA1UECwwZRS1Wb3Rpbmcgc3lzdGVtIGF1
dGhvcml0eTEjMCEGCSqGSIb3DQEJARYUTG9tYmFyZGlhQGV2b3RpbmcuaXQwHhcN
MjIwODI2MTUyMDM2WhcNMjMwODI2MTUyMDM2WjBKMQ4wDAYDVQQDDAVXZW5keTEL
MAkGA1UEBhMCSVQxDzANBgNVBAgMBkl0YWxpYTEaMBgGA1UECgwRUmVnaW9uZSBM
b21iYXJkaWEwVjAQBgcqhkjOPQIBBgUrgQQACgNCAASFEffp7TS7b6TM+jItSzuU
kzEXwZh+zYRLsFAW0TdJzpGQDiLEpidRm8k4ytEjHiGRDewmohlNK4Mke5DBMc1Z
oyMwITAOBgNVHQ8BAf8EBAMCBaAwDwYDVR0TAQH/BAUwAwIBAzAKBggqhkjOPQQD
AgNIADBFAiBUIkWb8bgiI5BHIFjfgRDV+lF+4jLbUnhpy0Oy6CobfAIhAJ5TRCoQ
Re94s2UkNen0XsvXJIfQ9CKru/uxxnGn9a3d
-----END CERTIFICATE-----
