Certificate:
    Data:
        Version: 3 (0x2)
        Serial Number: 29 (0x1d)
        Signature Algorithm: ecdsa-with-SHA256
        Issuer: CN=Regione Trentino_Alto_Adige, C=IT, ST=Italia, O=E-Voting system, OU=E-Voting system authority/emailAddress=Trentino_Alto_Adige@evoting.it
        Validity
            Not Before: Aug 26 15:20:34 2022 GMT
            Not After : Aug 26 15:20:34 2023 GMT
        Subject: CN=Wendell, C=IT, ST=Italia, O=Regione Trentino_Alto_Adige
        Subject Public Key Info:
            Public Key Algorithm: id-ecPublicKey
                Public-Key: (256 bit)
                pub:
                    04:aa:42:c0:26:31:bf:87:75:c6:5d:75:f3:4a:b3:
                    ac:ac:a6:39:68:a4:2c:66:d8:d4:53:ff:d7:62:6c:
                    64:3e:e3:b3:4b:27:78:61:aa:14:21:df:05:de:b2:
                    e1:9a:f6:8c:37:27:bf:dd:f3:60:30:71:85:02:84:
                    0a:4b:02:da:22
                ASN1 OID: secp256k1
        X509v3 extensions:
            X509v3 Key Usage: critical
                Digital Signature, Key Encipherment
            X509v3 Basic Constraints: critical
                CA:FALSE, pathlen:3
    Signature Algorithm: ecdsa-with-SHA256
         30:45:02:20:76:92:65:f6:21:51:93:40:eb:cb:68:2e:8a:6a:
         b3:a5:08:6d:d1:f7:cd:52:2b:86:26:5f:c8:21:85:3d:0a:43:
         02:21:00:c0:bd:1e:ed:6d:3b:a7:8a:39:05:ca:31:4a:1f:23:
         5d:a9:5c:d2:69:fe:84:4c:ce:73:1a:75:2c:7c:57:85:66
-----BEGIN CERTIFICATE-----
MIICFzCCAb2gAwIBAgIBHTAKBggqhkjOPQQDAjCBsTEkMCIGA1UEAwwbUmVnaW9u
ZSBUcmVudGlub19BbHRvX0FkaWdlMQswCQYDVQQGEwJJVDEPMA0GA1UECAwGSXRh
bGlhMRgwFgYDVQQKDA9FLVZvdGluZyBzeXN0ZW0xIjAgBgNVBAsMGUUtVm90aW5n
IHN5c3RlbSBhdXRob3JpdHkxLTArBgkqhkiG9w0BCQEWHlRyZW50aW5vX0FsdG9f
QWRpZ2VAZXZvdGluZy5pdDAeFw0yMjA4MjYxNTIwMzRaFw0yMzA4MjYxNTIwMzRa
MFYxEDAOBgNVBAMMB1dlbmRlbGwxCzAJBgNVBAYTAklUMQ8wDQYDVQQIDAZJdGFs
aWExJDAiBgNVBAoMG1JlZ2lvbmUgVHJlbnRpbm9fQWx0b19BZGlnZTBWMBAGByqG
SM49AgEGBSuBBAAKA0IABKpCwCYxv4d1xl1180qzrKymOWikLGbY1FP/12JsZD7j
s0sneGGqFCHfBd6y4Zr2jDcnv93zYDBxhQKECksC2iKjIzAhMA4GA1UdDwEB/wQE
AwIFoDAPBgNVHRMBAf8EBTADAgEDMAoGCCqGSM49BAMCA0gAMEUCIHaSZfYhUZNA
68toLopqs6UIbdH3zVIrhiZfyCGFPQpDAiEAwL0e7W07p4o5BcoxSh8jXalc0mn+
hEzOcxp1LHxXhWY=
-----END CERTIFICATE-----
