Certificate:
    Data:
        Version: 3 (0x2)
        Serial Number: 19 (0x13)
        Signature Algorithm: ecdsa-with-SHA256
        Issuer: CN=Regione Veneto, C=IT, ST=Italia, O=E-Voting system, OU=E-Voting system authority/emailAddress=Veneto@evoting.it
        Validity
            Not Before: Aug 26 15:20:42 2022 GMT
            Not After : Aug 26 15:20:42 2023 GMT
        Subject: CN=Wesley, C=IT, ST=Italia, O=Regione Veneto
        Subject Public Key Info:
            Public Key Algorithm: id-ecPublicKey
                Public-Key: (256 bit)
                pub:
                    04:f7:92:33:cb:e3:e6:5c:c4:59:ce:d0:a1:b2:05:
                    2b:9b:aa:c9:f6:9f:ba:f4:11:10:32:69:4e:3f:2d:
                    d8:ab:1e:06:3b:ce:8e:72:71:ae:97:99:f3:fe:cd:
                    a1:2b:44:ed:4e:1a:b2:cc:3c:95:35:49:6d:cf:58:
                    bc:f0:d4:17:a6
                ASN1 OID: secp256k1
        X509v3 extensions:
            X509v3 Key Usage: critical
                Digital Signature, Key Encipherment
            X509v3 Basic Constraints: critical
                CA:FALSE, pathlen:3
    Signature Algorithm: ecdsa-with-SHA256
         30:45:02:20:06:84:eb:26:2b:52:6d:39:46:1b:41:69:17:33:
         44:30:29:4a:61:49:2d:e4:a1:a8:0d:66:84:48:33:08:fd:d6:
         02:21:00:ff:38:80:19:a9:1c:a1:8b:50:15:7a:86:ff:91:57:
         f8:c9:80:ab:90:5c:fd:63:40:ae:73:fd:9a:63:0a:75:4c
-----BEGIN CERTIFICATE-----
MIIB7zCCAZWgAwIBAgIBEzAKBggqhkjOPQQDAjCBlzEXMBUGA1UEAwwOUmVnaW9u
ZSBWZW5ldG8xCzAJBgNVBAYTAklUMQ8wDQYDVQQIDAZJdGFsaWExGDAWBgNVBAoM
D0UtVm90aW5nIHN5c3RlbTEiMCAGA1UECwwZRS1Wb3Rpbmcgc3lzdGVtIGF1dGhv
cml0eTEgMB4GCSqGSIb3DQEJARYRVmVuZXRvQGV2b3RpbmcuaXQwHhcNMjIwODI2
MTUyMDQyWhcNMjMwODI2MTUyMDQyWjBIMQ8wDQYDVQQDDAZXZXNsZXkxCzAJBgNV
BAYTAklUMQ8wDQYDVQQIDAZJdGFsaWExFzAVBgNVBAoMDlJlZ2lvbmUgVmVuZXRv
MFYwEAYHKoZIzj0CAQYFK4EEAAoDQgAE95Izy+PmXMRZztChsgUrm6rJ9p+69BEQ
MmlOPy3Yqx4GO86OcnGul5nz/s2hK0TtThqyzDyVNUltz1i88NQXpqMjMCEwDgYD
VR0PAQH/BAQDAgWgMA8GA1UdEwEB/wQFMAMCAQMwCgYIKoZIzj0EAwIDSAAwRQIg
BoTrJitSbTlGG0FpFzNEMClKYUkt5KGoDWaESDMI/dYCIQD/OIAZqRyhi1AVeob/
kVf4yYCrkFz9Y0Cuc/2aYwp1TA==
-----END CERTIFICATE-----
