Certificate:
    Data:
        Version: 3 (0x2)
        Serial Number: 28 (0x1c)
        Signature Algorithm: ecdsa-with-SHA256
        Issuer: CN=Regione Calabria, C=IT, ST=Italia, O=E-Voting system, OU=E-Voting system authority/emailAddress=Calabria@evoting.it
        Validity
            Not Before: Aug  3 13:27:09 2022 GMT
            Not After : Aug  3 13:27:09 2023 GMT
        Subject: CN=Wesley, C=IT, ST=Italia, O=Regione Calabria
        Subject Public Key Info:
            Public Key Algorithm: id-ecPublicKey
                Public-Key: (256 bit)
                pub:
                    04:11:3c:5e:8a:a4:9d:1d:e1:eb:da:04:1f:61:18:
                    98:56:27:55:c4:d0:f8:e3:53:4a:6d:93:3a:42:89:
                    f5:bb:8e:54:e1:c7:24:b6:70:03:7b:c5:c1:82:52:
                    0c:88:02:7c:30:4b:7e:9d:5f:0c:be:c0:a2:df:20:
                    a9:23:f5:71:de
                ASN1 OID: prime256v1
                NIST CURVE: P-256
        X509v3 extensions:
            X509v3 Key Usage: critical
                Digital Signature, Key Encipherment
            X509v3 Basic Constraints: critical
                CA:FALSE, pathlen:3
    Signature Algorithm: ecdsa-with-SHA256
         30:46:02:21:00:a0:c2:10:f5:a6:37:7a:7e:79:2a:0e:8b:57:
         71:87:15:9b:85:09:a1:40:38:b0:78:c5:04:29:1b:f3:28:ea:
         e1:02:21:00:dc:6d:77:a1:0c:88:98:75:11:53:78:16:11:1e:
         e2:f7:0c:0c:54:18:ad:2d:6c:09:b1:32:41:eb:6d:9f:6c:12
-----BEGIN CERTIFICATE-----
MIIB+TCCAZ6gAwIBAgIBHDAKBggqhkjOPQQDAjCBmzEZMBcGA1UEAwwQUmVnaW9u
ZSBDYWxhYnJpYTELMAkGA1UEBhMCSVQxDzANBgNVBAgMBkl0YWxpYTEYMBYGA1UE
CgwPRS1Wb3Rpbmcgc3lzdGVtMSIwIAYDVQQLDBlFLVZvdGluZyBzeXN0ZW0gYXV0
aG9yaXR5MSIwIAYJKoZIhvcNAQkBFhNDYWxhYnJpYUBldm90aW5nLml0MB4XDTIy
MDgwMzEzMjcwOVoXDTIzMDgwMzEzMjcwOVowSjEPMA0GA1UEAwwGV2VzbGV5MQsw
CQYDVQQGEwJJVDEPMA0GA1UECAwGSXRhbGlhMRkwFwYDVQQKDBBSZWdpb25lIENh
bGFicmlhMFkwEwYHKoZIzj0CAQYIKoZIzj0DAQcDQgAEETxeiqSdHeHr2gQfYRiY
VidVxND441NKbZM6Qon1u45U4ccktnADe8XBglIMiAJ8MEt+nV8MvsCi3yCpI/Vx
3qMjMCEwDgYDVR0PAQH/BAQDAgWgMA8GA1UdEwEB/wQFMAMCAQMwCgYIKoZIzj0E
AwIDSQAwRgIhAKDCEPWmN3p+eSoOi1dxhxWbhQmhQDiweMUEKRvzKOrhAiEA3G13
oQyImHURU3gWER7i9wwMVBitLWwJsTJB622fbBI=
-----END CERTIFICATE-----
