Certificate:
    Data:
        Version: 3 (0x2)
        Serial Number: 23 (0x17)
        Signature Algorithm: ecdsa-with-SHA256
        Issuer: CN=Regione Abruzzo, C=IT, ST=Italia, O=E-Voting system, OU=E-Voting system authority/emailAddress=Abruzzo@evoting.it
        Validity
            Not Before: Aug 26 15:20:27 2022 GMT
            Not After : Aug 26 15:20:27 2023 GMT
        Subject: CN=Wilbur, C=IT, ST=Italia, O=Regione Abruzzo
        Subject Public Key Info:
            Public Key Algorithm: id-ecPublicKey
                Public-Key: (256 bit)
                pub:
                    04:8c:0f:97:c7:db:be:dd:8c:83:74:03:b5:59:b8:
                    bf:67:d8:b7:de:c4:17:d8:2d:6f:9f:21:45:ff:95:
                    ad:48:50:b5:2c:19:01:31:2d:d9:b1:ee:05:f5:4b:
                    63:89:e9:9d:53:67:b6:8d:92:cc:53:b8:f2:52:9f:
                    85:df:cf:e6:59
                ASN1 OID: secp256k1
        X509v3 extensions:
            X509v3 Key Usage: critical
                Digital Signature, Key Encipherment
            X509v3 Basic Constraints: critical
                CA:FALSE, pathlen:3
    Signature Algorithm: ecdsa-with-SHA256
         30:46:02:21:00:da:d8:6e:16:42:e2:1e:06:60:1e:2a:ca:50:
         5a:fa:30:49:96:e4:3d:01:e5:7e:b4:ee:ce:39:7d:5d:6a:12:
         45:02:21:00:8c:e8:45:a8:27:a6:d9:79:9d:50:ec:76:93:e5:
         e1:8c:06:66:71:9e:57:30:03:14:b0:2b:bd:3c:c4:8d:06:07
-----BEGIN CERTIFICATE-----
MIIB8zCCAZigAwIBAgIBFzAKBggqhkjOPQQDAjCBmTEYMBYGA1UEAwwPUmVnaW9u
ZSBBYnJ1enpvMQswCQYDVQQGEwJJVDEPMA0GA1UECAwGSXRhbGlhMRgwFgYDVQQK
DA9FLVZvdGluZyBzeXN0ZW0xIjAgBgNVBAsMGUUtVm90aW5nIHN5c3RlbSBhdXRo
b3JpdHkxITAfBgkqhkiG9w0BCQEWEkFicnV6em9AZXZvdGluZy5pdDAeFw0yMjA4
MjYxNTIwMjdaFw0yMzA4MjYxNTIwMjdaMEkxDzANBgNVBAMMBldpbGJ1cjELMAkG
A1UEBhMCSVQxDzANBgNVBAgMBkl0YWxpYTEYMBYGA1UECgwPUmVnaW9uZSBBYnJ1
enpvMFYwEAYHKoZIzj0CAQYFK4EEAAoDQgAEjA+Xx9u+3YyDdAO1Wbi/Z9i33sQX
2C1vnyFF/5WtSFC1LBkBMS3Zse4F9UtjiemdU2e2jZLMU7jyUp+F38/mWaMjMCEw
DgYDVR0PAQH/BAQDAgWgMA8GA1UdEwEB/wQFMAMCAQMwCgYIKoZIzj0EAwIDSQAw
RgIhANrYbhZC4h4GYB4qylBa+jBJluQ9AeV+tO7OOX1dahJFAiEAjOhFqCem2Xmd
UOx2k+XhjAZmcZ5XMAMUsCu9PMSNBgc=
-----END CERTIFICATE-----
