Certificate:
    Data:
        Version: 3 (0x2)
        Serial Number: 20 (0x14)
        Signature Algorithm: ecdsa-with-SHA256
        Issuer: CN=Regione Abruzzo, C=IT, ST=Italia, O=E-Voting system, OU=E-Voting system authority/emailAddress=Abruzzo@evoting.it
        Validity
            Not Before: Aug 26 15:20:18 2022 GMT
            Not After : Aug 26 15:20:18 2023 GMT
        Subject: CN=William, C=IT, ST=Italia, O=Regione Abruzzo
        Subject Public Key Info:
            Public Key Algorithm: id-ecPublicKey
                Public-Key: (256 bit)
                pub:
                    04:1e:77:49:17:5e:02:2e:38:05:9b:6e:30:0a:c7:
                    52:1b:98:cf:ae:75:7f:c3:79:72:a4:64:d8:ef:12:
                    7c:d4:5d:f8:79:78:71:4e:1f:7f:1f:bb:88:b9:88:
                    19:34:d1:70:8c:e8:7a:8a:a9:b8:cb:d6:ec:f7:1d:
                    1a:a5:83:e3:c6
                ASN1 OID: secp256k1
        X509v3 extensions:
            X509v3 Key Usage: critical
                Digital Signature, Key Encipherment
            X509v3 Basic Constraints: critical
                CA:FALSE, pathlen:3
    Signature Algorithm: ecdsa-with-SHA256
         30:44:02:20:3f:61:f2:c9:b3:40:83:f0:a2:b9:b5:b7:65:97:
         d3:7b:e2:5a:f9:97:54:26:b7:e6:fc:1e:81:61:42:fc:39:2b:
         02:20:6d:dc:bd:bf:41:75:51:ea:f6:29:68:90:ae:b9:11:58:
         08:b5:49:f5:fb:57:af:62:c7:b3:76:6c:00:58:f6:7f
-----BEGIN CERTIFICATE-----
MIIB8jCCAZmgAwIBAgIBFDAKBggqhkjOPQQDAjCBmTEYMBYGA1UEAwwPUmVnaW9u
ZSBBYnJ1enpvMQswCQYDVQQGEwJJVDEPMA0GA1UECAwGSXRhbGlhMRgwFgYDVQQK
DA9FLVZvdGluZyBzeXN0ZW0xIjAgBgNVBAsMGUUtVm90aW5nIHN5c3RlbSBhdXRo
b3JpdHkxITAfBgkqhkiG9w0BCQEWEkFicnV6em9AZXZvdGluZy5pdDAeFw0yMjA4
MjYxNTIwMThaFw0yMzA4MjYxNTIwMThaMEoxEDAOBgNVBAMMB1dpbGxpYW0xCzAJ
BgNVBAYTAklUMQ8wDQYDVQQIDAZJdGFsaWExGDAWBgNVBAoMD1JlZ2lvbmUgQWJy
dXp6bzBWMBAGByqGSM49AgEGBSuBBAAKA0IABB53SRdeAi44BZtuMArHUhuYz651
f8N5cqRk2O8SfNRd+Hl4cU4ffx+7iLmIGTTRcIzoeoqpuMvW7PcdGqWD48ajIzAh
MA4GA1UdDwEB/wQEAwIFoDAPBgNVHRMBAf8EBTADAgEDMAoGCCqGSM49BAMCA0cA
MEQCID9h8smzQIPworm1t2WX03viWvmXVCa35vwegWFC/DkrAiBt3L2/QXVR6vYp
aJCuuRFYCLVJ9ftXr2LHs3ZsAFj2fw==
-----END CERTIFICATE-----
