Certificate:
    Data:
        Version: 3 (0x2)
        Serial Number: 37 (0x25)
        Signature Algorithm: ecdsa-with-SHA256
        Issuer: CN=Regione Valle_d_Aosta, C=IT, ST=Italia, O=E-Voting system, OU=E-Voting system authority/emailAddress=Valle_d_Aosta@evoting.it
        Validity
            Not Before: Aug 26 15:20:53 2022 GMT
            Not After : Aug 26 15:20:53 2023 GMT
        Subject: CN=Willie, C=IT, ST=Italia, O=Regione Valle_d_Aosta
        Subject Public Key Info:
            Public Key Algorithm: id-ecPublicKey
                Public-Key: (256 bit)
                pub:
                    04:2e:2a:80:8e:24:7e:1a:22:90:fe:27:ba:98:28:
                    ac:4c:c4:3f:3b:ab:58:e0:6f:8b:8c:61:5d:63:06:
                    73:70:39:dc:ba:0a:b5:a2:69:b7:ea:a0:20:f3:ad:
                    da:e9:29:18:b5:25:f4:72:1f:4d:84:15:32:51:22:
                    3e:a9:fb:78:76
                ASN1 OID: secp256k1
        X509v3 extensions:
            X509v3 Key Usage: critical
                Digital Signature, Key Encipherment
            X509v3 Basic Constraints: critical
                CA:FALSE, pathlen:3
    Signature Algorithm: ecdsa-with-SHA256
         30:45:02:21:00:b4:15:67:ad:ec:26:f1:4c:15:88:f9:22:77:
         e6:b2:e9:04:c5:1e:ef:b5:b4:24:e8:a3:17:3f:1e:73:ce:53:
         25:02:20:65:50:d2:07:51:68:21:38:1a:a0:aa:e8:49:40:5c:
         13:c5:ce:75:21:c7:77:ef:bd:5a:f8:bd:ed:5a:cd:47:d8
-----BEGIN CERTIFICATE-----
MIICBDCCAaqgAwIBAgIBJTAKBggqhkjOPQQDAjCBpTEeMBwGA1UEAwwVUmVnaW9u
ZSBWYWxsZV9kX0Fvc3RhMQswCQYDVQQGEwJJVDEPMA0GA1UECAwGSXRhbGlhMRgw
FgYDVQQKDA9FLVZvdGluZyBzeXN0ZW0xIjAgBgNVBAsMGUUtVm90aW5nIHN5c3Rl
bSBhdXRob3JpdHkxJzAlBgkqhkiG9w0BCQEWGFZhbGxlX2RfQW9zdGFAZXZvdGlu
Zy5pdDAeFw0yMjA4MjYxNTIwNTNaFw0yMzA4MjYxNTIwNTNaME8xDzANBgNVBAMM
BldpbGxpZTELMAkGA1UEBhMCSVQxDzANBgNVBAgMBkl0YWxpYTEeMBwGA1UECgwV
UmVnaW9uZSBWYWxsZV9kX0Fvc3RhMFYwEAYHKoZIzj0CAQYFK4EEAAoDQgAELiqA
jiR+GiKQ/ie6mCisTMQ/O6tY4G+LjGFdYwZzcDncugq1omm36qAg863a6SkYtSX0
ch9NhBUyUSI+qft4dqMjMCEwDgYDVR0PAQH/BAQDAgWgMA8GA1UdEwEB/wQFMAMC
AQMwCgYIKoZIzj0EAwIDSAAwRQIhALQVZ63sJvFMFYj5InfmsukExR7vtbQk6KMX
Px5zzlMlAiBlUNIHUWghOBqgquhJQFwTxc51Icd3771a+L3tWs1H2A==
-----END CERTIFICATE-----
