Certificate:
    Data:
        Version: 3 (0x2)
        Serial Number: 41 (0x29)
        Signature Algorithm: ecdsa-with-SHA256
        Issuer: CN=Regione Umbria, C=IT, ST=Italia, O=E-Voting system, OU=E-Voting system authority/emailAddress=Umbria@evoting.it
        Validity
            Not Before: Aug 26 15:21:02 2022 GMT
            Not After : Aug 26 15:21:02 2023 GMT
        Subject: CN=Wilma, C=IT, ST=Italia, O=Regione Umbria
        Subject Public Key Info:
            Public Key Algorithm: id-ecPublicKey
                Public-Key: (256 bit)
                pub:
                    04:3e:89:3f:c5:70:be:22:c1:39:93:bd:0e:74:b5:
                    6e:4a:bd:4c:9a:f0:ed:6b:55:62:fd:86:66:3d:c7:
                    b5:2c:50:f0:40:a6:a5:43:45:3c:4d:95:aa:d7:b3:
                    da:e3:da:84:5f:79:4c:8a:15:9c:8a:a4:74:7d:fc:
                    9f:b7:01:e5:9b
                ASN1 OID: secp256k1
        X509v3 extensions:
            X509v3 Key Usage: critical
                Digital Signature, Key Encipherment
            X509v3 Basic Constraints: critical
                CA:FALSE, pathlen:3
    Signature Algorithm: ecdsa-with-SHA256
         30:44:02:20:01:3f:11:15:4a:1d:4a:2f:73:5a:86:0b:b8:22:
         8b:72:d9:ed:3f:95:9c:41:24:2d:d9:c4:95:fb:75:1f:8f:72:
         02:20:5e:0c:85:11:ea:61:ff:31:4c:5f:62:7c:9a:48:fd:13:
         70:3a:f6:0e:bf:b6:0f:fd:97:bf:4c:66:54:8f:64:62
-----BEGIN CERTIFICATE-----
MIIB7TCCAZSgAwIBAgIBKTAKBggqhkjOPQQDAjCBlzEXMBUGA1UEAwwOUmVnaW9u
ZSBVbWJyaWExCzAJBgNVBAYTAklUMQ8wDQYDVQQIDAZJdGFsaWExGDAWBgNVBAoM
D0UtVm90aW5nIHN5c3RlbTEiMCAGA1UECwwZRS1Wb3Rpbmcgc3lzdGVtIGF1dGhv
cml0eTEgMB4GCSqGSIb3DQEJARYRVW1icmlhQGV2b3RpbmcuaXQwHhcNMjIwODI2
MTUyMTAyWhcNMjMwODI2MTUyMTAyWjBHMQ4wDAYDVQQDDAVXaWxtYTELMAkGA1UE
BhMCSVQxDzANBgNVBAgMBkl0YWxpYTEXMBUGA1UECgwOUmVnaW9uZSBVbWJyaWEw
VjAQBgcqhkjOPQIBBgUrgQQACgNCAAQ+iT/FcL4iwTmTvQ50tW5KvUya8O1rVWL9
hmY9x7UsUPBApqVDRTxNlarXs9rj2oRfeUyKFZyKpHR9/J+3AeWboyMwITAOBgNV
HQ8BAf8EBAMCBaAwDwYDVR0TAQH/BAUwAwIBAzAKBggqhkjOPQQDAgNHADBEAiAB
PxEVSh1KL3Nahgu4Ioty2e0/lZxBJC3ZxJX7dR+PcgIgXgyFEeph/zFMX2J8mkj9
E3A69g6/tg/9l79MZlSPZGI=
-----END CERTIFICATE-----
