Certificate:
    Data:
        Version: 3 (0x2)
        Serial Number: 23 (0x17)
        Signature Algorithm: ecdsa-with-SHA256
        Issuer: CN=Regione Molise, C=IT, ST=Italia, O=E-Voting system, OU=E-Voting system authority/emailAddress=Molise@evoting.it
        Validity
            Not Before: Aug  3 13:26:56 2022 GMT
            Not After : Aug  3 13:26:56 2023 GMT
        Subject: CN=Wilma, C=IT, ST=Italia, O=Regione Molise
        Subject Public Key Info:
            Public Key Algorithm: id-ecPublicKey
                Public-Key: (256 bit)
                pub:
                    04:bb:5c:0a:d9:a5:3b:c4:31:fd:7c:5c:1c:f6:58:
                    7d:30:29:3e:90:23:55:f3:2a:76:4d:0b:c9:9e:3c:
                    31:09:56:58:df:b9:41:9f:9b:89:96:0f:a4:a6:69:
                    15:36:3a:db:51:2e:05:07:1f:e5:d6:93:b0:86:e8:
                    01:07:20:2d:b1
                ASN1 OID: prime256v1
                NIST CURVE: P-256
        X509v3 extensions:
            X509v3 Key Usage: critical
                Digital Signature, Key Encipherment
            X509v3 Basic Constraints: critical
                CA:FALSE, pathlen:3
    Signature Algorithm: ecdsa-with-SHA256
         30:46:02:21:00:f6:aa:69:69:92:d6:ef:58:62:70:05:19:a1:
         6d:4b:58:74:e9:7e:72:0e:68:18:c7:2e:38:2c:4b:dd:d5:f9:
         19:02:21:00:84:d4:42:41:e2:2c:b1:e7:19:03:b3:c2:08:75:
         fa:96:b4:20:d2:74:0d:27:fc:ec:17:9c:9d:03:98:8b:b3:ec
-----BEGIN CERTIFICATE-----
MIIB8jCCAZegAwIBAgIBFzAKBggqhkjOPQQDAjCBlzEXMBUGA1UEAwwOUmVnaW9u
ZSBNb2xpc2UxCzAJBgNVBAYTAklUMQ8wDQYDVQQIDAZJdGFsaWExGDAWBgNVBAoM
D0UtVm90aW5nIHN5c3RlbTEiMCAGA1UECwwZRS1Wb3Rpbmcgc3lzdGVtIGF1dGhv
cml0eTEgMB4GCSqGSIb3DQEJARYRTW9saXNlQGV2b3RpbmcuaXQwHhcNMjIwODAz
MTMyNjU2WhcNMjMwODAzMTMyNjU2WjBHMQ4wDAYDVQQDDAVXaWxtYTELMAkGA1UE
BhMCSVQxDzANBgNVBAgMBkl0YWxpYTEXMBUGA1UECgwOUmVnaW9uZSBNb2xpc2Uw
WTATBgcqhkjOPQIBBggqhkjOPQMBBwNCAAS7XArZpTvEMf18XBz2WH0wKT6QI1Xz
KnZNC8mePDEJVljfuUGfm4mWD6SmaRU2OttRLgUHH+XWk7CG6AEHIC2xoyMwITAO
BgNVHQ8BAf8EBAMCBaAwDwYDVR0TAQH/BAUwAwIBAzAKBggqhkjOPQQDAgNJADBG
AiEA9qppaZLW71hicAUZoW1LWHTpfnIOaBjHLjgsS93V+RkCIQCE1EJB4iyx5xkD
s8IIdfqWtCDSdA0n/OwXnJ0DmIuz7A==
-----END CERTIFICATE-----
