Certificate:
    Data:
        Version: 3 (0x2)
        Serial Number: 6 (0x6)
        Signature Algorithm: ecdsa-with-SHA256
        Issuer: CN=Regione Marche, C=IT, ST=Italia, O=E-Voting system, OU=E-Voting system authority/emailAddress=Marche@evoting.it
        Validity
            Not Before: Aug 26 15:18:58 2022 GMT
            Not After : Aug 26 15:18:58 2023 GMT
        Subject: CN=Wilson, C=IT, ST=Italia, O=Regione Marche
        Subject Public Key Info:
            Public Key Algorithm: id-ecPublicKey
                Public-Key: (256 bit)
                pub:
                    04:31:21:1f:ae:95:e0:5e:4a:6d:7f:90:b9:ac:e9:
                    21:ac:c5:5d:3c:28:ef:24:7c:83:e8:ec:72:bf:49:
                    17:27:dc:26:7c:a4:8f:17:1f:f0:04:ce:6f:c1:be:
                    4a:f1:79:1a:2e:11:bb:30:55:19:35:11:2a:b1:63:
                    62:f1:e2:eb:2c
                ASN1 OID: secp256k1
        X509v3 extensions:
            X509v3 Key Usage: critical
                Digital Signature, Key Encipherment
            X509v3 Basic Constraints: critical
                CA:FALSE, pathlen:3
    Signature Algorithm: ecdsa-with-SHA256
         30:45:02:20:58:60:8e:7a:76:ef:d7:a2:90:78:2b:d6:c9:fc:
         67:c8:99:b3:83:0a:de:9f:30:05:e2:87:6c:79:ec:43:47:50:
         02:21:00:8d:f6:e1:2c:95:81:6a:f7:5c:a2:46:f1:e0:d6:93:
         65:0e:02:77:5b:c0:d7:5c:ad:91:f5:40:2c:47:53:b3:e7
-----BEGIN CERTIFICATE-----
MIIB7zCCAZWgAwIBAgIBBjAKBggqhkjOPQQDAjCBlzEXMBUGA1UEAwwOUmVnaW9u
ZSBNYXJjaGUxCzAJBgNVBAYTAklUMQ8wDQYDVQQIDAZJdGFsaWExGDAWBgNVBAoM
D0UtVm90aW5nIHN5c3RlbTEiMCAGA1UECwwZRS1Wb3Rpbmcgc3lzdGVtIGF1dGhv
cml0eTEgMB4GCSqGSIb3DQEJARYRTWFyY2hlQGV2b3RpbmcuaXQwHhcNMjIwODI2
MTUxODU4WhcNMjMwODI2MTUxODU4WjBIMQ8wDQYDVQQDDAZXaWxzb24xCzAJBgNV
BAYTAklUMQ8wDQYDVQQIDAZJdGFsaWExFzAVBgNVBAoMDlJlZ2lvbmUgTWFyY2hl
MFYwEAYHKoZIzj0CAQYFK4EEAAoDQgAEMSEfrpXgXkptf5C5rOkhrMVdPCjvJHyD
6Oxyv0kXJ9wmfKSPFx/wBM5vwb5K8XkaLhG7MFUZNREqsWNi8eLrLKMjMCEwDgYD
VR0PAQH/BAQDAgWgMA8GA1UdEwEB/wQFMAMCAQMwCgYIKoZIzj0EAwIDSAAwRQIg
WGCOenbv16KQeCvWyfxnyJmzgwrenzAF4odseexDR1ACIQCN9uEslYFq91yiRvHg
1pNlDgJ3W8DXXK2R9UAsR1Oz5w==
-----END CERTIFICATE-----
