Certificate:
    Data:
        Version: 3 (0x2)
        Serial Number: 15 (0xf)
        Signature Algorithm: ecdsa-with-SHA256
        Issuer: CN=Regione Sicilia, C=IT, ST=Italia, O=E-Voting system, OU=E-Voting system authority/emailAddress=Sicilia@evoting.it
        Validity
            Not Before: Aug  3 13:27:06 2022 GMT
            Not After : Aug  3 13:27:06 2023 GMT
        Subject: CN=Winfred, C=IT, ST=Italia, O=Regione Sicilia
        Subject Public Key Info:
            Public Key Algorithm: id-ecPublicKey
                Public-Key: (256 bit)
                pub:
                    04:2a:03:58:59:28:b3:e3:d0:de:16:9f:60:67:21:
                    98:34:56:7b:8a:48:2e:c8:12:d1:0c:8f:28:8e:c4:
                    49:41:b8:00:da:e5:2a:cd:7b:0b:ca:d5:24:fa:07:
                    f8:c5:70:fb:8f:79:ed:c9:d3:d5:cb:0d:f5:98:e2:
                    ab:69:16:3c:b4
                ASN1 OID: prime256v1
                NIST CURVE: P-256
        X509v3 extensions:
            X509v3 Key Usage: critical
                Digital Signature, Key Encipherment
            X509v3 Basic Constraints: critical
                CA:FALSE, pathlen:3
    Signature Algorithm: ecdsa-with-SHA256
         30:45:02:21:00:87:55:39:1c:83:2c:af:d6:44:7e:9d:a7:81:
         97:ae:14:85:a0:24:18:be:57:46:61:97:a6:3b:aa:5f:61:e2:
         f2:02:20:6c:b2:71:62:a9:b0:db:99:3b:6d:5b:22:a9:1f:5f:
         d0:49:f3:7f:c0:fc:c0:c6:04:06:93:95:31:fc:65:cf:b7
-----BEGIN CERTIFICATE-----
MIIB9jCCAZygAwIBAgIBDzAKBggqhkjOPQQDAjCBmTEYMBYGA1UEAwwPUmVnaW9u
ZSBTaWNpbGlhMQswCQYDVQQGEwJJVDEPMA0GA1UECAwGSXRhbGlhMRgwFgYDVQQK
DA9FLVZvdGluZyBzeXN0ZW0xIjAgBgNVBAsMGUUtVm90aW5nIHN5c3RlbSBhdXRo
b3JpdHkxITAfBgkqhkiG9w0BCQEWElNpY2lsaWFAZXZvdGluZy5pdDAeFw0yMjA4
MDMxMzI3MDZaFw0yMzA4MDMxMzI3MDZaMEoxEDAOBgNVBAMMB1dpbmZyZWQxCzAJ
BgNVBAYTAklUMQ8wDQYDVQQIDAZJdGFsaWExGDAWBgNVBAoMD1JlZ2lvbmUgU2lj
aWxpYTBZMBMGByqGSM49AgEGCCqGSM49AwEHA0IABCoDWFkos+PQ3hafYGchmDRW
e4pILsgS0QyPKI7ESUG4ANrlKs17C8rVJPoH+MVw+4957cnT1csN9Zjiq2kWPLSj
IzAhMA4GA1UdDwEB/wQEAwIFoDAPBgNVHRMBAf8EBTADAgEDMAoGCCqGSM49BAMC
A0gAMEUCIQCHVTkcgyyv1kR+naeBl64UhaAkGL5XRmGXpjuqX2Hi8gIgbLJxYqmw
25k7bVsiqR9f0Enzf8D8wMYEBpOVMfxlz7c=
-----END CERTIFICATE-----
