Certificate:
    Data:
        Version: 3 (0x2)
        Serial Number: 42 (0x2a)
        Signature Algorithm: ecdsa-with-SHA256
        Issuer: CN=Regione Lombardia, C=IT, ST=Italia, O=E-Voting system, OU=E-Voting system authority/emailAddress=Lombardia@evoting.it
        Validity
            Not Before: Aug 26 15:20:59 2022 GMT
            Not After : Aug 26 15:20:59 2023 GMT
        Subject: CN=Winifred, C=IT, ST=Italia, O=Regione Lombardia
        Subject Public Key Info:
            Public Key Algorithm: id-ecPublicKey
                Public-Key: (256 bit)
                pub:
                    04:57:cc:35:fa:16:31:40:d3:58:f0:e3:ae:58:7c:
                    6c:b7:f8:2e:53:57:e5:3d:e7:a3:5e:cd:9e:4b:9a:
                    66:32:9d:c5:2d:aa:ec:3a:45:23:df:09:55:2d:fe:
                    f7:c8:07:0a:2a:f0:19:84:07:3e:f7:75:0e:ba:25:
                    50:8d:7c:3d:3a
                ASN1 OID: secp256k1
        X509v3 extensions:
            X509v3 Key Usage: critical
                Digital Signature, Key Encipherment
            X509v3 Basic Constraints: critical
                CA:FALSE, pathlen:3
    Signature Algorithm: ecdsa-with-SHA256
         30:45:02:20:1b:0d:e0:a9:e7:3c:62:9b:d3:cb:9b:ee:55:b9:
         41:ec:f0:99:d6:f2:33:ee:e5:fe:17:57:3a:1f:db:39:a1:ce:
         02:21:00:86:f7:2d:84:c8:2d:65:32:79:b1:27:f0:40:97:55:
         4d:68:82:d1:42:52:02:d5:3c:dd:73:1d:c3:06:61:93:68
-----BEGIN CERTIFICATE-----
MIIB+jCCAaCgAwIBAgIBKjAKBggqhkjOPQQDAjCBnTEaMBgGA1UEAwwRUmVnaW9u
ZSBMb21iYXJkaWExCzAJBgNVBAYTAklUMQ8wDQYDVQQIDAZJdGFsaWExGDAWBgNV
BAoMD0UtVm90aW5nIHN5c3RlbTEiMCAGA1UECwwZRS1Wb3Rpbmcgc3lzdGVtIGF1
dGhvcml0eTEjMCEGCSqGSIb3DQEJARYUTG9tYmFyZGlhQGV2b3RpbmcuaXQwHhcN
MjIwODI2MTUyMDU5WhcNMjMwODI2MTUyMDU5WjBNMREwDwYDVQQDDAhXaW5pZnJl
ZDELMAkGA1UEBhMCSVQxDzANBgNVBAgMBkl0YWxpYTEaMBgGA1UECgwRUmVnaW9u
ZSBMb21iYXJkaWEwVjAQBgcqhkjOPQIBBgUrgQQACgNCAARXzDX6FjFA01jw465Y
fGy3+C5TV+U956NezZ5LmmYyncUtquw6RSPfCVUt/vfIBwoq8BmEBz73dQ66JVCN
fD06oyMwITAOBgNVHQ8BAf8EBAMCBaAwDwYDVR0TAQH/BAUwAwIBAzAKBggqhkjO
PQQDAgNIADBFAiAbDeCp5zxim9PLm+5VuUHs8JnW8jPu5f4XVzof2zmhzgIhAIb3
LYTILWUyebEn8ECXVU1ogtFCUgLVPN1zHcMGYZNo
-----END CERTIFICATE-----
