Certificate:
    Data:
        Version: 3 (0x2)
        Serial Number: 36 (0x24)
        Signature Algorithm: ecdsa-with-SHA256
        Issuer: CN=Regione Puglia, C=IT, ST=Italia, O=E-Voting system, OU=E-Voting system authority/emailAddress=Puglia@evoting.it
        Validity
            Not Before: Aug  3 13:28:26 2022 GMT
            Not After : Aug  3 13:28:26 2023 GMT
        Subject: CN=Xavier, C=IT, ST=Italia, O=Regione Puglia
        Subject Public Key Info:
            Public Key Algorithm: id-ecPublicKey
                Public-Key: (256 bit)
                pub:
                    04:19:d2:19:e1:9a:96:46:cc:5e:0e:74:12:86:47:
                    4e:08:08:cf:25:36:4b:4a:c5:a9:9c:99:63:d5:33:
                    1c:6f:54:47:8c:1e:30:4b:5f:54:b8:d3:a6:e5:e3:
                    bc:99:f6:58:d8:92:8a:9b:00:05:fe:e5:99:bc:c0:
                    05:61:f2:40:f0
                ASN1 OID: prime256v1
                NIST CURVE: P-256
        X509v3 extensions:
            X509v3 Key Usage: critical
                Digital Signature, Key Encipherment
            X509v3 Basic Constraints: critical
                CA:FALSE, pathlen:3
    Signature Algorithm: ecdsa-with-SHA256
         30:46:02:21:00:ae:9b:55:bb:56:e7:e5:8f:f1:55:92:75:5b:
         01:81:57:47:24:cb:e0:da:5c:0d:06:9f:40:9c:91:5e:91:03:
         ac:02:21:00:b2:1a:db:9a:8c:70:dd:a9:88:ab:76:df:63:c3:
         7f:60:67:c8:b0:0c:6b:75:af:b8:56:47:e5:d4:97:f5:b2:10
-----BEGIN CERTIFICATE-----
MIIB8zCCAZigAwIBAgIBJDAKBggqhkjOPQQDAjCBlzEXMBUGA1UEAwwOUmVnaW9u
ZSBQdWdsaWExCzAJBgNVBAYTAklUMQ8wDQYDVQQIDAZJdGFsaWExGDAWBgNVBAoM
D0UtVm90aW5nIHN5c3RlbTEiMCAGA1UECwwZRS1Wb3Rpbmcgc3lzdGVtIGF1dGhv
cml0eTEgMB4GCSqGSIb3DQEJARYRUHVnbGlhQGV2b3RpbmcuaXQwHhcNMjIwODAz
MTMyODI2WhcNMjMwODAzMTMyODI2WjBIMQ8wDQYDVQQDDAZYYXZpZXIxCzAJBgNV
BAYTAklUMQ8wDQYDVQQIDAZJdGFsaWExFzAVBgNVBAoMDlJlZ2lvbmUgUHVnbGlh
MFkwEwYHKoZIzj0CAQYIKoZIzj0DAQcDQgAEGdIZ4ZqWRsxeDnQShkdOCAjPJTZL
SsWpnJlj1TMcb1RHjB4wS19UuNOm5eO8mfZY2JKKmwAF/uWZvMAFYfJA8KMjMCEw
DgYDVR0PAQH/BAQDAgWgMA8GA1UdEwEB/wQFMAMCAQMwCgYIKoZIzj0EAwIDSQAw
RgIhAK6bVbtW5+WP8VWSdVsBgVdHJMvg2lwNBp9AnJFekQOsAiEAshrbmoxw3amI
q3bfY8N/YGfIsAxrda+4Vkfl1Jf1shA=
-----END CERTIFICATE-----
