Certificate:
    Data:
        Version: 3 (0x2)
        Serial Number: 6 (0x6)
        Signature Algorithm: ecdsa-with-SHA256
        Issuer: CN=Regione Campania, C=IT, ST=Italia, O=E-Voting system, OU=E-Voting system authority/emailAddress=Campania@evoting.it
        Validity
            Not Before: Aug  3 13:25:50 2022 GMT
            Not After : Aug  3 13:25:50 2023 GMT
        Subject: CN=Yasmin, C=IT, ST=Italia, O=Regione Campania
        Subject Public Key Info:
            Public Key Algorithm: id-ecPublicKey
                Public-Key: (256 bit)
                pub:
                    04:5a:66:41:71:0f:d4:d5:0b:e0:16:1b:22:47:22:
                    f4:f2:d1:2d:2c:9d:0d:63:ab:08:09:4d:e4:17:c0:
                    0c:43:2e:b4:89:6f:ce:5e:f7:62:3d:ef:5b:42:a5:
                    11:fb:81:d1:07:90:73:f9:43:88:14:d2:91:0a:20:
                    62:31:28:07:a9
                ASN1 OID: prime256v1
                NIST CURVE: P-256
        X509v3 extensions:
            X509v3 Key Usage: critical
                Digital Signature, Key Encipherment
            X509v3 Basic Constraints: critical
                CA:FALSE, pathlen:3
    Signature Algorithm: ecdsa-with-SHA256
         30:46:02:21:00:94:1f:8d:57:13:7a:7e:0e:22:36:9b:a6:ed:
         7e:94:45:fd:e1:2c:a8:8b:04:6d:78:55:54:f9:f2:35:25:91:
         aa:02:21:00:d1:84:ec:10:7f:e7:f1:75:e8:ce:81:fb:57:cf:
         52:8c:fe:3c:e6:f1:68:6d:7a:12:ba:fe:56:66:6e:97:de:05
-----BEGIN CERTIFICATE-----
MIIB+TCCAZ6gAwIBAgIBBjAKBggqhkjOPQQDAjCBmzEZMBcGA1UEAwwQUmVnaW9u
ZSBDYW1wYW5pYTELMAkGA1UEBhMCSVQxDzANBgNVBAgMBkl0YWxpYTEYMBYGA1UE
CgwPRS1Wb3Rpbmcgc3lzdGVtMSIwIAYDVQQLDBlFLVZvdGluZyBzeXN0ZW0gYXV0
aG9yaXR5MSIwIAYJKoZIhvcNAQkBFhNDYW1wYW5pYUBldm90aW5nLml0MB4XDTIy
MDgwMzEzMjU1MFoXDTIzMDgwMzEzMjU1MFowSjEPMA0GA1UEAwwGWWFzbWluMQsw
CQYDVQQGEwJJVDEPMA0GA1UECAwGSXRhbGlhMRkwFwYDVQQKDBBSZWdpb25lIENh
bXBhbmlhMFkwEwYHKoZIzj0CAQYIKoZIzj0DAQcDQgAEWmZBcQ/U1QvgFhsiRyL0
8tEtLJ0NY6sICU3kF8AMQy60iW/OXvdiPe9bQqUR+4HRB5Bz+UOIFNKRCiBiMSgH
qaMjMCEwDgYDVR0PAQH/BAQDAgWgMA8GA1UdEwEB/wQFMAMCAQMwCgYIKoZIzj0E
AwIDSQAwRgIhAJQfjVcTen4OIjabpu1+lEX94SyoiwRteFVU+fI1JZGqAiEA0YTs
EH/n8XXozoH7V89SjP485vFobXoSuv5WZm6X3gU=
-----END CERTIFICATE-----
