Certificate:
    Data:
        Version: 3 (0x2)
        Serial Number: 9 (0x9)
        Signature Algorithm: ecdsa-with-SHA256
        Issuer: CN=Regione Emilia_Romagna, C=IT, ST=Italia, O=E-Voting system, OU=E-Voting system authority/emailAddress=Emilia_Romagna@evoting.it
        Validity
            Not Before: Aug  3 13:26:05 2022 GMT
            Not After : Aug  3 13:26:05 2023 GMT
        Subject: CN=Yesenia, C=IT, ST=Italia, O=Regione Emilia_Romagna
        Subject Public Key Info:
            Public Key Algorithm: id-ecPublicKey
                Public-Key: (256 bit)
                pub:
                    04:01:e0:50:5a:ed:a0:b5:d6:4e:73:a4:1d:8a:5c:
                    f6:81:a5:76:66:28:c3:96:66:36:00:ee:42:e1:37:
                    60:e5:87:ab:28:cc:e3:ef:90:f0:9b:16:28:ee:59:
                    79:4a:e4:b6:e0:7a:0a:13:e4:11:80:f5:0f:55:22:
                    c2:b3:4c:b7:f5
                ASN1 OID: prime256v1
                NIST CURVE: P-256
        X509v3 extensions:
            X509v3 Key Usage: critical
                Digital Signature, Key Encipherment
            X509v3 Basic Constraints: critical
                CA:FALSE, pathlen:3
    Signature Algorithm: ecdsa-with-SHA256
         30:45:02:20:57:ab:fd:b5:bc:8e:39:5b:27:38:e4:dd:23:cd:
         bd:7e:fb:32:f9:db:32:67:42:04:0a:ca:93:f2:7a:a2:74:44:
         02:21:00:9c:09:7b:06:98:be:fc:a5:dc:e2:fc:a4:18:32:c9:
         5a:8d:7d:6c:05:47:b6:8e:13:87:cd:f4:78:80:d4:f0:85
-----BEGIN CERTIFICATE-----
MIICCzCCAbGgAwIBAgIBCTAKBggqhkjOPQQDAjCBpzEfMB0GA1UEAwwWUmVnaW9u
ZSBFbWlsaWFfUm9tYWduYTELMAkGA1UEBhMCSVQxDzANBgNVBAgMBkl0YWxpYTEY
MBYGA1UECgwPRS1Wb3Rpbmcgc3lzdGVtMSIwIAYDVQQLDBlFLVZvdGluZyBzeXN0
ZW0gYXV0aG9yaXR5MSgwJgYJKoZIhvcNAQkBFhlFbWlsaWFfUm9tYWduYUBldm90
aW5nLml0MB4XDTIyMDgwMzEzMjYwNVoXDTIzMDgwMzEzMjYwNVowUTEQMA4GA1UE
AwwHWWVzZW5pYTELMAkGA1UEBhMCSVQxDzANBgNVBAgMBkl0YWxpYTEfMB0GA1UE
CgwWUmVnaW9uZSBFbWlsaWFfUm9tYWduYTBZMBMGByqGSM49AgEGCCqGSM49AwEH
A0IABAHgUFrtoLXWTnOkHYpc9oGldmYow5ZmNgDuQuE3YOWHqyjM4++Q8JsWKO5Z
eUrktuB6ChPkEYD1D1UiwrNMt/WjIzAhMA4GA1UdDwEB/wQEAwIFoDAPBgNVHRMB
Af8EBTADAgEDMAoGCCqGSM49BAMCA0gAMEUCIFer/bW8jjlbJzjk3SPNvX77Mvnb
MmdCBArKk/J6onREAiEAnAl7Bpi+/KXc4vykGDLJWo19bAVHto4Th830eIDU8IU=
-----END CERTIFICATE-----
