Certificate:
    Data:
        Version: 3 (0x2)
        Serial Number: 37 (0x25)
        Signature Algorithm: ecdsa-with-SHA256
        Issuer: CN=Regione Toscana, C=IT, ST=Italia, O=E-Voting system, OU=E-Voting system authority/emailAddress=Toscana@evoting.it
        Validity
            Not Before: Aug 26 15:21:08 2022 GMT
            Not After : Aug 26 15:21:08 2023 GMT
        Subject: CN=Yolanda, C=IT, ST=Italia, O=Regione Toscana
        Subject Public Key Info:
            Public Key Algorithm: id-ecPublicKey
                Public-Key: (256 bit)
                pub:
                    04:6f:31:b1:a9:0d:1b:de:b3:51:d0:e2:e9:dd:5a:
                    a9:bc:07:f2:60:04:c2:88:13:f7:5c:ac:8f:cf:2d:
                    01:aa:63:8f:af:06:ce:9e:e1:e8:45:b7:b9:d3:c9:
                    4a:7f:78:5b:c4:78:c6:1d:05:ba:ae:22:8b:7b:df:
                    2e:4b:2a:1b:f7
                ASN1 OID: secp256k1
        X509v3 extensions:
            X509v3 Key Usage: critical
                Digital Signature, Key Encipherment
            X509v3 Basic Constraints: critical
                CA:FALSE, pathlen:3
    Signature Algorithm: ecdsa-with-SHA256
         30:45:02:21:00:d9:b6:29:32:5a:ba:22:ee:8c:0a:d5:9e:47:
         42:f4:ab:54:fc:c2:7b:a3:02:27:1b:cf:01:ad:15:3d:0e:af:
         30:02:20:3b:88:d3:50:cb:83:43:aa:12:3d:af:2f:ee:05:78:
         12:1b:e6:e2:54:77:41:e1:3e:31:c3:86:5a:7d:ff:f0:77
-----BEGIN CERTIFICATE-----
MIIB8zCCAZmgAwIBAgIBJTAKBggqhkjOPQQDAjCBmTEYMBYGA1UEAwwPUmVnaW9u
ZSBUb3NjYW5hMQswCQYDVQQGEwJJVDEPMA0GA1UECAwGSXRhbGlhMRgwFgYDVQQK
DA9FLVZvdGluZyBzeXN0ZW0xIjAgBgNVBAsMGUUtVm90aW5nIHN5c3RlbSBhdXRo
b3JpdHkxITAfBgkqhkiG9w0BCQEWElRvc2NhbmFAZXZvdGluZy5pdDAeFw0yMjA4
MjYxNTIxMDhaFw0yMzA4MjYxNTIxMDhaMEoxEDAOBgNVBAMMB1lvbGFuZGExCzAJ
BgNVBAYTAklUMQ8wDQYDVQQIDAZJdGFsaWExGDAWBgNVBAoMD1JlZ2lvbmUgVG9z
Y2FuYTBWMBAGByqGSM49AgEGBSuBBAAKA0IABG8xsakNG96zUdDi6d1aqbwH8mAE
wogT91ysj88tAapjj68Gzp7h6EW3udPJSn94W8R4xh0Fuq4ii3vfLksqG/ejIzAh
MA4GA1UdDwEB/wQEAwIFoDAPBgNVHRMBAf8EBTADAgEDMAoGCCqGSM49BAMCA0gA
MEUCIQDZtikyWroi7owK1Z5HQvSrVPzCe6MCJxvPAa0VPQ6vMAIgO4jTUMuDQ6oS
Pa8v7gV4Ehvm4lR3QeE+McOGWn3/8Hc=
-----END CERTIFICATE-----
