Certificate:
    Data:
        Version: 3 (0x2)
        Serial Number: 46 (0x2e)
        Signature Algorithm: ecdsa-with-SHA256
        Issuer: CN=Regione Valle_d_Aosta, C=IT, ST=Italia, O=E-Voting system, OU=E-Voting system authority/emailAddress=Valle_d_Aosta@evoting.it
        Validity
            Not Before: Aug  3 13:28:18 2022 GMT
            Not After : Aug  3 13:28:18 2023 GMT
        Subject: CN=Yolando, C=IT, ST=Italia, O=Regione Valle_d_Aosta
        Subject Public Key Info:
            Public Key Algorithm: id-ecPublicKey
                Public-Key: (256 bit)
                pub:
                    04:3d:ae:1a:46:08:93:6b:9b:43:3f:5a:60:c7:2a:
                    3a:51:6a:ed:60:99:cc:32:6d:20:ed:24:63:7e:14:
                    44:c1:5c:d5:45:5d:9a:35:3c:84:e8:bf:76:47:b4:
                    d6:5b:0d:3e:73:64:77:1d:02:2e:10:a5:74:b1:01:
                    b7:20:f4:bf:31
                ASN1 OID: prime256v1
                NIST CURVE: P-256
        X509v3 extensions:
            X509v3 Key Usage: critical
                Digital Signature, Key Encipherment
            X509v3 Basic Constraints: critical
                CA:FALSE, pathlen:3
    Signature Algorithm: ecdsa-with-SHA256
         30:45:02:21:00:c5:21:2d:10:6d:93:2c:20:2b:6e:1c:2a:90:
         f8:74:0c:93:8a:0f:f2:67:de:fa:5e:26:7b:88:de:d3:60:27:
         34:02:20:22:b9:b4:b3:e3:ae:ec:61:aa:e0:d9:ff:a9:36:19:
         48:8f:c6:4d:15:85:bb:ee:0f:e1:29:61:9b:b9:e1:21:01
-----BEGIN CERTIFICATE-----
MIICCDCCAa6gAwIBAgIBLjAKBggqhkjOPQQDAjCBpTEeMBwGA1UEAwwVUmVnaW9u
ZSBWYWxsZV9kX0Fvc3RhMQswCQYDVQQGEwJJVDEPMA0GA1UECAwGSXRhbGlhMRgw
FgYDVQQKDA9FLVZvdGluZyBzeXN0ZW0xIjAgBgNVBAsMGUUtVm90aW5nIHN5c3Rl
bSBhdXRob3JpdHkxJzAlBgkqhkiG9w0BCQEWGFZhbGxlX2RfQW9zdGFAZXZvdGlu
Zy5pdDAeFw0yMjA4MDMxMzI4MThaFw0yMzA4MDMxMzI4MThaMFAxEDAOBgNVBAMM
B1lvbGFuZG8xCzAJBgNVBAYTAklUMQ8wDQYDVQQIDAZJdGFsaWExHjAcBgNVBAoM
FVJlZ2lvbmUgVmFsbGVfZF9Bb3N0YTBZMBMGByqGSM49AgEGCCqGSM49AwEHA0IA
BD2uGkYIk2ubQz9aYMcqOlFq7WCZzDJtIO0kY34URMFc1UVdmjU8hOi/dke01lsN
PnNkdx0CLhCldLEBtyD0vzGjIzAhMA4GA1UdDwEB/wQEAwIFoDAPBgNVHRMBAf8E
BTADAgEDMAoGCCqGSM49BAMCA0gAMEUCIQDFIS0QbZMsICtuHCqQ+HQMk4oP8mfe
+l4me4je02AnNAIgIrm0s+Ou7GGq4Nn/qTYZSI/GTRWFu+4P4Slhm7nhIQE=
-----END CERTIFICATE-----
