Certificate:
    Data:
        Version: 3 (0x2)
        Serial Number: 50 (0x32)
        Signature Algorithm: ecdsa-with-SHA256
        Issuer: CN=Regione Umbria, C=IT, ST=Italia, O=E-Voting system, OU=E-Voting system authority/emailAddress=Umbria@evoting.it
        Validity
            Not Before: Aug 26 15:21:31 2022 GMT
            Not After : Aug 26 15:21:31 2023 GMT
        Subject: CN=Yvonne, C=IT, ST=Italia, O=Regione Umbria
        Subject Public Key Info:
            Public Key Algorithm: id-ecPublicKey
                Public-Key: (256 bit)
                pub:
                    04:82:dc:6b:df:76:30:68:a2:b5:e2:b7:a3:0b:00:
                    19:dc:fe:44:ba:e4:b9:9d:f5:9c:c7:bf:53:5d:fe:
                    11:49:a3:97:8b:b2:d6:46:1c:ba:e5:c3:d2:a1:b7:
                    51:2e:9e:c4:c1:24:11:c5:b1:48:60:7c:5d:60:60:
                    fb:6c:6c:01:a3
                ASN1 OID: secp256k1
        X509v3 extensions:
            X509v3 Key Usage: critical
                Digital Signature, Key Encipherment
            X509v3 Basic Constraints: critical
                CA:FALSE, pathlen:3
    Signature Algorithm: ecdsa-with-SHA256
         30:44:02:20:5c:3f:5e:64:84:f6:64:da:dd:8e:54:57:85:e1:
         27:de:f4:86:1d:6b:71:2e:14:aa:e1:36:ae:ee:bb:24:ca:4f:
         02:20:05:2a:6b:eb:e8:c4:ac:f8:74:66:3d:8d:57:40:0f:de:
         f4:aa:4d:8c:b4:fd:f4:1d:ef:23:49:60:1e:a6:97:99
-----BEGIN CERTIFICATE-----
MIIB7jCCAZWgAwIBAgIBMjAKBggqhkjOPQQDAjCBlzEXMBUGA1UEAwwOUmVnaW9u
ZSBVbWJyaWExCzAJBgNVBAYTAklUMQ8wDQYDVQQIDAZJdGFsaWExGDAWBgNVBAoM
D0UtVm90aW5nIHN5c3RlbTEiMCAGA1UECwwZRS1Wb3Rpbmcgc3lzdGVtIGF1dGhv
cml0eTEgMB4GCSqGSIb3DQEJARYRVW1icmlhQGV2b3RpbmcuaXQwHhcNMjIwODI2
MTUyMTMxWhcNMjMwODI2MTUyMTMxWjBIMQ8wDQYDVQQDDAZZdm9ubmUxCzAJBgNV
BAYTAklUMQ8wDQYDVQQIDAZJdGFsaWExFzAVBgNVBAoMDlJlZ2lvbmUgVW1icmlh
MFYwEAYHKoZIzj0CAQYFK4EEAAoDQgAEgtxr33YwaKK14rejCwAZ3P5EuuS5nfWc
x79TXf4RSaOXi7LWRhy65cPSobdRLp7EwSQRxbFIYHxdYGD7bGwBo6MjMCEwDgYD
VR0PAQH/BAQDAgWgMA8GA1UdEwEB/wQFMAMCAQMwCgYIKoZIzj0EAwIDRwAwRAIg
XD9eZIT2ZNrdjlRXheEn3vSGHWtxLhSq4Tau7rskyk8CIAUqa+voxKz4dGY9jVdA
D970qk2MtP30He8jSWAeppeZ
-----END CERTIFICATE-----
