Certificate:
    Data:
        Version: 3 (0x2)
        Serial Number: 8 (0x8)
        Signature Algorithm: ecdsa-with-SHA256
        Issuer: CN=Regione Piemonte, C=IT, ST=Italia, O=E-Voting system, OU=E-Voting system authority/emailAddress=Piemonte@evoting.it
        Validity
            Not Before: Aug  3 13:25:52 2022 GMT
            Not After : Aug  3 13:25:52 2023 GMT
        Subject: CN=Zachary, C=IT, ST=Italia, O=Regione Piemonte
        Subject Public Key Info:
            Public Key Algorithm: id-ecPublicKey
                Public-Key: (256 bit)
                pub:
                    04:d3:dd:3a:0c:cd:04:91:e5:b2:2f:5e:1f:a4:77:
                    2d:a4:78:92:6c:c2:d1:fc:12:42:bf:ab:0c:67:17:
                    f1:c7:e7:56:da:95:a1:df:62:ea:02:81:67:19:fd:
                    4e:b7:34:d0:20:df:56:c7:67:51:e2:f9:3d:af:0b:
                    1d:af:33:4c:19
                ASN1 OID: prime256v1
                NIST CURVE: P-256
        X509v3 extensions:
            X509v3 Key Usage: critical
                Digital Signature, Key Encipherment
            X509v3 Basic Constraints: critical
                CA:FALSE, pathlen:3
    Signature Algorithm: ecdsa-with-SHA256
         30:46:02:21:00:ba:c3:3b:7b:36:f5:67:bb:03:59:c7:ac:53:
         a7:86:66:8c:29:20:02:8d:50:4e:3d:d4:f4:d3:ac:50:65:a9:
         55:02:21:00:ba:fb:2e:93:eb:be:7a:d5:53:a4:6a:69:77:06:
         36:6d:93:ba:1b:c6:f3:83:51:de:24:47:f8:b9:69:fa:09:85
-----BEGIN CERTIFICATE-----
MIIB+jCCAZ+gAwIBAgIBCDAKBggqhkjOPQQDAjCBmzEZMBcGA1UEAwwQUmVnaW9u
ZSBQaWVtb250ZTELMAkGA1UEBhMCSVQxDzANBgNVBAgMBkl0YWxpYTEYMBYGA1UE
CgwPRS1Wb3Rpbmcgc3lzdGVtMSIwIAYDVQQLDBlFLVZvdGluZyBzeXN0ZW0gYXV0
aG9yaXR5MSIwIAYJKoZIhvcNAQkBFhNQaWVtb250ZUBldm90aW5nLml0MB4XDTIy
MDgwMzEzMjU1MloXDTIzMDgwMzEzMjU1MlowSzEQMA4GA1UEAwwHWmFjaGFyeTEL
MAkGA1UEBhMCSVQxDzANBgNVBAgMBkl0YWxpYTEZMBcGA1UECgwQUmVnaW9uZSBQ
aWVtb250ZTBZMBMGByqGSM49AgEGCCqGSM49AwEHA0IABNPdOgzNBJHlsi9eH6R3
LaR4kmzC0fwSQr+rDGcX8cfnVtqVod9i6gKBZxn9Trc00CDfVsdnUeL5Pa8LHa8z
TBmjIzAhMA4GA1UdDwEB/wQEAwIFoDAPBgNVHRMBAf8EBTADAgEDMAoGCCqGSM49
BAMCA0kAMEYCIQC6wzt7NvVnuwNZx6xTp4ZmjCkgAo1QTj3U9NOsUGWpVQIhALr7
LpPrvnrVU6RqaXcGNm2TuhvG84NR3iRH+Llp+gmF
-----END CERTIFICATE-----
