Certificate:
    Data:
        Version: 3 (0x2)
        Serial Number: 15 (0xf)
        Signature Algorithm: ecdsa-with-SHA256
        Issuer: CN=Regione Basilicata, C=IT, ST=Italia, O=E-Voting system, OU=E-Voting system authority/emailAddress=Basilicata@evoting.it
        Validity
            Not Before: Aug  3 13:26:16 2022 GMT
            Not After : Aug  3 13:26:16 2023 GMT
        Subject: CN=Zella, C=IT, ST=Italia, O=Regione Basilicata
        Subject Public Key Info:
            Public Key Algorithm: id-ecPublicKey
                Public-Key: (256 bit)
                pub:
                    04:be:36:a0:f1:e5:fe:fb:56:50:71:26:30:b4:a2:
                    8b:9d:90:97:0d:53:19:9d:e7:46:ce:5f:60:f1:b1:
                    a1:27:f4:2b:5b:82:74:3e:bd:b2:d3:68:1c:1e:cf:
                    b8:12:18:7b:4e:8c:b2:4a:e1:3f:0a:10:39:c0:d2:
                    99:16:1d:35:41
                ASN1 OID: prime256v1
                NIST CURVE: P-256
        X509v3 extensions:
            X509v3 Key Usage: critical
                Digital Signature, Key Encipherment
            X509v3 Basic Constraints: critical
                CA:FALSE, pathlen:3
    Signature Algorithm: ecdsa-with-SHA256
         30:44:02:20:6a:fb:2d:c2:74:24:f1:d2:c8:6b:dc:82:3a:5e:
         2e:63:ed:1f:d9:5e:cb:d3:b5:22:03:1f:c4:af:fb:6d:5b:c4:
         02:20:7f:fc:8e:87:cc:1e:ab:69:1c:02:32:c8:63:c7:0f:42:
         67:d0:61:3f:19:a3:8a:41:86:c9:5a:4f:20:11:e5:3c
-----BEGIN CERTIFICATE-----
MIIB/DCCAaOgAwIBAgIBDzAKBggqhkjOPQQDAjCBnzEbMBkGA1UEAwwSUmVnaW9u
ZSBCYXNpbGljYXRhMQswCQYDVQQGEwJJVDEPMA0GA1UECAwGSXRhbGlhMRgwFgYD
VQQKDA9FLVZvdGluZyBzeXN0ZW0xIjAgBgNVBAsMGUUtVm90aW5nIHN5c3RlbSBh
dXRob3JpdHkxJDAiBgkqhkiG9w0BCQEWFUJhc2lsaWNhdGFAZXZvdGluZy5pdDAe
Fw0yMjA4MDMxMzI2MTZaFw0yMzA4MDMxMzI2MTZaMEsxDjAMBgNVBAMMBVplbGxh
MQswCQYDVQQGEwJJVDEPMA0GA1UECAwGSXRhbGlhMRswGQYDVQQKDBJSZWdpb25l
IEJhc2lsaWNhdGEwWTATBgcqhkjOPQIBBggqhkjOPQMBBwNCAAS+NqDx5f77VlBx
JjC0ooudkJcNUxmd50bOX2DxsaEn9CtbgnQ+vbLTaBwez7gSGHtOjLJK4T8KEDnA
0pkWHTVBoyMwITAOBgNVHQ8BAf8EBAMCBaAwDwYDVR0TAQH/BAUwAwIBAzAKBggq
hkjOPQQDAgNHADBEAiBq+y3CdCTx0shr3II6Xi5j7R/ZXsvTtSIDH8Sv+21bxAIg
f/yOh8weq2kcAjLIY8cPQmfQYT8Zo4pBhslaTyAR5Tw=
-----END CERTIFICATE-----
