Certificate:
    Data:
        Version: 3 (0x2)
        Serial Number: 1 (0x1)
        Signature Algorithm: ecdsa-with-SHA256
        Issuer: CN=Ministero dellInterno, C=IT, ST=Italia, L=ROMA, O=E-Voting system, OU=E-Voting system authority/emailAddress=ministero@evoting.it
        Validity
            Not Before: Aug  3 13:24:14 2022 GMT
            Not After : Aug  3 13:24:14 2023 GMT
        Subject: CN=Regione Basilicata, C=IT, ST=Italia, O=E-Voting system, OU=E-Voting system authority/emailAddress=Basilicata@evoting.it
        Subject Public Key Info:
            Public Key Algorithm: id-ecPublicKey
                Public-Key: (256 bit)
                pub:
                    04:30:39:3e:2c:3f:b1:91:5c:13:35:b9:b6:80:54:
                    32:58:f6:27:31:d5:cc:6d:6d:41:62:25:33:19:03:
                    a4:f5:90:a4:84:25:c9:a1:fd:49:5b:2c:ed:f2:51:
                    37:e5:38:03:8f:29:4c:be:9c:9a:70:a2:ec:8d:11:
                    07:56:12:74:a8
                ASN1 OID: prime256v1
                NIST CURVE: P-256
        X509v3 extensions:
            X509v3 Key Usage: critical
                Digital Signature, Key Encipherment
            X509v3 Basic Constraints: critical
                CA:TRUE, pathlen:2
    Signature Algorithm: ecdsa-with-SHA256
         30:44:02:20:6e:24:11:b4:21:ba:8e:e7:c7:6c:fe:81:15:22:
         48:ee:ec:66:45:a9:3c:29:bc:33:73:de:a6:59:cf:8a:f4:15:
         02:20:0f:77:82:ab:c8:bf:07:b7:db:84:fb:dc:70:68:40:6d:
         5c:5a:bd:f5:72:1e:4e:08:3a:a3:26:14:fc:fe:d5:9b
-----BEGIN CERTIFICATE-----
MIICZTCCAgygAwIBAgIBATAKBggqhkjOPQQDAjCBsDEeMBwGA1UEAwwVTWluaXN0
ZXJvIGRlbGxJbnRlcm5vMQswCQYDVQQGEwJJVDEPMA0GA1UECAwGSXRhbGlhMQ0w
CwYDVQQHDARST01BMRgwFgYDVQQKDA9FLVZvdGluZyBzeXN0ZW0xIjAgBgNVBAsM
GUUtVm90aW5nIHN5c3RlbSBhdXRob3JpdHkxIzAhBgkqhkiG9w0BCQEWFG1pbmlz
dGVyb0Bldm90aW5nLml0MB4XDTIyMDgwMzEzMjQxNFoXDTIzMDgwMzEzMjQxNFow
gZ8xGzAZBgNVBAMMElJlZ2lvbmUgQmFzaWxpY2F0YTELMAkGA1UEBhMCSVQxDzAN
BgNVBAgMBkl0YWxpYTEYMBYGA1UECgwPRS1Wb3Rpbmcgc3lzdGVtMSIwIAYDVQQL
DBlFLVZvdGluZyBzeXN0ZW0gYXV0aG9yaXR5MSQwIgYJKoZIhvcNAQkBFhVCYXNp
bGljYXRhQGV2b3RpbmcuaXQwWTATBgcqhkjOPQIBBggqhkjOPQMBBwNCAAQwOT4s
P7GRXBM1ubaAVDJY9icx1cxtbUFiJTMZA6T1kKSEJcmh/UlbLO3yUTflOAOPKUy+
nJpwouyNEQdWEnSooyYwJDAOBgNVHQ8BAf8EBAMCBaAwEgYDVR0TAQH/BAgwBgEB
/wIBAjAKBggqhkjOPQQDAgNHADBEAiBuJBG0IbqO58ds/oEVIkju7GZFqTwpvDNz
3qZZz4r0FQIgD3eCq8i/B7fbhPvccGhAbVxavfVyHk4IOqMmFPz+1Zs=
-----END CERTIFICATE-----
