Certificate:
    Data:
        Version: 3 (0x2)
        Serial Number: 1 (0x1)
        Signature Algorithm: ecdsa-with-SHA256
        Issuer: CN=Ministero dellInterno, C=IT, ST=Italia, L=ROMA, O=E-Voting system, OU=E-Voting system authority/emailAddress=ministero@evoting.it
        Validity
            Not Before: Aug 26 15:16:46 2022 GMT
            Not After : Aug 26 15:16:46 2023 GMT
        Subject: CN=Regione Lombardia, C=IT, ST=Italia, O=E-Voting system, OU=E-Voting system authority/emailAddress=Lombardia@evoting.it
        Subject Public Key Info:
            Public Key Algorithm: id-ecPublicKey
                Public-Key: (256 bit)
                pub:
                    04:6a:85:15:ea:45:d5:ee:8c:ff:72:f2:28:4c:b1:
                    8c:24:fb:f2:95:3c:22:72:43:62:e0:b2:bb:51:58:
                    2b:bf:8b:01:81:65:dd:a7:65:b7:b0:41:7c:ac:8b:
                    8e:6d:d1:78:be:74:77:07:98:cc:66:a3:72:0d:5f:
                    fc:f4:14:0b:ca
                ASN1 OID: secp256k1
        X509v3 extensions:
            X509v3 Key Usage: critical
                Digital Signature, Key Encipherment
            X509v3 Basic Constraints: critical
                CA:TRUE, pathlen:2
    Signature Algorithm: ecdsa-with-SHA256
         30:44:02:20:70:14:0f:f0:07:32:bf:e2:db:a0:91:b7:18:0c:
         85:6c:68:95:54:e9:8b:76:11:d9:48:df:f9:4b:17:80:8a:88:
         02:20:38:a3:53:26:d4:b0:0e:19:cd:2a:d6:7a:7f:e3:29:ac:
         8f:02:8b:c2:89:cc:79:f8:80:ef:0d:17:f2:49:dc:37
-----BEGIN CERTIFICATE-----
MIICYDCCAgegAwIBAgIBATAKBggqhkjOPQQDAjCBsDEeMBwGA1UEAwwVTWluaXN0
ZXJvIGRlbGxJbnRlcm5vMQswCQYDVQQGEwJJVDEPMA0GA1UECAwGSXRhbGlhMQ0w
CwYDVQQHDARST01BMRgwFgYDVQQKDA9FLVZvdGluZyBzeXN0ZW0xIjAgBgNVBAsM
GUUtVm90aW5nIHN5c3RlbSBhdXRob3JpdHkxIzAhBgkqhkiG9w0BCQEWFG1pbmlz
dGVyb0Bldm90aW5nLml0MB4XDTIyMDgyNjE1MTY0NloXDTIzMDgyNjE1MTY0Nlow
gZ0xGjAYBgNVBAMMEVJlZ2lvbmUgTG9tYmFyZGlhMQswCQYDVQQGEwJJVDEPMA0G
A1UECAwGSXRhbGlhMRgwFgYDVQQKDA9FLVZvdGluZyBzeXN0ZW0xIjAgBgNVBAsM
GUUtVm90aW5nIHN5c3RlbSBhdXRob3JpdHkxIzAhBgkqhkiG9w0BCQEWFExvbWJh
cmRpYUBldm90aW5nLml0MFYwEAYHKoZIzj0CAQYFK4EEAAoDQgAEaoUV6kXV7oz/
cvIoTLGMJPvylTwickNi4LK7UVgrv4sBgWXdp2W3sEF8rIuObdF4vnR3B5jMZqNy
DV/89BQLyqMmMCQwDgYDVR0PAQH/BAQDAgWgMBIGA1UdEwEB/wQIMAYBAf8CAQIw
CgYIKoZIzj0EAwIDRwAwRAIgcBQP8Acyv+LboJG3GAyFbGiVVOmLdhHZSN/5SxeA
iogCIDijUybUsA4ZzSrWen/jKayPAovCicx5+IDvDRfySdw3
-----END CERTIFICATE-----
