Certificate:
    Data:
        Version: 3 (0x2)
        Serial Number: 4 (0x4)
        Signature Algorithm: ecdsa-with-SHA256
        Issuer: CN=Ministero dellInterno, C=IT, ST=Italia, L=ROMA, O=E-Voting system, OU=E-Voting system authority/emailAddress=ministero@evoting.it
        Validity
            Not Before: Aug  3 13:24:15 2022 GMT
            Not After : Aug  3 13:24:15 2023 GMT
        Subject: CN=Regione Lombardia, C=IT, ST=Italia, O=E-Voting system, OU=E-Voting system authority/emailAddress=Lombardia@evoting.it
        Subject Public Key Info:
            Public Key Algorithm: id-ecPublicKey
                Public-Key: (256 bit)
                pub:
                    04:d6:b6:5f:a3:d5:8d:1a:4b:ba:34:df:0e:64:0e:
                    a6:60:ff:a2:d1:de:b9:b6:b5:b8:22:92:63:5c:90:
                    29:79:65:c7:ed:1c:b0:6c:10:2d:dd:84:1c:30:07:
                    65:eb:4c:75:ad:35:a1:06:b6:1d:2d:c8:24:3c:9f:
                    98:7e:ca:86:80
                ASN1 OID: prime256v1
                NIST CURVE: P-256
        X509v3 extensions:
            X509v3 Key Usage: critical
                Digital Signature, Key Encipherment
            X509v3 Basic Constraints: critical
                CA:TRUE, pathlen:2
    Signature Algorithm: ecdsa-with-SHA256
         30:44:02:20:77:ac:75:4b:8f:c1:30:81:f7:81:95:04:0f:fe:
         58:39:64:22:68:01:69:d1:4f:68:ac:ee:5f:02:ef:39:27:58:
         02:20:67:fb:b1:32:35:85:a2:88:dc:cf:95:02:ee:f9:d4:90:
         bf:34:be:3e:d0:1c:7d:19:f8:b9:8e:76:29:4d:6b:bd
-----BEGIN CERTIFICATE-----
MIICYzCCAgqgAwIBAgIBBDAKBggqhkjOPQQDAjCBsDEeMBwGA1UEAwwVTWluaXN0
ZXJvIGRlbGxJbnRlcm5vMQswCQYDVQQGEwJJVDEPMA0GA1UECAwGSXRhbGlhMQ0w
CwYDVQQHDARST01BMRgwFgYDVQQKDA9FLVZvdGluZyBzeXN0ZW0xIjAgBgNVBAsM
GUUtVm90aW5nIHN5c3RlbSBhdXRob3JpdHkxIzAhBgkqhkiG9w0BCQEWFG1pbmlz
dGVyb0Bldm90aW5nLml0MB4XDTIyMDgwMzEzMjQxNVoXDTIzMDgwMzEzMjQxNVow
gZ0xGjAYBgNVBAMMEVJlZ2lvbmUgTG9tYmFyZGlhMQswCQYDVQQGEwJJVDEPMA0G
A1UECAwGSXRhbGlhMRgwFgYDVQQKDA9FLVZvdGluZyBzeXN0ZW0xIjAgBgNVBAsM
GUUtVm90aW5nIHN5c3RlbSBhdXRob3JpdHkxIzAhBgkqhkiG9w0BCQEWFExvbWJh
cmRpYUBldm90aW5nLml0MFkwEwYHKoZIzj0CAQYIKoZIzj0DAQcDQgAE1rZfo9WN
Gku6NN8OZA6mYP+i0d65trW4IpJjXJApeWXH7RywbBAt3YQcMAdl60x1rTWhBrYd
LcgkPJ+YfsqGgKMmMCQwDgYDVR0PAQH/BAQDAgWgMBIGA1UdEwEB/wQIMAYBAf8C
AQIwCgYIKoZIzj0EAwIDRwAwRAIgd6x1S4/BMIH3gZUED/5YOWQiaAFp0U9orO5f
Au85J1gCIGf7sTI1haKI3M+VAu751JC/NL4+0Bx9Gfi5jnYpTWu9
-----END CERTIFICATE-----
