Certificate:
    Data:
        Version: 3 (0x2)
        Serial Number: 4 (0x4)
        Signature Algorithm: ecdsa-with-SHA256
        Issuer: CN=Ministero dellInterno, C=IT, ST=Italia, L=ROMA, O=E-Voting system, OU=E-Voting system authority/emailAddress=ministero@evoting.it
        Validity
            Not Before: Aug 26 15:16:47 2022 GMT
            Not After : Aug 26 15:16:47 2023 GMT
        Subject: CN=Regione Umbria, C=IT, ST=Italia, O=E-Voting system, OU=E-Voting system authority/emailAddress=Umbria@evoting.it
        Subject Public Key Info:
            Public Key Algorithm: id-ecPublicKey
                Public-Key: (256 bit)
                pub:
                    04:42:20:8a:32:8f:03:b5:e6:e2:a7:ad:d2:b3:03:
                    2b:0d:3b:9f:0c:f8:97:90:ab:a7:78:6f:21:d4:67:
                    ff:51:f1:11:ed:ee:7c:a2:7d:46:e6:5c:2d:a5:a6:
                    5c:82:8d:75:24:f5:88:c7:2f:8f:2b:bb:d0:5a:67:
                    2f:f2:c0:18:72
                ASN1 OID: secp256k1
        X509v3 extensions:
            X509v3 Key Usage: critical
                Digital Signature, Key Encipherment
            X509v3 Basic Constraints: critical
                CA:TRUE, pathlen:2
    Signature Algorithm: ecdsa-with-SHA256
         30:44:02:20:6c:9e:ca:45:11:49:d8:41:08:32:a1:04:6c:32:
         ad:a6:5f:9b:7c:24:f8:c5:39:84:f5:0b:2c:db:f1:b3:9f:8a:
         02:20:5e:21:b9:f5:fe:7a:a0:fc:9d:ad:94:44:60:0a:23:7b:
         c7:fa:53:ee:35:85:3d:8a:c5:22:3e:cb:71:5d:63:c8
-----BEGIN CERTIFICATE-----
MIICWjCCAgGgAwIBAgIBBDAKBggqhkjOPQQDAjCBsDEeMBwGA1UEAwwVTWluaXN0
ZXJvIGRlbGxJbnRlcm5vMQswCQYDVQQGEwJJVDEPMA0GA1UECAwGSXRhbGlhMQ0w
CwYDVQQHDARST01BMRgwFgYDVQQKDA9FLVZvdGluZyBzeXN0ZW0xIjAgBgNVBAsM
GUUtVm90aW5nIHN5c3RlbSBhdXRob3JpdHkxIzAhBgkqhkiG9w0BCQEWFG1pbmlz
dGVyb0Bldm90aW5nLml0MB4XDTIyMDgyNjE1MTY0N1oXDTIzMDgyNjE1MTY0N1ow
gZcxFzAVBgNVBAMMDlJlZ2lvbmUgVW1icmlhMQswCQYDVQQGEwJJVDEPMA0GA1UE
CAwGSXRhbGlhMRgwFgYDVQQKDA9FLVZvdGluZyBzeXN0ZW0xIjAgBgNVBAsMGUUt
Vm90aW5nIHN5c3RlbSBhdXRob3JpdHkxIDAeBgkqhkiG9w0BCQEWEVVtYnJpYUBl
dm90aW5nLml0MFYwEAYHKoZIzj0CAQYFK4EEAAoDQgAEQiCKMo8Dtebip63SswMr
DTufDPiXkKuneG8h1Gf/UfER7e58on1G5lwtpaZcgo11JPWIxy+PK7vQWmcv8sAY
cqMmMCQwDgYDVR0PAQH/BAQDAgWgMBIGA1UdEwEB/wQIMAYBAf8CAQIwCgYIKoZI
zj0EAwIDRwAwRAIgbJ7KRRFJ2EEIMqEEbDKtpl+bfCT4xTmE9Qss2/Gzn4oCIF4h
ufX+eqD8na2URGAKI3vH+lPuNYU9isUiPstxXWPI
-----END CERTIFICATE-----
