Certificate:
    Data:
        Version: 3 (0x2)
        Serial Number: 5 (0x5)
        Signature Algorithm: ecdsa-with-SHA256
        Issuer: CN=Ministero dellInterno, C=IT, ST=Italia, L=ROMA, O=E-Voting system, OU=E-Voting system authority/emailAddress=ministero@evoting.it
        Validity
            Not Before: Aug  3 13:24:15 2022 GMT
            Not After : Aug  3 13:24:15 2023 GMT
        Subject: CN=Regione Umbria, C=IT, ST=Italia, O=E-Voting system, OU=E-Voting system authority/emailAddress=Umbria@evoting.it
        Subject Public Key Info:
            Public Key Algorithm: id-ecPublicKey
                Public-Key: (256 bit)
                pub:
                    04:78:9b:6b:1c:9c:4f:f6:4b:b3:53:a4:5c:58:ab:
                    97:93:f3:8f:32:5e:2c:09:ab:e5:1d:5b:b7:d9:12:
                    bd:a9:34:f7:7e:a5:1c:2e:4c:1d:36:62:16:42:15:
                    77:b5:58:f3:95:18:f2:aa:a3:09:28:c2:d0:92:7f:
                    2b:07:f3:e4:e7
                ASN1 OID: prime256v1
                NIST CURVE: P-256
        X509v3 extensions:
            X509v3 Key Usage: critical
                Digital Signature, Key Encipherment
            X509v3 Basic Constraints: critical
                CA:TRUE, pathlen:2
    Signature Algorithm: ecdsa-with-SHA256
         30:45:02:20:29:7f:ce:b4:d4:18:50:76:f0:6b:92:ae:09:aa:
         86:3f:d6:fc:63:a7:13:a1:1b:70:29:82:b2:f0:4c:0a:70:2f:
         02:21:00:ce:7d:54:f1:f3:f9:64:48:1c:cf:e9:a8:8c:40:9f:
         42:3f:52:6c:3f:ac:1d:1f:a3:52:69:27:79:8e:54:4a:63
-----BEGIN CERTIFICATE-----
MIICXjCCAgSgAwIBAgIBBTAKBggqhkjOPQQDAjCBsDEeMBwGA1UEAwwVTWluaXN0
ZXJvIGRlbGxJbnRlcm5vMQswCQYDVQQGEwJJVDEPMA0GA1UECAwGSXRhbGlhMQ0w
CwYDVQQHDARST01BMRgwFgYDVQQKDA9FLVZvdGluZyBzeXN0ZW0xIjAgBgNVBAsM
GUUtVm90aW5nIHN5c3RlbSBhdXRob3JpdHkxIzAhBgkqhkiG9w0BCQEWFG1pbmlz
dGVyb0Bldm90aW5nLml0MB4XDTIyMDgwMzEzMjQxNVoXDTIzMDgwMzEzMjQxNVow
gZcxFzAVBgNVBAMMDlJlZ2lvbmUgVW1icmlhMQswCQYDVQQGEwJJVDEPMA0GA1UE
CAwGSXRhbGlhMRgwFgYDVQQKDA9FLVZvdGluZyBzeXN0ZW0xIjAgBgNVBAsMGUUt
Vm90aW5nIHN5c3RlbSBhdXRob3JpdHkxIDAeBgkqhkiG9w0BCQEWEVVtYnJpYUBl
dm90aW5nLml0MFkwEwYHKoZIzj0CAQYIKoZIzj0DAQcDQgAEeJtrHJxP9kuzU6Rc
WKuXk/OPMl4sCavlHVu32RK9qTT3fqUcLkwdNmIWQhV3tVjzlRjyqqMJKMLQkn8r
B/Pk56MmMCQwDgYDVR0PAQH/BAQDAgWgMBIGA1UdEwEB/wQIMAYBAf8CAQIwCgYI
KoZIzj0EAwIDSAAwRQIgKX/OtNQYUHbwa5KuCaqGP9b8Y6cToRtwKYKy8EwKcC8C
IQDOfVTx8/lkSBzP6aiMQJ9CP1JsP6wdH6NSaSd5jlRKYw==
-----END CERTIFICATE-----
