Certificate:
    Data:
        Version: 3 (0x2)
        Serial Number: 6 (0x6)
        Signature Algorithm: ecdsa-with-SHA256
        Issuer: CN=Ministero dellInterno, C=IT, ST=Italia, L=ROMA, O=E-Voting system, OU=E-Voting system authority/emailAddress=ministero@evoting.it
        Validity
            Not Before: Aug  3 13:24:15 2022 GMT
            Not After : Aug  3 13:24:15 2023 GMT
        Subject: CN=Regione Toscana, C=IT, ST=Italia, O=E-Voting system, OU=E-Voting system authority/emailAddress=Toscana@evoting.it
        Subject Public Key Info:
            Public Key Algorithm: id-ecPublicKey
                Public-Key: (256 bit)
                pub:
                    04:8b:a4:a3:2b:66:7e:07:47:c4:aa:9d:b7:8c:5a:
                    9c:7b:5e:e7:63:49:96:55:39:72:38:17:ab:50:fe:
                    29:04:e8:13:50:03:5a:10:cc:d7:6f:a6:ed:75:81:
                    a2:0b:d7:d8:2d:12:fd:18:da:63:8c:4d:e2:dc:5f:
                    b5:a2:bd:3f:d3
                ASN1 OID: prime256v1
                NIST CURVE: P-256
        X509v3 extensions:
            X509v3 Key Usage: critical
                Digital Signature, Key Encipherment
            X509v3 Basic Constraints: critical
                CA:TRUE, pathlen:2
    Signature Algorithm: ecdsa-with-SHA256
         30:44:02:20:2b:00:53:14:94:bf:5c:38:0e:84:8f:f1:e5:11:
         4e:62:14:a4:65:ff:d9:aa:d6:a6:2b:e9:67:ad:ae:be:58:32:
         02:20:09:8c:18:a7:c5:b7:27:87:06:5e:99:de:1f:42:2a:6e:
         ab:3d:b6:bf:86:0f:f8:a9:81:80:e9:e3:32:d8:4d:96
-----BEGIN CERTIFICATE-----
MIICXzCCAgagAwIBAgIBBjAKBggqhkjOPQQDAjCBsDEeMBwGA1UEAwwVTWluaXN0
ZXJvIGRlbGxJbnRlcm5vMQswCQYDVQQGEwJJVDEPMA0GA1UECAwGSXRhbGlhMQ0w
CwYDVQQHDARST01BMRgwFgYDVQQKDA9FLVZvdGluZyBzeXN0ZW0xIjAgBgNVBAsM
GUUtVm90aW5nIHN5c3RlbSBhdXRob3JpdHkxIzAhBgkqhkiG9w0BCQEWFG1pbmlz
dGVyb0Bldm90aW5nLml0MB4XDTIyMDgwMzEzMjQxNVoXDTIzMDgwMzEzMjQxNVow
gZkxGDAWBgNVBAMMD1JlZ2lvbmUgVG9zY2FuYTELMAkGA1UEBhMCSVQxDzANBgNV
BAgMBkl0YWxpYTEYMBYGA1UECgwPRS1Wb3Rpbmcgc3lzdGVtMSIwIAYDVQQLDBlF
LVZvdGluZyBzeXN0ZW0gYXV0aG9yaXR5MSEwHwYJKoZIhvcNAQkBFhJUb3NjYW5h
QGV2b3RpbmcuaXQwWTATBgcqhkjOPQIBBggqhkjOPQMBBwNCAASLpKMrZn4HR8Sq
nbeMWpx7XudjSZZVOXI4F6tQ/ikE6BNQA1oQzNdvpu11gaIL19gtEv0Y2mOMTeLc
X7WivT/ToyYwJDAOBgNVHQ8BAf8EBAMCBaAwEgYDVR0TAQH/BAgwBgEB/wIBAjAK
BggqhkjOPQQDAgNHADBEAiArAFMUlL9cOA6Ej/HlEU5iFKRl/9mq1qYr6Wetrr5Y
MgIgCYwYp8W3J4cGXpneH0Iqbqs9tr+GD/ipgYDp4zLYTZY=
-----END CERTIFICATE-----
