Certificate:
    Data:
        Version: 3 (0x2)
        Serial Number: 6 (0x6)
        Signature Algorithm: ecdsa-with-SHA256
        Issuer: CN=Ministero dellInterno, C=IT, ST=Italia, L=ROMA, O=E-Voting system, OU=E-Voting system authority/emailAddress=ministero@evoting.it
        Validity
            Not Before: Aug 26 15:16:48 2022 GMT
            Not After : Aug 26 15:16:48 2023 GMT
        Subject: CN=Regione Veneto, C=IT, ST=Italia, O=E-Voting system, OU=E-Voting system authority/emailAddress=Veneto@evoting.it
        Subject Public Key Info:
            Public Key Algorithm: id-ecPublicKey
                Public-Key: (256 bit)
                pub:
                    04:82:b9:73:ab:ab:ca:cb:04:ac:e6:c6:76:63:84:
                    e6:f4:8c:64:08:fe:36:4e:0b:a9:bf:f9:d4:5c:62:
                    7d:b6:51:9c:5c:cb:0a:12:45:0f:ee:e9:2f:2a:34:
                    7b:86:50:86:7f:dd:ea:1f:2f:f6:16:81:92:62:44:
                    ce:34:06:fe:08
                ASN1 OID: secp256k1
        X509v3 extensions:
            X509v3 Key Usage: critical
                Digital Signature, Key Encipherment
            X509v3 Basic Constraints: critical
                CA:TRUE, pathlen:2
    Signature Algorithm: ecdsa-with-SHA256
         30:45:02:21:00:ec:90:dd:40:c7:1b:6c:9e:e1:77:30:c5:73:
         41:21:44:8f:b1:88:77:24:a6:de:e7:ee:4f:3f:72:a9:29:62:
         df:02:20:47:63:7c:60:8a:c1:2c:6f:ba:69:b6:b2:9c:79:69:
         d2:62:e1:29:ce:7f:32:e7:6f:72:3d:de:89:50:7b:11:6d
-----BEGIN CERTIFICATE-----
MIICWzCCAgGgAwIBAgIBBjAKBggqhkjOPQQDAjCBsDEeMBwGA1UEAwwVTWluaXN0
ZXJvIGRlbGxJbnRlcm5vMQswCQYDVQQGEwJJVDEPMA0GA1UECAwGSXRhbGlhMQ0w
CwYDVQQHDARST01BMRgwFgYDVQQKDA9FLVZvdGluZyBzeXN0ZW0xIjAgBgNVBAsM
GUUtVm90aW5nIHN5c3RlbSBhdXRob3JpdHkxIzAhBgkqhkiG9w0BCQEWFG1pbmlz
dGVyb0Bldm90aW5nLml0MB4XDTIyMDgyNjE1MTY0OFoXDTIzMDgyNjE1MTY0OFow
gZcxFzAVBgNVBAMMDlJlZ2lvbmUgVmVuZXRvMQswCQYDVQQGEwJJVDEPMA0GA1UE
CAwGSXRhbGlhMRgwFgYDVQQKDA9FLVZvdGluZyBzeXN0ZW0xIjAgBgNVBAsMGUUt
Vm90aW5nIHN5c3RlbSBhdXRob3JpdHkxIDAeBgkqhkiG9w0BCQEWEVZlbmV0b0Bl
dm90aW5nLml0MFYwEAYHKoZIzj0CAQYFK4EEAAoDQgAEgrlzq6vKywSs5sZ2Y4Tm
9IxkCP42Tgupv/nUXGJ9tlGcXMsKEkUP7ukvKjR7hlCGf93qHy/2FoGSYkTONAb+
CKMmMCQwDgYDVR0PAQH/BAQDAgWgMBIGA1UdEwEB/wQIMAYBAf8CAQIwCgYIKoZI
zj0EAwIDSAAwRQIhAOyQ3UDHG2ye4XcwxXNBIUSPsYh3JKbe5+5PP3KpKWLfAiBH
Y3xgisEsb7pptrKceWnSYuEpzn8y529yPd6JUHsRbQ==
-----END CERTIFICATE-----
