Certificate:
    Data:
        Version: 3 (0x2)
        Serial Number: 8 (0x8)
        Signature Algorithm: ecdsa-with-SHA256
        Issuer: CN=Ministero dellInterno, C=IT, ST=Italia, L=ROMA, O=E-Voting system, OU=E-Voting system authority/emailAddress=ministero@evoting.it
        Validity
            Not Before: Aug  3 13:24:16 2022 GMT
            Not After : Aug  3 13:24:16 2023 GMT
        Subject: CN=Regione Calabria, C=IT, ST=Italia, O=E-Voting system, OU=E-Voting system authority/emailAddress=Calabria@evoting.it
        Subject Public Key Info:
            Public Key Algorithm: id-ecPublicKey
                Public-Key: (256 bit)
                pub:
                    04:46:7d:f0:34:c5:d4:24:a1:53:41:96:c9:77:c3:
                    38:cf:db:66:b9:b1:db:7e:f2:cc:82:d9:b8:b0:07:
                    95:82:08:64:75:5e:30:bf:f5:a2:e7:9b:88:7c:14:
                    aa:19:c2:fd:38:f9:76:6e:ae:fd:2a:30:dc:77:8f:
                    c2:9a:b6:61:1c
                ASN1 OID: prime256v1
                NIST CURVE: P-256
        X509v3 extensions:
            X509v3 Key Usage: critical
                Digital Signature, Key Encipherment
            X509v3 Basic Constraints: critical
                CA:TRUE, pathlen:2
    Signature Algorithm: ecdsa-with-SHA256
         30:46:02:21:00:d7:bc:b7:8d:05:ef:d9:18:5c:16:98:0c:f2:
         ce:39:66:15:84:f6:b1:02:5b:ac:c5:fc:9c:e2:a4:9e:f7:3d:
         30:02:21:00:af:69:ca:dc:d7:b1:56:b1:1f:94:d7:1f:30:32:
         61:d4:d8:48:bc:3f:ba:e7:04:77:d5:56:3e:2f:fd:cc:fd:00
-----BEGIN CERTIFICATE-----
MIICYzCCAgigAwIBAgIBCDAKBggqhkjOPQQDAjCBsDEeMBwGA1UEAwwVTWluaXN0
ZXJvIGRlbGxJbnRlcm5vMQswCQYDVQQGEwJJVDEPMA0GA1UECAwGSXRhbGlhMQ0w
CwYDVQQHDARST01BMRgwFgYDVQQKDA9FLVZvdGluZyBzeXN0ZW0xIjAgBgNVBAsM
GUUtVm90aW5nIHN5c3RlbSBhdXRob3JpdHkxIzAhBgkqhkiG9w0BCQEWFG1pbmlz
dGVyb0Bldm90aW5nLml0MB4XDTIyMDgwMzEzMjQxNloXDTIzMDgwMzEzMjQxNlow
gZsxGTAXBgNVBAMMEFJlZ2lvbmUgQ2FsYWJyaWExCzAJBgNVBAYTAklUMQ8wDQYD
VQQIDAZJdGFsaWExGDAWBgNVBAoMD0UtVm90aW5nIHN5c3RlbTEiMCAGA1UECwwZ
RS1Wb3Rpbmcgc3lzdGVtIGF1dGhvcml0eTEiMCAGCSqGSIb3DQEJARYTQ2FsYWJy
aWFAZXZvdGluZy5pdDBZMBMGByqGSM49AgEGCCqGSM49AwEHA0IABEZ98DTF1CSh
U0GWyXfDOM/bZrmx237yzILZuLAHlYIIZHVeML/1ouebiHwUqhnC/Tj5dm6u/Sow
3HePwpq2YRyjJjAkMA4GA1UdDwEB/wQEAwIFoDASBgNVHRMBAf8ECDAGAQH/AgEC
MAoGCCqGSM49BAMCA0kAMEYCIQDXvLeNBe/ZGFwWmAzyzjlmFYT2sQJbrMX8nOKk
nvc9MAIhAK9pytzXsVaxH5TXHzAyYdTYSLw/uucEd9VWPi/9zP0A
-----END CERTIFICATE-----
