Certificate:
    Data:
        Version: 3 (0x2)
        Serial Number: 10 (0xa)
        Signature Algorithm: ecdsa-with-SHA256
        Issuer: CN=Ministero dellInterno, C=IT, ST=Italia, L=ROMA, O=E-Voting system, OU=E-Voting system authority/emailAddress=ministero@evoting.it
        Validity
            Not Before: Aug  3 13:24:16 2022 GMT
            Not After : Aug  3 13:24:16 2023 GMT
        Subject: CN=Regione Veneto, C=IT, ST=Italia, O=E-Voting system, OU=E-Voting system authority/emailAddress=Veneto@evoting.it
        Subject Public Key Info:
            Public Key Algorithm: id-ecPublicKey
                Public-Key: (256 bit)
                pub:
                    04:97:fc:63:51:b2:30:d0:4a:60:4d:a3:11:ea:f0:
                    69:eb:ed:76:de:0e:38:3d:26:3f:56:70:a8:8b:e7:
                    d9:e7:d4:31:23:f3:2a:d5:0e:b9:fd:46:0b:58:f5:
                    0b:6f:bf:d4:c7:9e:8f:48:28:71:97:d5:23:ad:d2:
                    26:e4:9a:16:2e
                ASN1 OID: prime256v1
                NIST CURVE: P-256
        X509v3 extensions:
            X509v3 Key Usage: critical
                Digital Signature, Key Encipherment
            X509v3 Basic Constraints: critical
                CA:TRUE, pathlen:2
    Signature Algorithm: ecdsa-with-SHA256
         30:44:02:20:1e:47:c7:37:84:9c:22:f7:1b:7c:29:ce:1d:b7:
         fe:4b:c2:60:2f:2a:b6:03:fa:96:bf:65:b1:a4:c2:45:5b:3b:
         02:20:3b:dc:d8:05:85:ed:75:4c:5b:6a:65:c2:b0:0a:e8:ec:
         f2:3f:83:22:9b:e5:f8:bf:95:41:e6:d0:76:cb:4f:b8
-----BEGIN CERTIFICATE-----
MIICXTCCAgSgAwIBAgIBCjAKBggqhkjOPQQDAjCBsDEeMBwGA1UEAwwVTWluaXN0
ZXJvIGRlbGxJbnRlcm5vMQswCQYDVQQGEwJJVDEPMA0GA1UECAwGSXRhbGlhMQ0w
CwYDVQQHDARST01BMRgwFgYDVQQKDA9FLVZvdGluZyBzeXN0ZW0xIjAgBgNVBAsM
GUUtVm90aW5nIHN5c3RlbSBhdXRob3JpdHkxIzAhBgkqhkiG9w0BCQEWFG1pbmlz
dGVyb0Bldm90aW5nLml0MB4XDTIyMDgwMzEzMjQxNloXDTIzMDgwMzEzMjQxNlow
gZcxFzAVBgNVBAMMDlJlZ2lvbmUgVmVuZXRvMQswCQYDVQQGEwJJVDEPMA0GA1UE
CAwGSXRhbGlhMRgwFgYDVQQKDA9FLVZvdGluZyBzeXN0ZW0xIjAgBgNVBAsMGUUt
Vm90aW5nIHN5c3RlbSBhdXRob3JpdHkxIDAeBgkqhkiG9w0BCQEWEVZlbmV0b0Bl
dm90aW5nLml0MFkwEwYHKoZIzj0CAQYIKoZIzj0DAQcDQgAEl/xjUbIw0EpgTaMR
6vBp6+123g44PSY/VnCoi+fZ59QxI/Mq1Q65/UYLWPULb7/Ux56PSChxl9UjrdIm
5JoWLqMmMCQwDgYDVR0PAQH/BAQDAgWgMBIGA1UdEwEB/wQIMAYBAf8CAQIwCgYI
KoZIzj0EAwIDRwAwRAIgHkfHN4ScIvcbfCnOHbf+S8JgLyq2A/qWv2WxpMJFWzsC
IDvc2AWF7XVMW2plwrAK6OzyP4Mim+X4v5VB5tB2y0+4
-----END CERTIFICATE-----
