Certificate:
    Data:
        Version: 3 (0x2)
        Serial Number: 14 (0xe)
        Signature Algorithm: ecdsa-with-SHA256
        Issuer: CN=Ministero dellInterno, C=IT, ST=Italia, L=ROMA, O=E-Voting system, OU=E-Voting system authority/emailAddress=ministero@evoting.it
        Validity
            Not Before: Aug 26 15:16:49 2022 GMT
            Not After : Aug 26 15:16:49 2023 GMT
        Subject: CN=Regione Marche, C=IT, ST=Italia, O=E-Voting system, OU=E-Voting system authority/emailAddress=Marche@evoting.it
        Subject Public Key Info:
            Public Key Algorithm: id-ecPublicKey
                Public-Key: (256 bit)
                pub:
                    04:5a:85:a7:5e:75:91:24:2a:62:85:c0:e7:13:a4:
                    5a:85:b1:e6:1e:17:e5:4c:b9:fd:9f:9b:41:cc:d2:
                    ad:0d:8e:49:69:c0:47:17:72:d0:43:7a:ee:d7:c4:
                    00:a6:92:a3:86:2c:ee:56:fc:dc:79:a8:7c:be:e8:
                    e0:e6:6b:8c:db
                ASN1 OID: secp256k1
        X509v3 extensions:
            X509v3 Key Usage: critical
                Digital Signature, Key Encipherment
            X509v3 Basic Constraints: critical
                CA:TRUE, pathlen:2
    Signature Algorithm: ecdsa-with-SHA256
         30:44:02:20:55:c1:c1:c3:24:e4:16:2c:96:76:63:26:6a:44:
         97:04:37:37:7e:c5:86:bf:e1:28:38:0b:34:f0:39:8d:c4:a0:
         02:20:35:49:8d:dd:05:1b:8f:cc:b3:4c:6e:39:10:13:60:f8:
         df:99:97:e7:84:55:a7:87:2d:0a:1d:08:c3:0a:e1:53
-----BEGIN CERTIFICATE-----
MIICWjCCAgGgAwIBAgIBDjAKBggqhkjOPQQDAjCBsDEeMBwGA1UEAwwVTWluaXN0
ZXJvIGRlbGxJbnRlcm5vMQswCQYDVQQGEwJJVDEPMA0GA1UECAwGSXRhbGlhMQ0w
CwYDVQQHDARST01BMRgwFgYDVQQKDA9FLVZvdGluZyBzeXN0ZW0xIjAgBgNVBAsM
GUUtVm90aW5nIHN5c3RlbSBhdXRob3JpdHkxIzAhBgkqhkiG9w0BCQEWFG1pbmlz
dGVyb0Bldm90aW5nLml0MB4XDTIyMDgyNjE1MTY0OVoXDTIzMDgyNjE1MTY0OVow
gZcxFzAVBgNVBAMMDlJlZ2lvbmUgTWFyY2hlMQswCQYDVQQGEwJJVDEPMA0GA1UE
CAwGSXRhbGlhMRgwFgYDVQQKDA9FLVZvdGluZyBzeXN0ZW0xIjAgBgNVBAsMGUUt
Vm90aW5nIHN5c3RlbSBhdXRob3JpdHkxIDAeBgkqhkiG9w0BCQEWEU1hcmNoZUBl
dm90aW5nLml0MFYwEAYHKoZIzj0CAQYFK4EEAAoDQgAEWoWnXnWRJCpihcDnE6Ra
hbHmHhflTLn9n5tBzNKtDY5JacBHF3LQQ3ru18QAppKjhizuVvzceah8vujg5muM
26MmMCQwDgYDVR0PAQH/BAQDAgWgMBIGA1UdEwEB/wQIMAYBAf8CAQIwCgYIKoZI
zj0EAwIDRwAwRAIgVcHBwyTkFiyWdmMmakSXBDc3fsWGv+EoOAs08DmNxKACIDVJ
jd0FG4/Ms0xuORATYPjfmZfnhFWnhy0KHQjDCuFT
-----END CERTIFICATE-----
