Certificate:
    Data:
        Version: 3 (0x2)
        Serial Number: 14 (0xe)
        Signature Algorithm: ecdsa-with-SHA256
        Issuer: CN=Ministero dellInterno, C=IT, ST=Italia, L=ROMA, O=E-Voting system, OU=E-Voting system authority/emailAddress=ministero@evoting.it
        Validity
            Not Before: Aug  3 13:24:17 2022 GMT
            Not After : Aug  3 13:24:17 2023 GMT
        Subject: CN=Regione Piemonte, C=IT, ST=Italia, O=E-Voting system, OU=E-Voting system authority/emailAddress=Piemonte@evoting.it
        Subject Public Key Info:
            Public Key Algorithm: id-ecPublicKey
                Public-Key: (256 bit)
                pub:
                    04:0a:b4:1f:fc:18:38:5b:db:32:13:e2:3d:84:9e:
                    fd:c0:5b:1f:f6:8e:85:69:38:f8:54:40:93:cd:24:
                    0d:b4:03:9f:7b:03:98:a6:64:98:b6:69:0e:0f:e1:
                    b4:19:e1:7f:50:3a:41:61:bb:8a:ff:5f:40:1d:c2:
                    90:a8:aa:f2:68
                ASN1 OID: prime256v1
                NIST CURVE: P-256
        X509v3 extensions:
            X509v3 Key Usage: critical
                Digital Signature, Key Encipherment
            X509v3 Basic Constraints: critical
                CA:TRUE, pathlen:2
    Signature Algorithm: ecdsa-with-SHA256
         30:46:02:21:00:9e:9c:e0:30:9a:9d:34:1e:4e:bc:8f:6f:83:
         a9:9c:f8:e4:9b:82:3a:f6:05:41:d9:0b:bc:25:d3:e6:54:c8:
         ca:02:21:00:db:c1:12:12:c5:8a:ac:b6:06:5f:8f:71:82:ef:
         6c:02:6e:d6:6c:1c:f3:2e:24:aa:6a:bf:eb:1c:04:cb:67:f1
-----BEGIN CERTIFICATE-----
MIICYzCCAgigAwIBAgIBDjAKBggqhkjOPQQDAjCBsDEeMBwGA1UEAwwVTWluaXN0
ZXJvIGRlbGxJbnRlcm5vMQswCQYDVQQGEwJJVDEPMA0GA1UECAwGSXRhbGlhMQ0w
CwYDVQQHDARST01BMRgwFgYDVQQKDA9FLVZvdGluZyBzeXN0ZW0xIjAgBgNVBAsM
GUUtVm90aW5nIHN5c3RlbSBhdXRob3JpdHkxIzAhBgkqhkiG9w0BCQEWFG1pbmlz
dGVyb0Bldm90aW5nLml0MB4XDTIyMDgwMzEzMjQxN1oXDTIzMDgwMzEzMjQxN1ow
gZsxGTAXBgNVBAMMEFJlZ2lvbmUgUGllbW9udGUxCzAJBgNVBAYTAklUMQ8wDQYD
VQQIDAZJdGFsaWExGDAWBgNVBAoMD0UtVm90aW5nIHN5c3RlbTEiMCAGA1UECwwZ
RS1Wb3Rpbmcgc3lzdGVtIGF1dGhvcml0eTEiMCAGCSqGSIb3DQEJARYTUGllbW9u
dGVAZXZvdGluZy5pdDBZMBMGByqGSM49AgEGCCqGSM49AwEHA0IABAq0H/wYOFvb
MhPiPYSe/cBbH/aOhWk4+FRAk80kDbQDn3sDmKZkmLZpDg/htBnhf1A6QWG7iv9f
QB3CkKiq8mijJjAkMA4GA1UdDwEB/wQEAwIFoDASBgNVHRMBAf8ECDAGAQH/AgEC
MAoGCCqGSM49BAMCA0kAMEYCIQCenOAwmp00Hk68j2+DqZz45JuCOvYFQdkLvCXT
5lTIygIhANvBEhLFiqy2Bl+PcYLvbAJu1mwc8y4kqmq/6xwEy2fx
-----END CERTIFICATE-----
