Certificate:
    Data:
        Version: 3 (0x2)
        Serial Number: 15 (0xf)
        Signature Algorithm: ecdsa-with-SHA256
        Issuer: CN=Ministero dellInterno, C=IT, ST=Italia, L=ROMA, O=E-Voting system, OU=E-Voting system authority/emailAddress=ministero@evoting.it
        Validity
            Not Before: Aug  3 13:24:17 2022 GMT
            Not After : Aug  3 13:24:17 2023 GMT
        Subject: CN=Regione Lazio, C=IT, ST=Italia, O=E-Voting system, OU=E-Voting system authority/emailAddress=Lazio@evoting.it
        Subject Public Key Info:
            Public Key Algorithm: id-ecPublicKey
                Public-Key: (256 bit)
                pub:
                    04:ba:55:63:f8:f0:da:1e:9c:72:63:d7:88:2f:f8:
                    a2:20:37:1d:ab:c8:cd:3b:24:b3:53:b0:4f:83:63:
                    b3:79:23:f5:c5:fa:00:6c:d1:11:4e:cd:d4:91:23:
                    09:a6:76:6b:96:54:eb:c2:6a:8a:d6:73:6c:39:b5:
                    b9:01:b3:54:12
                ASN1 OID: prime256v1
                NIST CURVE: P-256
        X509v3 extensions:
            X509v3 Key Usage: critical
                Digital Signature, Key Encipherment
            X509v3 Basic Constraints: critical
                CA:TRUE, pathlen:2
    Signature Algorithm: ecdsa-with-SHA256
         30:46:02:21:00:fe:8d:19:ca:03:40:25:37:35:b8:c6:cf:15:
         f6:48:7d:3f:d7:fe:05:06:e9:10:12:a7:7c:35:dc:dc:34:95:
         f8:02:21:00:cd:e0:8e:70:7d:52:d9:e3:e9:75:81:0e:0f:d2:
         6d:99:66:9d:4a:22:63:da:01:2b:47:fd:64:7e:f3:5e:44:e9
-----BEGIN CERTIFICATE-----
MIICXTCCAgKgAwIBAgIBDzAKBggqhkjOPQQDAjCBsDEeMBwGA1UEAwwVTWluaXN0
ZXJvIGRlbGxJbnRlcm5vMQswCQYDVQQGEwJJVDEPMA0GA1UECAwGSXRhbGlhMQ0w
CwYDVQQHDARST01BMRgwFgYDVQQKDA9FLVZvdGluZyBzeXN0ZW0xIjAgBgNVBAsM
GUUtVm90aW5nIHN5c3RlbSBhdXRob3JpdHkxIzAhBgkqhkiG9w0BCQEWFG1pbmlz
dGVyb0Bldm90aW5nLml0MB4XDTIyMDgwMzEzMjQxN1oXDTIzMDgwMzEzMjQxN1ow
gZUxFjAUBgNVBAMMDVJlZ2lvbmUgTGF6aW8xCzAJBgNVBAYTAklUMQ8wDQYDVQQI
DAZJdGFsaWExGDAWBgNVBAoMD0UtVm90aW5nIHN5c3RlbTEiMCAGA1UECwwZRS1W
b3Rpbmcgc3lzdGVtIGF1dGhvcml0eTEfMB0GCSqGSIb3DQEJARYQTGF6aW9AZXZv
dGluZy5pdDBZMBMGByqGSM49AgEGCCqGSM49AwEHA0IABLpVY/jw2h6ccmPXiC/4
oiA3HavIzTsks1OwT4Njs3kj9cX6AGzREU7N1JEjCaZ2a5ZU68JqitZzbDm1uQGz
VBKjJjAkMA4GA1UdDwEB/wQEAwIFoDASBgNVHRMBAf8ECDAGAQH/AgECMAoGCCqG
SM49BAMCA0kAMEYCIQD+jRnKA0AlNzW4xs8V9kh9P9f+BQbpEBKnfDXc3DSV+AIh
AM3gjnB9Utnj6XWBDg/SbZlmnUoiY9oBK0f9ZH7zXkTp
-----END CERTIFICATE-----
