Certificate:
    Data:
        Version: 3 (0x2)
        Serial Number: 18 (0x12)
        Signature Algorithm: ecdsa-with-SHA256
        Issuer: CN=Ministero dellInterno, C=IT, ST=Italia, L=ROMA, O=E-Voting system, OU=E-Voting system authority/emailAddress=ministero@evoting.it
        Validity
            Not Before: Aug  3 13:24:17 2022 GMT
            Not After : Aug  3 13:24:17 2023 GMT
        Subject: CN=Regione Marche, C=IT, ST=Italia, O=E-Voting system, OU=E-Voting system authority/emailAddress=Marche@evoting.it
        Subject Public Key Info:
            Public Key Algorithm: id-ecPublicKey
                Public-Key: (256 bit)
                pub:
                    04:6a:49:ce:ef:01:84:2c:54:5e:a9:ee:8a:82:b5:
                    8f:89:bd:53:ac:4c:ce:76:b3:9e:c1:c1:71:bb:44:
                    39:ea:23:94:a1:ac:55:55:66:27:9f:be:b3:a5:94:
                    1f:66:56:9e:40:76:3e:7c:ce:b5:68:96:29:3e:99:
                    70:2f:0a:44:f5
                ASN1 OID: prime256v1
                NIST CURVE: P-256
        X509v3 extensions:
            X509v3 Key Usage: critical
                Digital Signature, Key Encipherment
            X509v3 Basic Constraints: critical
                CA:TRUE, pathlen:2
    Signature Algorithm: ecdsa-with-SHA256
         30:45:02:20:7d:a4:bb:93:d6:01:70:b7:66:55:d1:a3:a5:57:
         fb:61:e2:bf:6c:4f:3b:16:e0:67:ca:ce:31:1a:c9:3a:74:1c:
         02:21:00:cf:92:e6:29:a6:4b:03:4b:12:60:c3:0e:6b:47:7f:
         89:c0:3c:4f:a2:d5:89:b7:05:30:bc:5a:ea:f0:12:a0:36
-----BEGIN CERTIFICATE-----
MIICXjCCAgSgAwIBAgIBEjAKBggqhkjOPQQDAjCBsDEeMBwGA1UEAwwVTWluaXN0
ZXJvIGRlbGxJbnRlcm5vMQswCQYDVQQGEwJJVDEPMA0GA1UECAwGSXRhbGlhMQ0w
CwYDVQQHDARST01BMRgwFgYDVQQKDA9FLVZvdGluZyBzeXN0ZW0xIjAgBgNVBAsM
GUUtVm90aW5nIHN5c3RlbSBhdXRob3JpdHkxIzAhBgkqhkiG9w0BCQEWFG1pbmlz
dGVyb0Bldm90aW5nLml0MB4XDTIyMDgwMzEzMjQxN1oXDTIzMDgwMzEzMjQxN1ow
gZcxFzAVBgNVBAMMDlJlZ2lvbmUgTWFyY2hlMQswCQYDVQQGEwJJVDEPMA0GA1UE
CAwGSXRhbGlhMRgwFgYDVQQKDA9FLVZvdGluZyBzeXN0ZW0xIjAgBgNVBAsMGUUt
Vm90aW5nIHN5c3RlbSBhdXRob3JpdHkxIDAeBgkqhkiG9w0BCQEWEU1hcmNoZUBl
dm90aW5nLml0MFkwEwYHKoZIzj0CAQYIKoZIzj0DAQcDQgAEaknO7wGELFReqe6K
grWPib1TrEzOdrOewcFxu0Q56iOUoaxVVWYnn76zpZQfZlaeQHY+fM61aJYpPplw
LwpE9aMmMCQwDgYDVR0PAQH/BAQDAgWgMBIGA1UdEwEB/wQIMAYBAf8CAQIwCgYI
KoZIzj0EAwIDSAAwRQIgfaS7k9YBcLdmVdGjpVf7YeK/bE87FuBnys4xGsk6dBwC
IQDPkuYppksDSxJgww5rR3+JwDxPotWJtwUwvFrq8BKgNg==
-----END CERTIFICATE-----
