Certificate:
    Data:
        Version: 3 (0x2)
        Serial Number: 18 (0x12)
        Signature Algorithm: ecdsa-with-SHA256
        Issuer: CN=Ministero dellInterno, C=IT, ST=Italia, L=ROMA, O=E-Voting system, OU=E-Voting system authority/emailAddress=ministero@evoting.it
        Validity
            Not Before: Aug 26 15:16:50 2022 GMT
            Not After : Aug 26 15:16:50 2023 GMT
        Subject: CN=Regione Basilicata, C=IT, ST=Italia, O=E-Voting system, OU=E-Voting system authority/emailAddress=Basilicata@evoting.it
        Subject Public Key Info:
            Public Key Algorithm: id-ecPublicKey
                Public-Key: (256 bit)
                pub:
                    04:0e:9c:c0:ab:f8:71:93:45:d7:75:c2:28:82:c9:
                    33:c8:c7:0b:18:0f:81:a1:26:ac:c1:a0:0f:53:97:
                    f9:a8:55:81:29:de:20:39:9a:06:c4:76:36:3b:00:
                    6d:22:20:14:f6:70:40:3c:69:51:7f:04:c0:b2:db:
                    a4:98:66:aa:ae
                ASN1 OID: secp256k1
        X509v3 extensions:
            X509v3 Key Usage: critical
                Digital Signature, Key Encipherment
            X509v3 Basic Constraints: critical
                CA:TRUE, pathlen:2
    Signature Algorithm: ecdsa-with-SHA256
         30:45:02:20:63:04:a3:df:27:ec:ae:89:73:d6:15:3b:2d:a7:
         4c:d1:44:ae:9d:39:d4:4a:db:5b:36:aa:e0:4a:3c:35:0b:a3:
         02:21:00:f7:48:5e:c1:a5:a5:b1:a2:46:c2:81:ba:0b:94:e9:
         94:84:81:27:79:8b:83:4f:ce:a3:fb:a3:fb:fe:0c:9b:a9
-----BEGIN CERTIFICATE-----
MIICYzCCAgmgAwIBAgIBEjAKBggqhkjOPQQDAjCBsDEeMBwGA1UEAwwVTWluaXN0
ZXJvIGRlbGxJbnRlcm5vMQswCQYDVQQGEwJJVDEPMA0GA1UECAwGSXRhbGlhMQ0w
CwYDVQQHDARST01BMRgwFgYDVQQKDA9FLVZvdGluZyBzeXN0ZW0xIjAgBgNVBAsM
GUUtVm90aW5nIHN5c3RlbSBhdXRob3JpdHkxIzAhBgkqhkiG9w0BCQEWFG1pbmlz
dGVyb0Bldm90aW5nLml0MB4XDTIyMDgyNjE1MTY1MFoXDTIzMDgyNjE1MTY1MFow
gZ8xGzAZBgNVBAMMElJlZ2lvbmUgQmFzaWxpY2F0YTELMAkGA1UEBhMCSVQxDzAN
BgNVBAgMBkl0YWxpYTEYMBYGA1UECgwPRS1Wb3Rpbmcgc3lzdGVtMSIwIAYDVQQL
DBlFLVZvdGluZyBzeXN0ZW0gYXV0aG9yaXR5MSQwIgYJKoZIhvcNAQkBFhVCYXNp
bGljYXRhQGV2b3RpbmcuaXQwVjAQBgcqhkjOPQIBBgUrgQQACgNCAAQOnMCr+HGT
Rdd1wiiCyTPIxwsYD4GhJqzBoA9Tl/moVYEp3iA5mgbEdjY7AG0iIBT2cEA8aVF/
BMCy26SYZqquoyYwJDAOBgNVHQ8BAf8EBAMCBaAwEgYDVR0TAQH/BAgwBgEB/wIB
AjAKBggqhkjOPQQDAgNIADBFAiBjBKPfJ+yuiXPWFTstp0zRRK6dOdRK21s2quBK
PDULowIhAPdIXsGlpbGiRsKBuguU6ZSEgSd5i4NPzqP7o/v+DJup
-----END CERTIFICATE-----
