Certificate:
    Data:
        Version: 3 (0x2)
        Serial Number: 19 (0x13)
        Signature Algorithm: ecdsa-with-SHA256
        Issuer: CN=Ministero dellInterno, C=IT, ST=Italia, L=ROMA, O=E-Voting system, OU=E-Voting system authority/emailAddress=ministero@evoting.it
        Validity
            Not Before: Aug 26 15:16:50 2022 GMT
            Not After : Aug 26 15:16:50 2023 GMT
        Subject: CN=Regione Valle_d_Aosta, C=IT, ST=Italia, O=E-Voting system, OU=E-Voting system authority/emailAddress=Valle_d_Aosta@evoting.it
        Subject Public Key Info:
            Public Key Algorithm: id-ecPublicKey
                Public-Key: (256 bit)
                pub:
                    04:d4:69:8f:cb:c4:7f:6d:10:37:fa:f2:62:71:ef:
                    24:52:7d:9e:10:6f:b7:6c:a0:07:2f:10:12:43:82:
                    a1:fd:94:02:d6:72:13:f9:3b:b2:91:6d:e7:98:16:
                    19:e0:ea:24:ce:5c:2f:4e:95:2a:32:6b:33:8c:35:
                    fe:b6:39:3d:e8
                ASN1 OID: secp256k1
        X509v3 extensions:
            X509v3 Key Usage: critical
                Digital Signature, Key Encipherment
            X509v3 Basic Constraints: critical
                CA:TRUE, pathlen:2
    Signature Algorithm: ecdsa-with-SHA256
         30:45:02:20:3a:4a:8b:7a:76:c8:db:9d:90:da:56:22:bd:54:
         22:c3:91:f5:c3:cc:45:02:fe:05:bd:6c:5c:e3:f7:90:6d:2d:
         02:21:00:9d:ab:9f:3d:8a:f0:93:ae:be:7c:a3:08:f0:1d:77:
         d0:af:9c:fb:7c:d4:e0:37:21:b4:91:45:63:93:c0:50:34
-----BEGIN CERTIFICATE-----
MIICaTCCAg+gAwIBAgIBEzAKBggqhkjOPQQDAjCBsDEeMBwGA1UEAwwVTWluaXN0
ZXJvIGRlbGxJbnRlcm5vMQswCQYDVQQGEwJJVDEPMA0GA1UECAwGSXRhbGlhMQ0w
CwYDVQQHDARST01BMRgwFgYDVQQKDA9FLVZvdGluZyBzeXN0ZW0xIjAgBgNVBAsM
GUUtVm90aW5nIHN5c3RlbSBhdXRob3JpdHkxIzAhBgkqhkiG9w0BCQEWFG1pbmlz
dGVyb0Bldm90aW5nLml0MB4XDTIyMDgyNjE1MTY1MFoXDTIzMDgyNjE1MTY1MFow
gaUxHjAcBgNVBAMMFVJlZ2lvbmUgVmFsbGVfZF9Bb3N0YTELMAkGA1UEBhMCSVQx
DzANBgNVBAgMBkl0YWxpYTEYMBYGA1UECgwPRS1Wb3Rpbmcgc3lzdGVtMSIwIAYD
VQQLDBlFLVZvdGluZyBzeXN0ZW0gYXV0aG9yaXR5MScwJQYJKoZIhvcNAQkBFhhW
YWxsZV9kX0Fvc3RhQGV2b3RpbmcuaXQwVjAQBgcqhkjOPQIBBgUrgQQACgNCAATU
aY/LxH9tEDf68mJx7yRSfZ4Qb7dsoAcvEBJDgqH9lALWchP5O7KRbeeYFhng6iTO
XC9OlSoyazOMNf62OT3ooyYwJDAOBgNVHQ8BAf8EBAMCBaAwEgYDVR0TAQH/BAgw
BgEB/wIBAjAKBggqhkjOPQQDAgNIADBFAiA6Sot6dsjbnZDaViK9VCLDkfXDzEUC
/gW9bFzj95BtLQIhAJ2rnz2K8JOuvnyjCPAdd9CvnPt81OA3IbSRRWOTwFA0
-----END CERTIFICATE-----
