Certificate:
    Data:
        Version: 3 (0x2)
        Serial Number: 17 (0x11)
        Signature Algorithm: ecdsa-with-SHA256
        Issuer: CN=Ministero dellInterno, C=IT, ST=Italia, L=ROMA, O=E-Voting system, OU=E-Voting system authority/emailAddress=ministero@evoting.it
        Validity
            Not Before: Aug  3 13:24:17 2022 GMT
            Not After : Aug  3 13:24:17 2023 GMT
        Subject: CN=Regione Abruzzo, C=IT, ST=Italia, O=E-Voting system, OU=E-Voting system authority/emailAddress=Abruzzo@evoting.it
        Subject Public Key Info:
            Public Key Algorithm: id-ecPublicKey
                Public-Key: (256 bit)
                pub:
                    04:9a:9f:f4:9e:28:60:68:cc:35:6f:f9:ee:71:71:
                    ba:80:89:28:b0:56:23:d0:ed:19:41:a2:18:a2:98:
                    19:f7:29:19:70:b1:42:de:a7:f7:c5:97:38:12:a2:
                    21:f7:04:5b:1d:40:d0:10:37:60:99:58:cd:f6:ac:
                    0c:4c:68:cf:6c
                ASN1 OID: prime256v1
                NIST CURVE: P-256
        X509v3 extensions:
            X509v3 Key Usage: critical
                Digital Signature, Key Encipherment
            X509v3 Basic Constraints: critical
                CA:TRUE, pathlen:2
    Signature Algorithm: ecdsa-with-SHA256
         30:45:02:20:73:b8:61:1e:79:99:9c:18:e1:0e:d4:78:37:e6:
         e4:a8:35:0e:26:3f:76:39:1a:7b:87:ab:7d:c1:b6:cc:6c:39:
         02:21:00:da:9f:fe:c6:cf:7f:2c:f0:47:37:10:6a:ef:8e:96:
         56:d5:a2:ac:b1:33:5d:0b:56:a2:d1:db:5d:a6:ee:20:e7
-----BEGIN CERTIFICATE-----
MIICYDCCAgagAwIBAgIBETAKBggqhkjOPQQDAjCBsDEeMBwGA1UEAwwVTWluaXN0
ZXJvIGRlbGxJbnRlcm5vMQswCQYDVQQGEwJJVDEPMA0GA1UECAwGSXRhbGlhMQ0w
CwYDVQQHDARST01BMRgwFgYDVQQKDA9FLVZvdGluZyBzeXN0ZW0xIjAgBgNVBAsM
GUUtVm90aW5nIHN5c3RlbSBhdXRob3JpdHkxIzAhBgkqhkiG9w0BCQEWFG1pbmlz
dGVyb0Bldm90aW5nLml0MB4XDTIyMDgwMzEzMjQxN1oXDTIzMDgwMzEzMjQxN1ow
gZkxGDAWBgNVBAMMD1JlZ2lvbmUgQWJydXp6bzELMAkGA1UEBhMCSVQxDzANBgNV
BAgMBkl0YWxpYTEYMBYGA1UECgwPRS1Wb3Rpbmcgc3lzdGVtMSIwIAYDVQQLDBlF
LVZvdGluZyBzeXN0ZW0gYXV0aG9yaXR5MSEwHwYJKoZIhvcNAQkBFhJBYnJ1enpv
QGV2b3RpbmcuaXQwWTATBgcqhkjOPQIBBggqhkjOPQMBBwNCAASan/SeKGBozDVv
+e5xcbqAiSiwViPQ7RlBohiimBn3KRlwsULep/fFlzgSoiH3BFsdQNAQN2CZWM32
rAxMaM9soyYwJDAOBgNVHQ8BAf8EBAMCBaAwEgYDVR0TAQH/BAgwBgEB/wIBAjAK
BggqhkjOPQQDAgNIADBFAiBzuGEeeZmcGOEO1Hg35uSoNQ4mP3Y5GnuHq33Btsxs
OQIhANqf/sbPfyzwRzcQau+OllbVoqyxM10LVqLR212m7iDn
-----END CERTIFICATE-----
