Certificate:
    Data:
        Version: 3 (0x2)
        Serial Number: 13 (0xd)
        Signature Algorithm: ecdsa-with-SHA256
        Issuer: CN=Ministero dellInterno, C=IT, ST=Italia, L=ROMA, O=E-Voting system, OU=E-Voting system authority/emailAddress=ministero@evoting.it
        Validity
            Not Before: Aug 26 15:16:49 2022 GMT
            Not After : Aug 26 15:16:49 2023 GMT
        Subject: CN=Regione Liguria, C=IT, ST=Italia, O=E-Voting system, OU=E-Voting system authority/emailAddress=Liguria@evoting.it
        Subject Public Key Info:
            Public Key Algorithm: id-ecPublicKey
                Public-Key: (256 bit)
                pub:
                    04:c2:52:9f:a3:e2:c0:20:5d:b5:7d:b1:3c:7c:f5:
                    f5:a7:2b:e2:bc:c2:7a:e0:51:94:26:08:8f:ce:81:
                    d9:0b:5d:00:31:b5:55:66:41:ee:f3:e0:9f:56:7f:
                    14:dd:6f:f8:70:c9:73:b5:09:2c:ed:47:be:8a:85:
                    0a:3a:d5:73:23
                ASN1 OID: secp256k1
        X509v3 extensions:
            X509v3 Key Usage: critical
                Digital Signature, Key Encipherment
            X509v3 Basic Constraints: critical
                CA:TRUE, pathlen:2
    Signature Algorithm: ecdsa-with-SHA256
         30:45:02:21:00:d9:5d:5d:6a:10:33:db:58:6e:73:71:a7:1a:
         c0:19:16:a5:f3:5d:2b:c6:5f:c6:17:2b:f6:86:a1:20:16:6f:
         4a:02:20:72:b9:98:dc:61:ed:51:69:94:b7:97:5a:fb:2b:33:
         2f:83:85:93:f3:0e:96:cd:c7:06:bc:a8:5a:61:15:5c:e5
-----BEGIN CERTIFICATE-----
MIICXTCCAgOgAwIBAgIBDTAKBggqhkjOPQQDAjCBsDEeMBwGA1UEAwwVTWluaXN0
ZXJvIGRlbGxJbnRlcm5vMQswCQYDVQQGEwJJVDEPMA0GA1UECAwGSXRhbGlhMQ0w
CwYDVQQHDARST01BMRgwFgYDVQQKDA9FLVZvdGluZyBzeXN0ZW0xIjAgBgNVBAsM
GUUtVm90aW5nIHN5c3RlbSBhdXRob3JpdHkxIzAhBgkqhkiG9w0BCQEWFG1pbmlz
dGVyb0Bldm90aW5nLml0MB4XDTIyMDgyNjE1MTY0OVoXDTIzMDgyNjE1MTY0OVow
gZkxGDAWBgNVBAMMD1JlZ2lvbmUgTGlndXJpYTELMAkGA1UEBhMCSVQxDzANBgNV
BAgMBkl0YWxpYTEYMBYGA1UECgwPRS1Wb3Rpbmcgc3lzdGVtMSIwIAYDVQQLDBlF
LVZvdGluZyBzeXN0ZW0gYXV0aG9yaXR5MSEwHwYJKoZIhvcNAQkBFhJMaWd1cmlh
QGV2b3RpbmcuaXQwVjAQBgcqhkjOPQIBBgUrgQQACgNCAATCUp+j4sAgXbV9sTx8
9fWnK+K8wnrgUZQmCI/OgdkLXQAxtVVmQe7z4J9WfxTdb/hwyXO1CSztR76KhQo6
1XMjoyYwJDAOBgNVHQ8BAf8EBAMCBaAwEgYDVR0TAQH/BAgwBgEB/wIBAjAKBggq
hkjOPQQDAgNIADBFAiEA2V1dahAz21huc3GnGsAZFqXzXSvGX8YXK/aGoSAWb0oC
IHK5mNxh7VFplLeXWvsrMy+DhZPzDpbNxwa8qFphFVzl
-----END CERTIFICATE-----
