Certificate:
    Data:
        Version: 3 (0x2)
        Serial Number: 2 (0x2)
        Signature Algorithm: ecdsa-with-SHA256
        Issuer: CN=Ministero dellInterno, C=IT, ST=Italia, L=ROMA, O=E-Voting system, OU=E-Voting system authority/emailAddress=ministero@evoting.it
        Validity
            Not Before: Aug 26 15:16:47 2022 GMT
            Not After : Aug 26 15:16:47 2023 GMT
        Subject: CN=Regione Piemonte, C=IT, ST=Italia, O=E-Voting system, OU=E-Voting system authority/emailAddress=Piemonte@evoting.it
        Subject Public Key Info:
            Public Key Algorithm: id-ecPublicKey
                Public-Key: (256 bit)
                pub:
                    04:cf:21:aa:bb:9e:97:05:6a:05:06:9a:d6:30:a1:
                    59:c5:39:f5:2d:bc:30:ba:2d:e5:96:1d:7b:e9:a5:
                    ef:82:c3:b4:3b:e8:e4:83:6f:e9:9c:77:17:2d:af:
                    67:26:01:70:84:d3:7a:1e:e0:c5:86:a4:40:8a:dd:
                    78:97:12:a5:2f
                ASN1 OID: secp256k1
        X509v3 extensions:
            X509v3 Key Usage: critical
                Digital Signature, Key Encipherment
            X509v3 Basic Constraints: critical
                CA:TRUE, pathlen:2
    Signature Algorithm: ecdsa-with-SHA256
         30:45:02:21:00:8a:16:66:5f:82:8a:90:df:98:04:e7:62:8e:
         ee:48:c9:28:fb:b7:37:12:19:21:a8:07:98:85:a8:fc:6f:8e:
         19:02:20:0d:d3:ee:58:d1:2e:09:45:a6:c4:3f:03:36:a3:e6:
         8b:65:56:0f:ec:27:66:23:44:e2:9a:ee:2a:0f:61:6f:a6
-----BEGIN CERTIFICATE-----
MIICXzCCAgWgAwIBAgIBAjAKBggqhkjOPQQDAjCBsDEeMBwGA1UEAwwVTWluaXN0
ZXJvIGRlbGxJbnRlcm5vMQswCQYDVQQGEwJJVDEPMA0GA1UECAwGSXRhbGlhMQ0w
CwYDVQQHDARST01BMRgwFgYDVQQKDA9FLVZvdGluZyBzeXN0ZW0xIjAgBgNVBAsM
GUUtVm90aW5nIHN5c3RlbSBhdXRob3JpdHkxIzAhBgkqhkiG9w0BCQEWFG1pbmlz
dGVyb0Bldm90aW5nLml0MB4XDTIyMDgyNjE1MTY0N1oXDTIzMDgyNjE1MTY0N1ow
gZsxGTAXBgNVBAMMEFJlZ2lvbmUgUGllbW9udGUxCzAJBgNVBAYTAklUMQ8wDQYD
VQQIDAZJdGFsaWExGDAWBgNVBAoMD0UtVm90aW5nIHN5c3RlbTEiMCAGA1UECwwZ
RS1Wb3Rpbmcgc3lzdGVtIGF1dGhvcml0eTEiMCAGCSqGSIb3DQEJARYTUGllbW9u
dGVAZXZvdGluZy5pdDBWMBAGByqGSM49AgEGBSuBBAAKA0IABM8hqruelwVqBQaa
1jChWcU59S28MLot5ZYde+ml74LDtDvo5INv6Zx3Fy2vZyYBcITTeh7gxYakQIrd
eJcSpS+jJjAkMA4GA1UdDwEB/wQEAwIFoDASBgNVHRMBAf8ECDAGAQH/AgECMAoG
CCqGSM49BAMCA0gAMEUCIQCKFmZfgoqQ35gE52KO7kjJKPu3NxIZIagHmIWo/G+O
GQIgDdPuWNEuCUWmxD8DNqPmi2VWD+wnZiNE4pruKg9hb6Y=
-----END CERTIFICATE-----
