Certificate:
    Data:
        Version: 3 (0x2)
        Serial Number: 7 (0x7)
        Signature Algorithm: ecdsa-with-SHA256
        Issuer: CN=Ministero dellInterno, C=IT, ST=Italia, L=ROMA, O=E-Voting system, OU=E-Voting system authority/emailAddress=ministero@evoting.it
        Validity
            Not Before: Aug  3 13:24:15 2022 GMT
            Not After : Aug  3 13:24:15 2023 GMT
        Subject: CN=Regione Puglia, C=IT, ST=Italia, O=E-Voting system, OU=E-Voting system authority/emailAddress=Puglia@evoting.it
        Subject Public Key Info:
            Public Key Algorithm: id-ecPublicKey
                Public-Key: (256 bit)
                pub:
                    04:dd:e3:24:fc:c3:09:1a:0c:f9:b7:c1:d5:6f:92:
                    a1:d4:05:00:0c:3a:29:7a:8c:37:56:13:fb:d0:c9:
                    8d:05:81:cc:e7:82:3a:0f:84:b2:6f:a1:c9:a8:c8:
                    3d:14:52:58:88:01:cb:c4:33:89:91:57:7b:fa:4a:
                    a1:9d:91:c1:43
                ASN1 OID: prime256v1
                NIST CURVE: P-256
        X509v3 extensions:
            X509v3 Key Usage: critical
                Digital Signature, Key Encipherment
            X509v3 Basic Constraints: critical
                CA:TRUE, pathlen:2
    Signature Algorithm: ecdsa-with-SHA256
         30:46:02:21:00:db:de:6c:78:cd:51:24:14:be:98:ae:9f:ba:
         6b:b2:94:dc:d0:ca:cd:fd:8b:88:94:49:d0:45:42:d8:29:dd:
         d7:02:21:00:9b:f4:d1:16:b3:d6:0d:ae:24:15:e3:ed:53:4d:
         8c:ca:5c:7c:dd:ab:f7:18:17:66:3d:7d:a7:51:a8:d1:af:cb
-----BEGIN CERTIFICATE-----
MIICXzCCAgSgAwIBAgIBBzAKBggqhkjOPQQDAjCBsDEeMBwGA1UEAwwVTWluaXN0
ZXJvIGRlbGxJbnRlcm5vMQswCQYDVQQGEwJJVDEPMA0GA1UECAwGSXRhbGlhMQ0w
CwYDVQQHDARST01BMRgwFgYDVQQKDA9FLVZvdGluZyBzeXN0ZW0xIjAgBgNVBAsM
GUUtVm90aW5nIHN5c3RlbSBhdXRob3JpdHkxIzAhBgkqhkiG9w0BCQEWFG1pbmlz
dGVyb0Bldm90aW5nLml0MB4XDTIyMDgwMzEzMjQxNVoXDTIzMDgwMzEzMjQxNVow
gZcxFzAVBgNVBAMMDlJlZ2lvbmUgUHVnbGlhMQswCQYDVQQGEwJJVDEPMA0GA1UE
CAwGSXRhbGlhMRgwFgYDVQQKDA9FLVZvdGluZyBzeXN0ZW0xIjAgBgNVBAsMGUUt
Vm90aW5nIHN5c3RlbSBhdXRob3JpdHkxIDAeBgkqhkiG9w0BCQEWEVB1Z2xpYUBl
dm90aW5nLml0MFkwEwYHKoZIzj0CAQYIKoZIzj0DAQcDQgAE3eMk/MMJGgz5t8HV
b5Kh1AUADDopeow3VhP70MmNBYHM54I6D4Syb6HJqMg9FFJYiAHLxDOJkVd7+kqh
nZHBQ6MmMCQwDgYDVR0PAQH/BAQDAgWgMBIGA1UdEwEB/wQIMAYBAf8CAQIwCgYI
KoZIzj0EAwIDSQAwRgIhANvebHjNUSQUvpiun7prspTc0MrN/YuIlEnQRULYKd3X
AiEAm/TRFrPWDa4kFePtU02Mylx83av3GBdmPX2nUajRr8s=
-----END CERTIFICATE-----
