Certificate:
    Data:
        Version: 3 (0x2)
        Serial Number: 3 (0x3)
        Signature Algorithm: ecdsa-with-SHA256
        Issuer: CN=Ministero dellInterno, C=IT, ST=Italia, L=ROMA, O=E-Voting system, OU=E-Voting system authority/emailAddress=ministero@evoting.it
        Validity
            Not Before: Aug 26 15:16:47 2022 GMT
            Not After : Aug 26 15:16:47 2023 GMT
        Subject: CN=Regione Sardegna, C=IT, ST=Italia, O=E-Voting system, OU=E-Voting system authority/emailAddress=Sardegna@evoting.it
        Subject Public Key Info:
            Public Key Algorithm: id-ecPublicKey
                Public-Key: (256 bit)
                pub:
                    04:e8:aa:52:6c:46:a0:11:ec:88:dc:fc:b9:db:93:
                    8b:37:c7:d2:6f:1f:39:4f:92:96:75:86:74:4f:4a:
                    55:0d:33:e1:29:ca:b0:1f:f8:df:1e:3a:2d:4f:f1:
                    49:64:29:36:81:a7:0a:63:9f:f6:96:4d:34:9a:3f:
                    c8:c5:78:ed:8d
                ASN1 OID: secp256k1
        X509v3 extensions:
            X509v3 Key Usage: critical
                Digital Signature, Key Encipherment
            X509v3 Basic Constraints: critical
                CA:TRUE, pathlen:2
    Signature Algorithm: ecdsa-with-SHA256
         30:46:02:21:00:e6:12:be:6a:5b:f1:c0:a9:25:ac:0e:6a:76:
         46:1b:38:e4:a5:f4:5d:25:ae:89:4c:7f:06:ea:d0:e3:3e:53:
         e4:02:21:00:d6:c5:11:46:73:9c:9a:97:dd:de:75:f1:5d:77:
         ab:05:53:81:07:7a:65:80:0e:bd:a8:b3:59:b7:9a:55:ef:8f
-----BEGIN CERTIFICATE-----
MIICYDCCAgWgAwIBAgIBAzAKBggqhkjOPQQDAjCBsDEeMBwGA1UEAwwVTWluaXN0
ZXJvIGRlbGxJbnRlcm5vMQswCQYDVQQGEwJJVDEPMA0GA1UECAwGSXRhbGlhMQ0w
CwYDVQQHDARST01BMRgwFgYDVQQKDA9FLVZvdGluZyBzeXN0ZW0xIjAgBgNVBAsM
GUUtVm90aW5nIHN5c3RlbSBhdXRob3JpdHkxIzAhBgkqhkiG9w0BCQEWFG1pbmlz
dGVyb0Bldm90aW5nLml0MB4XDTIyMDgyNjE1MTY0N1oXDTIzMDgyNjE1MTY0N1ow
gZsxGTAXBgNVBAMMEFJlZ2lvbmUgU2FyZGVnbmExCzAJBgNVBAYTAklUMQ8wDQYD
VQQIDAZJdGFsaWExGDAWBgNVBAoMD0UtVm90aW5nIHN5c3RlbTEiMCAGA1UECwwZ
RS1Wb3Rpbmcgc3lzdGVtIGF1dGhvcml0eTEiMCAGCSqGSIb3DQEJARYTU2FyZGVn
bmFAZXZvdGluZy5pdDBWMBAGByqGSM49AgEGBSuBBAAKA0IABOiqUmxGoBHsiNz8
uduTizfH0m8fOU+SlnWGdE9KVQ0z4SnKsB/43x46LU/xSWQpNoGnCmOf9pZNNJo/
yMV47Y2jJjAkMA4GA1UdDwEB/wQEAwIFoDASBgNVHRMBAf8ECDAGAQH/AgECMAoG
CCqGSM49BAMCA0kAMEYCIQDmEr5qW/HAqSWsDmp2Rhs45KX0XSWuiUx/BurQ4z5T
5AIhANbFEUZznJqX3d518V13qwVTgQd6ZYAOvaizWbeaVe+P
-----END CERTIFICATE-----
