Certificate:
    Data:
        Version: 3 (0x2)
        Serial Number: 12 (0xc)
        Signature Algorithm: ecdsa-with-SHA256
        Issuer: CN=Ministero dellInterno, C=IT, ST=Italia, L=ROMA, O=E-Voting system, OU=E-Voting system authority/emailAddress=ministero@evoting.it
        Validity
            Not Before: Aug 26 15:16:49 2022 GMT
            Not After : Aug 26 15:16:49 2023 GMT
        Subject: CN=Regione Sicilia, C=IT, ST=Italia, O=E-Voting system, OU=E-Voting system authority/emailAddress=Sicilia@evoting.it
        Subject Public Key Info:
            Public Key Algorithm: id-ecPublicKey
                Public-Key: (256 bit)
                pub:
                    04:f0:d3:d3:44:a9:c7:2e:32:d7:3e:6b:23:25:05:
                    38:fd:dd:1f:ea:40:d6:31:42:0d:e8:10:30:5c:27:
                    f9:d0:7d:00:75:a1:46:5e:69:77:22:df:38:5f:14:
                    29:e4:02:1f:24:a5:06:a8:cc:4a:8b:7d:bd:50:02:
                    2e:b3:6e:f1:9b
                ASN1 OID: secp256k1
        X509v3 extensions:
            X509v3 Key Usage: critical
                Digital Signature, Key Encipherment
            X509v3 Basic Constraints: critical
                CA:TRUE, pathlen:2
    Signature Algorithm: ecdsa-with-SHA256
         30:45:02:21:00:8d:33:83:fd:6b:cf:7f:66:38:2f:d2:08:49:
         60:39:45:bd:85:55:34:2b:90:27:9a:ab:7e:40:68:12:89:5b:
         ba:02:20:63:b2:d1:75:bd:4d:a8:52:9c:f7:e7:94:b8:cd:d1:
         21:4e:5d:db:83:38:31:45:12:d5:d8:ec:d2:fa:22:66:76
-----BEGIN CERTIFICATE-----
MIICXTCCAgOgAwIBAgIBDDAKBggqhkjOPQQDAjCBsDEeMBwGA1UEAwwVTWluaXN0
ZXJvIGRlbGxJbnRlcm5vMQswCQYDVQQGEwJJVDEPMA0GA1UECAwGSXRhbGlhMQ0w
CwYDVQQHDARST01BMRgwFgYDVQQKDA9FLVZvdGluZyBzeXN0ZW0xIjAgBgNVBAsM
GUUtVm90aW5nIHN5c3RlbSBhdXRob3JpdHkxIzAhBgkqhkiG9w0BCQEWFG1pbmlz
dGVyb0Bldm90aW5nLml0MB4XDTIyMDgyNjE1MTY0OVoXDTIzMDgyNjE1MTY0OVow
gZkxGDAWBgNVBAMMD1JlZ2lvbmUgU2ljaWxpYTELMAkGA1UEBhMCSVQxDzANBgNV
BAgMBkl0YWxpYTEYMBYGA1UECgwPRS1Wb3Rpbmcgc3lzdGVtMSIwIAYDVQQLDBlF
LVZvdGluZyBzeXN0ZW0gYXV0aG9yaXR5MSEwHwYJKoZIhvcNAQkBFhJTaWNpbGlh
QGV2b3RpbmcuaXQwVjAQBgcqhkjOPQIBBgUrgQQACgNCAATw09NEqccuMtc+ayMl
BTj93R/qQNYxQg3oEDBcJ/nQfQB1oUZeaXci3zhfFCnkAh8kpQaozEqLfb1QAi6z
bvGboyYwJDAOBgNVHQ8BAf8EBAMCBaAwEgYDVR0TAQH/BAgwBgEB/wIBAjAKBggq
hkjOPQQDAgNIADBFAiEAjTOD/WvPf2Y4L9IISWA5Rb2FVTQrkCeaq35AaBKJW7oC
IGOy0XW9TahSnPfnlLjN0SFOXduDODFFEtXY7NL6ImZ2
-----END CERTIFICATE-----
