Certificate:
    Data:
        Version: 3 (0x2)
        Serial Number: 2 (0x2)
        Signature Algorithm: ecdsa-with-SHA256
        Issuer: CN=Ministero dellInterno, C=IT, ST=Italia, L=ROMA, O=E-Voting system, OU=E-Voting system authority/emailAddress=ministero@evoting.it
        Validity
            Not Before: Aug  3 13:24:14 2022 GMT
            Not After : Aug  3 13:24:14 2023 GMT
        Subject: CN=Regione Sicilia, C=IT, ST=Italia, O=E-Voting system, OU=E-Voting system authority/emailAddress=Sicilia@evoting.it
        Subject Public Key Info:
            Public Key Algorithm: id-ecPublicKey
                Public-Key: (256 bit)
                pub:
                    04:10:5d:90:e1:3e:4f:4b:74:2e:73:63:09:7f:d3:
                    a6:f9:3b:79:b6:1f:c1:05:38:20:d5:f6:de:2e:28:
                    fe:af:a5:85:f0:b5:80:88:2f:cf:18:51:bf:f4:46:
                    eb:bc:18:9c:f4:21:d0:52:7c:e1:ba:25:d3:d4:6a:
                    c1:09:4e:7f:72
                ASN1 OID: prime256v1
                NIST CURVE: P-256
        X509v3 extensions:
            X509v3 Key Usage: critical
                Digital Signature, Key Encipherment
            X509v3 Basic Constraints: critical
                CA:TRUE, pathlen:2
    Signature Algorithm: ecdsa-with-SHA256
         30:45:02:21:00:c9:37:cf:a6:b7:87:15:70:49:b0:73:ba:ee:
         13:24:8a:70:4e:08:f3:77:89:e8:8f:87:32:5e:28:67:2a:1d:
         b6:02:20:0e:34:51:c9:5d:84:62:53:fe:35:bf:82:20:a6:a7:
         86:95:94:14:aa:81:53:c2:f9:c3:82:ab:0a:22:c0:d3:25
-----BEGIN CERTIFICATE-----
MIICYDCCAgagAwIBAgIBAjAKBggqhkjOPQQDAjCBsDEeMBwGA1UEAwwVTWluaXN0
ZXJvIGRlbGxJbnRlcm5vMQswCQYDVQQGEwJJVDEPMA0GA1UECAwGSXRhbGlhMQ0w
CwYDVQQHDARST01BMRgwFgYDVQQKDA9FLVZvdGluZyBzeXN0ZW0xIjAgBgNVBAsM
GUUtVm90aW5nIHN5c3RlbSBhdXRob3JpdHkxIzAhBgkqhkiG9w0BCQEWFG1pbmlz
dGVyb0Bldm90aW5nLml0MB4XDTIyMDgwMzEzMjQxNFoXDTIzMDgwMzEzMjQxNFow
gZkxGDAWBgNVBAMMD1JlZ2lvbmUgU2ljaWxpYTELMAkGA1UEBhMCSVQxDzANBgNV
BAgMBkl0YWxpYTEYMBYGA1UECgwPRS1Wb3Rpbmcgc3lzdGVtMSIwIAYDVQQLDBlF
LVZvdGluZyBzeXN0ZW0gYXV0aG9yaXR5MSEwHwYJKoZIhvcNAQkBFhJTaWNpbGlh
QGV2b3RpbmcuaXQwWTATBgcqhkjOPQIBBggqhkjOPQMBBwNCAAQQXZDhPk9LdC5z
Ywl/06b5O3m2H8EFOCDV9t4uKP6vpYXwtYCIL88YUb/0Ruu8GJz0IdBSfOG6JdPU
asEJTn9yoyYwJDAOBgNVHQ8BAf8EBAMCBaAwEgYDVR0TAQH/BAgwBgEB/wIBAjAK
BggqhkjOPQQDAgNIADBFAiEAyTfPpreHFXBJsHO67hMkinBOCPN3ieiPhzJeKGcq
HbYCIA40UcldhGJT/jW/giCmp4aVlBSqgVPC+cOCqwoiwNMl
-----END CERTIFICATE-----
