Certificate:
    Data:
        Version: 3 (0x2)
        Serial Number: 20 (0x14)
        Signature Algorithm: ecdsa-with-SHA256
        Issuer: CN=Ministero dellInterno, C=IT, ST=Italia, L=ROMA, O=E-Voting system, OU=E-Voting system authority/emailAddress=ministero@evoting.it
        Validity
            Not Before: Aug 26 15:16:50 2022 GMT
            Not After : Aug 26 15:16:50 2023 GMT
        Subject: CN=Regione Toscana, C=IT, ST=Italia, O=E-Voting system, OU=E-Voting system authority/emailAddress=Toscana@evoting.it
        Subject Public Key Info:
            Public Key Algorithm: id-ecPublicKey
                Public-Key: (256 bit)
                pub:
                    04:e7:47:b0:6f:f8:71:4c:f5:16:59:62:44:98:9e:
                    26:fc:09:8c:82:40:e1:8d:5b:d4:2b:a3:c0:8b:4e:
                    04:25:69:de:7c:fa:c1:9b:8f:2b:dc:83:6d:5c:d6:
                    6b:fc:b6:45:5f:57:21:e0:f7:61:28:ce:76:af:f8:
                    b4:f4:1f:67:ca
                ASN1 OID: secp256k1
        X509v3 extensions:
            X509v3 Key Usage: critical
                Digital Signature, Key Encipherment
            X509v3 Basic Constraints: critical
                CA:TRUE, pathlen:2
    Signature Algorithm: ecdsa-with-SHA256
         30:44:02:20:52:76:de:64:c3:ef:16:29:04:d4:15:c6:83:2a:
         33:9b:ee:88:1d:b6:08:f8:12:3a:b8:14:16:7f:1e:d0:52:c3:
         02:20:7e:6b:fe:92:94:6a:4c:df:68:19:ab:a2:fb:4c:d1:3c:
         ad:80:d2:a9:9c:c9:ec:29:db:5b:01:bb:20:34:c6:5c
-----BEGIN CERTIFICATE-----
MIICXDCCAgOgAwIBAgIBFDAKBggqhkjOPQQDAjCBsDEeMBwGA1UEAwwVTWluaXN0
ZXJvIGRlbGxJbnRlcm5vMQswCQYDVQQGEwJJVDEPMA0GA1UECAwGSXRhbGlhMQ0w
CwYDVQQHDARST01BMRgwFgYDVQQKDA9FLVZvdGluZyBzeXN0ZW0xIjAgBgNVBAsM
GUUtVm90aW5nIHN5c3RlbSBhdXRob3JpdHkxIzAhBgkqhkiG9w0BCQEWFG1pbmlz
dGVyb0Bldm90aW5nLml0MB4XDTIyMDgyNjE1MTY1MFoXDTIzMDgyNjE1MTY1MFow
gZkxGDAWBgNVBAMMD1JlZ2lvbmUgVG9zY2FuYTELMAkGA1UEBhMCSVQxDzANBgNV
BAgMBkl0YWxpYTEYMBYGA1UECgwPRS1Wb3Rpbmcgc3lzdGVtMSIwIAYDVQQLDBlF
LVZvdGluZyBzeXN0ZW0gYXV0aG9yaXR5MSEwHwYJKoZIhvcNAQkBFhJUb3NjYW5h
QGV2b3RpbmcuaXQwVjAQBgcqhkjOPQIBBgUrgQQACgNCAATnR7Bv+HFM9RZZYkSY
nib8CYyCQOGNW9Qro8CLTgQlad58+sGbjyvcg21c1mv8tkVfVyHg92Eoznav+LT0
H2fKoyYwJDAOBgNVHQ8BAf8EBAMCBaAwEgYDVR0TAQH/BAgwBgEB/wIBAjAKBggq
hkjOPQQDAgNHADBEAiBSdt5kw+8WKQTUFcaDKjOb7ogdtgj4Ejq4FBZ/HtBSwwIg
fmv+kpRqTN9oGaui+0zRPK2A0qmcyewp21sBuyA0xlw=
-----END CERTIFICATE-----
