Certificate:
    Data:
        Version: 3 (0x2)
        Serial Number: 9 (0x9)
        Signature Algorithm: ecdsa-with-SHA256
        Issuer: CN=Ministero dellInterno, C=IT, ST=Italia, L=ROMA, O=E-Voting system, OU=E-Voting system authority/emailAddress=ministero@evoting.it
        Validity
            Not Before: Aug 26 15:16:48 2022 GMT
            Not After : Aug 26 15:16:48 2023 GMT
        Subject: CN=Regione Trentino_Alto_Adige, C=IT, ST=Italia, O=E-Voting system, OU=E-Voting system authority/emailAddress=Trentino_Alto_Adige@evoting.it
        Subject Public Key Info:
            Public Key Algorithm: id-ecPublicKey
                Public-Key: (256 bit)
                pub:
                    04:60:c4:07:6d:22:8a:20:1b:a3:06:da:b5:13:43:
                    c7:7c:41:34:9d:04:10:96:a8:39:b4:cb:2a:9b:a0:
                    9d:7b:ab:f3:93:f6:37:7c:59:b7:bd:7b:4c:b6:91:
                    75:dd:52:b4:dc:1d:a0:37:5b:a7:f9:75:4f:94:b3:
                    4b:a9:5a:53:b7
                ASN1 OID: secp256k1
        X509v3 extensions:
            X509v3 Key Usage: critical
                Digital Signature, Key Encipherment
            X509v3 Basic Constraints: critical
                CA:TRUE, pathlen:2
    Signature Algorithm: ecdsa-with-SHA256
         30:44:02:20:4f:2a:85:77:46:9e:a5:71:58:75:5f:75:2b:ea:
         3c:91:4e:c5:61:e7:bc:00:68:40:2f:27:42:bd:9b:e6:b5:12:
         02:20:4c:e6:68:ff:4a:9f:89:66:06:4b:90:7a:32:f0:d7:e5:
         a3:30:27:ac:e2:2d:14:80:86:ef:ee:bb:e8:0f:b1:43
-----BEGIN CERTIFICATE-----
MIICdDCCAhugAwIBAgIBCTAKBggqhkjOPQQDAjCBsDEeMBwGA1UEAwwVTWluaXN0
ZXJvIGRlbGxJbnRlcm5vMQswCQYDVQQGEwJJVDEPMA0GA1UECAwGSXRhbGlhMQ0w
CwYDVQQHDARST01BMRgwFgYDVQQKDA9FLVZvdGluZyBzeXN0ZW0xIjAgBgNVBAsM
GUUtVm90aW5nIHN5c3RlbSBhdXRob3JpdHkxIzAhBgkqhkiG9w0BCQEWFG1pbmlz
dGVyb0Bldm90aW5nLml0MB4XDTIyMDgyNjE1MTY0OFoXDTIzMDgyNjE1MTY0OFow
gbExJDAiBgNVBAMMG1JlZ2lvbmUgVHJlbnRpbm9fQWx0b19BZGlnZTELMAkGA1UE
BhMCSVQxDzANBgNVBAgMBkl0YWxpYTEYMBYGA1UECgwPRS1Wb3Rpbmcgc3lzdGVt
MSIwIAYDVQQLDBlFLVZvdGluZyBzeXN0ZW0gYXV0aG9yaXR5MS0wKwYJKoZIhvcN
AQkBFh5UcmVudGlub19BbHRvX0FkaWdlQGV2b3RpbmcuaXQwVjAQBgcqhkjOPQIB
BgUrgQQACgNCAARgxAdtIoogG6MG2rUTQ8d8QTSdBBCWqDm0yyqboJ17q/OT9jd8
Wbe9e0y2kXXdUrTcHaA3W6f5dU+Us0upWlO3oyYwJDAOBgNVHQ8BAf8EBAMCBaAw
EgYDVR0TAQH/BAgwBgEB/wIBAjAKBggqhkjOPQQDAgNHADBEAiBPKoV3Rp6lcVh1
X3Ur6jyRTsVh57wAaEAvJ0K9m+a1EgIgTOZo/0qfiWYGS5B6MvDX5aMwJ6ziLRSA
hu/uu+gPsUM=
-----END CERTIFICATE-----
